ARM GAS  /var/folders/g1/j12m_ky910s3_sv7d4yrsdn00000gn/T//cc7wZRgv.s 			page 1


   1              		.cpu cortex-m7
   2              		.arch armv7e-m
   3              		.fpu fpv5-d16
   4              		.eabi_attribute 28, 1
   5              		.eabi_attribute 20, 1
   6              		.eabi_attribute 21, 1
   7              		.eabi_attribute 23, 3
   8              		.eabi_attribute 24, 1
   9              		.eabi_attribute 25, 1
  10              		.eabi_attribute 26, 1
  11              		.eabi_attribute 30, 6
  12              		.eabi_attribute 34, 1
  13              		.eabi_attribute 18, 4
  14              		.file	"gpio.c"
  15              		.text
  16              	.Ltext0:
  17              		.cfi_sections	.debug_frame
  18              		.file 1 "Core/Src/gpio.c"
  19              		.section	.text.MX_GPIO_Init,"ax",%progbits
  20              		.align	1
  21              		.global	MX_GPIO_Init
  22              		.syntax unified
  23              		.thumb
  24              		.thumb_func
  26              	MX_GPIO_Init:
  27              	.LFB144:
   1:Core/Src/gpio.c **** /* USER CODE BEGIN Header */
   2:Core/Src/gpio.c **** /**
   3:Core/Src/gpio.c ****   ******************************************************************************
   4:Core/Src/gpio.c ****   * @file    gpio.c
   5:Core/Src/gpio.c ****   * @brief   This file provides code for the configuration
   6:Core/Src/gpio.c ****   *          of all used GPIO pins.
   7:Core/Src/gpio.c ****   ******************************************************************************
   8:Core/Src/gpio.c ****   * @attention
   9:Core/Src/gpio.c ****   *
  10:Core/Src/gpio.c ****   * Copyright (c) 2025 STMicroelectronics.
  11:Core/Src/gpio.c ****   * All rights reserved.
  12:Core/Src/gpio.c ****   *
  13:Core/Src/gpio.c ****   * This software is licensed under terms that can be found in the LICENSE file
  14:Core/Src/gpio.c ****   * in the root directory of this software component.
  15:Core/Src/gpio.c ****   * If no LICENSE file comes with this software, it is provided AS-IS.
  16:Core/Src/gpio.c ****   *
  17:Core/Src/gpio.c ****   ******************************************************************************
  18:Core/Src/gpio.c ****   */
  19:Core/Src/gpio.c **** /* USER CODE END Header */
  20:Core/Src/gpio.c **** 
  21:Core/Src/gpio.c **** /* Includes ------------------------------------------------------------------*/
  22:Core/Src/gpio.c **** #include "gpio.h"
  23:Core/Src/gpio.c **** 
  24:Core/Src/gpio.c **** /* USER CODE BEGIN 0 */
  25:Core/Src/gpio.c **** 
  26:Core/Src/gpio.c **** /* USER CODE END 0 */
  27:Core/Src/gpio.c **** 
  28:Core/Src/gpio.c **** /*----------------------------------------------------------------------------*/
  29:Core/Src/gpio.c **** /* Configure GPIO                                                             */
  30:Core/Src/gpio.c **** /*----------------------------------------------------------------------------*/
  31:Core/Src/gpio.c **** /* USER CODE BEGIN 1 */
ARM GAS  /var/folders/g1/j12m_ky910s3_sv7d4yrsdn00000gn/T//cc7wZRgv.s 			page 2


  32:Core/Src/gpio.c **** 
  33:Core/Src/gpio.c **** /* USER CODE END 1 */
  34:Core/Src/gpio.c **** 
  35:Core/Src/gpio.c **** /** Configure pins
  36:Core/Src/gpio.c ****      PA13 (JTMS/SWDIO)   ------> DEBUG_JTMS-SWDIO
  37:Core/Src/gpio.c ****      PA14 (JTCK/SWCLK)   ------> DEBUG_JTCK-SWCLK
  38:Core/Src/gpio.c **** */
  39:Core/Src/gpio.c **** void MX_GPIO_Init(void)
  40:Core/Src/gpio.c **** {
  28              		.loc 1 40 1
  29              		.cfi_startproc
  30              		@ args = 0, pretend = 0, frame = 32
  31              		@ frame_needed = 1, uses_anonymous_args = 0
  32 0000 80B5     		push	{r7, lr}
  33              	.LCFI0:
  34              		.cfi_def_cfa_offset 8
  35              		.cfi_offset 7, -8
  36              		.cfi_offset 14, -4
  37 0002 88B0     		sub	sp, sp, #32
  38              	.LCFI1:
  39              		.cfi_def_cfa_offset 40
  40 0004 00AF     		add	r7, sp, #0
  41              	.LCFI2:
  42              		.cfi_def_cfa_register 7
  41:Core/Src/gpio.c **** 
  42:Core/Src/gpio.c ****   GPIO_InitTypeDef GPIO_InitStruct = {0};
  43              		.loc 1 42 20
  44 0006 07F10C03 		add	r3, r7, #12
  45 000a 0022     		movs	r2, #0
  46 000c 1A60     		str	r2, [r3]
  47 000e 5A60     		str	r2, [r3, #4]
  48 0010 9A60     		str	r2, [r3, #8]
  49 0012 DA60     		str	r2, [r3, #12]
  50 0014 1A61     		str	r2, [r3, #16]
  51              	.LBB2:
  43:Core/Src/gpio.c **** 
  44:Core/Src/gpio.c ****   /* GPIO Ports Clock Enable */
  45:Core/Src/gpio.c ****   __HAL_RCC_GPIOC_CLK_ENABLE();
  52              		.loc 1 45 3
  53 0016 1A4B     		ldr	r3, .L2
  54 0018 D3F8E030 		ldr	r3, [r3, #224]
  55 001c 184A     		ldr	r2, .L2
  56 001e 43F00403 		orr	r3, r3, #4
  57 0022 C2F8E030 		str	r3, [r2, #224]
  58 0026 164B     		ldr	r3, .L2
  59 0028 D3F8E030 		ldr	r3, [r3, #224]
  60 002c 03F00403 		and	r3, r3, #4
  61 0030 BB60     		str	r3, [r7, #8]
  62 0032 BB68     		ldr	r3, [r7, #8]
  63              	.LBE2:
  64              	.LBB3:
  46:Core/Src/gpio.c ****   __HAL_RCC_GPIOA_CLK_ENABLE();
  65              		.loc 1 46 3
  66 0034 124B     		ldr	r3, .L2
  67 0036 D3F8E030 		ldr	r3, [r3, #224]
  68 003a 114A     		ldr	r2, .L2
  69 003c 43F00103 		orr	r3, r3, #1
ARM GAS  /var/folders/g1/j12m_ky910s3_sv7d4yrsdn00000gn/T//cc7wZRgv.s 			page 3


  70 0040 C2F8E030 		str	r3, [r2, #224]
  71 0044 0E4B     		ldr	r3, .L2
  72 0046 D3F8E030 		ldr	r3, [r3, #224]
  73 004a 03F00103 		and	r3, r3, #1
  74 004e 7B60     		str	r3, [r7, #4]
  75 0050 7B68     		ldr	r3, [r7, #4]
  76              	.LBE3:
  47:Core/Src/gpio.c **** 
  48:Core/Src/gpio.c ****   /*Configure GPIO pin Output Level */
  49:Core/Src/gpio.c ****   HAL_GPIO_WritePin(GPIOC, GPIO_PIN_1, GPIO_PIN_SET);
  77              		.loc 1 49 3
  78 0052 0122     		movs	r2, #1
  79 0054 0221     		movs	r1, #2
  80 0056 0B48     		ldr	r0, .L2+4
  81 0058 FFF7FEFF 		bl	HAL_GPIO_WritePin
  50:Core/Src/gpio.c **** 
  51:Core/Src/gpio.c ****   /*Configure GPIO pin : PC1 */
  52:Core/Src/gpio.c ****   GPIO_InitStruct.Pin = GPIO_PIN_1;
  82              		.loc 1 52 23
  83 005c 0223     		movs	r3, #2
  84 005e FB60     		str	r3, [r7, #12]
  53:Core/Src/gpio.c ****   GPIO_InitStruct.Mode = GPIO_MODE_OUTPUT_OD;
  85              		.loc 1 53 24
  86 0060 1123     		movs	r3, #17
  87 0062 3B61     		str	r3, [r7, #16]
  54:Core/Src/gpio.c ****   GPIO_InitStruct.Pull = GPIO_NOPULL;
  88              		.loc 1 54 24
  89 0064 0023     		movs	r3, #0
  90 0066 7B61     		str	r3, [r7, #20]
  55:Core/Src/gpio.c ****   GPIO_InitStruct.Speed = GPIO_SPEED_FREQ_LOW;
  91              		.loc 1 55 25
  92 0068 0023     		movs	r3, #0
  93 006a BB61     		str	r3, [r7, #24]
  56:Core/Src/gpio.c ****   HAL_GPIO_Init(GPIOC, &GPIO_InitStruct);
  94              		.loc 1 56 3
  95 006c 07F10C03 		add	r3, r7, #12
  96 0070 1946     		mov	r1, r3
  97 0072 0448     		ldr	r0, .L2+4
  98 0074 FFF7FEFF 		bl	HAL_GPIO_Init
  57:Core/Src/gpio.c **** 
  58:Core/Src/gpio.c **** }
  99              		.loc 1 58 1
 100 0078 00BF     		nop
 101 007a 2037     		adds	r7, r7, #32
 102              	.LCFI3:
 103              		.cfi_def_cfa_offset 8
 104 007c BD46     		mov	sp, r7
 105              	.LCFI4:
 106              		.cfi_def_cfa_register 13
 107              		@ sp needed
 108 007e 80BD     		pop	{r7, pc}
 109              	.L3:
 110              		.align	2
 111              	.L2:
 112 0080 00440258 		.word	1476543488
 113 0084 00080258 		.word	1476528128
 114              		.cfi_endproc
ARM GAS  /var/folders/g1/j12m_ky910s3_sv7d4yrsdn00000gn/T//cc7wZRgv.s 			page 4


 115              	.LFE144:
 117              		.text
 118              	.Letext0:
 119              		.file 2 "/Users/zhy/Tools/xpack-arm-none-eabi-gcc-14.2.1-1.1/arm-none-eabi/include/machine/_defaul
 120              		.file 3 "/Users/zhy/Tools/xpack-arm-none-eabi-gcc-14.2.1-1.1/arm-none-eabi/include/sys/_stdint.h"
 121              		.file 4 "Drivers/CMSIS/Device/ST/STM32H7xx/Include/stm32h743xx.h"
 122              		.file 5 "Drivers/STM32H7xx_HAL_Driver/Inc/stm32h7xx_hal_gpio.h"
ARM GAS  /var/folders/g1/j12m_ky910s3_sv7d4yrsdn00000gn/T//cc7wZRgv.s 			page 5

