ARM GAS  /var/folders/g1/j12m_ky910s3_sv7d4yrsdn00000gn/T//ccW7oTPr.s 			page 1


   1              		.cpu cortex-m7
   2              		.arch armv7e-m
   3              		.fpu fpv5-d16
   4              		.eabi_attribute 28, 1
   5              		.eabi_attribute 20, 1
   6              		.eabi_attribute 21, 1
   7              		.eabi_attribute 23, 3
   8              		.eabi_attribute 24, 1
   9              		.eabi_attribute 25, 1
  10              		.eabi_attribute 26, 1
  11              		.eabi_attribute 30, 6
  12              		.eabi_attribute 34, 1
  13              		.eabi_attribute 18, 4
  14              		.file	"stm32h7xx_hal_mdma.c"
  15              		.text
  16              	.Ltext0:
  17              		.cfi_sections	.debug_frame
  18              		.file 1 "Drivers/STM32H7xx_HAL_Driver/Src/stm32h7xx_hal_mdma.c"
  19              		.section	.text.HAL_MDMA_Init,"ax",%progbits
  20              		.align	1
  21              		.global	HAL_MDMA_Init
  22              		.syntax unified
  23              		.thumb
  24              		.thumb_func
  26              	HAL_MDMA_Init:
  27              	.LFB144:
   1:Drivers/STM32H7xx_HAL_Driver/Src/stm32h7xx_hal_mdma.c **** /**
   2:Drivers/STM32H7xx_HAL_Driver/Src/stm32h7xx_hal_mdma.c ****   ******************************************************************************
   3:Drivers/STM32H7xx_HAL_Driver/Src/stm32h7xx_hal_mdma.c ****   * @file    stm32h7xx_hal_mdma.c
   4:Drivers/STM32H7xx_HAL_Driver/Src/stm32h7xx_hal_mdma.c ****   * @author  MCD Application Team
   5:Drivers/STM32H7xx_HAL_Driver/Src/stm32h7xx_hal_mdma.c ****   * @brief  This file provides firmware functions to manage the following
   6:Drivers/STM32H7xx_HAL_Driver/Src/stm32h7xx_hal_mdma.c ****   *         functionalities of the Master Direct Memory Access (MDMA) peripheral:
   7:Drivers/STM32H7xx_HAL_Driver/Src/stm32h7xx_hal_mdma.c ****   *           + Initialization/de-initialization functions
   8:Drivers/STM32H7xx_HAL_Driver/Src/stm32h7xx_hal_mdma.c ****   *           + I/O operation functions
   9:Drivers/STM32H7xx_HAL_Driver/Src/stm32h7xx_hal_mdma.c ****   *           + Peripheral State and errors functions
  10:Drivers/STM32H7xx_HAL_Driver/Src/stm32h7xx_hal_mdma.c ****   ******************************************************************************
  11:Drivers/STM32H7xx_HAL_Driver/Src/stm32h7xx_hal_mdma.c ****   * @attention
  12:Drivers/STM32H7xx_HAL_Driver/Src/stm32h7xx_hal_mdma.c ****   *
  13:Drivers/STM32H7xx_HAL_Driver/Src/stm32h7xx_hal_mdma.c ****   * Copyright (c) 2017 STMicroelectronics.
  14:Drivers/STM32H7xx_HAL_Driver/Src/stm32h7xx_hal_mdma.c ****   * All rights reserved.
  15:Drivers/STM32H7xx_HAL_Driver/Src/stm32h7xx_hal_mdma.c ****   *
  16:Drivers/STM32H7xx_HAL_Driver/Src/stm32h7xx_hal_mdma.c ****   * This software is licensed under terms that can be found in the LICENSE file
  17:Drivers/STM32H7xx_HAL_Driver/Src/stm32h7xx_hal_mdma.c ****   * in the root directory of this software component.
  18:Drivers/STM32H7xx_HAL_Driver/Src/stm32h7xx_hal_mdma.c ****   * If no LICENSE file comes with this software, it is provided AS-IS.
  19:Drivers/STM32H7xx_HAL_Driver/Src/stm32h7xx_hal_mdma.c ****   *
  20:Drivers/STM32H7xx_HAL_Driver/Src/stm32h7xx_hal_mdma.c ****   ******************************************************************************
  21:Drivers/STM32H7xx_HAL_Driver/Src/stm32h7xx_hal_mdma.c ****   @verbatim
  22:Drivers/STM32H7xx_HAL_Driver/Src/stm32h7xx_hal_mdma.c ****   ==============================================================================
  23:Drivers/STM32H7xx_HAL_Driver/Src/stm32h7xx_hal_mdma.c ****                         ##### How to use this driver #####
  24:Drivers/STM32H7xx_HAL_Driver/Src/stm32h7xx_hal_mdma.c ****   ==============================================================================
  25:Drivers/STM32H7xx_HAL_Driver/Src/stm32h7xx_hal_mdma.c ****   [..]
  26:Drivers/STM32H7xx_HAL_Driver/Src/stm32h7xx_hal_mdma.c ****    (#) Enable and configure the peripheral to be connected to the MDMA Channel
  27:Drivers/STM32H7xx_HAL_Driver/Src/stm32h7xx_hal_mdma.c ****        (except for internal SRAM/FLASH memories: no initialization is
  28:Drivers/STM32H7xx_HAL_Driver/Src/stm32h7xx_hal_mdma.c ****        necessary) please refer to Reference manual for connection between peripherals
  29:Drivers/STM32H7xx_HAL_Driver/Src/stm32h7xx_hal_mdma.c ****        and MDMA requests.
  30:Drivers/STM32H7xx_HAL_Driver/Src/stm32h7xx_hal_mdma.c **** 
  31:Drivers/STM32H7xx_HAL_Driver/Src/stm32h7xx_hal_mdma.c ****    (#)
ARM GAS  /var/folders/g1/j12m_ky910s3_sv7d4yrsdn00000gn/T//ccW7oTPr.s 			page 2


  32:Drivers/STM32H7xx_HAL_Driver/Src/stm32h7xx_hal_mdma.c ****        For a given Channel use HAL_MDMA_Init function to program the required configuration through
  33:Drivers/STM32H7xx_HAL_Driver/Src/stm32h7xx_hal_mdma.c ****        transfer request , channel priority, data endianness, Source increment, destination incremen
  34:Drivers/STM32H7xx_HAL_Driver/Src/stm32h7xx_hal_mdma.c ****        source data size, destination data size, data alignment, source Burst, destination Burst ,
  35:Drivers/STM32H7xx_HAL_Driver/Src/stm32h7xx_hal_mdma.c ****        buffer Transfer Length, Transfer Trigger Mode (buffer transfer, block transfer, repeated blo
  36:Drivers/STM32H7xx_HAL_Driver/Src/stm32h7xx_hal_mdma.c ****        or full transfer) source and destination block address offset, mask address and data.
  37:Drivers/STM32H7xx_HAL_Driver/Src/stm32h7xx_hal_mdma.c **** 
  38:Drivers/STM32H7xx_HAL_Driver/Src/stm32h7xx_hal_mdma.c ****        If using the MDMA in linked list mode then use function HAL_MDMA_LinkedList_CreateNode to fi
  39:Drivers/STM32H7xx_HAL_Driver/Src/stm32h7xx_hal_mdma.c ****        Note that parameters given to the function HAL_MDMA_Init corresponds always to the node zero
  40:Drivers/STM32H7xx_HAL_Driver/Src/stm32h7xx_hal_mdma.c ****        Use function HAL_MDMA_LinkedList_AddNode to connect the created node to the linked list at a
  41:Drivers/STM32H7xx_HAL_Driver/Src/stm32h7xx_hal_mdma.c ****        User can make a linked list circular using function HAL_MDMA_LinkedList_EnableCircularMode ,
  42:Drivers/STM32H7xx_HAL_Driver/Src/stm32h7xx_hal_mdma.c ****        last node of the list to the first one in order to make the list circular.
  43:Drivers/STM32H7xx_HAL_Driver/Src/stm32h7xx_hal_mdma.c ****        In this case the linked list will loop on node 1 : first node connected after the initial tr
  44:Drivers/STM32H7xx_HAL_Driver/Src/stm32h7xx_hal_mdma.c **** 
  45:Drivers/STM32H7xx_HAL_Driver/Src/stm32h7xx_hal_mdma.c ****       -@-   The initial transfer itself (node 0 corresponding to the Init).
  46:Drivers/STM32H7xx_HAL_Driver/Src/stm32h7xx_hal_mdma.c ****             User can disable the circular mode using function HAL_MDMA_LinkedList_DisableCircularMo
  47:Drivers/STM32H7xx_HAL_Driver/Src/stm32h7xx_hal_mdma.c ****             the connection between last node and first one.
  48:Drivers/STM32H7xx_HAL_Driver/Src/stm32h7xx_hal_mdma.c **** 
  49:Drivers/STM32H7xx_HAL_Driver/Src/stm32h7xx_hal_mdma.c ****        Function HAL_MDMA_LinkedList_RemoveNode can be used to remove (disconnect) a node from the t
  50:Drivers/STM32H7xx_HAL_Driver/Src/stm32h7xx_hal_mdma.c ****        When a linked list is circular (last node connected to first one), if removing node1  (node 
  51:Drivers/STM32H7xx_HAL_Driver/Src/stm32h7xx_hal_mdma.c ****        the linked list remains circular and node 2 becomes the first one.
  52:Drivers/STM32H7xx_HAL_Driver/Src/stm32h7xx_hal_mdma.c ****        Note that if the linked list is made circular the transfer will loop infinitely (or until ab
  53:Drivers/STM32H7xx_HAL_Driver/Src/stm32h7xx_hal_mdma.c **** 
  54:Drivers/STM32H7xx_HAL_Driver/Src/stm32h7xx_hal_mdma.c ****     [..]
  55:Drivers/STM32H7xx_HAL_Driver/Src/stm32h7xx_hal_mdma.c ****        (+) User can select the transfer trigger mode (parameter TransferTriggerMode) to define the 
  56:Drivers/STM32H7xx_HAL_Driver/Src/stm32h7xx_hal_mdma.c ****            transfer upon a request :
  57:Drivers/STM32H7xx_HAL_Driver/Src/stm32h7xx_hal_mdma.c ****              (++) MDMA_BUFFER_TRANSFER : each request triggers a transfer of BufferTransferLength d
  58:Drivers/STM32H7xx_HAL_Driver/Src/stm32h7xx_hal_mdma.c ****                with BufferTransferLength defined within the HAL_MDMA_Init.
  59:Drivers/STM32H7xx_HAL_Driver/Src/stm32h7xx_hal_mdma.c ****              (++) MDMA_BLOCK_TRANSFER : each request triggers a transfer of a block
  60:Drivers/STM32H7xx_HAL_Driver/Src/stm32h7xx_hal_mdma.c ****                with block size defined within the function HAL_MDMA_Start/HAL_MDMA_Start_IT
  61:Drivers/STM32H7xx_HAL_Driver/Src/stm32h7xx_hal_mdma.c ****                or within the current linked list node parameters.
  62:Drivers/STM32H7xx_HAL_Driver/Src/stm32h7xx_hal_mdma.c ****              (++) MDMA_REPEAT_BLOCK_TRANSFER : each request triggers a transfer of a number of bloc
  63:Drivers/STM32H7xx_HAL_Driver/Src/stm32h7xx_hal_mdma.c ****                with block size and number of blocks defined within the function HAL_MDMA_Start/HAL_
  64:Drivers/STM32H7xx_HAL_Driver/Src/stm32h7xx_hal_mdma.c ****                or within the current linked list node parameters.
  65:Drivers/STM32H7xx_HAL_Driver/Src/stm32h7xx_hal_mdma.c ****              (++) MDMA_FULL_TRANSFER : each request triggers a full transfer
  66:Drivers/STM32H7xx_HAL_Driver/Src/stm32h7xx_hal_mdma.c ****               all blocks and all nodes(if a linked list has been created using HAL_MDMA_LinkedList_
  67:Drivers/STM32H7xx_HAL_Driver/Src/stm32h7xx_hal_mdma.c **** 
  68:Drivers/STM32H7xx_HAL_Driver/Src/stm32h7xx_hal_mdma.c ****      *** Polling mode IO operation ***
  69:Drivers/STM32H7xx_HAL_Driver/Src/stm32h7xx_hal_mdma.c ****      =================================
  70:Drivers/STM32H7xx_HAL_Driver/Src/stm32h7xx_hal_mdma.c ****     [..]
  71:Drivers/STM32H7xx_HAL_Driver/Src/stm32h7xx_hal_mdma.c ****           (+) Use HAL_MDMA_Start() to start MDMA transfer after the configuration of Source
  72:Drivers/STM32H7xx_HAL_Driver/Src/stm32h7xx_hal_mdma.c ****               address and destination address and the Length of data to be transferred.
  73:Drivers/STM32H7xx_HAL_Driver/Src/stm32h7xx_hal_mdma.c ****           (+) Use HAL_MDMA_PollForTransfer() to poll for the end of current transfer or a transfer 
  74:Drivers/STM32H7xx_HAL_Driver/Src/stm32h7xx_hal_mdma.c ****              In this case a fixed Timeout can be configured by User depending from his application.
  75:Drivers/STM32H7xx_HAL_Driver/Src/stm32h7xx_hal_mdma.c ****           (+) Use HAL_MDMA_Abort() function to abort the current transfer : blocking method this AP
  76:Drivers/STM32H7xx_HAL_Driver/Src/stm32h7xx_hal_mdma.c ****               when the abort ends or timeout (should not be called from an interrupt service routin
  77:Drivers/STM32H7xx_HAL_Driver/Src/stm32h7xx_hal_mdma.c **** 
  78:Drivers/STM32H7xx_HAL_Driver/Src/stm32h7xx_hal_mdma.c ****      *** Interrupt mode IO operation ***
  79:Drivers/STM32H7xx_HAL_Driver/Src/stm32h7xx_hal_mdma.c ****      ===================================
  80:Drivers/STM32H7xx_HAL_Driver/Src/stm32h7xx_hal_mdma.c ****     [..]
  81:Drivers/STM32H7xx_HAL_Driver/Src/stm32h7xx_hal_mdma.c ****           (+) Configure the MDMA interrupt priority using HAL_NVIC_SetPriority()
  82:Drivers/STM32H7xx_HAL_Driver/Src/stm32h7xx_hal_mdma.c ****           (+) Enable the MDMA IRQ handler using HAL_NVIC_EnableIRQ()
  83:Drivers/STM32H7xx_HAL_Driver/Src/stm32h7xx_hal_mdma.c ****           (+) Use HAL_MDMA_Start_IT() to start MDMA transfer after the configuration of
  84:Drivers/STM32H7xx_HAL_Driver/Src/stm32h7xx_hal_mdma.c ****               Source address and destination address and the Length of data to be transferred. In t
  85:Drivers/STM32H7xx_HAL_Driver/Src/stm32h7xx_hal_mdma.c ****               case the MDMA interrupt is configured.
  86:Drivers/STM32H7xx_HAL_Driver/Src/stm32h7xx_hal_mdma.c ****           (+) Use HAL_MDMA_IRQHandler() called under MDMA_IRQHandler() Interrupt subroutine
  87:Drivers/STM32H7xx_HAL_Driver/Src/stm32h7xx_hal_mdma.c ****           (+) At the end of data transfer HAL_MDMA_IRQHandler() function is executed and user can
  88:Drivers/STM32H7xx_HAL_Driver/Src/stm32h7xx_hal_mdma.c ****               add his own function by customization of function pointer XferCpltCallback and
ARM GAS  /var/folders/g1/j12m_ky910s3_sv7d4yrsdn00000gn/T//ccW7oTPr.s 			page 3


  89:Drivers/STM32H7xx_HAL_Driver/Src/stm32h7xx_hal_mdma.c ****               XferErrorCallback (i.e a member of MDMA handle structure).
  90:Drivers/STM32H7xx_HAL_Driver/Src/stm32h7xx_hal_mdma.c **** 
  91:Drivers/STM32H7xx_HAL_Driver/Src/stm32h7xx_hal_mdma.c ****           (+) Use HAL_MDMA_Abort_IT() function to abort the current transfer : non-blocking method.
  92:Drivers/STM32H7xx_HAL_Driver/Src/stm32h7xx_hal_mdma.c ****               then the callback XferAbortCallback (if specified  by the user) is asserted once the 
  93:Drivers/STM32H7xx_HAL_Driver/Src/stm32h7xx_hal_mdma.c ****               (could be called from an interrupt service routine).
  94:Drivers/STM32H7xx_HAL_Driver/Src/stm32h7xx_hal_mdma.c **** 
  95:Drivers/STM32H7xx_HAL_Driver/Src/stm32h7xx_hal_mdma.c ****           (+) Use functions HAL_MDMA_RegisterCallback and HAL_MDMA_UnRegisterCallback respectevely 
  96:Drivers/STM32H7xx_HAL_Driver/Src/stm32h7xx_hal_mdma.c ****               from the following list :
  97:Drivers/STM32H7xx_HAL_Driver/Src/stm32h7xx_hal_mdma.c ****               (++) XferCpltCallback            : transfer complete callback.
  98:Drivers/STM32H7xx_HAL_Driver/Src/stm32h7xx_hal_mdma.c ****               (++) XferBufferCpltCallback      : buffer transfer complete callback.
  99:Drivers/STM32H7xx_HAL_Driver/Src/stm32h7xx_hal_mdma.c ****               (++) XferBlockCpltCallback       : block transfer complete callback.
 100:Drivers/STM32H7xx_HAL_Driver/Src/stm32h7xx_hal_mdma.c ****               (++) XferRepeatBlockCpltCallback : repeated block transfer complete callback.
 101:Drivers/STM32H7xx_HAL_Driver/Src/stm32h7xx_hal_mdma.c ****               (++) XferErrorCallback           : transfer error callback.
 102:Drivers/STM32H7xx_HAL_Driver/Src/stm32h7xx_hal_mdma.c ****               (++) XferAbortCallback           : transfer abort complete callback.
 103:Drivers/STM32H7xx_HAL_Driver/Src/stm32h7xx_hal_mdma.c **** 
 104:Drivers/STM32H7xx_HAL_Driver/Src/stm32h7xx_hal_mdma.c ****     [..]
 105:Drivers/STM32H7xx_HAL_Driver/Src/stm32h7xx_hal_mdma.c ****          (+)  If the transfer Request corresponds to SW request (MDMA_REQUEST_SW) User can use func
 106:Drivers/STM32H7xx_HAL_Driver/Src/stm32h7xx_hal_mdma.c ****               trigger requests manually. Function HAL_MDMA_GenerateSWRequest must be used with the 
 107:Drivers/STM32H7xx_HAL_Driver/Src/stm32h7xx_hal_mdma.c ****               (++) This function returns an error if used while the Transfer has ended or not start
 108:Drivers/STM32H7xx_HAL_Driver/Src/stm32h7xx_hal_mdma.c ****               (++) If used while the current request has not been served yet (current request trans
 109:Drivers/STM32H7xx_HAL_Driver/Src/stm32h7xx_hal_mdma.c ****                 this function returns an error and the new request is ignored.
 110:Drivers/STM32H7xx_HAL_Driver/Src/stm32h7xx_hal_mdma.c **** 
 111:Drivers/STM32H7xx_HAL_Driver/Src/stm32h7xx_hal_mdma.c ****               Generally this function should be used in conjunctions with the MDMA callbacks:
 112:Drivers/STM32H7xx_HAL_Driver/Src/stm32h7xx_hal_mdma.c ****               (++) example 1:
 113:Drivers/STM32H7xx_HAL_Driver/Src/stm32h7xx_hal_mdma.c ****                  (+++) Configure a transfer with request set to MDMA_REQUEST_SW and trigger mode se
 114:Drivers/STM32H7xx_HAL_Driver/Src/stm32h7xx_hal_mdma.c ****                  (+++) Register a callback for buffer transfer complete (using callback ID set to H
 115:Drivers/STM32H7xx_HAL_Driver/Src/stm32h7xx_hal_mdma.c ****                  (+++) After calling HAL_MDMA_Start_IT the MDMA will issue the transfer of a first 
 116:Drivers/STM32H7xx_HAL_Driver/Src/stm32h7xx_hal_mdma.c ****                  (+++) When the buffer transfer complete callback is asserted first buffer has been
 117:Drivers/STM32H7xx_HAL_Driver/Src/stm32h7xx_hal_mdma.c ****                    request using HAL_MDMA_GenerateSWRequest.
 118:Drivers/STM32H7xx_HAL_Driver/Src/stm32h7xx_hal_mdma.c **** 
 119:Drivers/STM32H7xx_HAL_Driver/Src/stm32h7xx_hal_mdma.c ****               (++) example 2:
 120:Drivers/STM32H7xx_HAL_Driver/Src/stm32h7xx_hal_mdma.c ****                  (+++) Configure a transfer with request set to MDMA_REQUEST_SW and trigger mode se
 121:Drivers/STM32H7xx_HAL_Driver/Src/stm32h7xx_hal_mdma.c ****                  (+++) Register a callback for block transfer complete (using callback ID HAL_MDMA_
 122:Drivers/STM32H7xx_HAL_Driver/Src/stm32h7xx_hal_mdma.c ****                  (+++) After calling HAL_MDMA_Start_IT the MDMA will issue the transfer of a first 
 123:Drivers/STM32H7xx_HAL_Driver/Src/stm32h7xx_hal_mdma.c ****                  (+++) When the block transfer complete callback is asserted the first block has be
 124:Drivers/STM32H7xx_HAL_Driver/Src/stm32h7xx_hal_mdma.c ****                    for a new block transfer request using HAL_MDMA_GenerateSWRequest.
 125:Drivers/STM32H7xx_HAL_Driver/Src/stm32h7xx_hal_mdma.c **** 
 126:Drivers/STM32H7xx_HAL_Driver/Src/stm32h7xx_hal_mdma.c ****     [..]  Use HAL_MDMA_GetState() function to return the MDMA state and HAL_MDMA_GetError() in case
 127:Drivers/STM32H7xx_HAL_Driver/Src/stm32h7xx_hal_mdma.c **** 
 128:Drivers/STM32H7xx_HAL_Driver/Src/stm32h7xx_hal_mdma.c ****      *** MDMA HAL driver macros list ***
 129:Drivers/STM32H7xx_HAL_Driver/Src/stm32h7xx_hal_mdma.c ****      =============================================
 130:Drivers/STM32H7xx_HAL_Driver/Src/stm32h7xx_hal_mdma.c ****      [..]
 131:Drivers/STM32H7xx_HAL_Driver/Src/stm32h7xx_hal_mdma.c ****        Below the list of most used macros in MDMA HAL driver.
 132:Drivers/STM32H7xx_HAL_Driver/Src/stm32h7xx_hal_mdma.c **** 
 133:Drivers/STM32H7xx_HAL_Driver/Src/stm32h7xx_hal_mdma.c ****       (+) __HAL_MDMA_ENABLE: Enable the specified MDMA Channel.
 134:Drivers/STM32H7xx_HAL_Driver/Src/stm32h7xx_hal_mdma.c ****       (+) __HAL_MDMA_DISABLE: Disable the specified MDMA Channel.
 135:Drivers/STM32H7xx_HAL_Driver/Src/stm32h7xx_hal_mdma.c ****       (+) __HAL_MDMA_GET_FLAG: Get the MDMA Channel pending flags.
 136:Drivers/STM32H7xx_HAL_Driver/Src/stm32h7xx_hal_mdma.c ****       (+) __HAL_MDMA_CLEAR_FLAG: Clear the MDMA Channel pending flags.
 137:Drivers/STM32H7xx_HAL_Driver/Src/stm32h7xx_hal_mdma.c ****       (+) __HAL_MDMA_ENABLE_IT: Enable the specified MDMA Channel interrupts.
 138:Drivers/STM32H7xx_HAL_Driver/Src/stm32h7xx_hal_mdma.c ****       (+) __HAL_MDMA_DISABLE_IT: Disable the specified MDMA Channel interrupts.
 139:Drivers/STM32H7xx_HAL_Driver/Src/stm32h7xx_hal_mdma.c ****       (+) __HAL_MDMA_GET_IT_SOURCE: Check whether the specified MDMA Channel interrupt has occurred
 140:Drivers/STM32H7xx_HAL_Driver/Src/stm32h7xx_hal_mdma.c **** 
 141:Drivers/STM32H7xx_HAL_Driver/Src/stm32h7xx_hal_mdma.c ****      [..]
 142:Drivers/STM32H7xx_HAL_Driver/Src/stm32h7xx_hal_mdma.c ****       (@) You can refer to the header file of the MDMA HAL driver for more useful macros.
 143:Drivers/STM32H7xx_HAL_Driver/Src/stm32h7xx_hal_mdma.c **** 
 144:Drivers/STM32H7xx_HAL_Driver/Src/stm32h7xx_hal_mdma.c ****     [..]
 145:Drivers/STM32H7xx_HAL_Driver/Src/stm32h7xx_hal_mdma.c **** 
ARM GAS  /var/folders/g1/j12m_ky910s3_sv7d4yrsdn00000gn/T//ccW7oTPr.s 			page 4


 146:Drivers/STM32H7xx_HAL_Driver/Src/stm32h7xx_hal_mdma.c ****   @endverbatim
 147:Drivers/STM32H7xx_HAL_Driver/Src/stm32h7xx_hal_mdma.c ****   */
 148:Drivers/STM32H7xx_HAL_Driver/Src/stm32h7xx_hal_mdma.c **** 
 149:Drivers/STM32H7xx_HAL_Driver/Src/stm32h7xx_hal_mdma.c **** /* Includes ------------------------------------------------------------------*/
 150:Drivers/STM32H7xx_HAL_Driver/Src/stm32h7xx_hal_mdma.c **** #include "stm32h7xx_hal.h"
 151:Drivers/STM32H7xx_HAL_Driver/Src/stm32h7xx_hal_mdma.c **** 
 152:Drivers/STM32H7xx_HAL_Driver/Src/stm32h7xx_hal_mdma.c **** /** @addtogroup STM32H7xx_HAL_Driver
 153:Drivers/STM32H7xx_HAL_Driver/Src/stm32h7xx_hal_mdma.c ****   * @{
 154:Drivers/STM32H7xx_HAL_Driver/Src/stm32h7xx_hal_mdma.c ****   */
 155:Drivers/STM32H7xx_HAL_Driver/Src/stm32h7xx_hal_mdma.c **** 
 156:Drivers/STM32H7xx_HAL_Driver/Src/stm32h7xx_hal_mdma.c **** /** @defgroup MDMA  MDMA
 157:Drivers/STM32H7xx_HAL_Driver/Src/stm32h7xx_hal_mdma.c ****   * @brief MDMA HAL module driver
 158:Drivers/STM32H7xx_HAL_Driver/Src/stm32h7xx_hal_mdma.c ****   * @{
 159:Drivers/STM32H7xx_HAL_Driver/Src/stm32h7xx_hal_mdma.c ****   */
 160:Drivers/STM32H7xx_HAL_Driver/Src/stm32h7xx_hal_mdma.c **** 
 161:Drivers/STM32H7xx_HAL_Driver/Src/stm32h7xx_hal_mdma.c **** #ifdef HAL_MDMA_MODULE_ENABLED
 162:Drivers/STM32H7xx_HAL_Driver/Src/stm32h7xx_hal_mdma.c **** 
 163:Drivers/STM32H7xx_HAL_Driver/Src/stm32h7xx_hal_mdma.c **** /* Private typedef -----------------------------------------------------------*/
 164:Drivers/STM32H7xx_HAL_Driver/Src/stm32h7xx_hal_mdma.c **** /* Private constants ---------------------------------------------------------*/
 165:Drivers/STM32H7xx_HAL_Driver/Src/stm32h7xx_hal_mdma.c **** /** @addtogroup MDMA_Private_Constants
 166:Drivers/STM32H7xx_HAL_Driver/Src/stm32h7xx_hal_mdma.c ****  * @{
 167:Drivers/STM32H7xx_HAL_Driver/Src/stm32h7xx_hal_mdma.c ****  */
 168:Drivers/STM32H7xx_HAL_Driver/Src/stm32h7xx_hal_mdma.c **** #define HAL_TIMEOUT_MDMA_ABORT    5U    /* 5 ms */
 169:Drivers/STM32H7xx_HAL_Driver/Src/stm32h7xx_hal_mdma.c **** #define HAL_MDMA_CHANNEL_SIZE     0x40U /* an MDMA instance channel size is 64 byte  */
 170:Drivers/STM32H7xx_HAL_Driver/Src/stm32h7xx_hal_mdma.c **** /**
 171:Drivers/STM32H7xx_HAL_Driver/Src/stm32h7xx_hal_mdma.c ****   * @}
 172:Drivers/STM32H7xx_HAL_Driver/Src/stm32h7xx_hal_mdma.c ****   */
 173:Drivers/STM32H7xx_HAL_Driver/Src/stm32h7xx_hal_mdma.c **** /* Private macro -------------------------------------------------------------*/
 174:Drivers/STM32H7xx_HAL_Driver/Src/stm32h7xx_hal_mdma.c **** /* Private variables ---------------------------------------------------------*/
 175:Drivers/STM32H7xx_HAL_Driver/Src/stm32h7xx_hal_mdma.c **** /* Private function prototypes -----------------------------------------------*/
 176:Drivers/STM32H7xx_HAL_Driver/Src/stm32h7xx_hal_mdma.c **** /** @addtogroup MDMA_Private_Functions_Prototypes
 177:Drivers/STM32H7xx_HAL_Driver/Src/stm32h7xx_hal_mdma.c ****   * @{
 178:Drivers/STM32H7xx_HAL_Driver/Src/stm32h7xx_hal_mdma.c ****   */
 179:Drivers/STM32H7xx_HAL_Driver/Src/stm32h7xx_hal_mdma.c **** static void MDMA_SetConfig(MDMA_HandleTypeDef *hmdma, uint32_t SrcAddress, uint32_t DstAddress, uin
 180:Drivers/STM32H7xx_HAL_Driver/Src/stm32h7xx_hal_mdma.c **** static void MDMA_Init(MDMA_HandleTypeDef *hmdma);
 181:Drivers/STM32H7xx_HAL_Driver/Src/stm32h7xx_hal_mdma.c **** 
 182:Drivers/STM32H7xx_HAL_Driver/Src/stm32h7xx_hal_mdma.c **** /**
 183:Drivers/STM32H7xx_HAL_Driver/Src/stm32h7xx_hal_mdma.c ****   * @}
 184:Drivers/STM32H7xx_HAL_Driver/Src/stm32h7xx_hal_mdma.c ****   */
 185:Drivers/STM32H7xx_HAL_Driver/Src/stm32h7xx_hal_mdma.c **** 
 186:Drivers/STM32H7xx_HAL_Driver/Src/stm32h7xx_hal_mdma.c **** /** @addtogroup MDMA_Exported_Functions MDMA Exported Functions
 187:Drivers/STM32H7xx_HAL_Driver/Src/stm32h7xx_hal_mdma.c ****   * @{
 188:Drivers/STM32H7xx_HAL_Driver/Src/stm32h7xx_hal_mdma.c ****   */
 189:Drivers/STM32H7xx_HAL_Driver/Src/stm32h7xx_hal_mdma.c **** 
 190:Drivers/STM32H7xx_HAL_Driver/Src/stm32h7xx_hal_mdma.c **** /** @addtogroup MDMA_Exported_Functions_Group1
 191:Drivers/STM32H7xx_HAL_Driver/Src/stm32h7xx_hal_mdma.c ****   *
 192:Drivers/STM32H7xx_HAL_Driver/Src/stm32h7xx_hal_mdma.c **** @verbatim
 193:Drivers/STM32H7xx_HAL_Driver/Src/stm32h7xx_hal_mdma.c ****  ===============================================================================
 194:Drivers/STM32H7xx_HAL_Driver/Src/stm32h7xx_hal_mdma.c ****              ##### Initialization and de-initialization functions  #####
 195:Drivers/STM32H7xx_HAL_Driver/Src/stm32h7xx_hal_mdma.c ****  ===============================================================================
 196:Drivers/STM32H7xx_HAL_Driver/Src/stm32h7xx_hal_mdma.c ****     [..]
 197:Drivers/STM32H7xx_HAL_Driver/Src/stm32h7xx_hal_mdma.c ****     This section provides functions allowing to :
 198:Drivers/STM32H7xx_HAL_Driver/Src/stm32h7xx_hal_mdma.c ****       Initialize and de-initialize the MDMA channel.
 199:Drivers/STM32H7xx_HAL_Driver/Src/stm32h7xx_hal_mdma.c ****       Register and Unregister MDMA callbacks
 200:Drivers/STM32H7xx_HAL_Driver/Src/stm32h7xx_hal_mdma.c ****     [..]
 201:Drivers/STM32H7xx_HAL_Driver/Src/stm32h7xx_hal_mdma.c ****     The HAL_MDMA_Init() function follows the MDMA channel configuration procedures as described in
 202:Drivers/STM32H7xx_HAL_Driver/Src/stm32h7xx_hal_mdma.c ****     reference manual.
ARM GAS  /var/folders/g1/j12m_ky910s3_sv7d4yrsdn00000gn/T//ccW7oTPr.s 			page 5


 203:Drivers/STM32H7xx_HAL_Driver/Src/stm32h7xx_hal_mdma.c ****     The HAL_MDMA_DeInit function allows to deinitialize the MDMA channel.
 204:Drivers/STM32H7xx_HAL_Driver/Src/stm32h7xx_hal_mdma.c ****     HAL_MDMA_RegisterCallback and  HAL_MDMA_UnRegisterCallback functions allows
 205:Drivers/STM32H7xx_HAL_Driver/Src/stm32h7xx_hal_mdma.c ****     respectevely to register/unregister an MDMA callback function.
 206:Drivers/STM32H7xx_HAL_Driver/Src/stm32h7xx_hal_mdma.c **** 
 207:Drivers/STM32H7xx_HAL_Driver/Src/stm32h7xx_hal_mdma.c **** @endverbatim
 208:Drivers/STM32H7xx_HAL_Driver/Src/stm32h7xx_hal_mdma.c ****   * @{
 209:Drivers/STM32H7xx_HAL_Driver/Src/stm32h7xx_hal_mdma.c ****   */
 210:Drivers/STM32H7xx_HAL_Driver/Src/stm32h7xx_hal_mdma.c **** 
 211:Drivers/STM32H7xx_HAL_Driver/Src/stm32h7xx_hal_mdma.c **** /**
 212:Drivers/STM32H7xx_HAL_Driver/Src/stm32h7xx_hal_mdma.c ****   * @brief  Initializes the MDMA according to the specified
 213:Drivers/STM32H7xx_HAL_Driver/Src/stm32h7xx_hal_mdma.c ****   *         parameters in the MDMA_InitTypeDef and create the associated handle.
 214:Drivers/STM32H7xx_HAL_Driver/Src/stm32h7xx_hal_mdma.c ****   * @param  hmdma: Pointer to a MDMA_HandleTypeDef structure that contains
 215:Drivers/STM32H7xx_HAL_Driver/Src/stm32h7xx_hal_mdma.c ****   *               the configuration information for the specified MDMA Channel.
 216:Drivers/STM32H7xx_HAL_Driver/Src/stm32h7xx_hal_mdma.c ****   * @retval HAL status
 217:Drivers/STM32H7xx_HAL_Driver/Src/stm32h7xx_hal_mdma.c ****   */
 218:Drivers/STM32H7xx_HAL_Driver/Src/stm32h7xx_hal_mdma.c **** HAL_StatusTypeDef HAL_MDMA_Init(MDMA_HandleTypeDef *hmdma)
 219:Drivers/STM32H7xx_HAL_Driver/Src/stm32h7xx_hal_mdma.c **** {
  28              		.loc 1 219 1
  29              		.cfi_startproc
  30              		@ args = 0, pretend = 0, frame = 16
  31              		@ frame_needed = 1, uses_anonymous_args = 0
  32 0000 80B5     		push	{r7, lr}
  33              	.LCFI0:
  34              		.cfi_def_cfa_offset 8
  35              		.cfi_offset 7, -8
  36              		.cfi_offset 14, -4
  37 0002 84B0     		sub	sp, sp, #16
  38              	.LCFI1:
  39              		.cfi_def_cfa_offset 24
  40 0004 00AF     		add	r7, sp, #0
  41              	.LCFI2:
  42              		.cfi_def_cfa_register 7
  43 0006 7860     		str	r0, [r7, #4]
 220:Drivers/STM32H7xx_HAL_Driver/Src/stm32h7xx_hal_mdma.c ****   uint32_t tickstart = HAL_GetTick();
  44              		.loc 1 220 24
  45 0008 FFF7FEFF 		bl	HAL_GetTick
  46 000c F860     		str	r0, [r7, #12]
 221:Drivers/STM32H7xx_HAL_Driver/Src/stm32h7xx_hal_mdma.c **** 
 222:Drivers/STM32H7xx_HAL_Driver/Src/stm32h7xx_hal_mdma.c ****   /* Check the MDMA peripheral handle */
 223:Drivers/STM32H7xx_HAL_Driver/Src/stm32h7xx_hal_mdma.c ****   if(hmdma == NULL)
  47              		.loc 1 223 5
  48 000e 7B68     		ldr	r3, [r7, #4]
  49 0010 002B     		cmp	r3, #0
  50 0012 01D1     		bne	.L2
 224:Drivers/STM32H7xx_HAL_Driver/Src/stm32h7xx_hal_mdma.c ****   {
 225:Drivers/STM32H7xx_HAL_Driver/Src/stm32h7xx_hal_mdma.c ****     return HAL_ERROR;
  51              		.loc 1 225 12
  52 0014 0123     		movs	r3, #1
  53 0016 3BE0     		b	.L3
  54              	.L2:
 226:Drivers/STM32H7xx_HAL_Driver/Src/stm32h7xx_hal_mdma.c ****   }
 227:Drivers/STM32H7xx_HAL_Driver/Src/stm32h7xx_hal_mdma.c **** 
 228:Drivers/STM32H7xx_HAL_Driver/Src/stm32h7xx_hal_mdma.c ****   /* Check the parameters */
 229:Drivers/STM32H7xx_HAL_Driver/Src/stm32h7xx_hal_mdma.c ****   assert_param(IS_MDMA_STREAM_ALL_INSTANCE(hmdma->Instance));
 230:Drivers/STM32H7xx_HAL_Driver/Src/stm32h7xx_hal_mdma.c ****   assert_param(IS_MDMA_PRIORITY(hmdma->Init.Priority));
 231:Drivers/STM32H7xx_HAL_Driver/Src/stm32h7xx_hal_mdma.c ****   assert_param(IS_MDMA_ENDIANNESS_MODE(hmdma->Init.Endianness));
 232:Drivers/STM32H7xx_HAL_Driver/Src/stm32h7xx_hal_mdma.c ****   assert_param(IS_MDMA_REQUEST(hmdma->Init.Request));
ARM GAS  /var/folders/g1/j12m_ky910s3_sv7d4yrsdn00000gn/T//ccW7oTPr.s 			page 6


 233:Drivers/STM32H7xx_HAL_Driver/Src/stm32h7xx_hal_mdma.c ****   assert_param(IS_MDMA_SOURCE_INC(hmdma->Init.SourceInc));
 234:Drivers/STM32H7xx_HAL_Driver/Src/stm32h7xx_hal_mdma.c ****   assert_param(IS_MDMA_DESTINATION_INC(hmdma->Init.DestinationInc));
 235:Drivers/STM32H7xx_HAL_Driver/Src/stm32h7xx_hal_mdma.c ****   assert_param(IS_MDMA_SOURCE_DATASIZE(hmdma->Init.SourceDataSize));
 236:Drivers/STM32H7xx_HAL_Driver/Src/stm32h7xx_hal_mdma.c ****   assert_param(IS_MDMA_DESTINATION_DATASIZE(hmdma->Init.DestDataSize));
 237:Drivers/STM32H7xx_HAL_Driver/Src/stm32h7xx_hal_mdma.c ****   assert_param(IS_MDMA_DATA_ALIGNMENT(hmdma->Init.DataAlignment));
 238:Drivers/STM32H7xx_HAL_Driver/Src/stm32h7xx_hal_mdma.c ****   assert_param(IS_MDMA_SOURCE_BURST(hmdma->Init.SourceBurst));
 239:Drivers/STM32H7xx_HAL_Driver/Src/stm32h7xx_hal_mdma.c ****   assert_param(IS_MDMA_DESTINATION_BURST(hmdma->Init.DestBurst));
 240:Drivers/STM32H7xx_HAL_Driver/Src/stm32h7xx_hal_mdma.c ****   assert_param(IS_MDMA_BUFFER_TRANSFER_LENGTH(hmdma->Init.BufferTransferLength));
 241:Drivers/STM32H7xx_HAL_Driver/Src/stm32h7xx_hal_mdma.c ****   assert_param(IS_MDMA_TRANSFER_TRIGGER_MODE(hmdma->Init.TransferTriggerMode));
 242:Drivers/STM32H7xx_HAL_Driver/Src/stm32h7xx_hal_mdma.c ****   assert_param(IS_MDMA_BLOCK_ADDR_OFFSET(hmdma->Init.SourceBlockAddressOffset));
 243:Drivers/STM32H7xx_HAL_Driver/Src/stm32h7xx_hal_mdma.c ****   assert_param(IS_MDMA_BLOCK_ADDR_OFFSET(hmdma->Init.DestBlockAddressOffset));
 244:Drivers/STM32H7xx_HAL_Driver/Src/stm32h7xx_hal_mdma.c **** 
 245:Drivers/STM32H7xx_HAL_Driver/Src/stm32h7xx_hal_mdma.c **** 
 246:Drivers/STM32H7xx_HAL_Driver/Src/stm32h7xx_hal_mdma.c ****   /* Allocate lock resource */
 247:Drivers/STM32H7xx_HAL_Driver/Src/stm32h7xx_hal_mdma.c ****   __HAL_UNLOCK(hmdma);
  55              		.loc 1 247 3
  56 0018 7B68     		ldr	r3, [r7, #4]
  57 001a 0022     		movs	r2, #0
  58 001c 83F83C20 		strb	r2, [r3, #60]
 248:Drivers/STM32H7xx_HAL_Driver/Src/stm32h7xx_hal_mdma.c **** 
 249:Drivers/STM32H7xx_HAL_Driver/Src/stm32h7xx_hal_mdma.c ****   /* Change MDMA peripheral state */
 250:Drivers/STM32H7xx_HAL_Driver/Src/stm32h7xx_hal_mdma.c ****   hmdma->State = HAL_MDMA_STATE_BUSY;
  59              		.loc 1 250 16
  60 0020 7B68     		ldr	r3, [r7, #4]
  61 0022 0222     		movs	r2, #2
  62 0024 83F83D20 		strb	r2, [r3, #61]
 251:Drivers/STM32H7xx_HAL_Driver/Src/stm32h7xx_hal_mdma.c **** 
 252:Drivers/STM32H7xx_HAL_Driver/Src/stm32h7xx_hal_mdma.c ****   /* Disable the MDMA channel */
 253:Drivers/STM32H7xx_HAL_Driver/Src/stm32h7xx_hal_mdma.c ****   __HAL_MDMA_DISABLE(hmdma);
  63              		.loc 1 253 3
  64 0028 7B68     		ldr	r3, [r7, #4]
  65 002a 1B68     		ldr	r3, [r3]
  66 002c DA68     		ldr	r2, [r3, #12]
  67 002e 7B68     		ldr	r3, [r7, #4]
  68 0030 1B68     		ldr	r3, [r3]
  69 0032 22F00102 		bic	r2, r2, #1
  70 0036 DA60     		str	r2, [r3, #12]
 254:Drivers/STM32H7xx_HAL_Driver/Src/stm32h7xx_hal_mdma.c **** 
 255:Drivers/STM32H7xx_HAL_Driver/Src/stm32h7xx_hal_mdma.c ****   /* Check if the MDMA channel is effectively disabled */
 256:Drivers/STM32H7xx_HAL_Driver/Src/stm32h7xx_hal_mdma.c ****   while((hmdma->Instance->CCR & MDMA_CCR_EN) != 0U)
  71              		.loc 1 256 8
  72 0038 0FE0     		b	.L4
  73              	.L5:
 257:Drivers/STM32H7xx_HAL_Driver/Src/stm32h7xx_hal_mdma.c ****   {
 258:Drivers/STM32H7xx_HAL_Driver/Src/stm32h7xx_hal_mdma.c ****     /* Check for the Timeout */
 259:Drivers/STM32H7xx_HAL_Driver/Src/stm32h7xx_hal_mdma.c ****     if((HAL_GetTick() - tickstart ) > HAL_TIMEOUT_MDMA_ABORT)
  74              		.loc 1 259 9
  75 003a FFF7FEFF 		bl	HAL_GetTick
  76 003e 0246     		mov	r2, r0
  77              		.loc 1 259 23 discriminator 1
  78 0040 FB68     		ldr	r3, [r7, #12]
  79 0042 D31A     		subs	r3, r2, r3
  80              		.loc 1 259 7 discriminator 1
  81 0044 052B     		cmp	r3, #5
  82 0046 08D9     		bls	.L4
 260:Drivers/STM32H7xx_HAL_Driver/Src/stm32h7xx_hal_mdma.c ****     {
 261:Drivers/STM32H7xx_HAL_Driver/Src/stm32h7xx_hal_mdma.c ****       /* Update error code */
ARM GAS  /var/folders/g1/j12m_ky910s3_sv7d4yrsdn00000gn/T//ccW7oTPr.s 			page 7


 262:Drivers/STM32H7xx_HAL_Driver/Src/stm32h7xx_hal_mdma.c ****       hmdma->ErrorCode = HAL_MDMA_ERROR_TIMEOUT;
  83              		.loc 1 262 24
  84 0048 7B68     		ldr	r3, [r7, #4]
  85 004a 4022     		movs	r2, #64
  86 004c 9A66     		str	r2, [r3, #104]
 263:Drivers/STM32H7xx_HAL_Driver/Src/stm32h7xx_hal_mdma.c **** 
 264:Drivers/STM32H7xx_HAL_Driver/Src/stm32h7xx_hal_mdma.c ****       /* Change the MDMA state */
 265:Drivers/STM32H7xx_HAL_Driver/Src/stm32h7xx_hal_mdma.c ****       hmdma->State = HAL_MDMA_STATE_ERROR;
  87              		.loc 1 265 20
  88 004e 7B68     		ldr	r3, [r7, #4]
  89 0050 0322     		movs	r2, #3
  90 0052 83F83D20 		strb	r2, [r3, #61]
 266:Drivers/STM32H7xx_HAL_Driver/Src/stm32h7xx_hal_mdma.c **** 
 267:Drivers/STM32H7xx_HAL_Driver/Src/stm32h7xx_hal_mdma.c ****       return HAL_ERROR;
  91              		.loc 1 267 14
  92 0056 0123     		movs	r3, #1
  93 0058 1AE0     		b	.L3
  94              	.L4:
 256:Drivers/STM32H7xx_HAL_Driver/Src/stm32h7xx_hal_mdma.c ****   {
  95              		.loc 1 256 15
  96 005a 7B68     		ldr	r3, [r7, #4]
  97 005c 1B68     		ldr	r3, [r3]
 256:Drivers/STM32H7xx_HAL_Driver/Src/stm32h7xx_hal_mdma.c ****   {
  98              		.loc 1 256 25
  99 005e DB68     		ldr	r3, [r3, #12]
 256:Drivers/STM32H7xx_HAL_Driver/Src/stm32h7xx_hal_mdma.c ****   {
 100              		.loc 1 256 31
 101 0060 03F00103 		and	r3, r3, #1
 256:Drivers/STM32H7xx_HAL_Driver/Src/stm32h7xx_hal_mdma.c ****   {
 102              		.loc 1 256 46
 103 0064 002B     		cmp	r3, #0
 104 0066 E8D1     		bne	.L5
 268:Drivers/STM32H7xx_HAL_Driver/Src/stm32h7xx_hal_mdma.c ****     }
 269:Drivers/STM32H7xx_HAL_Driver/Src/stm32h7xx_hal_mdma.c ****   }
 270:Drivers/STM32H7xx_HAL_Driver/Src/stm32h7xx_hal_mdma.c **** 
 271:Drivers/STM32H7xx_HAL_Driver/Src/stm32h7xx_hal_mdma.c ****   /* Initialize the MDMA channel registers */
 272:Drivers/STM32H7xx_HAL_Driver/Src/stm32h7xx_hal_mdma.c ****   MDMA_Init(hmdma);
 105              		.loc 1 272 3
 106 0068 7868     		ldr	r0, [r7, #4]
 107 006a FFF7FEFF 		bl	MDMA_Init
 273:Drivers/STM32H7xx_HAL_Driver/Src/stm32h7xx_hal_mdma.c **** 
 274:Drivers/STM32H7xx_HAL_Driver/Src/stm32h7xx_hal_mdma.c ****   /* Reset the MDMA first/last linkedlist node addresses and node counter */
 275:Drivers/STM32H7xx_HAL_Driver/Src/stm32h7xx_hal_mdma.c ****   hmdma->FirstLinkedListNodeAddress  = 0;
 108              		.loc 1 275 38
 109 006e 7B68     		ldr	r3, [r7, #4]
 110 0070 0022     		movs	r2, #0
 111 0072 DA65     		str	r2, [r3, #92]
 276:Drivers/STM32H7xx_HAL_Driver/Src/stm32h7xx_hal_mdma.c ****   hmdma->LastLinkedListNodeAddress   = 0;
 112              		.loc 1 276 38
 113 0074 7B68     		ldr	r3, [r7, #4]
 114 0076 0022     		movs	r2, #0
 115 0078 1A66     		str	r2, [r3, #96]
 277:Drivers/STM32H7xx_HAL_Driver/Src/stm32h7xx_hal_mdma.c ****   hmdma->LinkedListNodeCounter  = 0;
 116              		.loc 1 277 33
 117 007a 7B68     		ldr	r3, [r7, #4]
 118 007c 0022     		movs	r2, #0
 119 007e 5A66     		str	r2, [r3, #100]
ARM GAS  /var/folders/g1/j12m_ky910s3_sv7d4yrsdn00000gn/T//ccW7oTPr.s 			page 8


 278:Drivers/STM32H7xx_HAL_Driver/Src/stm32h7xx_hal_mdma.c **** 
 279:Drivers/STM32H7xx_HAL_Driver/Src/stm32h7xx_hal_mdma.c ****   /* Initialize the error code */
 280:Drivers/STM32H7xx_HAL_Driver/Src/stm32h7xx_hal_mdma.c ****   hmdma->ErrorCode = HAL_MDMA_ERROR_NONE;
 120              		.loc 1 280 20
 121 0080 7B68     		ldr	r3, [r7, #4]
 122 0082 0022     		movs	r2, #0
 123 0084 9A66     		str	r2, [r3, #104]
 281:Drivers/STM32H7xx_HAL_Driver/Src/stm32h7xx_hal_mdma.c **** 
 282:Drivers/STM32H7xx_HAL_Driver/Src/stm32h7xx_hal_mdma.c ****   /* Initialize the MDMA state */
 283:Drivers/STM32H7xx_HAL_Driver/Src/stm32h7xx_hal_mdma.c ****   hmdma->State = HAL_MDMA_STATE_READY;
 124              		.loc 1 283 16
 125 0086 7B68     		ldr	r3, [r7, #4]
 126 0088 0122     		movs	r2, #1
 127 008a 83F83D20 		strb	r2, [r3, #61]
 284:Drivers/STM32H7xx_HAL_Driver/Src/stm32h7xx_hal_mdma.c **** 
 285:Drivers/STM32H7xx_HAL_Driver/Src/stm32h7xx_hal_mdma.c ****   return HAL_OK;
 128              		.loc 1 285 10
 129 008e 0023     		movs	r3, #0
 130              	.L3:
 286:Drivers/STM32H7xx_HAL_Driver/Src/stm32h7xx_hal_mdma.c **** }
 131              		.loc 1 286 1
 132 0090 1846     		mov	r0, r3
 133 0092 1037     		adds	r7, r7, #16
 134              	.LCFI3:
 135              		.cfi_def_cfa_offset 8
 136 0094 BD46     		mov	sp, r7
 137              	.LCFI4:
 138              		.cfi_def_cfa_register 13
 139              		@ sp needed
 140 0096 80BD     		pop	{r7, pc}
 141              		.cfi_endproc
 142              	.LFE144:
 144              		.section	.text.HAL_MDMA_DeInit,"ax",%progbits
 145              		.align	1
 146              		.global	HAL_MDMA_DeInit
 147              		.syntax unified
 148              		.thumb
 149              		.thumb_func
 151              	HAL_MDMA_DeInit:
 152              	.LFB145:
 287:Drivers/STM32H7xx_HAL_Driver/Src/stm32h7xx_hal_mdma.c **** 
 288:Drivers/STM32H7xx_HAL_Driver/Src/stm32h7xx_hal_mdma.c **** /**
 289:Drivers/STM32H7xx_HAL_Driver/Src/stm32h7xx_hal_mdma.c ****   * @brief  DeInitializes the MDMA peripheral
 290:Drivers/STM32H7xx_HAL_Driver/Src/stm32h7xx_hal_mdma.c ****   * @param  hmdma: pointer to a MDMA_HandleTypeDef structure that contains
 291:Drivers/STM32H7xx_HAL_Driver/Src/stm32h7xx_hal_mdma.c ****   *               the configuration information for the specified MDMA Channel.
 292:Drivers/STM32H7xx_HAL_Driver/Src/stm32h7xx_hal_mdma.c ****   * @retval HAL status
 293:Drivers/STM32H7xx_HAL_Driver/Src/stm32h7xx_hal_mdma.c ****   */
 294:Drivers/STM32H7xx_HAL_Driver/Src/stm32h7xx_hal_mdma.c **** HAL_StatusTypeDef HAL_MDMA_DeInit(MDMA_HandleTypeDef *hmdma)
 295:Drivers/STM32H7xx_HAL_Driver/Src/stm32h7xx_hal_mdma.c **** {
 153              		.loc 1 295 1
 154              		.cfi_startproc
 155              		@ args = 0, pretend = 0, frame = 8
 156              		@ frame_needed = 1, uses_anonymous_args = 0
 157              		@ link register save eliminated.
 158 0000 80B4     		push	{r7}
 159              	.LCFI5:
 160              		.cfi_def_cfa_offset 4
ARM GAS  /var/folders/g1/j12m_ky910s3_sv7d4yrsdn00000gn/T//ccW7oTPr.s 			page 9


 161              		.cfi_offset 7, -4
 162 0002 83B0     		sub	sp, sp, #12
 163              	.LCFI6:
 164              		.cfi_def_cfa_offset 16
 165 0004 00AF     		add	r7, sp, #0
 166              	.LCFI7:
 167              		.cfi_def_cfa_register 7
 168 0006 7860     		str	r0, [r7, #4]
 296:Drivers/STM32H7xx_HAL_Driver/Src/stm32h7xx_hal_mdma.c **** 
 297:Drivers/STM32H7xx_HAL_Driver/Src/stm32h7xx_hal_mdma.c ****   /* Check the MDMA peripheral handle */
 298:Drivers/STM32H7xx_HAL_Driver/Src/stm32h7xx_hal_mdma.c ****   if(hmdma == NULL)
 169              		.loc 1 298 5
 170 0008 7B68     		ldr	r3, [r7, #4]
 171 000a 002B     		cmp	r3, #0
 172 000c 01D1     		bne	.L7
 299:Drivers/STM32H7xx_HAL_Driver/Src/stm32h7xx_hal_mdma.c ****   {
 300:Drivers/STM32H7xx_HAL_Driver/Src/stm32h7xx_hal_mdma.c ****     return HAL_ERROR;
 173              		.loc 1 300 12
 174 000e 0123     		movs	r3, #1
 175 0010 48E0     		b	.L8
 176              	.L7:
 301:Drivers/STM32H7xx_HAL_Driver/Src/stm32h7xx_hal_mdma.c ****   }
 302:Drivers/STM32H7xx_HAL_Driver/Src/stm32h7xx_hal_mdma.c **** 
 303:Drivers/STM32H7xx_HAL_Driver/Src/stm32h7xx_hal_mdma.c ****   /* Disable the selected MDMA Channelx */
 304:Drivers/STM32H7xx_HAL_Driver/Src/stm32h7xx_hal_mdma.c ****   __HAL_MDMA_DISABLE(hmdma);
 177              		.loc 1 304 3
 178 0012 7B68     		ldr	r3, [r7, #4]
 179 0014 1B68     		ldr	r3, [r3]
 180 0016 DA68     		ldr	r2, [r3, #12]
 181 0018 7B68     		ldr	r3, [r7, #4]
 182 001a 1B68     		ldr	r3, [r3]
 183 001c 22F00102 		bic	r2, r2, #1
 184 0020 DA60     		str	r2, [r3, #12]
 305:Drivers/STM32H7xx_HAL_Driver/Src/stm32h7xx_hal_mdma.c **** 
 306:Drivers/STM32H7xx_HAL_Driver/Src/stm32h7xx_hal_mdma.c ****   /* Reset MDMA Channel control register */
 307:Drivers/STM32H7xx_HAL_Driver/Src/stm32h7xx_hal_mdma.c ****   hmdma->Instance->CCR  = 0;
 185              		.loc 1 307 8
 186 0022 7B68     		ldr	r3, [r7, #4]
 187 0024 1B68     		ldr	r3, [r3]
 188              		.loc 1 307 25
 189 0026 0022     		movs	r2, #0
 190 0028 DA60     		str	r2, [r3, #12]
 308:Drivers/STM32H7xx_HAL_Driver/Src/stm32h7xx_hal_mdma.c ****   hmdma->Instance->CTCR = 0;
 191              		.loc 1 308 8
 192 002a 7B68     		ldr	r3, [r7, #4]
 193 002c 1B68     		ldr	r3, [r3]
 194              		.loc 1 308 25
 195 002e 0022     		movs	r2, #0
 196 0030 1A61     		str	r2, [r3, #16]
 309:Drivers/STM32H7xx_HAL_Driver/Src/stm32h7xx_hal_mdma.c ****   hmdma->Instance->CBNDTR = 0;
 197              		.loc 1 309 8
 198 0032 7B68     		ldr	r3, [r7, #4]
 199 0034 1B68     		ldr	r3, [r3]
 200              		.loc 1 309 27
 201 0036 0022     		movs	r2, #0
 202 0038 5A61     		str	r2, [r3, #20]
 310:Drivers/STM32H7xx_HAL_Driver/Src/stm32h7xx_hal_mdma.c ****   hmdma->Instance->CSAR = 0;
ARM GAS  /var/folders/g1/j12m_ky910s3_sv7d4yrsdn00000gn/T//ccW7oTPr.s 			page 10


 203              		.loc 1 310 8
 204 003a 7B68     		ldr	r3, [r7, #4]
 205 003c 1B68     		ldr	r3, [r3]
 206              		.loc 1 310 25
 207 003e 0022     		movs	r2, #0
 208 0040 9A61     		str	r2, [r3, #24]
 311:Drivers/STM32H7xx_HAL_Driver/Src/stm32h7xx_hal_mdma.c ****   hmdma->Instance->CDAR = 0;
 209              		.loc 1 311 8
 210 0042 7B68     		ldr	r3, [r7, #4]
 211 0044 1B68     		ldr	r3, [r3]
 212              		.loc 1 311 25
 213 0046 0022     		movs	r2, #0
 214 0048 DA61     		str	r2, [r3, #28]
 312:Drivers/STM32H7xx_HAL_Driver/Src/stm32h7xx_hal_mdma.c ****   hmdma->Instance->CBRUR = 0;
 215              		.loc 1 312 8
 216 004a 7B68     		ldr	r3, [r7, #4]
 217 004c 1B68     		ldr	r3, [r3]
 218              		.loc 1 312 26
 219 004e 0022     		movs	r2, #0
 220 0050 1A62     		str	r2, [r3, #32]
 313:Drivers/STM32H7xx_HAL_Driver/Src/stm32h7xx_hal_mdma.c ****   hmdma->Instance->CLAR = 0;
 221              		.loc 1 313 8
 222 0052 7B68     		ldr	r3, [r7, #4]
 223 0054 1B68     		ldr	r3, [r3]
 224              		.loc 1 313 25
 225 0056 0022     		movs	r2, #0
 226 0058 5A62     		str	r2, [r3, #36]
 314:Drivers/STM32H7xx_HAL_Driver/Src/stm32h7xx_hal_mdma.c ****   hmdma->Instance->CTBR = 0;
 227              		.loc 1 314 8
 228 005a 7B68     		ldr	r3, [r7, #4]
 229 005c 1B68     		ldr	r3, [r3]
 230              		.loc 1 314 25
 231 005e 0022     		movs	r2, #0
 232 0060 9A62     		str	r2, [r3, #40]
 315:Drivers/STM32H7xx_HAL_Driver/Src/stm32h7xx_hal_mdma.c ****   hmdma->Instance->CMAR = 0;
 233              		.loc 1 315 8
 234 0062 7B68     		ldr	r3, [r7, #4]
 235 0064 1B68     		ldr	r3, [r3]
 236              		.loc 1 315 25
 237 0066 0022     		movs	r2, #0
 238 0068 1A63     		str	r2, [r3, #48]
 316:Drivers/STM32H7xx_HAL_Driver/Src/stm32h7xx_hal_mdma.c ****   hmdma->Instance->CMDR = 0;
 239              		.loc 1 316 8
 240 006a 7B68     		ldr	r3, [r7, #4]
 241 006c 1B68     		ldr	r3, [r3]
 242              		.loc 1 316 25
 243 006e 0022     		movs	r2, #0
 244 0070 5A63     		str	r2, [r3, #52]
 317:Drivers/STM32H7xx_HAL_Driver/Src/stm32h7xx_hal_mdma.c **** 
 318:Drivers/STM32H7xx_HAL_Driver/Src/stm32h7xx_hal_mdma.c ****   /* Clear all flags */
 319:Drivers/STM32H7xx_HAL_Driver/Src/stm32h7xx_hal_mdma.c ****   __HAL_MDMA_CLEAR_FLAG(hmdma,(MDMA_FLAG_TE | MDMA_FLAG_CTC | MDMA_FLAG_BRT | MDMA_FLAG_BT | MDMA_F
 245              		.loc 1 319 3
 246 0072 7B68     		ldr	r3, [r7, #4]
 247 0074 1B68     		ldr	r3, [r3]
 248 0076 1F22     		movs	r2, #31
 249 0078 5A60     		str	r2, [r3, #4]
 320:Drivers/STM32H7xx_HAL_Driver/Src/stm32h7xx_hal_mdma.c **** 
ARM GAS  /var/folders/g1/j12m_ky910s3_sv7d4yrsdn00000gn/T//ccW7oTPr.s 			page 11


 321:Drivers/STM32H7xx_HAL_Driver/Src/stm32h7xx_hal_mdma.c ****   /* Reset the  MDMA first/last linkedlist node addresses and node counter */
 322:Drivers/STM32H7xx_HAL_Driver/Src/stm32h7xx_hal_mdma.c ****   hmdma->FirstLinkedListNodeAddress  = 0;
 250              		.loc 1 322 38
 251 007a 7B68     		ldr	r3, [r7, #4]
 252 007c 0022     		movs	r2, #0
 253 007e DA65     		str	r2, [r3, #92]
 323:Drivers/STM32H7xx_HAL_Driver/Src/stm32h7xx_hal_mdma.c ****   hmdma->LastLinkedListNodeAddress   = 0;
 254              		.loc 1 323 38
 255 0080 7B68     		ldr	r3, [r7, #4]
 256 0082 0022     		movs	r2, #0
 257 0084 1A66     		str	r2, [r3, #96]
 324:Drivers/STM32H7xx_HAL_Driver/Src/stm32h7xx_hal_mdma.c ****   hmdma->LinkedListNodeCounter  = 0;
 258              		.loc 1 324 33
 259 0086 7B68     		ldr	r3, [r7, #4]
 260 0088 0022     		movs	r2, #0
 261 008a 5A66     		str	r2, [r3, #100]
 325:Drivers/STM32H7xx_HAL_Driver/Src/stm32h7xx_hal_mdma.c **** 
 326:Drivers/STM32H7xx_HAL_Driver/Src/stm32h7xx_hal_mdma.c ****   /* Initialize the error code */
 327:Drivers/STM32H7xx_HAL_Driver/Src/stm32h7xx_hal_mdma.c ****   hmdma->ErrorCode = HAL_MDMA_ERROR_NONE;
 262              		.loc 1 327 20
 263 008c 7B68     		ldr	r3, [r7, #4]
 264 008e 0022     		movs	r2, #0
 265 0090 9A66     		str	r2, [r3, #104]
 328:Drivers/STM32H7xx_HAL_Driver/Src/stm32h7xx_hal_mdma.c **** 
 329:Drivers/STM32H7xx_HAL_Driver/Src/stm32h7xx_hal_mdma.c ****   /* Initialize the MDMA state */
 330:Drivers/STM32H7xx_HAL_Driver/Src/stm32h7xx_hal_mdma.c ****   hmdma->State = HAL_MDMA_STATE_RESET;
 266              		.loc 1 330 16
 267 0092 7B68     		ldr	r3, [r7, #4]
 268 0094 0022     		movs	r2, #0
 269 0096 83F83D20 		strb	r2, [r3, #61]
 331:Drivers/STM32H7xx_HAL_Driver/Src/stm32h7xx_hal_mdma.c **** 
 332:Drivers/STM32H7xx_HAL_Driver/Src/stm32h7xx_hal_mdma.c ****   /* Release Lock */
 333:Drivers/STM32H7xx_HAL_Driver/Src/stm32h7xx_hal_mdma.c ****   __HAL_UNLOCK(hmdma);
 270              		.loc 1 333 3
 271 009a 7B68     		ldr	r3, [r7, #4]
 272 009c 0022     		movs	r2, #0
 273 009e 83F83C20 		strb	r2, [r3, #60]
 334:Drivers/STM32H7xx_HAL_Driver/Src/stm32h7xx_hal_mdma.c **** 
 335:Drivers/STM32H7xx_HAL_Driver/Src/stm32h7xx_hal_mdma.c ****   return HAL_OK;
 274              		.loc 1 335 10
 275 00a2 0023     		movs	r3, #0
 276              	.L8:
 336:Drivers/STM32H7xx_HAL_Driver/Src/stm32h7xx_hal_mdma.c **** }
 277              		.loc 1 336 1
 278 00a4 1846     		mov	r0, r3
 279 00a6 0C37     		adds	r7, r7, #12
 280              	.LCFI8:
 281              		.cfi_def_cfa_offset 4
 282 00a8 BD46     		mov	sp, r7
 283              	.LCFI9:
 284              		.cfi_def_cfa_register 13
 285              		@ sp needed
 286 00aa 5DF8047B 		ldr	r7, [sp], #4
 287              	.LCFI10:
 288              		.cfi_restore 7
 289              		.cfi_def_cfa_offset 0
 290 00ae 7047     		bx	lr
ARM GAS  /var/folders/g1/j12m_ky910s3_sv7d4yrsdn00000gn/T//ccW7oTPr.s 			page 12


 291              		.cfi_endproc
 292              	.LFE145:
 294              		.section	.text.HAL_MDMA_ConfigPostRequestMask,"ax",%progbits
 295              		.align	1
 296              		.global	HAL_MDMA_ConfigPostRequestMask
 297              		.syntax unified
 298              		.thumb
 299              		.thumb_func
 301              	HAL_MDMA_ConfigPostRequestMask:
 302              	.LFB146:
 337:Drivers/STM32H7xx_HAL_Driver/Src/stm32h7xx_hal_mdma.c **** 
 338:Drivers/STM32H7xx_HAL_Driver/Src/stm32h7xx_hal_mdma.c **** /**
 339:Drivers/STM32H7xx_HAL_Driver/Src/stm32h7xx_hal_mdma.c ****   * @brief  Config the Post request Mask address and Mask data
 340:Drivers/STM32H7xx_HAL_Driver/Src/stm32h7xx_hal_mdma.c ****   * @param  hmdma      : pointer to a MDMA_HandleTypeDef structure that contains
 341:Drivers/STM32H7xx_HAL_Driver/Src/stm32h7xx_hal_mdma.c ****   *                               the configuration information for the specified MDMA Channel.
 342:Drivers/STM32H7xx_HAL_Driver/Src/stm32h7xx_hal_mdma.c ****   * @param  MaskAddress: specifies the address to be updated (written) with MaskData after a reques
 343:Drivers/STM32H7xx_HAL_Driver/Src/stm32h7xx_hal_mdma.c ****   * @param  MaskData:    specifies the value to be written to MaskAddress after a request is served
 344:Drivers/STM32H7xx_HAL_Driver/Src/stm32h7xx_hal_mdma.c ****   *                      MaskAddress and MaskData could be used to automatically clear a peripheral
 345:Drivers/STM32H7xx_HAL_Driver/Src/stm32h7xx_hal_mdma.c ****   * @retval HAL status
 346:Drivers/STM32H7xx_HAL_Driver/Src/stm32h7xx_hal_mdma.c ****   */
 347:Drivers/STM32H7xx_HAL_Driver/Src/stm32h7xx_hal_mdma.c **** HAL_StatusTypeDef HAL_MDMA_ConfigPostRequestMask(MDMA_HandleTypeDef *hmdma, uint32_t MaskAddress, u
 348:Drivers/STM32H7xx_HAL_Driver/Src/stm32h7xx_hal_mdma.c **** {
 303              		.loc 1 348 1
 304              		.cfi_startproc
 305              		@ args = 0, pretend = 0, frame = 24
 306              		@ frame_needed = 1, uses_anonymous_args = 0
 307              		@ link register save eliminated.
 308 0000 80B4     		push	{r7}
 309              	.LCFI11:
 310              		.cfi_def_cfa_offset 4
 311              		.cfi_offset 7, -4
 312 0002 87B0     		sub	sp, sp, #28
 313              	.LCFI12:
 314              		.cfi_def_cfa_offset 32
 315 0004 00AF     		add	r7, sp, #0
 316              	.LCFI13:
 317              		.cfi_def_cfa_register 7
 318 0006 F860     		str	r0, [r7, #12]
 319 0008 B960     		str	r1, [r7, #8]
 320 000a 7A60     		str	r2, [r7, #4]
 349:Drivers/STM32H7xx_HAL_Driver/Src/stm32h7xx_hal_mdma.c ****   HAL_StatusTypeDef  status = HAL_OK;
 321              		.loc 1 349 22
 322 000c 0023     		movs	r3, #0
 323 000e FB75     		strb	r3, [r7, #23]
 350:Drivers/STM32H7xx_HAL_Driver/Src/stm32h7xx_hal_mdma.c **** 
 351:Drivers/STM32H7xx_HAL_Driver/Src/stm32h7xx_hal_mdma.c ****   /* Check the MDMA peripheral handle */
 352:Drivers/STM32H7xx_HAL_Driver/Src/stm32h7xx_hal_mdma.c ****   if(hmdma == NULL)
 324              		.loc 1 352 5
 325 0010 FB68     		ldr	r3, [r7, #12]
 326 0012 002B     		cmp	r3, #0
 327 0014 01D1     		bne	.L10
 353:Drivers/STM32H7xx_HAL_Driver/Src/stm32h7xx_hal_mdma.c ****   {
 354:Drivers/STM32H7xx_HAL_Driver/Src/stm32h7xx_hal_mdma.c ****     return HAL_ERROR;
 328              		.loc 1 354 12
 329 0016 0123     		movs	r3, #1
 330 0018 3EE0     		b	.L11
 331              	.L10:
ARM GAS  /var/folders/g1/j12m_ky910s3_sv7d4yrsdn00000gn/T//ccW7oTPr.s 			page 13


 355:Drivers/STM32H7xx_HAL_Driver/Src/stm32h7xx_hal_mdma.c ****   }
 356:Drivers/STM32H7xx_HAL_Driver/Src/stm32h7xx_hal_mdma.c **** 
 357:Drivers/STM32H7xx_HAL_Driver/Src/stm32h7xx_hal_mdma.c ****   /* Process locked */
 358:Drivers/STM32H7xx_HAL_Driver/Src/stm32h7xx_hal_mdma.c ****   __HAL_LOCK(hmdma);
 332              		.loc 1 358 3
 333 001a FB68     		ldr	r3, [r7, #12]
 334 001c 93F83C30 		ldrb	r3, [r3, #60]	@ zero_extendqisi2
 335 0020 012B     		cmp	r3, #1
 336 0022 01D1     		bne	.L12
 337              		.loc 1 358 3 is_stmt 0 discriminator 1
 338 0024 0223     		movs	r3, #2
 339              		.loc 1 358 3
 340 0026 37E0     		b	.L11
 341              	.L12:
 342              		.loc 1 358 3 discriminator 2
 343 0028 FB68     		ldr	r3, [r7, #12]
 344 002a 0122     		movs	r2, #1
 345 002c 83F83C20 		strb	r2, [r3, #60]
 359:Drivers/STM32H7xx_HAL_Driver/Src/stm32h7xx_hal_mdma.c **** 
 360:Drivers/STM32H7xx_HAL_Driver/Src/stm32h7xx_hal_mdma.c ****   if(HAL_MDMA_STATE_READY == hmdma->State)
 346              		.loc 1 360 35 is_stmt 1
 347 0030 FB68     		ldr	r3, [r7, #12]
 348 0032 93F83D30 		ldrb	r3, [r3, #61]
 349 0036 DBB2     		uxtb	r3, r3
 350              		.loc 1 360 5
 351 0038 012B     		cmp	r3, #1
 352 003a 26D1     		bne	.L13
 361:Drivers/STM32H7xx_HAL_Driver/Src/stm32h7xx_hal_mdma.c ****   {
 362:Drivers/STM32H7xx_HAL_Driver/Src/stm32h7xx_hal_mdma.c ****     /* if HW request set Post Request MaskAddress and MaskData,  */
 363:Drivers/STM32H7xx_HAL_Driver/Src/stm32h7xx_hal_mdma.c ****     if((hmdma->Instance->CTCR & MDMA_CTCR_SWRM) == 0U)
 353              		.loc 1 363 14
 354 003c FB68     		ldr	r3, [r7, #12]
 355 003e 1B68     		ldr	r3, [r3]
 356              		.loc 1 363 24
 357 0040 1B69     		ldr	r3, [r3, #16]
 358              		.loc 1 363 31
 359 0042 03F08043 		and	r3, r3, #1073741824
 360              		.loc 1 363 7
 361 0046 002B     		cmp	r3, #0
 362 0048 1CD1     		bne	.L14
 364:Drivers/STM32H7xx_HAL_Driver/Src/stm32h7xx_hal_mdma.c ****     {
 365:Drivers/STM32H7xx_HAL_Driver/Src/stm32h7xx_hal_mdma.c ****       /* Set the HW request clear Mask and Data */
 366:Drivers/STM32H7xx_HAL_Driver/Src/stm32h7xx_hal_mdma.c ****       hmdma->Instance->CMAR = MaskAddress;
 363              		.loc 1 366 12
 364 004a FB68     		ldr	r3, [r7, #12]
 365 004c 1B68     		ldr	r3, [r3]
 366              		.loc 1 366 29
 367 004e BA68     		ldr	r2, [r7, #8]
 368 0050 1A63     		str	r2, [r3, #48]
 367:Drivers/STM32H7xx_HAL_Driver/Src/stm32h7xx_hal_mdma.c ****       hmdma->Instance->CMDR = MaskData;
 369              		.loc 1 367 12
 370 0052 FB68     		ldr	r3, [r7, #12]
 371 0054 1B68     		ldr	r3, [r3]
 372              		.loc 1 367 29
 373 0056 7A68     		ldr	r2, [r7, #4]
 374 0058 5A63     		str	r2, [r3, #52]
 368:Drivers/STM32H7xx_HAL_Driver/Src/stm32h7xx_hal_mdma.c **** 
ARM GAS  /var/folders/g1/j12m_ky910s3_sv7d4yrsdn00000gn/T//ccW7oTPr.s 			page 14


 369:Drivers/STM32H7xx_HAL_Driver/Src/stm32h7xx_hal_mdma.c ****       /*
 370:Drivers/STM32H7xx_HAL_Driver/Src/stm32h7xx_hal_mdma.c ****       -If the request is done by SW : BWM could be set to 1 or 0.
 371:Drivers/STM32H7xx_HAL_Driver/Src/stm32h7xx_hal_mdma.c ****       -If the request is done by a peripheral :
 372:Drivers/STM32H7xx_HAL_Driver/Src/stm32h7xx_hal_mdma.c ****          If mask address not set (0) => BWM must be set to 0
 373:Drivers/STM32H7xx_HAL_Driver/Src/stm32h7xx_hal_mdma.c ****          If mask address set (different than 0) => BWM could be set to 1 or 0
 374:Drivers/STM32H7xx_HAL_Driver/Src/stm32h7xx_hal_mdma.c ****       */
 375:Drivers/STM32H7xx_HAL_Driver/Src/stm32h7xx_hal_mdma.c ****       if(MaskAddress == 0U)
 375              		.loc 1 375 9
 376 005a BB68     		ldr	r3, [r7, #8]
 377 005c 002B     		cmp	r3, #0
 378 005e 08D1     		bne	.L15
 376:Drivers/STM32H7xx_HAL_Driver/Src/stm32h7xx_hal_mdma.c ****       {
 377:Drivers/STM32H7xx_HAL_Driver/Src/stm32h7xx_hal_mdma.c ****         hmdma->Instance->CTCR &=  ~MDMA_CTCR_BWM;
 379              		.loc 1 377 14
 380 0060 FB68     		ldr	r3, [r7, #12]
 381 0062 1B68     		ldr	r3, [r3]
 382              		.loc 1 377 24
 383 0064 1A69     		ldr	r2, [r3, #16]
 384              		.loc 1 377 14
 385 0066 FB68     		ldr	r3, [r7, #12]
 386 0068 1B68     		ldr	r3, [r3]
 387              		.loc 1 377 31
 388 006a 22F00042 		bic	r2, r2, #-2147483648
 389 006e 1A61     		str	r2, [r3, #16]
 390 0070 0DE0     		b	.L16
 391              	.L15:
 378:Drivers/STM32H7xx_HAL_Driver/Src/stm32h7xx_hal_mdma.c ****       }
 379:Drivers/STM32H7xx_HAL_Driver/Src/stm32h7xx_hal_mdma.c ****       else
 380:Drivers/STM32H7xx_HAL_Driver/Src/stm32h7xx_hal_mdma.c ****       {
 381:Drivers/STM32H7xx_HAL_Driver/Src/stm32h7xx_hal_mdma.c ****         hmdma->Instance->CTCR |=  MDMA_CTCR_BWM;
 392              		.loc 1 381 14
 393 0072 FB68     		ldr	r3, [r7, #12]
 394 0074 1B68     		ldr	r3, [r3]
 395              		.loc 1 381 24
 396 0076 1A69     		ldr	r2, [r3, #16]
 397              		.loc 1 381 14
 398 0078 FB68     		ldr	r3, [r7, #12]
 399 007a 1B68     		ldr	r3, [r3]
 400              		.loc 1 381 31
 401 007c 42F00042 		orr	r2, r2, #-2147483648
 402 0080 1A61     		str	r2, [r3, #16]
 403 0082 04E0     		b	.L16
 404              	.L14:
 382:Drivers/STM32H7xx_HAL_Driver/Src/stm32h7xx_hal_mdma.c ****       }
 383:Drivers/STM32H7xx_HAL_Driver/Src/stm32h7xx_hal_mdma.c ****     }
 384:Drivers/STM32H7xx_HAL_Driver/Src/stm32h7xx_hal_mdma.c ****     else
 385:Drivers/STM32H7xx_HAL_Driver/Src/stm32h7xx_hal_mdma.c ****     {
 386:Drivers/STM32H7xx_HAL_Driver/Src/stm32h7xx_hal_mdma.c ****       /* Return error status */
 387:Drivers/STM32H7xx_HAL_Driver/Src/stm32h7xx_hal_mdma.c ****       status =  HAL_ERROR;
 405              		.loc 1 387 14
 406 0084 0123     		movs	r3, #1
 407 0086 FB75     		strb	r3, [r7, #23]
 408 0088 01E0     		b	.L16
 409              	.L13:
 388:Drivers/STM32H7xx_HAL_Driver/Src/stm32h7xx_hal_mdma.c ****     }
 389:Drivers/STM32H7xx_HAL_Driver/Src/stm32h7xx_hal_mdma.c ****   }
 390:Drivers/STM32H7xx_HAL_Driver/Src/stm32h7xx_hal_mdma.c ****   else
ARM GAS  /var/folders/g1/j12m_ky910s3_sv7d4yrsdn00000gn/T//ccW7oTPr.s 			page 15


 391:Drivers/STM32H7xx_HAL_Driver/Src/stm32h7xx_hal_mdma.c ****   {
 392:Drivers/STM32H7xx_HAL_Driver/Src/stm32h7xx_hal_mdma.c ****     /* Return error status */
 393:Drivers/STM32H7xx_HAL_Driver/Src/stm32h7xx_hal_mdma.c ****     status =  HAL_ERROR;
 410              		.loc 1 393 12
 411 008a 0123     		movs	r3, #1
 412 008c FB75     		strb	r3, [r7, #23]
 413              	.L16:
 394:Drivers/STM32H7xx_HAL_Driver/Src/stm32h7xx_hal_mdma.c ****   }
 395:Drivers/STM32H7xx_HAL_Driver/Src/stm32h7xx_hal_mdma.c ****   /* Release Lock */
 396:Drivers/STM32H7xx_HAL_Driver/Src/stm32h7xx_hal_mdma.c ****   __HAL_UNLOCK(hmdma);
 414              		.loc 1 396 3
 415 008e FB68     		ldr	r3, [r7, #12]
 416 0090 0022     		movs	r2, #0
 417 0092 83F83C20 		strb	r2, [r3, #60]
 397:Drivers/STM32H7xx_HAL_Driver/Src/stm32h7xx_hal_mdma.c **** 
 398:Drivers/STM32H7xx_HAL_Driver/Src/stm32h7xx_hal_mdma.c ****   return status;
 418              		.loc 1 398 10
 419 0096 FB7D     		ldrb	r3, [r7, #23]	@ zero_extendqisi2
 420              	.L11:
 399:Drivers/STM32H7xx_HAL_Driver/Src/stm32h7xx_hal_mdma.c **** }
 421              		.loc 1 399 1
 422 0098 1846     		mov	r0, r3
 423 009a 1C37     		adds	r7, r7, #28
 424              	.LCFI14:
 425              		.cfi_def_cfa_offset 4
 426 009c BD46     		mov	sp, r7
 427              	.LCFI15:
 428              		.cfi_def_cfa_register 13
 429              		@ sp needed
 430 009e 5DF8047B 		ldr	r7, [sp], #4
 431              	.LCFI16:
 432              		.cfi_restore 7
 433              		.cfi_def_cfa_offset 0
 434 00a2 7047     		bx	lr
 435              		.cfi_endproc
 436              	.LFE146:
 438              		.section	.text.HAL_MDMA_RegisterCallback,"ax",%progbits
 439              		.align	1
 440              		.global	HAL_MDMA_RegisterCallback
 441              		.syntax unified
 442              		.thumb
 443              		.thumb_func
 445              	HAL_MDMA_RegisterCallback:
 446              	.LFB147:
 400:Drivers/STM32H7xx_HAL_Driver/Src/stm32h7xx_hal_mdma.c **** 
 401:Drivers/STM32H7xx_HAL_Driver/Src/stm32h7xx_hal_mdma.c **** /**
 402:Drivers/STM32H7xx_HAL_Driver/Src/stm32h7xx_hal_mdma.c ****   * @brief  Register callbacks
 403:Drivers/STM32H7xx_HAL_Driver/Src/stm32h7xx_hal_mdma.c ****   * @param  hmdma:                pointer to a MDMA_HandleTypeDef structure that contains
 404:Drivers/STM32H7xx_HAL_Driver/Src/stm32h7xx_hal_mdma.c ****   *                               the configuration information for the specified MDMA Channel.
 405:Drivers/STM32H7xx_HAL_Driver/Src/stm32h7xx_hal_mdma.c ****   * @param  CallbackID:           User Callback identifier
 406:Drivers/STM32H7xx_HAL_Driver/Src/stm32h7xx_hal_mdma.c ****   * @param  pCallback:            pointer to callbacsk function.
 407:Drivers/STM32H7xx_HAL_Driver/Src/stm32h7xx_hal_mdma.c ****   * @retval HAL status
 408:Drivers/STM32H7xx_HAL_Driver/Src/stm32h7xx_hal_mdma.c ****   */
 409:Drivers/STM32H7xx_HAL_Driver/Src/stm32h7xx_hal_mdma.c **** HAL_StatusTypeDef HAL_MDMA_RegisterCallback(MDMA_HandleTypeDef *hmdma, HAL_MDMA_CallbackIDTypeDef C
 410:Drivers/STM32H7xx_HAL_Driver/Src/stm32h7xx_hal_mdma.c **** {
 447              		.loc 1 410 1
 448              		.cfi_startproc
ARM GAS  /var/folders/g1/j12m_ky910s3_sv7d4yrsdn00000gn/T//ccW7oTPr.s 			page 16


 449              		@ args = 0, pretend = 0, frame = 24
 450              		@ frame_needed = 1, uses_anonymous_args = 0
 451              		@ link register save eliminated.
 452 0000 80B4     		push	{r7}
 453              	.LCFI17:
 454              		.cfi_def_cfa_offset 4
 455              		.cfi_offset 7, -4
 456 0002 87B0     		sub	sp, sp, #28
 457              	.LCFI18:
 458              		.cfi_def_cfa_offset 32
 459 0004 00AF     		add	r7, sp, #0
 460              	.LCFI19:
 461              		.cfi_def_cfa_register 7
 462 0006 F860     		str	r0, [r7, #12]
 463 0008 0B46     		mov	r3, r1
 464 000a 7A60     		str	r2, [r7, #4]
 465 000c FB72     		strb	r3, [r7, #11]
 411:Drivers/STM32H7xx_HAL_Driver/Src/stm32h7xx_hal_mdma.c ****   HAL_StatusTypeDef status = HAL_OK;
 466              		.loc 1 411 21
 467 000e 0023     		movs	r3, #0
 468 0010 FB75     		strb	r3, [r7, #23]
 412:Drivers/STM32H7xx_HAL_Driver/Src/stm32h7xx_hal_mdma.c **** 
 413:Drivers/STM32H7xx_HAL_Driver/Src/stm32h7xx_hal_mdma.c ****   /* Check the MDMA peripheral handle */
 414:Drivers/STM32H7xx_HAL_Driver/Src/stm32h7xx_hal_mdma.c ****   if(hmdma == NULL)
 469              		.loc 1 414 5
 470 0012 FB68     		ldr	r3, [r7, #12]
 471 0014 002B     		cmp	r3, #0
 472 0016 01D1     		bne	.L18
 415:Drivers/STM32H7xx_HAL_Driver/Src/stm32h7xx_hal_mdma.c ****   {
 416:Drivers/STM32H7xx_HAL_Driver/Src/stm32h7xx_hal_mdma.c ****     return HAL_ERROR;
 473              		.loc 1 416 12
 474 0018 0123     		movs	r3, #1
 475 001a 44E0     		b	.L19
 476              	.L18:
 417:Drivers/STM32H7xx_HAL_Driver/Src/stm32h7xx_hal_mdma.c ****   }
 418:Drivers/STM32H7xx_HAL_Driver/Src/stm32h7xx_hal_mdma.c **** 
 419:Drivers/STM32H7xx_HAL_Driver/Src/stm32h7xx_hal_mdma.c ****   /* Process locked */
 420:Drivers/STM32H7xx_HAL_Driver/Src/stm32h7xx_hal_mdma.c ****   __HAL_LOCK(hmdma);
 477              		.loc 1 420 3
 478 001c FB68     		ldr	r3, [r7, #12]
 479 001e 93F83C30 		ldrb	r3, [r3, #60]	@ zero_extendqisi2
 480 0022 012B     		cmp	r3, #1
 481 0024 01D1     		bne	.L20
 482              		.loc 1 420 3 is_stmt 0 discriminator 1
 483 0026 0223     		movs	r3, #2
 484              		.loc 1 420 3
 485 0028 3DE0     		b	.L19
 486              	.L20:
 487              		.loc 1 420 3 discriminator 2
 488 002a FB68     		ldr	r3, [r7, #12]
 489 002c 0122     		movs	r2, #1
 490 002e 83F83C20 		strb	r2, [r3, #60]
 421:Drivers/STM32H7xx_HAL_Driver/Src/stm32h7xx_hal_mdma.c **** 
 422:Drivers/STM32H7xx_HAL_Driver/Src/stm32h7xx_hal_mdma.c ****   if(HAL_MDMA_STATE_READY == hmdma->State)
 491              		.loc 1 422 35 is_stmt 1
 492 0032 FB68     		ldr	r3, [r7, #12]
 493 0034 93F83D30 		ldrb	r3, [r3, #61]
ARM GAS  /var/folders/g1/j12m_ky910s3_sv7d4yrsdn00000gn/T//ccW7oTPr.s 			page 17


 494 0038 DBB2     		uxtb	r3, r3
 495              		.loc 1 422 5
 496 003a 012B     		cmp	r3, #1
 497 003c 2AD1     		bne	.L21
 423:Drivers/STM32H7xx_HAL_Driver/Src/stm32h7xx_hal_mdma.c ****   {
 424:Drivers/STM32H7xx_HAL_Driver/Src/stm32h7xx_hal_mdma.c ****     switch (CallbackID)
 498              		.loc 1 424 5
 499 003e FB7A     		ldrb	r3, [r7, #11]	@ zero_extendqisi2
 500 0040 052B     		cmp	r3, #5
 501 0042 2AD8     		bhi	.L32
 502 0044 01A2     		adr	r2, .L24
 503 0046 52F823F0 		ldr	pc, [r2, r3, lsl #2]
 504 004a 00BF     		.p2align 2
 505              	.L24:
 506 004c 65000000 		.word	.L29+1
 507 0050 6D000000 		.word	.L28+1
 508 0054 75000000 		.word	.L27+1
 509 0058 7D000000 		.word	.L26+1
 510 005c 85000000 		.word	.L25+1
 511 0060 8D000000 		.word	.L23+1
 512              		.p2align 1
 513              	.L29:
 425:Drivers/STM32H7xx_HAL_Driver/Src/stm32h7xx_hal_mdma.c ****     {
 426:Drivers/STM32H7xx_HAL_Driver/Src/stm32h7xx_hal_mdma.c ****     case  HAL_MDMA_XFER_CPLT_CB_ID:
 427:Drivers/STM32H7xx_HAL_Driver/Src/stm32h7xx_hal_mdma.c ****       hmdma->XferCpltCallback = pCallback;
 514              		.loc 1 427 31
 515 0064 FB68     		ldr	r3, [r7, #12]
 516 0066 7A68     		ldr	r2, [r7, #4]
 517 0068 5A64     		str	r2, [r3, #68]
 428:Drivers/STM32H7xx_HAL_Driver/Src/stm32h7xx_hal_mdma.c ****       break;
 518              		.loc 1 428 7
 519 006a 17E0     		b	.L31
 520              	.L28:
 429:Drivers/STM32H7xx_HAL_Driver/Src/stm32h7xx_hal_mdma.c **** 
 430:Drivers/STM32H7xx_HAL_Driver/Src/stm32h7xx_hal_mdma.c ****     case  HAL_MDMA_XFER_BUFFERCPLT_CB_ID:
 431:Drivers/STM32H7xx_HAL_Driver/Src/stm32h7xx_hal_mdma.c ****       hmdma->XferBufferCpltCallback = pCallback;
 521              		.loc 1 431 37
 522 006c FB68     		ldr	r3, [r7, #12]
 523 006e 7A68     		ldr	r2, [r7, #4]
 524 0070 9A64     		str	r2, [r3, #72]
 432:Drivers/STM32H7xx_HAL_Driver/Src/stm32h7xx_hal_mdma.c ****       break;
 525              		.loc 1 432 7
 526 0072 13E0     		b	.L31
 527              	.L27:
 433:Drivers/STM32H7xx_HAL_Driver/Src/stm32h7xx_hal_mdma.c **** 
 434:Drivers/STM32H7xx_HAL_Driver/Src/stm32h7xx_hal_mdma.c ****     case  HAL_MDMA_XFER_BLOCKCPLT_CB_ID:
 435:Drivers/STM32H7xx_HAL_Driver/Src/stm32h7xx_hal_mdma.c ****       hmdma->XferBlockCpltCallback = pCallback;
 528              		.loc 1 435 36
 529 0074 FB68     		ldr	r3, [r7, #12]
 530 0076 7A68     		ldr	r2, [r7, #4]
 531 0078 DA64     		str	r2, [r3, #76]
 436:Drivers/STM32H7xx_HAL_Driver/Src/stm32h7xx_hal_mdma.c ****       break;
 532              		.loc 1 436 7
 533 007a 0FE0     		b	.L31
 534              	.L26:
 437:Drivers/STM32H7xx_HAL_Driver/Src/stm32h7xx_hal_mdma.c **** 
 438:Drivers/STM32H7xx_HAL_Driver/Src/stm32h7xx_hal_mdma.c ****     case  HAL_MDMA_XFER_REPBLOCKCPLT_CB_ID:
ARM GAS  /var/folders/g1/j12m_ky910s3_sv7d4yrsdn00000gn/T//ccW7oTPr.s 			page 18


 439:Drivers/STM32H7xx_HAL_Driver/Src/stm32h7xx_hal_mdma.c ****       hmdma->XferRepeatBlockCpltCallback = pCallback;
 535              		.loc 1 439 42
 536 007c FB68     		ldr	r3, [r7, #12]
 537 007e 7A68     		ldr	r2, [r7, #4]
 538 0080 1A65     		str	r2, [r3, #80]
 440:Drivers/STM32H7xx_HAL_Driver/Src/stm32h7xx_hal_mdma.c ****       break;
 539              		.loc 1 440 7
 540 0082 0BE0     		b	.L31
 541              	.L25:
 441:Drivers/STM32H7xx_HAL_Driver/Src/stm32h7xx_hal_mdma.c **** 
 442:Drivers/STM32H7xx_HAL_Driver/Src/stm32h7xx_hal_mdma.c ****     case  HAL_MDMA_XFER_ERROR_CB_ID:
 443:Drivers/STM32H7xx_HAL_Driver/Src/stm32h7xx_hal_mdma.c ****       hmdma->XferErrorCallback = pCallback;
 542              		.loc 1 443 32
 543 0084 FB68     		ldr	r3, [r7, #12]
 544 0086 7A68     		ldr	r2, [r7, #4]
 545 0088 5A65     		str	r2, [r3, #84]
 444:Drivers/STM32H7xx_HAL_Driver/Src/stm32h7xx_hal_mdma.c ****       break;
 546              		.loc 1 444 7
 547 008a 07E0     		b	.L31
 548              	.L23:
 445:Drivers/STM32H7xx_HAL_Driver/Src/stm32h7xx_hal_mdma.c **** 
 446:Drivers/STM32H7xx_HAL_Driver/Src/stm32h7xx_hal_mdma.c ****     case  HAL_MDMA_XFER_ABORT_CB_ID:
 447:Drivers/STM32H7xx_HAL_Driver/Src/stm32h7xx_hal_mdma.c ****       hmdma->XferAbortCallback = pCallback;
 549              		.loc 1 447 32
 550 008c FB68     		ldr	r3, [r7, #12]
 551 008e 7A68     		ldr	r2, [r7, #4]
 552 0090 9A65     		str	r2, [r3, #88]
 448:Drivers/STM32H7xx_HAL_Driver/Src/stm32h7xx_hal_mdma.c ****       break;
 553              		.loc 1 448 7
 554 0092 03E0     		b	.L31
 555              	.L21:
 449:Drivers/STM32H7xx_HAL_Driver/Src/stm32h7xx_hal_mdma.c **** 
 450:Drivers/STM32H7xx_HAL_Driver/Src/stm32h7xx_hal_mdma.c ****     default:
 451:Drivers/STM32H7xx_HAL_Driver/Src/stm32h7xx_hal_mdma.c ****       break;
 452:Drivers/STM32H7xx_HAL_Driver/Src/stm32h7xx_hal_mdma.c ****     }
 453:Drivers/STM32H7xx_HAL_Driver/Src/stm32h7xx_hal_mdma.c ****   }
 454:Drivers/STM32H7xx_HAL_Driver/Src/stm32h7xx_hal_mdma.c ****   else
 455:Drivers/STM32H7xx_HAL_Driver/Src/stm32h7xx_hal_mdma.c ****   {
 456:Drivers/STM32H7xx_HAL_Driver/Src/stm32h7xx_hal_mdma.c ****     /* Return error status */
 457:Drivers/STM32H7xx_HAL_Driver/Src/stm32h7xx_hal_mdma.c ****     status =  HAL_ERROR;
 556              		.loc 1 457 12
 557 0094 0123     		movs	r3, #1
 558 0096 FB75     		strb	r3, [r7, #23]
 559 0098 00E0     		b	.L31
 560              	.L32:
 451:Drivers/STM32H7xx_HAL_Driver/Src/stm32h7xx_hal_mdma.c ****     }
 561              		.loc 1 451 7
 562 009a 00BF     		nop
 563              	.L31:
 458:Drivers/STM32H7xx_HAL_Driver/Src/stm32h7xx_hal_mdma.c ****   }
 459:Drivers/STM32H7xx_HAL_Driver/Src/stm32h7xx_hal_mdma.c **** 
 460:Drivers/STM32H7xx_HAL_Driver/Src/stm32h7xx_hal_mdma.c ****   /* Release Lock */
 461:Drivers/STM32H7xx_HAL_Driver/Src/stm32h7xx_hal_mdma.c ****   __HAL_UNLOCK(hmdma);
 564              		.loc 1 461 3
 565 009c FB68     		ldr	r3, [r7, #12]
 566 009e 0022     		movs	r2, #0
 567 00a0 83F83C20 		strb	r2, [r3, #60]
ARM GAS  /var/folders/g1/j12m_ky910s3_sv7d4yrsdn00000gn/T//ccW7oTPr.s 			page 19


 462:Drivers/STM32H7xx_HAL_Driver/Src/stm32h7xx_hal_mdma.c **** 
 463:Drivers/STM32H7xx_HAL_Driver/Src/stm32h7xx_hal_mdma.c ****   return status;
 568              		.loc 1 463 10
 569 00a4 FB7D     		ldrb	r3, [r7, #23]	@ zero_extendqisi2
 570              	.L19:
 464:Drivers/STM32H7xx_HAL_Driver/Src/stm32h7xx_hal_mdma.c **** }
 571              		.loc 1 464 1
 572 00a6 1846     		mov	r0, r3
 573 00a8 1C37     		adds	r7, r7, #28
 574              	.LCFI20:
 575              		.cfi_def_cfa_offset 4
 576 00aa BD46     		mov	sp, r7
 577              	.LCFI21:
 578              		.cfi_def_cfa_register 13
 579              		@ sp needed
 580 00ac 5DF8047B 		ldr	r7, [sp], #4
 581              	.LCFI22:
 582              		.cfi_restore 7
 583              		.cfi_def_cfa_offset 0
 584 00b0 7047     		bx	lr
 585              		.cfi_endproc
 586              	.LFE147:
 588 00b2 00BF     		.section	.text.HAL_MDMA_UnRegisterCallback,"ax",%progbits
 589              		.align	1
 590              		.global	HAL_MDMA_UnRegisterCallback
 591              		.syntax unified
 592              		.thumb
 593              		.thumb_func
 595              	HAL_MDMA_UnRegisterCallback:
 596              	.LFB148:
 465:Drivers/STM32H7xx_HAL_Driver/Src/stm32h7xx_hal_mdma.c **** 
 466:Drivers/STM32H7xx_HAL_Driver/Src/stm32h7xx_hal_mdma.c **** /**
 467:Drivers/STM32H7xx_HAL_Driver/Src/stm32h7xx_hal_mdma.c ****   * @brief  UnRegister callbacks
 468:Drivers/STM32H7xx_HAL_Driver/Src/stm32h7xx_hal_mdma.c ****   * @param  hmdma:                 pointer to a MDMA_HandleTypeDef structure that contains
 469:Drivers/STM32H7xx_HAL_Driver/Src/stm32h7xx_hal_mdma.c ****   *                               the configuration information for the specified MDMA Channel.
 470:Drivers/STM32H7xx_HAL_Driver/Src/stm32h7xx_hal_mdma.c ****   * @param  CallbackID:           User Callback identifier
 471:Drivers/STM32H7xx_HAL_Driver/Src/stm32h7xx_hal_mdma.c ****   *                               a HAL_MDMA_CallbackIDTypeDef ENUM as parameter.
 472:Drivers/STM32H7xx_HAL_Driver/Src/stm32h7xx_hal_mdma.c ****   * @retval HAL status
 473:Drivers/STM32H7xx_HAL_Driver/Src/stm32h7xx_hal_mdma.c ****   */
 474:Drivers/STM32H7xx_HAL_Driver/Src/stm32h7xx_hal_mdma.c **** HAL_StatusTypeDef HAL_MDMA_UnRegisterCallback(MDMA_HandleTypeDef *hmdma, HAL_MDMA_CallbackIDTypeDef
 475:Drivers/STM32H7xx_HAL_Driver/Src/stm32h7xx_hal_mdma.c **** {
 597              		.loc 1 475 1
 598              		.cfi_startproc
 599              		@ args = 0, pretend = 0, frame = 16
 600              		@ frame_needed = 1, uses_anonymous_args = 0
 601              		@ link register save eliminated.
 602 0000 80B4     		push	{r7}
 603              	.LCFI23:
 604              		.cfi_def_cfa_offset 4
 605              		.cfi_offset 7, -4
 606 0002 85B0     		sub	sp, sp, #20
 607              	.LCFI24:
 608              		.cfi_def_cfa_offset 24
 609 0004 00AF     		add	r7, sp, #0
 610              	.LCFI25:
 611              		.cfi_def_cfa_register 7
 612 0006 7860     		str	r0, [r7, #4]
ARM GAS  /var/folders/g1/j12m_ky910s3_sv7d4yrsdn00000gn/T//ccW7oTPr.s 			page 20


 613 0008 0B46     		mov	r3, r1
 614 000a FB70     		strb	r3, [r7, #3]
 476:Drivers/STM32H7xx_HAL_Driver/Src/stm32h7xx_hal_mdma.c ****   HAL_StatusTypeDef status = HAL_OK;
 615              		.loc 1 476 21
 616 000c 0023     		movs	r3, #0
 617 000e FB73     		strb	r3, [r7, #15]
 477:Drivers/STM32H7xx_HAL_Driver/Src/stm32h7xx_hal_mdma.c **** 
 478:Drivers/STM32H7xx_HAL_Driver/Src/stm32h7xx_hal_mdma.c ****   /* Check the MDMA peripheral handle */
 479:Drivers/STM32H7xx_HAL_Driver/Src/stm32h7xx_hal_mdma.c ****   if(hmdma == NULL)
 618              		.loc 1 479 5
 619 0010 7B68     		ldr	r3, [r7, #4]
 620 0012 002B     		cmp	r3, #0
 621 0014 01D1     		bne	.L34
 480:Drivers/STM32H7xx_HAL_Driver/Src/stm32h7xx_hal_mdma.c ****   {
 481:Drivers/STM32H7xx_HAL_Driver/Src/stm32h7xx_hal_mdma.c ****     return HAL_ERROR;
 622              		.loc 1 481 12
 623 0016 0123     		movs	r3, #1
 624 0018 59E0     		b	.L35
 625              	.L34:
 482:Drivers/STM32H7xx_HAL_Driver/Src/stm32h7xx_hal_mdma.c ****   }
 483:Drivers/STM32H7xx_HAL_Driver/Src/stm32h7xx_hal_mdma.c **** 
 484:Drivers/STM32H7xx_HAL_Driver/Src/stm32h7xx_hal_mdma.c ****   /* Process locked */
 485:Drivers/STM32H7xx_HAL_Driver/Src/stm32h7xx_hal_mdma.c ****   __HAL_LOCK(hmdma);
 626              		.loc 1 485 3
 627 001a 7B68     		ldr	r3, [r7, #4]
 628 001c 93F83C30 		ldrb	r3, [r3, #60]	@ zero_extendqisi2
 629 0020 012B     		cmp	r3, #1
 630 0022 01D1     		bne	.L36
 631              		.loc 1 485 3 is_stmt 0 discriminator 1
 632 0024 0223     		movs	r3, #2
 633              		.loc 1 485 3
 634 0026 52E0     		b	.L35
 635              	.L36:
 636              		.loc 1 485 3 discriminator 2
 637 0028 7B68     		ldr	r3, [r7, #4]
 638 002a 0122     		movs	r2, #1
 639 002c 83F83C20 		strb	r2, [r3, #60]
 486:Drivers/STM32H7xx_HAL_Driver/Src/stm32h7xx_hal_mdma.c **** 
 487:Drivers/STM32H7xx_HAL_Driver/Src/stm32h7xx_hal_mdma.c ****   if(HAL_MDMA_STATE_READY == hmdma->State)
 640              		.loc 1 487 35 is_stmt 1
 641 0030 7B68     		ldr	r3, [r7, #4]
 642 0032 93F83D30 		ldrb	r3, [r3, #61]
 643 0036 DBB2     		uxtb	r3, r3
 644              		.loc 1 487 5
 645 0038 012B     		cmp	r3, #1
 646 003a 41D1     		bne	.L37
 488:Drivers/STM32H7xx_HAL_Driver/Src/stm32h7xx_hal_mdma.c ****   {
 489:Drivers/STM32H7xx_HAL_Driver/Src/stm32h7xx_hal_mdma.c ****     switch (CallbackID)
 647              		.loc 1 489 5
 648 003c FB78     		ldrb	r3, [r7, #3]	@ zero_extendqisi2
 649 003e 062B     		cmp	r3, #6
 650 0040 3BD8     		bhi	.L38
 651 0042 01A2     		adr	r2, .L40
 652 0044 52F823F0 		ldr	pc, [r2, r3, lsl #2]
 653              		.p2align 2
 654              	.L40:
 655 0048 65000000 		.word	.L46+1
ARM GAS  /var/folders/g1/j12m_ky910s3_sv7d4yrsdn00000gn/T//ccW7oTPr.s 			page 21


 656 004c 6D000000 		.word	.L45+1
 657 0050 75000000 		.word	.L44+1
 658 0054 7D000000 		.word	.L43+1
 659 0058 85000000 		.word	.L42+1
 660 005c 8D000000 		.word	.L41+1
 661 0060 95000000 		.word	.L39+1
 662              		.p2align 1
 663              	.L46:
 490:Drivers/STM32H7xx_HAL_Driver/Src/stm32h7xx_hal_mdma.c ****     {
 491:Drivers/STM32H7xx_HAL_Driver/Src/stm32h7xx_hal_mdma.c ****     case  HAL_MDMA_XFER_CPLT_CB_ID:
 492:Drivers/STM32H7xx_HAL_Driver/Src/stm32h7xx_hal_mdma.c ****       hmdma->XferCpltCallback = NULL;
 664              		.loc 1 492 31
 665 0064 7B68     		ldr	r3, [r7, #4]
 666 0066 0022     		movs	r2, #0
 667 0068 5A64     		str	r2, [r3, #68]
 493:Drivers/STM32H7xx_HAL_Driver/Src/stm32h7xx_hal_mdma.c ****       break;
 668              		.loc 1 493 7
 669 006a 2BE0     		b	.L48
 670              	.L45:
 494:Drivers/STM32H7xx_HAL_Driver/Src/stm32h7xx_hal_mdma.c **** 
 495:Drivers/STM32H7xx_HAL_Driver/Src/stm32h7xx_hal_mdma.c ****     case  HAL_MDMA_XFER_BUFFERCPLT_CB_ID:
 496:Drivers/STM32H7xx_HAL_Driver/Src/stm32h7xx_hal_mdma.c ****       hmdma->XferBufferCpltCallback = NULL;
 671              		.loc 1 496 37
 672 006c 7B68     		ldr	r3, [r7, #4]
 673 006e 0022     		movs	r2, #0
 674 0070 9A64     		str	r2, [r3, #72]
 497:Drivers/STM32H7xx_HAL_Driver/Src/stm32h7xx_hal_mdma.c ****       break;
 675              		.loc 1 497 7
 676 0072 27E0     		b	.L48
 677              	.L44:
 498:Drivers/STM32H7xx_HAL_Driver/Src/stm32h7xx_hal_mdma.c **** 
 499:Drivers/STM32H7xx_HAL_Driver/Src/stm32h7xx_hal_mdma.c ****     case  HAL_MDMA_XFER_BLOCKCPLT_CB_ID:
 500:Drivers/STM32H7xx_HAL_Driver/Src/stm32h7xx_hal_mdma.c ****       hmdma->XferBlockCpltCallback = NULL;
 678              		.loc 1 500 36
 679 0074 7B68     		ldr	r3, [r7, #4]
 680 0076 0022     		movs	r2, #0
 681 0078 DA64     		str	r2, [r3, #76]
 501:Drivers/STM32H7xx_HAL_Driver/Src/stm32h7xx_hal_mdma.c ****       break;
 682              		.loc 1 501 7
 683 007a 23E0     		b	.L48
 684              	.L43:
 502:Drivers/STM32H7xx_HAL_Driver/Src/stm32h7xx_hal_mdma.c **** 
 503:Drivers/STM32H7xx_HAL_Driver/Src/stm32h7xx_hal_mdma.c ****     case  HAL_MDMA_XFER_REPBLOCKCPLT_CB_ID:
 504:Drivers/STM32H7xx_HAL_Driver/Src/stm32h7xx_hal_mdma.c ****       hmdma->XferRepeatBlockCpltCallback = NULL;
 685              		.loc 1 504 42
 686 007c 7B68     		ldr	r3, [r7, #4]
 687 007e 0022     		movs	r2, #0
 688 0080 1A65     		str	r2, [r3, #80]
 505:Drivers/STM32H7xx_HAL_Driver/Src/stm32h7xx_hal_mdma.c ****       break;
 689              		.loc 1 505 7
 690 0082 1FE0     		b	.L48
 691              	.L42:
 506:Drivers/STM32H7xx_HAL_Driver/Src/stm32h7xx_hal_mdma.c **** 
 507:Drivers/STM32H7xx_HAL_Driver/Src/stm32h7xx_hal_mdma.c ****     case  HAL_MDMA_XFER_ERROR_CB_ID:
 508:Drivers/STM32H7xx_HAL_Driver/Src/stm32h7xx_hal_mdma.c ****       hmdma->XferErrorCallback = NULL;
 692              		.loc 1 508 32
 693 0084 7B68     		ldr	r3, [r7, #4]
ARM GAS  /var/folders/g1/j12m_ky910s3_sv7d4yrsdn00000gn/T//ccW7oTPr.s 			page 22


 694 0086 0022     		movs	r2, #0
 695 0088 5A65     		str	r2, [r3, #84]
 509:Drivers/STM32H7xx_HAL_Driver/Src/stm32h7xx_hal_mdma.c ****       break;
 696              		.loc 1 509 7
 697 008a 1BE0     		b	.L48
 698              	.L41:
 510:Drivers/STM32H7xx_HAL_Driver/Src/stm32h7xx_hal_mdma.c **** 
 511:Drivers/STM32H7xx_HAL_Driver/Src/stm32h7xx_hal_mdma.c ****     case  HAL_MDMA_XFER_ABORT_CB_ID:
 512:Drivers/STM32H7xx_HAL_Driver/Src/stm32h7xx_hal_mdma.c ****       hmdma->XferAbortCallback = NULL;
 699              		.loc 1 512 32
 700 008c 7B68     		ldr	r3, [r7, #4]
 701 008e 0022     		movs	r2, #0
 702 0090 9A65     		str	r2, [r3, #88]
 513:Drivers/STM32H7xx_HAL_Driver/Src/stm32h7xx_hal_mdma.c ****       break;
 703              		.loc 1 513 7
 704 0092 17E0     		b	.L48
 705              	.L39:
 514:Drivers/STM32H7xx_HAL_Driver/Src/stm32h7xx_hal_mdma.c **** 
 515:Drivers/STM32H7xx_HAL_Driver/Src/stm32h7xx_hal_mdma.c ****     case   HAL_MDMA_XFER_ALL_CB_ID:
 516:Drivers/STM32H7xx_HAL_Driver/Src/stm32h7xx_hal_mdma.c ****       hmdma->XferCpltCallback = NULL;
 706              		.loc 1 516 31
 707 0094 7B68     		ldr	r3, [r7, #4]
 708 0096 0022     		movs	r2, #0
 709 0098 5A64     		str	r2, [r3, #68]
 517:Drivers/STM32H7xx_HAL_Driver/Src/stm32h7xx_hal_mdma.c ****       hmdma->XferBufferCpltCallback = NULL;
 710              		.loc 1 517 37
 711 009a 7B68     		ldr	r3, [r7, #4]
 712 009c 0022     		movs	r2, #0
 713 009e 9A64     		str	r2, [r3, #72]
 518:Drivers/STM32H7xx_HAL_Driver/Src/stm32h7xx_hal_mdma.c ****       hmdma->XferBlockCpltCallback = NULL;
 714              		.loc 1 518 36
 715 00a0 7B68     		ldr	r3, [r7, #4]
 716 00a2 0022     		movs	r2, #0
 717 00a4 DA64     		str	r2, [r3, #76]
 519:Drivers/STM32H7xx_HAL_Driver/Src/stm32h7xx_hal_mdma.c ****       hmdma->XferRepeatBlockCpltCallback = NULL;
 718              		.loc 1 519 42
 719 00a6 7B68     		ldr	r3, [r7, #4]
 720 00a8 0022     		movs	r2, #0
 721 00aa 1A65     		str	r2, [r3, #80]
 520:Drivers/STM32H7xx_HAL_Driver/Src/stm32h7xx_hal_mdma.c ****       hmdma->XferErrorCallback = NULL;
 722              		.loc 1 520 32
 723 00ac 7B68     		ldr	r3, [r7, #4]
 724 00ae 0022     		movs	r2, #0
 725 00b0 5A65     		str	r2, [r3, #84]
 521:Drivers/STM32H7xx_HAL_Driver/Src/stm32h7xx_hal_mdma.c ****       hmdma->XferAbortCallback = NULL;
 726              		.loc 1 521 32
 727 00b2 7B68     		ldr	r3, [r7, #4]
 728 00b4 0022     		movs	r2, #0
 729 00b6 9A65     		str	r2, [r3, #88]
 522:Drivers/STM32H7xx_HAL_Driver/Src/stm32h7xx_hal_mdma.c ****       break;
 730              		.loc 1 522 7
 731 00b8 04E0     		b	.L48
 732              	.L38:
 523:Drivers/STM32H7xx_HAL_Driver/Src/stm32h7xx_hal_mdma.c **** 
 524:Drivers/STM32H7xx_HAL_Driver/Src/stm32h7xx_hal_mdma.c ****     default:
 525:Drivers/STM32H7xx_HAL_Driver/Src/stm32h7xx_hal_mdma.c ****       status = HAL_ERROR;
 733              		.loc 1 525 14
ARM GAS  /var/folders/g1/j12m_ky910s3_sv7d4yrsdn00000gn/T//ccW7oTPr.s 			page 23


 734 00ba 0123     		movs	r3, #1
 735 00bc FB73     		strb	r3, [r7, #15]
 526:Drivers/STM32H7xx_HAL_Driver/Src/stm32h7xx_hal_mdma.c ****       break;
 736              		.loc 1 526 7
 737 00be 01E0     		b	.L48
 738              	.L37:
 527:Drivers/STM32H7xx_HAL_Driver/Src/stm32h7xx_hal_mdma.c ****     }
 528:Drivers/STM32H7xx_HAL_Driver/Src/stm32h7xx_hal_mdma.c ****   }
 529:Drivers/STM32H7xx_HAL_Driver/Src/stm32h7xx_hal_mdma.c ****   else
 530:Drivers/STM32H7xx_HAL_Driver/Src/stm32h7xx_hal_mdma.c ****   {
 531:Drivers/STM32H7xx_HAL_Driver/Src/stm32h7xx_hal_mdma.c ****     status = HAL_ERROR;
 739              		.loc 1 531 12
 740 00c0 0123     		movs	r3, #1
 741 00c2 FB73     		strb	r3, [r7, #15]
 742              	.L48:
 532:Drivers/STM32H7xx_HAL_Driver/Src/stm32h7xx_hal_mdma.c ****   }
 533:Drivers/STM32H7xx_HAL_Driver/Src/stm32h7xx_hal_mdma.c **** 
 534:Drivers/STM32H7xx_HAL_Driver/Src/stm32h7xx_hal_mdma.c ****   /* Release Lock */
 535:Drivers/STM32H7xx_HAL_Driver/Src/stm32h7xx_hal_mdma.c ****   __HAL_UNLOCK(hmdma);
 743              		.loc 1 535 3
 744 00c4 7B68     		ldr	r3, [r7, #4]
 745 00c6 0022     		movs	r2, #0
 746 00c8 83F83C20 		strb	r2, [r3, #60]
 536:Drivers/STM32H7xx_HAL_Driver/Src/stm32h7xx_hal_mdma.c **** 
 537:Drivers/STM32H7xx_HAL_Driver/Src/stm32h7xx_hal_mdma.c ****   return status;
 747              		.loc 1 537 10
 748 00cc FB7B     		ldrb	r3, [r7, #15]	@ zero_extendqisi2
 749              	.L35:
 538:Drivers/STM32H7xx_HAL_Driver/Src/stm32h7xx_hal_mdma.c **** }
 750              		.loc 1 538 1
 751 00ce 1846     		mov	r0, r3
 752 00d0 1437     		adds	r7, r7, #20
 753              	.LCFI26:
 754              		.cfi_def_cfa_offset 4
 755 00d2 BD46     		mov	sp, r7
 756              	.LCFI27:
 757              		.cfi_def_cfa_register 13
 758              		@ sp needed
 759 00d4 5DF8047B 		ldr	r7, [sp], #4
 760              	.LCFI28:
 761              		.cfi_restore 7
 762              		.cfi_def_cfa_offset 0
 763 00d8 7047     		bx	lr
 764              		.cfi_endproc
 765              	.LFE148:
 767 00da 00BF     		.section	.text.HAL_MDMA_LinkedList_CreateNode,"ax",%progbits
 768              		.align	1
 769              		.global	HAL_MDMA_LinkedList_CreateNode
 770              		.syntax unified
 771              		.thumb
 772              		.thumb_func
 774              	HAL_MDMA_LinkedList_CreateNode:
 775              	.LFB149:
 539:Drivers/STM32H7xx_HAL_Driver/Src/stm32h7xx_hal_mdma.c **** 
 540:Drivers/STM32H7xx_HAL_Driver/Src/stm32h7xx_hal_mdma.c **** /**
 541:Drivers/STM32H7xx_HAL_Driver/Src/stm32h7xx_hal_mdma.c ****   * @}
 542:Drivers/STM32H7xx_HAL_Driver/Src/stm32h7xx_hal_mdma.c ****   */
ARM GAS  /var/folders/g1/j12m_ky910s3_sv7d4yrsdn00000gn/T//ccW7oTPr.s 			page 24


 543:Drivers/STM32H7xx_HAL_Driver/Src/stm32h7xx_hal_mdma.c **** 
 544:Drivers/STM32H7xx_HAL_Driver/Src/stm32h7xx_hal_mdma.c **** /** @addtogroup MDMA_Exported_Functions_Group2
 545:Drivers/STM32H7xx_HAL_Driver/Src/stm32h7xx_hal_mdma.c ****  *
 546:Drivers/STM32H7xx_HAL_Driver/Src/stm32h7xx_hal_mdma.c **** @verbatim
 547:Drivers/STM32H7xx_HAL_Driver/Src/stm32h7xx_hal_mdma.c ****  ===============================================================================
 548:Drivers/STM32H7xx_HAL_Driver/Src/stm32h7xx_hal_mdma.c ****                       #####  Linked list operation functions  #####
 549:Drivers/STM32H7xx_HAL_Driver/Src/stm32h7xx_hal_mdma.c ****  ===============================================================================
 550:Drivers/STM32H7xx_HAL_Driver/Src/stm32h7xx_hal_mdma.c ****     [..]  This section provides functions allowing to:
 551:Drivers/STM32H7xx_HAL_Driver/Src/stm32h7xx_hal_mdma.c ****       (+) Create a linked list node
 552:Drivers/STM32H7xx_HAL_Driver/Src/stm32h7xx_hal_mdma.c ****       (+) Add a node to the MDMA linked list
 553:Drivers/STM32H7xx_HAL_Driver/Src/stm32h7xx_hal_mdma.c ****       (+) Remove a node from the MDMA linked list
 554:Drivers/STM32H7xx_HAL_Driver/Src/stm32h7xx_hal_mdma.c ****       (+) Enable/Disable linked list circular mode
 555:Drivers/STM32H7xx_HAL_Driver/Src/stm32h7xx_hal_mdma.c **** @endverbatim
 556:Drivers/STM32H7xx_HAL_Driver/Src/stm32h7xx_hal_mdma.c ****   * @{
 557:Drivers/STM32H7xx_HAL_Driver/Src/stm32h7xx_hal_mdma.c ****   */
 558:Drivers/STM32H7xx_HAL_Driver/Src/stm32h7xx_hal_mdma.c **** 
 559:Drivers/STM32H7xx_HAL_Driver/Src/stm32h7xx_hal_mdma.c **** /**
 560:Drivers/STM32H7xx_HAL_Driver/Src/stm32h7xx_hal_mdma.c ****   * @brief  Initializes an MDMA Link Node according to the specified
 561:Drivers/STM32H7xx_HAL_Driver/Src/stm32h7xx_hal_mdma.c ****   *         parameters in the pMDMA_LinkedListNodeConfig .
 562:Drivers/STM32H7xx_HAL_Driver/Src/stm32h7xx_hal_mdma.c ****   * @param  pNode: Pointer to a MDMA_LinkNodeTypeDef structure that contains Linked list node
 563:Drivers/STM32H7xx_HAL_Driver/Src/stm32h7xx_hal_mdma.c ****   *         registers configurations.
 564:Drivers/STM32H7xx_HAL_Driver/Src/stm32h7xx_hal_mdma.c ****   * @param  pNodeConfig: Pointer to a MDMA_LinkNodeConfTypeDef structure that contains
 565:Drivers/STM32H7xx_HAL_Driver/Src/stm32h7xx_hal_mdma.c ****   *               the configuration information for the specified MDMA Linked List Node.
 566:Drivers/STM32H7xx_HAL_Driver/Src/stm32h7xx_hal_mdma.c ****   * @retval HAL status
 567:Drivers/STM32H7xx_HAL_Driver/Src/stm32h7xx_hal_mdma.c ****   */
 568:Drivers/STM32H7xx_HAL_Driver/Src/stm32h7xx_hal_mdma.c **** HAL_StatusTypeDef HAL_MDMA_LinkedList_CreateNode(MDMA_LinkNodeTypeDef *pNode, MDMA_LinkNodeConfType
 569:Drivers/STM32H7xx_HAL_Driver/Src/stm32h7xx_hal_mdma.c **** {
 776              		.loc 1 569 1
 777              		.cfi_startproc
 778              		@ args = 0, pretend = 0, frame = 16
 779              		@ frame_needed = 1, uses_anonymous_args = 0
 780              		@ link register save eliminated.
 781 0000 80B4     		push	{r7}
 782              	.LCFI29:
 783              		.cfi_def_cfa_offset 4
 784              		.cfi_offset 7, -4
 785 0002 85B0     		sub	sp, sp, #20
 786              	.LCFI30:
 787              		.cfi_def_cfa_offset 24
 788 0004 00AF     		add	r7, sp, #0
 789              	.LCFI31:
 790              		.cfi_def_cfa_register 7
 791 0006 7860     		str	r0, [r7, #4]
 792 0008 3960     		str	r1, [r7]
 570:Drivers/STM32H7xx_HAL_Driver/Src/stm32h7xx_hal_mdma.c ****   uint32_t addressMask;
 571:Drivers/STM32H7xx_HAL_Driver/Src/stm32h7xx_hal_mdma.c ****   uint32_t blockoffset;
 572:Drivers/STM32H7xx_HAL_Driver/Src/stm32h7xx_hal_mdma.c **** 
 573:Drivers/STM32H7xx_HAL_Driver/Src/stm32h7xx_hal_mdma.c ****   /* Check the MDMA peripheral state */
 574:Drivers/STM32H7xx_HAL_Driver/Src/stm32h7xx_hal_mdma.c ****   if((pNode == NULL) || (pNodeConfig == NULL))
 793              		.loc 1 574 5
 794 000a 7B68     		ldr	r3, [r7, #4]
 795 000c 002B     		cmp	r3, #0
 796 000e 02D0     		beq	.L50
 797              		.loc 1 574 22 discriminator 1
 798 0010 3B68     		ldr	r3, [r7]
 799 0012 002B     		cmp	r3, #0
 800 0014 01D1     		bne	.L51
ARM GAS  /var/folders/g1/j12m_ky910s3_sv7d4yrsdn00000gn/T//ccW7oTPr.s 			page 25


 801              	.L50:
 575:Drivers/STM32H7xx_HAL_Driver/Src/stm32h7xx_hal_mdma.c ****   {
 576:Drivers/STM32H7xx_HAL_Driver/Src/stm32h7xx_hal_mdma.c ****     return HAL_ERROR;
 802              		.loc 1 576 12
 803 0016 0123     		movs	r3, #1
 804 0018 C8E0     		b	.L52
 805              	.L51:
 577:Drivers/STM32H7xx_HAL_Driver/Src/stm32h7xx_hal_mdma.c ****   }
 578:Drivers/STM32H7xx_HAL_Driver/Src/stm32h7xx_hal_mdma.c **** 
 579:Drivers/STM32H7xx_HAL_Driver/Src/stm32h7xx_hal_mdma.c ****   /* Check the parameters */
 580:Drivers/STM32H7xx_HAL_Driver/Src/stm32h7xx_hal_mdma.c ****   assert_param(IS_MDMA_PRIORITY(pNodeConfig->Init.Priority));
 581:Drivers/STM32H7xx_HAL_Driver/Src/stm32h7xx_hal_mdma.c ****   assert_param(IS_MDMA_ENDIANNESS_MODE(pNodeConfig->Init.Endianness));
 582:Drivers/STM32H7xx_HAL_Driver/Src/stm32h7xx_hal_mdma.c ****   assert_param(IS_MDMA_REQUEST(pNodeConfig->Init.Request));
 583:Drivers/STM32H7xx_HAL_Driver/Src/stm32h7xx_hal_mdma.c ****   assert_param(IS_MDMA_SOURCE_INC(pNodeConfig->Init.SourceInc));
 584:Drivers/STM32H7xx_HAL_Driver/Src/stm32h7xx_hal_mdma.c ****   assert_param(IS_MDMA_DESTINATION_INC(pNodeConfig->Init.DestinationInc));
 585:Drivers/STM32H7xx_HAL_Driver/Src/stm32h7xx_hal_mdma.c ****   assert_param(IS_MDMA_SOURCE_DATASIZE(pNodeConfig->Init.SourceDataSize));
 586:Drivers/STM32H7xx_HAL_Driver/Src/stm32h7xx_hal_mdma.c ****   assert_param(IS_MDMA_DESTINATION_DATASIZE(pNodeConfig->Init.DestDataSize));
 587:Drivers/STM32H7xx_HAL_Driver/Src/stm32h7xx_hal_mdma.c ****   assert_param(IS_MDMA_DATA_ALIGNMENT(pNodeConfig->Init.DataAlignment));
 588:Drivers/STM32H7xx_HAL_Driver/Src/stm32h7xx_hal_mdma.c ****   assert_param(IS_MDMA_SOURCE_BURST(pNodeConfig->Init.SourceBurst));
 589:Drivers/STM32H7xx_HAL_Driver/Src/stm32h7xx_hal_mdma.c ****   assert_param(IS_MDMA_DESTINATION_BURST(pNodeConfig->Init.DestBurst));
 590:Drivers/STM32H7xx_HAL_Driver/Src/stm32h7xx_hal_mdma.c ****   assert_param(IS_MDMA_BUFFER_TRANSFER_LENGTH(pNodeConfig->Init.BufferTransferLength));
 591:Drivers/STM32H7xx_HAL_Driver/Src/stm32h7xx_hal_mdma.c ****   assert_param(IS_MDMA_TRANSFER_TRIGGER_MODE(pNodeConfig->Init.TransferTriggerMode));
 592:Drivers/STM32H7xx_HAL_Driver/Src/stm32h7xx_hal_mdma.c ****   assert_param(IS_MDMA_BLOCK_ADDR_OFFSET(pNodeConfig->Init.SourceBlockAddressOffset));
 593:Drivers/STM32H7xx_HAL_Driver/Src/stm32h7xx_hal_mdma.c ****   assert_param(IS_MDMA_BLOCK_ADDR_OFFSET(pNodeConfig->Init.DestBlockAddressOffset));
 594:Drivers/STM32H7xx_HAL_Driver/Src/stm32h7xx_hal_mdma.c **** 
 595:Drivers/STM32H7xx_HAL_Driver/Src/stm32h7xx_hal_mdma.c ****   assert_param(IS_MDMA_TRANSFER_LENGTH(pNodeConfig->BlockDataLength));
 596:Drivers/STM32H7xx_HAL_Driver/Src/stm32h7xx_hal_mdma.c ****   assert_param(IS_MDMA_BLOCK_COUNT(pNodeConfig->BlockCount));
 597:Drivers/STM32H7xx_HAL_Driver/Src/stm32h7xx_hal_mdma.c **** 
 598:Drivers/STM32H7xx_HAL_Driver/Src/stm32h7xx_hal_mdma.c **** 
 599:Drivers/STM32H7xx_HAL_Driver/Src/stm32h7xx_hal_mdma.c ****   /* Configure next Link node Address Register to zero */
 600:Drivers/STM32H7xx_HAL_Driver/Src/stm32h7xx_hal_mdma.c ****   pNode->CLAR =  0;
 806              		.loc 1 600 15
 807 001a 7B68     		ldr	r3, [r7, #4]
 808 001c 0022     		movs	r2, #0
 809 001e 5A61     		str	r2, [r3, #20]
 601:Drivers/STM32H7xx_HAL_Driver/Src/stm32h7xx_hal_mdma.c **** 
 602:Drivers/STM32H7xx_HAL_Driver/Src/stm32h7xx_hal_mdma.c ****   /* Configure the Link Node registers*/
 603:Drivers/STM32H7xx_HAL_Driver/Src/stm32h7xx_hal_mdma.c ****   pNode->CTBR   = 0;
 810              		.loc 1 603 17
 811 0020 7B68     		ldr	r3, [r7, #4]
 812 0022 0022     		movs	r2, #0
 813 0024 9A61     		str	r2, [r3, #24]
 604:Drivers/STM32H7xx_HAL_Driver/Src/stm32h7xx_hal_mdma.c ****   pNode->CMAR   = 0;
 814              		.loc 1 604 17
 815 0026 7B68     		ldr	r3, [r7, #4]
 816 0028 0022     		movs	r2, #0
 817 002a 1A62     		str	r2, [r3, #32]
 605:Drivers/STM32H7xx_HAL_Driver/Src/stm32h7xx_hal_mdma.c ****   pNode->CMDR   = 0;
 818              		.loc 1 605 17
 819 002c 7B68     		ldr	r3, [r7, #4]
 820 002e 0022     		movs	r2, #0
 821 0030 5A62     		str	r2, [r3, #36]
 606:Drivers/STM32H7xx_HAL_Driver/Src/stm32h7xx_hal_mdma.c ****   pNode->Reserved = 0;
 822              		.loc 1 606 19
 823 0032 7B68     		ldr	r3, [r7, #4]
 824 0034 0022     		movs	r2, #0
 825 0036 DA61     		str	r2, [r3, #28]
ARM GAS  /var/folders/g1/j12m_ky910s3_sv7d4yrsdn00000gn/T//ccW7oTPr.s 			page 26


 607:Drivers/STM32H7xx_HAL_Driver/Src/stm32h7xx_hal_mdma.c **** 
 608:Drivers/STM32H7xx_HAL_Driver/Src/stm32h7xx_hal_mdma.c ****   /* Write new CTCR Register value */
 609:Drivers/STM32H7xx_HAL_Driver/Src/stm32h7xx_hal_mdma.c ****   pNode->CTCR =  pNodeConfig->Init.SourceInc | pNodeConfig->Init.DestinationInc | \
 826              		.loc 1 609 35
 827 0038 3B68     		ldr	r3, [r7]
 828 003a 1A69     		ldr	r2, [r3, #16]
 829              		.loc 1 609 65
 830 003c 3B68     		ldr	r3, [r7]
 831 003e 5B69     		ldr	r3, [r3, #20]
 832              		.loc 1 609 46
 833 0040 1A43     		orrs	r2, r2, r3
 610:Drivers/STM32H7xx_HAL_Driver/Src/stm32h7xx_hal_mdma.c ****     pNodeConfig->Init.SourceDataSize | pNodeConfig->Init.DestDataSize           | \
 834              		.loc 1 610 22
 835 0042 3B68     		ldr	r3, [r7]
 836 0044 9B69     		ldr	r3, [r3, #24]
 609:Drivers/STM32H7xx_HAL_Driver/Src/stm32h7xx_hal_mdma.c ****     pNodeConfig->Init.SourceDataSize | pNodeConfig->Init.DestDataSize           | \
 837              		.loc 1 609 81
 838 0046 1A43     		orrs	r2, r2, r3
 839              		.loc 1 610 57
 840 0048 3B68     		ldr	r3, [r7]
 841 004a DB69     		ldr	r3, [r3, #28]
 842              		.loc 1 610 38
 843 004c 1A43     		orrs	r2, r2, r3
 611:Drivers/STM32H7xx_HAL_Driver/Src/stm32h7xx_hal_mdma.c ****       pNodeConfig->Init.DataAlignment| pNodeConfig->Init.SourceBurst            | \
 844              		.loc 1 611 24
 845 004e 3B68     		ldr	r3, [r7]
 846 0050 1B6A     		ldr	r3, [r3, #32]
 610:Drivers/STM32H7xx_HAL_Driver/Src/stm32h7xx_hal_mdma.c ****     pNodeConfig->Init.SourceDataSize | pNodeConfig->Init.DestDataSize           | \
 847              		.loc 1 610 81
 848 0052 1A43     		orrs	r2, r2, r3
 849              		.loc 1 611 57
 850 0054 3B68     		ldr	r3, [r7]
 851 0056 9B6A     		ldr	r3, [r3, #40]
 852              		.loc 1 611 38
 853 0058 1A43     		orrs	r2, r2, r3
 612:Drivers/STM32H7xx_HAL_Driver/Src/stm32h7xx_hal_mdma.c ****         pNodeConfig->Init.DestBurst                                             | \
 854              		.loc 1 612 26
 855 005a 3B68     		ldr	r3, [r7]
 856 005c DB6A     		ldr	r3, [r3, #44]
 611:Drivers/STM32H7xx_HAL_Driver/Src/stm32h7xx_hal_mdma.c ****       pNodeConfig->Init.DataAlignment| pNodeConfig->Init.SourceBurst            | \
 857              		.loc 1 611 81
 858 005e 1A43     		orrs	r2, r2, r3
 613:Drivers/STM32H7xx_HAL_Driver/Src/stm32h7xx_hal_mdma.c ****           ((pNodeConfig->Init.BufferTransferLength - 1U) << MDMA_CTCR_TLEN_Pos) | \
 859              		.loc 1 613 30
 860 0060 3B68     		ldr	r3, [r7]
 861 0062 5B6A     		ldr	r3, [r3, #36]
 862              		.loc 1 613 52
 863 0064 013B     		subs	r3, r3, #1
 864              		.loc 1 613 58
 865 0066 9B04     		lsls	r3, r3, #18
 612:Drivers/STM32H7xx_HAL_Driver/Src/stm32h7xx_hal_mdma.c ****         pNodeConfig->Init.DestBurst                                             | \
 866              		.loc 1 612 81
 867 0068 1A43     		orrs	r2, r2, r3
 614:Drivers/STM32H7xx_HAL_Driver/Src/stm32h7xx_hal_mdma.c ****             pNodeConfig->Init.TransferTriggerMode;
 868              		.loc 1 614 30
 869 006a 3B68     		ldr	r3, [r7]
 870 006c 5B68     		ldr	r3, [r3, #4]
ARM GAS  /var/folders/g1/j12m_ky910s3_sv7d4yrsdn00000gn/T//ccW7oTPr.s 			page 27


 613:Drivers/STM32H7xx_HAL_Driver/Src/stm32h7xx_hal_mdma.c ****           ((pNodeConfig->Init.BufferTransferLength - 1U) << MDMA_CTCR_TLEN_Pos) | \
 871              		.loc 1 613 81
 872 006e 1A43     		orrs	r2, r2, r3
 609:Drivers/STM32H7xx_HAL_Driver/Src/stm32h7xx_hal_mdma.c ****     pNodeConfig->Init.SourceDataSize | pNodeConfig->Init.DestDataSize           | \
 873              		.loc 1 609 15
 874 0070 7B68     		ldr	r3, [r7, #4]
 875 0072 1A60     		str	r2, [r3]
 615:Drivers/STM32H7xx_HAL_Driver/Src/stm32h7xx_hal_mdma.c **** 
 616:Drivers/STM32H7xx_HAL_Driver/Src/stm32h7xx_hal_mdma.c ****   /* If SW request set the CTCR register to SW Request Mode*/
 617:Drivers/STM32H7xx_HAL_Driver/Src/stm32h7xx_hal_mdma.c ****   if(pNodeConfig->Init.Request == MDMA_REQUEST_SW)
 876              		.loc 1 617 23
 877 0074 3B68     		ldr	r3, [r7]
 878 0076 1B68     		ldr	r3, [r3]
 879              		.loc 1 617 5
 880 0078 B3F1804F 		cmp	r3, #1073741824
 881 007c 05D1     		bne	.L53
 618:Drivers/STM32H7xx_HAL_Driver/Src/stm32h7xx_hal_mdma.c ****   {
 619:Drivers/STM32H7xx_HAL_Driver/Src/stm32h7xx_hal_mdma.c ****     pNode->CTCR |= MDMA_CTCR_SWRM;
 882              		.loc 1 619 10
 883 007e 7B68     		ldr	r3, [r7, #4]
 884 0080 1B68     		ldr	r3, [r3]
 885              		.loc 1 619 17
 886 0082 43F08042 		orr	r2, r3, #1073741824
 887 0086 7B68     		ldr	r3, [r7, #4]
 888 0088 1A60     		str	r2, [r3]
 889              	.L53:
 620:Drivers/STM32H7xx_HAL_Driver/Src/stm32h7xx_hal_mdma.c ****   }
 621:Drivers/STM32H7xx_HAL_Driver/Src/stm32h7xx_hal_mdma.c **** 
 622:Drivers/STM32H7xx_HAL_Driver/Src/stm32h7xx_hal_mdma.c ****   /*
 623:Drivers/STM32H7xx_HAL_Driver/Src/stm32h7xx_hal_mdma.c ****   -If the request is done by SW : BWM could be set to 1 or 0.
 624:Drivers/STM32H7xx_HAL_Driver/Src/stm32h7xx_hal_mdma.c ****   -If the request is done by a peripheral :
 625:Drivers/STM32H7xx_HAL_Driver/Src/stm32h7xx_hal_mdma.c ****      If mask address not set (0) => BWM must be set to 0
 626:Drivers/STM32H7xx_HAL_Driver/Src/stm32h7xx_hal_mdma.c ****      If mask address set (different than 0) => BWM could be set to 1 or 0
 627:Drivers/STM32H7xx_HAL_Driver/Src/stm32h7xx_hal_mdma.c ****   */
 628:Drivers/STM32H7xx_HAL_Driver/Src/stm32h7xx_hal_mdma.c ****   if((pNodeConfig->Init.Request == MDMA_REQUEST_SW) || (pNodeConfig->PostRequestMaskAddress != 0U))
 890              		.loc 1 628 24
 891 008a 3B68     		ldr	r3, [r7]
 892 008c 1B68     		ldr	r3, [r3]
 893              		.loc 1 628 5
 894 008e B3F1804F 		cmp	r3, #1073741824
 895 0092 03D0     		beq	.L54
 896              		.loc 1 628 68 discriminator 1
 897 0094 3B68     		ldr	r3, [r7]
 898 0096 9B6C     		ldr	r3, [r3, #72]
 899              		.loc 1 628 53 discriminator 1
 900 0098 002B     		cmp	r3, #0
 901 009a 05D0     		beq	.L55
 902              	.L54:
 629:Drivers/STM32H7xx_HAL_Driver/Src/stm32h7xx_hal_mdma.c ****   {
 630:Drivers/STM32H7xx_HAL_Driver/Src/stm32h7xx_hal_mdma.c ****     pNode->CTCR |=  MDMA_CTCR_BWM;
 903              		.loc 1 630 10
 904 009c 7B68     		ldr	r3, [r7, #4]
 905 009e 1B68     		ldr	r3, [r3]
 906              		.loc 1 630 17
 907 00a0 43F00042 		orr	r2, r3, #-2147483648
 908 00a4 7B68     		ldr	r3, [r7, #4]
 909 00a6 1A60     		str	r2, [r3]
ARM GAS  /var/folders/g1/j12m_ky910s3_sv7d4yrsdn00000gn/T//ccW7oTPr.s 			page 28


 910              	.L55:
 631:Drivers/STM32H7xx_HAL_Driver/Src/stm32h7xx_hal_mdma.c ****   }
 632:Drivers/STM32H7xx_HAL_Driver/Src/stm32h7xx_hal_mdma.c **** 
 633:Drivers/STM32H7xx_HAL_Driver/Src/stm32h7xx_hal_mdma.c ****   /* Set the new CBNDTR Register value */
 634:Drivers/STM32H7xx_HAL_Driver/Src/stm32h7xx_hal_mdma.c ****   pNode->CBNDTR = ((pNodeConfig->BlockCount - 1U) << MDMA_CBNDTR_BRC_Pos) & MDMA_CBNDTR_BRC;
 911              		.loc 1 634 32
 912 00a8 3B68     		ldr	r3, [r7]
 913 00aa 5B6C     		ldr	r3, [r3, #68]
 914              		.loc 1 634 45
 915 00ac 013B     		subs	r3, r3, #1
 916              		.loc 1 634 75
 917 00ae 1A05     		lsls	r2, r3, #20
 918              		.loc 1 634 17
 919 00b0 7B68     		ldr	r3, [r7, #4]
 920 00b2 5A60     		str	r2, [r3, #4]
 635:Drivers/STM32H7xx_HAL_Driver/Src/stm32h7xx_hal_mdma.c **** 
 636:Drivers/STM32H7xx_HAL_Driver/Src/stm32h7xx_hal_mdma.c ****   /* if block source address offset is negative set the Block Repeat Source address Update Mode to 
 637:Drivers/STM32H7xx_HAL_Driver/Src/stm32h7xx_hal_mdma.c ****   if(pNodeConfig->Init.SourceBlockAddressOffset < 0)
 921              		.loc 1 637 23
 922 00b4 3B68     		ldr	r3, [r7]
 923 00b6 1B6B     		ldr	r3, [r3, #48]
 924              		.loc 1 637 5
 925 00b8 002B     		cmp	r3, #0
 926 00ba 0EDA     		bge	.L56
 638:Drivers/STM32H7xx_HAL_Driver/Src/stm32h7xx_hal_mdma.c ****   {
 639:Drivers/STM32H7xx_HAL_Driver/Src/stm32h7xx_hal_mdma.c ****     pNode->CBNDTR |= MDMA_CBNDTR_BRSUM;
 927              		.loc 1 639 10
 928 00bc 7B68     		ldr	r3, [r7, #4]
 929 00be 5B68     		ldr	r3, [r3, #4]
 930              		.loc 1 639 19
 931 00c0 43F48022 		orr	r2, r3, #262144
 932 00c4 7B68     		ldr	r3, [r7, #4]
 933 00c6 5A60     		str	r2, [r3, #4]
 640:Drivers/STM32H7xx_HAL_Driver/Src/stm32h7xx_hal_mdma.c ****     /*write new CBRUR Register value : source repeat block offset */
 641:Drivers/STM32H7xx_HAL_Driver/Src/stm32h7xx_hal_mdma.c ****     blockoffset = (uint32_t)(- pNodeConfig->Init.SourceBlockAddressOffset);
 934              		.loc 1 641 49
 935 00c8 3B68     		ldr	r3, [r7]
 936 00ca 1B6B     		ldr	r3, [r3, #48]
 937              		.loc 1 641 30
 938 00cc 5B42     		rsbs	r3, r3, #0
 939              		.loc 1 641 17
 940 00ce FB60     		str	r3, [r7, #12]
 642:Drivers/STM32H7xx_HAL_Driver/Src/stm32h7xx_hal_mdma.c ****     pNode->CBRUR = blockoffset & 0x0000FFFFU;
 941              		.loc 1 642 32
 942 00d0 FB68     		ldr	r3, [r7, #12]
 943 00d2 9AB2     		uxth	r2, r3
 944              		.loc 1 642 18
 945 00d4 7B68     		ldr	r3, [r7, #4]
 946 00d6 1A61     		str	r2, [r3, #16]
 947 00d8 04E0     		b	.L57
 948              	.L56:
 643:Drivers/STM32H7xx_HAL_Driver/Src/stm32h7xx_hal_mdma.c ****   }
 644:Drivers/STM32H7xx_HAL_Driver/Src/stm32h7xx_hal_mdma.c ****   else
 645:Drivers/STM32H7xx_HAL_Driver/Src/stm32h7xx_hal_mdma.c ****   {
 646:Drivers/STM32H7xx_HAL_Driver/Src/stm32h7xx_hal_mdma.c ****     /*write new CBRUR Register value : source repeat block offset */
 647:Drivers/STM32H7xx_HAL_Driver/Src/stm32h7xx_hal_mdma.c ****     pNode->CBRUR = (((uint32_t) pNodeConfig->Init.SourceBlockAddressOffset) & 0x0000FFFFU);
 949              		.loc 1 647 50
ARM GAS  /var/folders/g1/j12m_ky910s3_sv7d4yrsdn00000gn/T//ccW7oTPr.s 			page 29


 950 00da 3B68     		ldr	r3, [r7]
 951 00dc 1B6B     		ldr	r3, [r3, #48]
 952              		.loc 1 647 77
 953 00de 9AB2     		uxth	r2, r3
 954              		.loc 1 647 18
 955 00e0 7B68     		ldr	r3, [r7, #4]
 956 00e2 1A61     		str	r2, [r3, #16]
 957              	.L57:
 648:Drivers/STM32H7xx_HAL_Driver/Src/stm32h7xx_hal_mdma.c ****   }
 649:Drivers/STM32H7xx_HAL_Driver/Src/stm32h7xx_hal_mdma.c **** 
 650:Drivers/STM32H7xx_HAL_Driver/Src/stm32h7xx_hal_mdma.c ****   /* if block destination address offset is negative set the Block Repeat destination address Updat
 651:Drivers/STM32H7xx_HAL_Driver/Src/stm32h7xx_hal_mdma.c ****   if(pNodeConfig->Init.DestBlockAddressOffset < 0)
 958              		.loc 1 651 23
 959 00e4 3B68     		ldr	r3, [r7]
 960 00e6 5B6B     		ldr	r3, [r3, #52]
 961              		.loc 1 651 5
 962 00e8 002B     		cmp	r3, #0
 963 00ea 11DA     		bge	.L58
 652:Drivers/STM32H7xx_HAL_Driver/Src/stm32h7xx_hal_mdma.c ****   {
 653:Drivers/STM32H7xx_HAL_Driver/Src/stm32h7xx_hal_mdma.c ****     pNode->CBNDTR |= MDMA_CBNDTR_BRDUM;
 964              		.loc 1 653 10
 965 00ec 7B68     		ldr	r3, [r7, #4]
 966 00ee 5B68     		ldr	r3, [r3, #4]
 967              		.loc 1 653 19
 968 00f0 43F40022 		orr	r2, r3, #524288
 969 00f4 7B68     		ldr	r3, [r7, #4]
 970 00f6 5A60     		str	r2, [r3, #4]
 654:Drivers/STM32H7xx_HAL_Driver/Src/stm32h7xx_hal_mdma.c ****     /*write new CBRUR Register value : destination repeat block offset */
 655:Drivers/STM32H7xx_HAL_Driver/Src/stm32h7xx_hal_mdma.c ****     blockoffset = (uint32_t)(- pNodeConfig->Init.DestBlockAddressOffset);
 971              		.loc 1 655 49
 972 00f8 3B68     		ldr	r3, [r7]
 973 00fa 5B6B     		ldr	r3, [r3, #52]
 974              		.loc 1 655 30
 975 00fc 5B42     		rsbs	r3, r3, #0
 976              		.loc 1 655 17
 977 00fe FB60     		str	r3, [r7, #12]
 656:Drivers/STM32H7xx_HAL_Driver/Src/stm32h7xx_hal_mdma.c ****     pNode->CBRUR |= ((blockoffset & 0x0000FFFFU) << MDMA_CBRUR_DUV_Pos);
 978              		.loc 1 656 10
 979 0100 7B68     		ldr	r3, [r7, #4]
 980 0102 1A69     		ldr	r2, [r3, #16]
 981              		.loc 1 656 50
 982 0104 FB68     		ldr	r3, [r7, #12]
 983 0106 1B04     		lsls	r3, r3, #16
 984              		.loc 1 656 18
 985 0108 1A43     		orrs	r2, r2, r3
 986 010a 7B68     		ldr	r3, [r7, #4]
 987 010c 1A61     		str	r2, [r3, #16]
 988 010e 07E0     		b	.L59
 989              	.L58:
 657:Drivers/STM32H7xx_HAL_Driver/Src/stm32h7xx_hal_mdma.c ****   }
 658:Drivers/STM32H7xx_HAL_Driver/Src/stm32h7xx_hal_mdma.c ****   else
 659:Drivers/STM32H7xx_HAL_Driver/Src/stm32h7xx_hal_mdma.c ****   {
 660:Drivers/STM32H7xx_HAL_Driver/Src/stm32h7xx_hal_mdma.c ****     /*write new CBRUR Register value : destination repeat block offset */
 661:Drivers/STM32H7xx_HAL_Driver/Src/stm32h7xx_hal_mdma.c ****     pNode->CBRUR |= ((((uint32_t)pNodeConfig->Init.DestBlockAddressOffset) & 0x0000FFFFU) << MDMA_C
 990              		.loc 1 661 10
 991 0110 7B68     		ldr	r3, [r7, #4]
 992 0112 1A69     		ldr	r2, [r3, #16]
ARM GAS  /var/folders/g1/j12m_ky910s3_sv7d4yrsdn00000gn/T//ccW7oTPr.s 			page 30


 993              		.loc 1 661 51
 994 0114 3B68     		ldr	r3, [r7]
 995 0116 5B6B     		ldr	r3, [r3, #52]
 996              		.loc 1 661 91
 997 0118 1B04     		lsls	r3, r3, #16
 998              		.loc 1 661 18
 999 011a 1A43     		orrs	r2, r2, r3
 1000 011c 7B68     		ldr	r3, [r7, #4]
 1001 011e 1A61     		str	r2, [r3, #16]
 1002              	.L59:
 662:Drivers/STM32H7xx_HAL_Driver/Src/stm32h7xx_hal_mdma.c ****   }
 663:Drivers/STM32H7xx_HAL_Driver/Src/stm32h7xx_hal_mdma.c **** 
 664:Drivers/STM32H7xx_HAL_Driver/Src/stm32h7xx_hal_mdma.c ****   /* Configure MDMA Link Node data length */
 665:Drivers/STM32H7xx_HAL_Driver/Src/stm32h7xx_hal_mdma.c ****   pNode->CBNDTR |=  pNodeConfig->BlockDataLength;
 1003              		.loc 1 665 8
 1004 0120 7B68     		ldr	r3, [r7, #4]
 1005 0122 5A68     		ldr	r2, [r3, #4]
 1006              		.loc 1 665 32
 1007 0124 3B68     		ldr	r3, [r7]
 1008 0126 1B6C     		ldr	r3, [r3, #64]
 1009              		.loc 1 665 17
 1010 0128 1A43     		orrs	r2, r2, r3
 1011 012a 7B68     		ldr	r3, [r7, #4]
 1012 012c 5A60     		str	r2, [r3, #4]
 666:Drivers/STM32H7xx_HAL_Driver/Src/stm32h7xx_hal_mdma.c **** 
 667:Drivers/STM32H7xx_HAL_Driver/Src/stm32h7xx_hal_mdma.c ****   /* Configure MDMA Link Node destination address */
 668:Drivers/STM32H7xx_HAL_Driver/Src/stm32h7xx_hal_mdma.c ****   pNode->CDAR = pNodeConfig->DstAddress;
 1013              		.loc 1 668 28
 1014 012e 3B68     		ldr	r3, [r7]
 1015 0130 DA6B     		ldr	r2, [r3, #60]
 1016              		.loc 1 668 15
 1017 0132 7B68     		ldr	r3, [r7, #4]
 1018 0134 DA60     		str	r2, [r3, #12]
 669:Drivers/STM32H7xx_HAL_Driver/Src/stm32h7xx_hal_mdma.c **** 
 670:Drivers/STM32H7xx_HAL_Driver/Src/stm32h7xx_hal_mdma.c ****   /* Configure MDMA Link Node Source address */
 671:Drivers/STM32H7xx_HAL_Driver/Src/stm32h7xx_hal_mdma.c ****   pNode->CSAR = pNodeConfig->SrcAddress;
 1019              		.loc 1 671 28
 1020 0136 3B68     		ldr	r3, [r7]
 1021 0138 9A6B     		ldr	r2, [r3, #56]
 1022              		.loc 1 671 15
 1023 013a 7B68     		ldr	r3, [r7, #4]
 1024 013c 9A60     		str	r2, [r3, #8]
 672:Drivers/STM32H7xx_HAL_Driver/Src/stm32h7xx_hal_mdma.c **** 
 673:Drivers/STM32H7xx_HAL_Driver/Src/stm32h7xx_hal_mdma.c ****   /* if HW request set the HW request and the requet CleraMask and ClearData MaskData,  */
 674:Drivers/STM32H7xx_HAL_Driver/Src/stm32h7xx_hal_mdma.c ****   if(pNodeConfig->Init.Request != MDMA_REQUEST_SW)
 1025              		.loc 1 674 23
 1026 013e 3B68     		ldr	r3, [r7]
 1027 0140 1B68     		ldr	r3, [r3]
 1028              		.loc 1 674 5
 1029 0142 B3F1804F 		cmp	r3, #1073741824
 1030 0146 0CD0     		beq	.L60
 675:Drivers/STM32H7xx_HAL_Driver/Src/stm32h7xx_hal_mdma.c ****   {
 676:Drivers/STM32H7xx_HAL_Driver/Src/stm32h7xx_hal_mdma.c ****     /* Set the HW request in CTBR register  */
 677:Drivers/STM32H7xx_HAL_Driver/Src/stm32h7xx_hal_mdma.c ****     pNode->CTBR = pNodeConfig->Init.Request & MDMA_CTBR_TSEL;
 1031              		.loc 1 677 36
 1032 0148 3B68     		ldr	r3, [r7]
 1033 014a 1B68     		ldr	r3, [r3]
ARM GAS  /var/folders/g1/j12m_ky910s3_sv7d4yrsdn00000gn/T//ccW7oTPr.s 			page 31


 1034              		.loc 1 677 45
 1035 014c DAB2     		uxtb	r2, r3
 1036              		.loc 1 677 17
 1037 014e 7B68     		ldr	r3, [r7, #4]
 1038 0150 9A61     		str	r2, [r3, #24]
 678:Drivers/STM32H7xx_HAL_Driver/Src/stm32h7xx_hal_mdma.c ****     /* Set the HW request clear Mask and Data */
 679:Drivers/STM32H7xx_HAL_Driver/Src/stm32h7xx_hal_mdma.c ****     pNode->CMAR = pNodeConfig->PostRequestMaskAddress;
 1039              		.loc 1 679 30
 1040 0152 3B68     		ldr	r3, [r7]
 1041 0154 9A6C     		ldr	r2, [r3, #72]
 1042              		.loc 1 679 17
 1043 0156 7B68     		ldr	r3, [r7, #4]
 1044 0158 1A62     		str	r2, [r3, #32]
 680:Drivers/STM32H7xx_HAL_Driver/Src/stm32h7xx_hal_mdma.c ****     pNode->CMDR = pNodeConfig->PostRequestMaskData;
 1045              		.loc 1 680 30
 1046 015a 3B68     		ldr	r3, [r7]
 1047 015c DA6C     		ldr	r2, [r3, #76]
 1048              		.loc 1 680 17
 1049 015e 7B68     		ldr	r3, [r7, #4]
 1050 0160 5A62     		str	r2, [r3, #36]
 1051              	.L60:
 681:Drivers/STM32H7xx_HAL_Driver/Src/stm32h7xx_hal_mdma.c ****   }
 682:Drivers/STM32H7xx_HAL_Driver/Src/stm32h7xx_hal_mdma.c **** 
 683:Drivers/STM32H7xx_HAL_Driver/Src/stm32h7xx_hal_mdma.c ****   addressMask = pNodeConfig->SrcAddress & 0xFF000000U;
 1052              		.loc 1 683 28
 1053 0162 3B68     		ldr	r3, [r7]
 1054 0164 9B6B     		ldr	r3, [r3, #56]
 1055              		.loc 1 683 15
 1056 0166 03F07F43 		and	r3, r3, #-16777216
 1057 016a BB60     		str	r3, [r7, #8]
 684:Drivers/STM32H7xx_HAL_Driver/Src/stm32h7xx_hal_mdma.c ****   if((addressMask == 0x20000000U) || (addressMask == 0x00000000U))
 1058              		.loc 1 684 5
 1059 016c BB68     		ldr	r3, [r7, #8]
 1060 016e B3F1005F 		cmp	r3, #536870912
 1061 0172 02D0     		beq	.L61
 1062              		.loc 1 684 35 discriminator 1
 1063 0174 BB68     		ldr	r3, [r7, #8]
 1064 0176 002B     		cmp	r3, #0
 1065 0178 05D1     		bne	.L62
 1066              	.L61:
 685:Drivers/STM32H7xx_HAL_Driver/Src/stm32h7xx_hal_mdma.c ****   {
 686:Drivers/STM32H7xx_HAL_Driver/Src/stm32h7xx_hal_mdma.c ****     /*The AHBSbus is used as source (read operation) on channel x */
 687:Drivers/STM32H7xx_HAL_Driver/Src/stm32h7xx_hal_mdma.c ****     pNode->CTBR |= MDMA_CTBR_SBUS;
 1067              		.loc 1 687 10
 1068 017a 7B68     		ldr	r3, [r7, #4]
 1069 017c 9B69     		ldr	r3, [r3, #24]
 1070              		.loc 1 687 17
 1071 017e 43F48032 		orr	r2, r3, #65536
 1072 0182 7B68     		ldr	r3, [r7, #4]
 1073 0184 9A61     		str	r2, [r3, #24]
 1074              	.L62:
 688:Drivers/STM32H7xx_HAL_Driver/Src/stm32h7xx_hal_mdma.c ****   }
 689:Drivers/STM32H7xx_HAL_Driver/Src/stm32h7xx_hal_mdma.c **** 
 690:Drivers/STM32H7xx_HAL_Driver/Src/stm32h7xx_hal_mdma.c ****   addressMask = pNodeConfig->DstAddress & 0xFF000000U;
 1075              		.loc 1 690 28
 1076 0186 3B68     		ldr	r3, [r7]
 1077 0188 DB6B     		ldr	r3, [r3, #60]
ARM GAS  /var/folders/g1/j12m_ky910s3_sv7d4yrsdn00000gn/T//ccW7oTPr.s 			page 32


 1078              		.loc 1 690 15
 1079 018a 03F07F43 		and	r3, r3, #-16777216
 1080 018e BB60     		str	r3, [r7, #8]
 691:Drivers/STM32H7xx_HAL_Driver/Src/stm32h7xx_hal_mdma.c ****   if((addressMask == 0x20000000U) || (addressMask == 0x00000000U))
 1081              		.loc 1 691 5
 1082 0190 BB68     		ldr	r3, [r7, #8]
 1083 0192 B3F1005F 		cmp	r3, #536870912
 1084 0196 02D0     		beq	.L63
 1085              		.loc 1 691 35 discriminator 1
 1086 0198 BB68     		ldr	r3, [r7, #8]
 1087 019a 002B     		cmp	r3, #0
 1088 019c 05D1     		bne	.L64
 1089              	.L63:
 692:Drivers/STM32H7xx_HAL_Driver/Src/stm32h7xx_hal_mdma.c ****   {
 693:Drivers/STM32H7xx_HAL_Driver/Src/stm32h7xx_hal_mdma.c ****     /*The AHB bus is used as destination (write operation) on channel x */
 694:Drivers/STM32H7xx_HAL_Driver/Src/stm32h7xx_hal_mdma.c ****     pNode->CTBR |= MDMA_CTBR_DBUS;
 1090              		.loc 1 694 10
 1091 019e 7B68     		ldr	r3, [r7, #4]
 1092 01a0 9B69     		ldr	r3, [r3, #24]
 1093              		.loc 1 694 17
 1094 01a2 43F40032 		orr	r2, r3, #131072
 1095 01a6 7B68     		ldr	r3, [r7, #4]
 1096 01a8 9A61     		str	r2, [r3, #24]
 1097              	.L64:
 695:Drivers/STM32H7xx_HAL_Driver/Src/stm32h7xx_hal_mdma.c ****   }
 696:Drivers/STM32H7xx_HAL_Driver/Src/stm32h7xx_hal_mdma.c **** 
 697:Drivers/STM32H7xx_HAL_Driver/Src/stm32h7xx_hal_mdma.c ****   return HAL_OK;
 1098              		.loc 1 697 10
 1099 01aa 0023     		movs	r3, #0
 1100              	.L52:
 698:Drivers/STM32H7xx_HAL_Driver/Src/stm32h7xx_hal_mdma.c **** }
 1101              		.loc 1 698 1
 1102 01ac 1846     		mov	r0, r3
 1103 01ae 1437     		adds	r7, r7, #20
 1104              	.LCFI32:
 1105              		.cfi_def_cfa_offset 4
 1106 01b0 BD46     		mov	sp, r7
 1107              	.LCFI33:
 1108              		.cfi_def_cfa_register 13
 1109              		@ sp needed
 1110 01b2 5DF8047B 		ldr	r7, [sp], #4
 1111              	.LCFI34:
 1112              		.cfi_restore 7
 1113              		.cfi_def_cfa_offset 0
 1114 01b6 7047     		bx	lr
 1115              		.cfi_endproc
 1116              	.LFE149:
 1118              		.section	.text.HAL_MDMA_LinkedList_AddNode,"ax",%progbits
 1119              		.align	1
 1120              		.global	HAL_MDMA_LinkedList_AddNode
 1121              		.syntax unified
 1122              		.thumb
 1123              		.thumb_func
 1125              	HAL_MDMA_LinkedList_AddNode:
 1126              	.LFB150:
 699:Drivers/STM32H7xx_HAL_Driver/Src/stm32h7xx_hal_mdma.c **** 
 700:Drivers/STM32H7xx_HAL_Driver/Src/stm32h7xx_hal_mdma.c **** /**
ARM GAS  /var/folders/g1/j12m_ky910s3_sv7d4yrsdn00000gn/T//ccW7oTPr.s 			page 33


 701:Drivers/STM32H7xx_HAL_Driver/Src/stm32h7xx_hal_mdma.c ****   * @brief  Connect a node to the linked list.
 702:Drivers/STM32H7xx_HAL_Driver/Src/stm32h7xx_hal_mdma.c ****   * @param  hmdma    : Pointer to a MDMA_HandleTypeDef structure that contains
 703:Drivers/STM32H7xx_HAL_Driver/Src/stm32h7xx_hal_mdma.c ****   *                    the configuration information for the specified MDMA Channel.
 704:Drivers/STM32H7xx_HAL_Driver/Src/stm32h7xx_hal_mdma.c ****   * @param  pNewNode : Pointer to a MDMA_LinkNodeTypeDef structure that contains Linked list node
 705:Drivers/STM32H7xx_HAL_Driver/Src/stm32h7xx_hal_mdma.c ****   *                    to be add to the list.
 706:Drivers/STM32H7xx_HAL_Driver/Src/stm32h7xx_hal_mdma.c ****   * @param pPrevNode : Pointer to the new node position in the linked list or zero to insert the ne
 707:Drivers/STM32H7xx_HAL_Driver/Src/stm32h7xx_hal_mdma.c ****   *                    at the end of the list
 708:Drivers/STM32H7xx_HAL_Driver/Src/stm32h7xx_hal_mdma.c ****   *
 709:Drivers/STM32H7xx_HAL_Driver/Src/stm32h7xx_hal_mdma.c ****   * @retval HAL status
 710:Drivers/STM32H7xx_HAL_Driver/Src/stm32h7xx_hal_mdma.c ****   */
 711:Drivers/STM32H7xx_HAL_Driver/Src/stm32h7xx_hal_mdma.c **** HAL_StatusTypeDef HAL_MDMA_LinkedList_AddNode(MDMA_HandleTypeDef *hmdma, MDMA_LinkNodeTypeDef *pNew
 712:Drivers/STM32H7xx_HAL_Driver/Src/stm32h7xx_hal_mdma.c **** {
 1127              		.loc 1 712 1
 1128              		.cfi_startproc
 1129              		@ args = 0, pretend = 0, frame = 32
 1130              		@ frame_needed = 1, uses_anonymous_args = 0
 1131              		@ link register save eliminated.
 1132 0000 80B4     		push	{r7}
 1133              	.LCFI35:
 1134              		.cfi_def_cfa_offset 4
 1135              		.cfi_offset 7, -4
 1136 0002 89B0     		sub	sp, sp, #36
 1137              	.LCFI36:
 1138              		.cfi_def_cfa_offset 40
 1139 0004 00AF     		add	r7, sp, #0
 1140              	.LCFI37:
 1141              		.cfi_def_cfa_register 7
 1142 0006 F860     		str	r0, [r7, #12]
 1143 0008 B960     		str	r1, [r7, #8]
 1144 000a 7A60     		str	r2, [r7, #4]
 713:Drivers/STM32H7xx_HAL_Driver/Src/stm32h7xx_hal_mdma.c ****   MDMA_LinkNodeTypeDef *pNode;
 714:Drivers/STM32H7xx_HAL_Driver/Src/stm32h7xx_hal_mdma.c ****   uint32_t counter = 0, nodeInserted = 0;
 1145              		.loc 1 714 12
 1146 000c 0023     		movs	r3, #0
 1147 000e BB61     		str	r3, [r7, #24]
 1148              		.loc 1 714 25
 1149 0010 0023     		movs	r3, #0
 1150 0012 7B61     		str	r3, [r7, #20]
 715:Drivers/STM32H7xx_HAL_Driver/Src/stm32h7xx_hal_mdma.c ****   HAL_StatusTypeDef hal_status = HAL_OK;
 1151              		.loc 1 715 21
 1152 0014 0023     		movs	r3, #0
 1153 0016 FB74     		strb	r3, [r7, #19]
 716:Drivers/STM32H7xx_HAL_Driver/Src/stm32h7xx_hal_mdma.c **** 
 717:Drivers/STM32H7xx_HAL_Driver/Src/stm32h7xx_hal_mdma.c ****   /* Check the MDMA peripheral handle */
 718:Drivers/STM32H7xx_HAL_Driver/Src/stm32h7xx_hal_mdma.c ****   if((hmdma == NULL) || (pNewNode == NULL))
 1154              		.loc 1 718 5
 1155 0018 FB68     		ldr	r3, [r7, #12]
 1156 001a 002B     		cmp	r3, #0
 1157 001c 02D0     		beq	.L66
 1158              		.loc 1 718 22 discriminator 1
 1159 001e BB68     		ldr	r3, [r7, #8]
 1160 0020 002B     		cmp	r3, #0
 1161 0022 01D1     		bne	.L67
 1162              	.L66:
 719:Drivers/STM32H7xx_HAL_Driver/Src/stm32h7xx_hal_mdma.c ****   {
 720:Drivers/STM32H7xx_HAL_Driver/Src/stm32h7xx_hal_mdma.c ****     return HAL_ERROR;
 1163              		.loc 1 720 12
ARM GAS  /var/folders/g1/j12m_ky910s3_sv7d4yrsdn00000gn/T//ccW7oTPr.s 			page 34


 1164 0024 0123     		movs	r3, #1
 1165 0026 A9E0     		b	.L68
 1166              	.L67:
 721:Drivers/STM32H7xx_HAL_Driver/Src/stm32h7xx_hal_mdma.c ****   }
 722:Drivers/STM32H7xx_HAL_Driver/Src/stm32h7xx_hal_mdma.c **** 
 723:Drivers/STM32H7xx_HAL_Driver/Src/stm32h7xx_hal_mdma.c ****   /* Process locked */
 724:Drivers/STM32H7xx_HAL_Driver/Src/stm32h7xx_hal_mdma.c ****   __HAL_LOCK(hmdma);
 1167              		.loc 1 724 3
 1168 0028 FB68     		ldr	r3, [r7, #12]
 1169 002a 93F83C30 		ldrb	r3, [r3, #60]	@ zero_extendqisi2
 1170 002e 012B     		cmp	r3, #1
 1171 0030 01D1     		bne	.L69
 1172              		.loc 1 724 3 is_stmt 0 discriminator 1
 1173 0032 0223     		movs	r3, #2
 1174              		.loc 1 724 3
 1175 0034 A2E0     		b	.L68
 1176              	.L69:
 1177              		.loc 1 724 3 discriminator 2
 1178 0036 FB68     		ldr	r3, [r7, #12]
 1179 0038 0122     		movs	r2, #1
 1180 003a 83F83C20 		strb	r2, [r3, #60]
 725:Drivers/STM32H7xx_HAL_Driver/Src/stm32h7xx_hal_mdma.c **** 
 726:Drivers/STM32H7xx_HAL_Driver/Src/stm32h7xx_hal_mdma.c ****   if(HAL_MDMA_STATE_READY == hmdma->State)
 1181              		.loc 1 726 35 is_stmt 1
 1182 003e FB68     		ldr	r3, [r7, #12]
 1183 0040 93F83D30 		ldrb	r3, [r3, #61]
 1184 0044 DBB2     		uxtb	r3, r3
 1185              		.loc 1 726 5
 1186 0046 012B     		cmp	r3, #1
 1187 0048 40F09380 		bne	.L70
 727:Drivers/STM32H7xx_HAL_Driver/Src/stm32h7xx_hal_mdma.c ****   {
 728:Drivers/STM32H7xx_HAL_Driver/Src/stm32h7xx_hal_mdma.c ****     /* Change MDMA peripheral state */
 729:Drivers/STM32H7xx_HAL_Driver/Src/stm32h7xx_hal_mdma.c ****     hmdma->State = HAL_MDMA_STATE_BUSY;
 1188              		.loc 1 729 18
 1189 004c FB68     		ldr	r3, [r7, #12]
 1190 004e 0222     		movs	r2, #2
 1191 0050 83F83D20 		strb	r2, [r3, #61]
 730:Drivers/STM32H7xx_HAL_Driver/Src/stm32h7xx_hal_mdma.c **** 
 731:Drivers/STM32H7xx_HAL_Driver/Src/stm32h7xx_hal_mdma.c ****     /* Check if this is the first node (after the Inititlization node) */
 732:Drivers/STM32H7xx_HAL_Driver/Src/stm32h7xx_hal_mdma.c ****     if((uint32_t)hmdma->FirstLinkedListNodeAddress == 0U)
 1192              		.loc 1 732 23
 1193 0054 FB68     		ldr	r3, [r7, #12]
 1194 0056 DB6D     		ldr	r3, [r3, #92]
 1195              		.loc 1 732 7
 1196 0058 002B     		cmp	r3, #0
 1197 005a 16D1     		bne	.L71
 733:Drivers/STM32H7xx_HAL_Driver/Src/stm32h7xx_hal_mdma.c ****     {
 734:Drivers/STM32H7xx_HAL_Driver/Src/stm32h7xx_hal_mdma.c ****       if(pPrevNode == NULL)
 1198              		.loc 1 734 9
 1199 005c 7B68     		ldr	r3, [r7, #4]
 1200 005e 002B     		cmp	r3, #0
 1201 0060 10D1     		bne	.L72
 735:Drivers/STM32H7xx_HAL_Driver/Src/stm32h7xx_hal_mdma.c ****       {
 736:Drivers/STM32H7xx_HAL_Driver/Src/stm32h7xx_hal_mdma.c ****         /* if this is the first node after the initialization
 737:Drivers/STM32H7xx_HAL_Driver/Src/stm32h7xx_hal_mdma.c ****         connect this node to the node 0 by updating
 738:Drivers/STM32H7xx_HAL_Driver/Src/stm32h7xx_hal_mdma.c ****         the MDMA channel CLAR register to this node address */
 739:Drivers/STM32H7xx_HAL_Driver/Src/stm32h7xx_hal_mdma.c ****         hmdma->Instance->CLAR = (uint32_t)pNewNode;
ARM GAS  /var/folders/g1/j12m_ky910s3_sv7d4yrsdn00000gn/T//ccW7oTPr.s 			page 35


 1202              		.loc 1 739 14
 1203 0062 FB68     		ldr	r3, [r7, #12]
 1204 0064 1B68     		ldr	r3, [r3]
 1205              		.loc 1 739 33
 1206 0066 BA68     		ldr	r2, [r7, #8]
 1207              		.loc 1 739 31
 1208 0068 5A62     		str	r2, [r3, #36]
 740:Drivers/STM32H7xx_HAL_Driver/Src/stm32h7xx_hal_mdma.c ****         /* Set the MDMA handle First linked List node*/
 741:Drivers/STM32H7xx_HAL_Driver/Src/stm32h7xx_hal_mdma.c ****         hmdma->FirstLinkedListNodeAddress = pNewNode;
 1209              		.loc 1 741 43
 1210 006a FB68     		ldr	r3, [r7, #12]
 1211 006c BA68     		ldr	r2, [r7, #8]
 1212 006e DA65     		str	r2, [r3, #92]
 742:Drivers/STM32H7xx_HAL_Driver/Src/stm32h7xx_hal_mdma.c **** 
 743:Drivers/STM32H7xx_HAL_Driver/Src/stm32h7xx_hal_mdma.c ****         /*reset New node link */
 744:Drivers/STM32H7xx_HAL_Driver/Src/stm32h7xx_hal_mdma.c ****         pNewNode->CLAR = 0;
 1213              		.loc 1 744 24
 1214 0070 BB68     		ldr	r3, [r7, #8]
 1215 0072 0022     		movs	r2, #0
 1216 0074 5A61     		str	r2, [r3, #20]
 745:Drivers/STM32H7xx_HAL_Driver/Src/stm32h7xx_hal_mdma.c **** 
 746:Drivers/STM32H7xx_HAL_Driver/Src/stm32h7xx_hal_mdma.c ****         /* Update the Handle last node address */
 747:Drivers/STM32H7xx_HAL_Driver/Src/stm32h7xx_hal_mdma.c ****         hmdma->LastLinkedListNodeAddress = pNewNode;
 1217              		.loc 1 747 42
 1218 0076 FB68     		ldr	r3, [r7, #12]
 1219 0078 BA68     		ldr	r2, [r7, #8]
 1220 007a 1A66     		str	r2, [r3, #96]
 748:Drivers/STM32H7xx_HAL_Driver/Src/stm32h7xx_hal_mdma.c **** 
 749:Drivers/STM32H7xx_HAL_Driver/Src/stm32h7xx_hal_mdma.c ****         hmdma->LinkedListNodeCounter = 1;
 1221              		.loc 1 749 38
 1222 007c FB68     		ldr	r3, [r7, #12]
 1223 007e 0122     		movs	r2, #1
 1224 0080 5A66     		str	r2, [r3, #100]
 1225 0082 6CE0     		b	.L73
 1226              	.L72:
 750:Drivers/STM32H7xx_HAL_Driver/Src/stm32h7xx_hal_mdma.c ****       }
 751:Drivers/STM32H7xx_HAL_Driver/Src/stm32h7xx_hal_mdma.c ****       else
 752:Drivers/STM32H7xx_HAL_Driver/Src/stm32h7xx_hal_mdma.c ****       {
 753:Drivers/STM32H7xx_HAL_Driver/Src/stm32h7xx_hal_mdma.c ****         hal_status = HAL_ERROR;
 1227              		.loc 1 753 20
 1228 0084 0123     		movs	r3, #1
 1229 0086 FB74     		strb	r3, [r7, #19]
 1230 0088 69E0     		b	.L73
 1231              	.L71:
 754:Drivers/STM32H7xx_HAL_Driver/Src/stm32h7xx_hal_mdma.c ****       }
 755:Drivers/STM32H7xx_HAL_Driver/Src/stm32h7xx_hal_mdma.c ****     }
 756:Drivers/STM32H7xx_HAL_Driver/Src/stm32h7xx_hal_mdma.c ****     else if(hmdma->FirstLinkedListNodeAddress != pNewNode)
 1232              		.loc 1 756 18
 1233 008a FB68     		ldr	r3, [r7, #12]
 1234 008c DB6D     		ldr	r3, [r3, #92]
 1235              		.loc 1 756 12
 1236 008e BA68     		ldr	r2, [r7, #8]
 1237 0090 9A42     		cmp	r2, r3
 1238 0092 62D0     		beq	.L74
 757:Drivers/STM32H7xx_HAL_Driver/Src/stm32h7xx_hal_mdma.c ****     {
 758:Drivers/STM32H7xx_HAL_Driver/Src/stm32h7xx_hal_mdma.c ****       /* Check if the node to insert already exists*/
 759:Drivers/STM32H7xx_HAL_Driver/Src/stm32h7xx_hal_mdma.c ****       pNode = hmdma->FirstLinkedListNodeAddress;
ARM GAS  /var/folders/g1/j12m_ky910s3_sv7d4yrsdn00000gn/T//ccW7oTPr.s 			page 36


 1239              		.loc 1 759 13
 1240 0094 FB68     		ldr	r3, [r7, #12]
 1241 0096 DB6D     		ldr	r3, [r3, #92]
 1242 0098 FB61     		str	r3, [r7, #28]
 760:Drivers/STM32H7xx_HAL_Driver/Src/stm32h7xx_hal_mdma.c ****       while((counter < hmdma->LinkedListNodeCounter) && (hal_status == HAL_OK))
 1243              		.loc 1 760 12
 1244 009a 0CE0     		b	.L75
 1245              	.L78:
 761:Drivers/STM32H7xx_HAL_Driver/Src/stm32h7xx_hal_mdma.c ****       {
 762:Drivers/STM32H7xx_HAL_Driver/Src/stm32h7xx_hal_mdma.c ****         if(pNode->CLAR == (uint32_t)pNewNode)
 1246              		.loc 1 762 17
 1247 009c FB69     		ldr	r3, [r7, #28]
 1248 009e 5A69     		ldr	r2, [r3, #20]
 1249              		.loc 1 762 24
 1250 00a0 BB68     		ldr	r3, [r7, #8]
 1251              		.loc 1 762 11
 1252 00a2 9A42     		cmp	r2, r3
 1253 00a4 01D1     		bne	.L76
 763:Drivers/STM32H7xx_HAL_Driver/Src/stm32h7xx_hal_mdma.c ****         {
 764:Drivers/STM32H7xx_HAL_Driver/Src/stm32h7xx_hal_mdma.c ****           hal_status = HAL_ERROR; /* error this node already exist in the linked list and it is not
 1254              		.loc 1 764 22
 1255 00a6 0123     		movs	r3, #1
 1256 00a8 FB74     		strb	r3, [r7, #19]
 1257              	.L76:
 765:Drivers/STM32H7xx_HAL_Driver/Src/stm32h7xx_hal_mdma.c ****         }
 766:Drivers/STM32H7xx_HAL_Driver/Src/stm32h7xx_hal_mdma.c ****         pNode = (MDMA_LinkNodeTypeDef *)pNode->CLAR;
 1258              		.loc 1 766 46
 1259 00aa FB69     		ldr	r3, [r7, #28]
 1260 00ac 5B69     		ldr	r3, [r3, #20]
 1261              		.loc 1 766 15
 1262 00ae FB61     		str	r3, [r7, #28]
 767:Drivers/STM32H7xx_HAL_Driver/Src/stm32h7xx_hal_mdma.c ****         counter++;
 1263              		.loc 1 767 16
 1264 00b0 BB69     		ldr	r3, [r7, #24]
 1265 00b2 0133     		adds	r3, r3, #1
 1266 00b4 BB61     		str	r3, [r7, #24]
 1267              	.L75:
 760:Drivers/STM32H7xx_HAL_Driver/Src/stm32h7xx_hal_mdma.c ****       {
 1268              		.loc 1 760 29
 1269 00b6 FB68     		ldr	r3, [r7, #12]
 1270 00b8 5B6E     		ldr	r3, [r3, #100]
 760:Drivers/STM32H7xx_HAL_Driver/Src/stm32h7xx_hal_mdma.c ****       {
 1271              		.loc 1 760 54
 1272 00ba BA69     		ldr	r2, [r7, #24]
 1273 00bc 9A42     		cmp	r2, r3
 1274 00be 02D2     		bcs	.L77
 760:Drivers/STM32H7xx_HAL_Driver/Src/stm32h7xx_hal_mdma.c ****       {
 1275              		.loc 1 760 54 is_stmt 0 discriminator 1
 1276 00c0 FB7C     		ldrb	r3, [r7, #19]	@ zero_extendqisi2
 1277 00c2 002B     		cmp	r3, #0
 1278 00c4 EAD0     		beq	.L78
 1279              	.L77:
 768:Drivers/STM32H7xx_HAL_Driver/Src/stm32h7xx_hal_mdma.c ****       }
 769:Drivers/STM32H7xx_HAL_Driver/Src/stm32h7xx_hal_mdma.c **** 
 770:Drivers/STM32H7xx_HAL_Driver/Src/stm32h7xx_hal_mdma.c ****       if(hal_status == HAL_OK)
 1280              		.loc 1 770 9 is_stmt 1
 1281 00c6 FB7C     		ldrb	r3, [r7, #19]	@ zero_extendqisi2
ARM GAS  /var/folders/g1/j12m_ky910s3_sv7d4yrsdn00000gn/T//ccW7oTPr.s 			page 37


 1282 00c8 002B     		cmp	r3, #0
 1283 00ca 48D1     		bne	.L73
 771:Drivers/STM32H7xx_HAL_Driver/Src/stm32h7xx_hal_mdma.c ****       {
 772:Drivers/STM32H7xx_HAL_Driver/Src/stm32h7xx_hal_mdma.c ****         /* Check if the previous node is the last one in the current list or zero */
 773:Drivers/STM32H7xx_HAL_Driver/Src/stm32h7xx_hal_mdma.c ****         if((pPrevNode == hmdma->LastLinkedListNodeAddress) || (pPrevNode == NULL))
 1284              		.loc 1 773 31
 1285 00cc FB68     		ldr	r3, [r7, #12]
 1286 00ce 1B6E     		ldr	r3, [r3, #96]
 1287              		.loc 1 773 11
 1288 00d0 7A68     		ldr	r2, [r7, #4]
 1289 00d2 9A42     		cmp	r2, r3
 1290 00d4 02D0     		beq	.L80
 1291              		.loc 1 773 60 discriminator 1
 1292 00d6 7B68     		ldr	r3, [r7, #4]
 1293 00d8 002B     		cmp	r3, #0
 1294 00da 11D1     		bne	.L81
 1295              	.L80:
 774:Drivers/STM32H7xx_HAL_Driver/Src/stm32h7xx_hal_mdma.c ****         {
 775:Drivers/STM32H7xx_HAL_Driver/Src/stm32h7xx_hal_mdma.c ****           /* insert the new node at the end of the list */
 776:Drivers/STM32H7xx_HAL_Driver/Src/stm32h7xx_hal_mdma.c ****           pNewNode->CLAR = hmdma->LastLinkedListNodeAddress->CLAR;
 1296              		.loc 1 776 33
 1297 00dc FB68     		ldr	r3, [r7, #12]
 1298 00de 1B6E     		ldr	r3, [r3, #96]
 1299              		.loc 1 776 60
 1300 00e0 5A69     		ldr	r2, [r3, #20]
 1301              		.loc 1 776 26
 1302 00e2 BB68     		ldr	r3, [r7, #8]
 1303 00e4 5A61     		str	r2, [r3, #20]
 777:Drivers/STM32H7xx_HAL_Driver/Src/stm32h7xx_hal_mdma.c ****           hmdma->LastLinkedListNodeAddress->CLAR = (uint32_t)pNewNode;
 1304              		.loc 1 777 16
 1305 00e6 FB68     		ldr	r3, [r7, #12]
 1306 00e8 1B6E     		ldr	r3, [r3, #96]
 1307              		.loc 1 777 52
 1308 00ea BA68     		ldr	r2, [r7, #8]
 1309              		.loc 1 777 50
 1310 00ec 5A61     		str	r2, [r3, #20]
 778:Drivers/STM32H7xx_HAL_Driver/Src/stm32h7xx_hal_mdma.c ****           /* Update the Handle last node address */
 779:Drivers/STM32H7xx_HAL_Driver/Src/stm32h7xx_hal_mdma.c ****           hmdma->LastLinkedListNodeAddress = pNewNode;
 1311              		.loc 1 779 44
 1312 00ee FB68     		ldr	r3, [r7, #12]
 1313 00f0 BA68     		ldr	r2, [r7, #8]
 1314 00f2 1A66     		str	r2, [r3, #96]
 780:Drivers/STM32H7xx_HAL_Driver/Src/stm32h7xx_hal_mdma.c ****           /* Increment the linked list node counter */
 781:Drivers/STM32H7xx_HAL_Driver/Src/stm32h7xx_hal_mdma.c ****           hmdma->LinkedListNodeCounter++;
 1315              		.loc 1 781 16
 1316 00f4 FB68     		ldr	r3, [r7, #12]
 1317 00f6 5B6E     		ldr	r3, [r3, #100]
 1318              		.loc 1 781 39
 1319 00f8 5A1C     		adds	r2, r3, #1
 1320 00fa FB68     		ldr	r3, [r7, #12]
 1321 00fc 5A66     		str	r2, [r3, #100]
 1322 00fe 2EE0     		b	.L73
 1323              	.L81:
 782:Drivers/STM32H7xx_HAL_Driver/Src/stm32h7xx_hal_mdma.c ****         }
 783:Drivers/STM32H7xx_HAL_Driver/Src/stm32h7xx_hal_mdma.c ****         else
 784:Drivers/STM32H7xx_HAL_Driver/Src/stm32h7xx_hal_mdma.c ****         {
 785:Drivers/STM32H7xx_HAL_Driver/Src/stm32h7xx_hal_mdma.c ****           /*insert the new node after the pPreviousNode node */
ARM GAS  /var/folders/g1/j12m_ky910s3_sv7d4yrsdn00000gn/T//ccW7oTPr.s 			page 38


 786:Drivers/STM32H7xx_HAL_Driver/Src/stm32h7xx_hal_mdma.c ****           pNode = hmdma->FirstLinkedListNodeAddress;
 1324              		.loc 1 786 17
 1325 0100 FB68     		ldr	r3, [r7, #12]
 1326 0102 DB6D     		ldr	r3, [r3, #92]
 1327 0104 FB61     		str	r3, [r7, #28]
 787:Drivers/STM32H7xx_HAL_Driver/Src/stm32h7xx_hal_mdma.c ****           counter = 0;
 1328              		.loc 1 787 19
 1329 0106 0023     		movs	r3, #0
 1330 0108 BB61     		str	r3, [r7, #24]
 788:Drivers/STM32H7xx_HAL_Driver/Src/stm32h7xx_hal_mdma.c ****           while((counter < hmdma->LinkedListNodeCounter) && (nodeInserted == 0U))
 1331              		.loc 1 788 16
 1332 010a 18E0     		b	.L82
 1333              	.L86:
 789:Drivers/STM32H7xx_HAL_Driver/Src/stm32h7xx_hal_mdma.c ****           {
 790:Drivers/STM32H7xx_HAL_Driver/Src/stm32h7xx_hal_mdma.c ****             counter++;
 1334              		.loc 1 790 20
 1335 010c BB69     		ldr	r3, [r7, #24]
 1336 010e 0133     		adds	r3, r3, #1
 1337 0110 BB61     		str	r3, [r7, #24]
 791:Drivers/STM32H7xx_HAL_Driver/Src/stm32h7xx_hal_mdma.c ****             if(pNode == pPrevNode)
 1338              		.loc 1 791 15
 1339 0112 FA69     		ldr	r2, [r7, #28]
 1340 0114 7B68     		ldr	r3, [r7, #4]
 1341 0116 9A42     		cmp	r2, r3
 1342 0118 0ED1     		bne	.L83
 792:Drivers/STM32H7xx_HAL_Driver/Src/stm32h7xx_hal_mdma.c ****             {
 793:Drivers/STM32H7xx_HAL_Driver/Src/stm32h7xx_hal_mdma.c ****               /*Insert the new node after the previous one */
 794:Drivers/STM32H7xx_HAL_Driver/Src/stm32h7xx_hal_mdma.c ****               pNewNode->CLAR = pNode->CLAR;
 1343              		.loc 1 794 37
 1344 011a FB69     		ldr	r3, [r7, #28]
 1345 011c 5A69     		ldr	r2, [r3, #20]
 1346              		.loc 1 794 30
 1347 011e BB68     		ldr	r3, [r7, #8]
 1348 0120 5A61     		str	r2, [r3, #20]
 795:Drivers/STM32H7xx_HAL_Driver/Src/stm32h7xx_hal_mdma.c ****               pNode->CLAR = (uint32_t)pNewNode;
 1349              		.loc 1 795 29
 1350 0122 BA68     		ldr	r2, [r7, #8]
 1351              		.loc 1 795 27
 1352 0124 FB69     		ldr	r3, [r7, #28]
 1353 0126 5A61     		str	r2, [r3, #20]
 796:Drivers/STM32H7xx_HAL_Driver/Src/stm32h7xx_hal_mdma.c ****               /* Increment the linked list node counter */
 797:Drivers/STM32H7xx_HAL_Driver/Src/stm32h7xx_hal_mdma.c ****               hmdma->LinkedListNodeCounter++;
 1354              		.loc 1 797 20
 1355 0128 FB68     		ldr	r3, [r7, #12]
 1356 012a 5B6E     		ldr	r3, [r3, #100]
 1357              		.loc 1 797 43
 1358 012c 5A1C     		adds	r2, r3, #1
 1359 012e FB68     		ldr	r3, [r7, #12]
 1360 0130 5A66     		str	r2, [r3, #100]
 798:Drivers/STM32H7xx_HAL_Driver/Src/stm32h7xx_hal_mdma.c ****               nodeInserted = 1;
 1361              		.loc 1 798 28
 1362 0132 0123     		movs	r3, #1
 1363 0134 7B61     		str	r3, [r7, #20]
 1364 0136 02E0     		b	.L82
 1365              	.L83:
 799:Drivers/STM32H7xx_HAL_Driver/Src/stm32h7xx_hal_mdma.c ****             }
 800:Drivers/STM32H7xx_HAL_Driver/Src/stm32h7xx_hal_mdma.c ****             else
ARM GAS  /var/folders/g1/j12m_ky910s3_sv7d4yrsdn00000gn/T//ccW7oTPr.s 			page 39


 801:Drivers/STM32H7xx_HAL_Driver/Src/stm32h7xx_hal_mdma.c ****             {
 802:Drivers/STM32H7xx_HAL_Driver/Src/stm32h7xx_hal_mdma.c ****               pNode = (MDMA_LinkNodeTypeDef *)pNode->CLAR;
 1366              		.loc 1 802 52
 1367 0138 FB69     		ldr	r3, [r7, #28]
 1368 013a 5B69     		ldr	r3, [r3, #20]
 1369              		.loc 1 802 21
 1370 013c FB61     		str	r3, [r7, #28]
 1371              	.L82:
 788:Drivers/STM32H7xx_HAL_Driver/Src/stm32h7xx_hal_mdma.c ****           {
 1372              		.loc 1 788 33
 1373 013e FB68     		ldr	r3, [r7, #12]
 1374 0140 5B6E     		ldr	r3, [r3, #100]
 788:Drivers/STM32H7xx_HAL_Driver/Src/stm32h7xx_hal_mdma.c ****           {
 1375              		.loc 1 788 58
 1376 0142 BA69     		ldr	r2, [r7, #24]
 1377 0144 9A42     		cmp	r2, r3
 1378 0146 02D2     		bcs	.L85
 788:Drivers/STM32H7xx_HAL_Driver/Src/stm32h7xx_hal_mdma.c ****           {
 1379              		.loc 1 788 58 is_stmt 0 discriminator 1
 1380 0148 7B69     		ldr	r3, [r7, #20]
 1381 014a 002B     		cmp	r3, #0
 1382 014c DED0     		beq	.L86
 1383              	.L85:
 803:Drivers/STM32H7xx_HAL_Driver/Src/stm32h7xx_hal_mdma.c ****             }
 804:Drivers/STM32H7xx_HAL_Driver/Src/stm32h7xx_hal_mdma.c ****           }
 805:Drivers/STM32H7xx_HAL_Driver/Src/stm32h7xx_hal_mdma.c **** 
 806:Drivers/STM32H7xx_HAL_Driver/Src/stm32h7xx_hal_mdma.c ****           if(nodeInserted == 0U)
 1384              		.loc 1 806 13 is_stmt 1
 1385 014e 7B69     		ldr	r3, [r7, #20]
 1386 0150 002B     		cmp	r3, #0
 1387 0152 04D1     		bne	.L73
 807:Drivers/STM32H7xx_HAL_Driver/Src/stm32h7xx_hal_mdma.c ****           {
 808:Drivers/STM32H7xx_HAL_Driver/Src/stm32h7xx_hal_mdma.c ****             hal_status = HAL_ERROR;
 1388              		.loc 1 808 24
 1389 0154 0123     		movs	r3, #1
 1390 0156 FB74     		strb	r3, [r7, #19]
 1391 0158 01E0     		b	.L73
 1392              	.L74:
 809:Drivers/STM32H7xx_HAL_Driver/Src/stm32h7xx_hal_mdma.c ****           }
 810:Drivers/STM32H7xx_HAL_Driver/Src/stm32h7xx_hal_mdma.c ****         }
 811:Drivers/STM32H7xx_HAL_Driver/Src/stm32h7xx_hal_mdma.c ****       }
 812:Drivers/STM32H7xx_HAL_Driver/Src/stm32h7xx_hal_mdma.c ****     }
 813:Drivers/STM32H7xx_HAL_Driver/Src/stm32h7xx_hal_mdma.c ****     else
 814:Drivers/STM32H7xx_HAL_Driver/Src/stm32h7xx_hal_mdma.c ****     {
 815:Drivers/STM32H7xx_HAL_Driver/Src/stm32h7xx_hal_mdma.c ****       hal_status = HAL_ERROR;
 1393              		.loc 1 815 18
 1394 015a 0123     		movs	r3, #1
 1395 015c FB74     		strb	r3, [r7, #19]
 1396              	.L73:
 816:Drivers/STM32H7xx_HAL_Driver/Src/stm32h7xx_hal_mdma.c ****     }
 817:Drivers/STM32H7xx_HAL_Driver/Src/stm32h7xx_hal_mdma.c **** 
 818:Drivers/STM32H7xx_HAL_Driver/Src/stm32h7xx_hal_mdma.c ****     /* Process unlocked */
 819:Drivers/STM32H7xx_HAL_Driver/Src/stm32h7xx_hal_mdma.c ****     __HAL_UNLOCK(hmdma);
 1397              		.loc 1 819 5
 1398 015e FB68     		ldr	r3, [r7, #12]
 1399 0160 0022     		movs	r2, #0
 1400 0162 83F83C20 		strb	r2, [r3, #60]
ARM GAS  /var/folders/g1/j12m_ky910s3_sv7d4yrsdn00000gn/T//ccW7oTPr.s 			page 40


 820:Drivers/STM32H7xx_HAL_Driver/Src/stm32h7xx_hal_mdma.c **** 
 821:Drivers/STM32H7xx_HAL_Driver/Src/stm32h7xx_hal_mdma.c ****     hmdma->State = HAL_MDMA_STATE_READY;
 1401              		.loc 1 821 18
 1402 0166 FB68     		ldr	r3, [r7, #12]
 1403 0168 0122     		movs	r2, #1
 1404 016a 83F83D20 		strb	r2, [r3, #61]
 822:Drivers/STM32H7xx_HAL_Driver/Src/stm32h7xx_hal_mdma.c **** 
 823:Drivers/STM32H7xx_HAL_Driver/Src/stm32h7xx_hal_mdma.c ****     return hal_status;
 1405              		.loc 1 823 12
 1406 016e FB7C     		ldrb	r3, [r7, #19]	@ zero_extendqisi2
 1407 0170 04E0     		b	.L68
 1408              	.L70:
 824:Drivers/STM32H7xx_HAL_Driver/Src/stm32h7xx_hal_mdma.c ****   }
 825:Drivers/STM32H7xx_HAL_Driver/Src/stm32h7xx_hal_mdma.c ****   else
 826:Drivers/STM32H7xx_HAL_Driver/Src/stm32h7xx_hal_mdma.c ****   {
 827:Drivers/STM32H7xx_HAL_Driver/Src/stm32h7xx_hal_mdma.c ****     /* Process unlocked */
 828:Drivers/STM32H7xx_HAL_Driver/Src/stm32h7xx_hal_mdma.c ****     __HAL_UNLOCK(hmdma);
 1409              		.loc 1 828 5
 1410 0172 FB68     		ldr	r3, [r7, #12]
 1411 0174 0022     		movs	r2, #0
 1412 0176 83F83C20 		strb	r2, [r3, #60]
 829:Drivers/STM32H7xx_HAL_Driver/Src/stm32h7xx_hal_mdma.c **** 
 830:Drivers/STM32H7xx_HAL_Driver/Src/stm32h7xx_hal_mdma.c ****     /* Return error status */
 831:Drivers/STM32H7xx_HAL_Driver/Src/stm32h7xx_hal_mdma.c ****     return HAL_BUSY;
 1413              		.loc 1 831 12
 1414 017a 0223     		movs	r3, #2
 1415              	.L68:
 832:Drivers/STM32H7xx_HAL_Driver/Src/stm32h7xx_hal_mdma.c ****   }
 833:Drivers/STM32H7xx_HAL_Driver/Src/stm32h7xx_hal_mdma.c **** }
 1416              		.loc 1 833 1
 1417 017c 1846     		mov	r0, r3
 1418 017e 2437     		adds	r7, r7, #36
 1419              	.LCFI38:
 1420              		.cfi_def_cfa_offset 4
 1421 0180 BD46     		mov	sp, r7
 1422              	.LCFI39:
 1423              		.cfi_def_cfa_register 13
 1424              		@ sp needed
 1425 0182 5DF8047B 		ldr	r7, [sp], #4
 1426              	.LCFI40:
 1427              		.cfi_restore 7
 1428              		.cfi_def_cfa_offset 0
 1429 0186 7047     		bx	lr
 1430              		.cfi_endproc
 1431              	.LFE150:
 1433              		.section	.text.HAL_MDMA_LinkedList_RemoveNode,"ax",%progbits
 1434              		.align	1
 1435              		.global	HAL_MDMA_LinkedList_RemoveNode
 1436              		.syntax unified
 1437              		.thumb
 1438              		.thumb_func
 1440              	HAL_MDMA_LinkedList_RemoveNode:
 1441              	.LFB151:
 834:Drivers/STM32H7xx_HAL_Driver/Src/stm32h7xx_hal_mdma.c **** 
 835:Drivers/STM32H7xx_HAL_Driver/Src/stm32h7xx_hal_mdma.c **** /**
 836:Drivers/STM32H7xx_HAL_Driver/Src/stm32h7xx_hal_mdma.c ****   * @brief  Disconnect/Remove a node from the transfer linked list.
 837:Drivers/STM32H7xx_HAL_Driver/Src/stm32h7xx_hal_mdma.c ****   * @param  hmdma : Pointer to a MDMA_HandleTypeDef structure that contains
ARM GAS  /var/folders/g1/j12m_ky910s3_sv7d4yrsdn00000gn/T//ccW7oTPr.s 			page 41


 838:Drivers/STM32H7xx_HAL_Driver/Src/stm32h7xx_hal_mdma.c ****   *                 the configuration information for the specified MDMA Channel.
 839:Drivers/STM32H7xx_HAL_Driver/Src/stm32h7xx_hal_mdma.c ****   * @param  pNode : Pointer to a MDMA_LinkNodeTypeDef structure that contains Linked list node
 840:Drivers/STM32H7xx_HAL_Driver/Src/stm32h7xx_hal_mdma.c ****   *                 to be removed from the list.
 841:Drivers/STM32H7xx_HAL_Driver/Src/stm32h7xx_hal_mdma.c ****   *
 842:Drivers/STM32H7xx_HAL_Driver/Src/stm32h7xx_hal_mdma.c ****   * @retval HAL status
 843:Drivers/STM32H7xx_HAL_Driver/Src/stm32h7xx_hal_mdma.c ****   */
 844:Drivers/STM32H7xx_HAL_Driver/Src/stm32h7xx_hal_mdma.c **** HAL_StatusTypeDef HAL_MDMA_LinkedList_RemoveNode(MDMA_HandleTypeDef *hmdma, MDMA_LinkNodeTypeDef *p
 845:Drivers/STM32H7xx_HAL_Driver/Src/stm32h7xx_hal_mdma.c **** {
 1442              		.loc 1 845 1
 1443              		.cfi_startproc
 1444              		@ args = 0, pretend = 0, frame = 24
 1445              		@ frame_needed = 1, uses_anonymous_args = 0
 1446              		@ link register save eliminated.
 1447 0000 80B4     		push	{r7}
 1448              	.LCFI41:
 1449              		.cfi_def_cfa_offset 4
 1450              		.cfi_offset 7, -4
 1451 0002 87B0     		sub	sp, sp, #28
 1452              	.LCFI42:
 1453              		.cfi_def_cfa_offset 32
 1454 0004 00AF     		add	r7, sp, #0
 1455              	.LCFI43:
 1456              		.cfi_def_cfa_register 7
 1457 0006 7860     		str	r0, [r7, #4]
 1458 0008 3960     		str	r1, [r7]
 846:Drivers/STM32H7xx_HAL_Driver/Src/stm32h7xx_hal_mdma.c ****   MDMA_LinkNodeTypeDef *ptmpNode;
 847:Drivers/STM32H7xx_HAL_Driver/Src/stm32h7xx_hal_mdma.c ****   uint32_t counter = 0, nodeDeleted = 0;
 1459              		.loc 1 847 12
 1460 000a 0023     		movs	r3, #0
 1461 000c 3B61     		str	r3, [r7, #16]
 1462              		.loc 1 847 25
 1463 000e 0023     		movs	r3, #0
 1464 0010 FB60     		str	r3, [r7, #12]
 848:Drivers/STM32H7xx_HAL_Driver/Src/stm32h7xx_hal_mdma.c ****   HAL_StatusTypeDef hal_status = HAL_OK;
 1465              		.loc 1 848 21
 1466 0012 0023     		movs	r3, #0
 1467 0014 FB72     		strb	r3, [r7, #11]
 849:Drivers/STM32H7xx_HAL_Driver/Src/stm32h7xx_hal_mdma.c **** 
 850:Drivers/STM32H7xx_HAL_Driver/Src/stm32h7xx_hal_mdma.c ****   /* Check the MDMA peripheral handle */
 851:Drivers/STM32H7xx_HAL_Driver/Src/stm32h7xx_hal_mdma.c ****   if((hmdma == NULL) || (pNode == NULL))
 1468              		.loc 1 851 5
 1469 0016 7B68     		ldr	r3, [r7, #4]
 1470 0018 002B     		cmp	r3, #0
 1471 001a 02D0     		beq	.L88
 1472              		.loc 1 851 22 discriminator 1
 1473 001c 3B68     		ldr	r3, [r7]
 1474 001e 002B     		cmp	r3, #0
 1475 0020 01D1     		bne	.L89
 1476              	.L88:
 852:Drivers/STM32H7xx_HAL_Driver/Src/stm32h7xx_hal_mdma.c ****   {
 853:Drivers/STM32H7xx_HAL_Driver/Src/stm32h7xx_hal_mdma.c ****     return HAL_ERROR;
 1477              		.loc 1 853 12
 1478 0022 0123     		movs	r3, #1
 1479 0024 99E0     		b	.L90
 1480              	.L89:
 854:Drivers/STM32H7xx_HAL_Driver/Src/stm32h7xx_hal_mdma.c ****   }
 855:Drivers/STM32H7xx_HAL_Driver/Src/stm32h7xx_hal_mdma.c **** 
ARM GAS  /var/folders/g1/j12m_ky910s3_sv7d4yrsdn00000gn/T//ccW7oTPr.s 			page 42


 856:Drivers/STM32H7xx_HAL_Driver/Src/stm32h7xx_hal_mdma.c ****   /* Process locked */
 857:Drivers/STM32H7xx_HAL_Driver/Src/stm32h7xx_hal_mdma.c ****   __HAL_LOCK(hmdma);
 1481              		.loc 1 857 3
 1482 0026 7B68     		ldr	r3, [r7, #4]
 1483 0028 93F83C30 		ldrb	r3, [r3, #60]	@ zero_extendqisi2
 1484 002c 012B     		cmp	r3, #1
 1485 002e 01D1     		bne	.L91
 1486              		.loc 1 857 3 is_stmt 0 discriminator 1
 1487 0030 0223     		movs	r3, #2
 1488              		.loc 1 857 3
 1489 0032 92E0     		b	.L90
 1490              	.L91:
 1491              		.loc 1 857 3 discriminator 2
 1492 0034 7B68     		ldr	r3, [r7, #4]
 1493 0036 0122     		movs	r2, #1
 1494 0038 83F83C20 		strb	r2, [r3, #60]
 858:Drivers/STM32H7xx_HAL_Driver/Src/stm32h7xx_hal_mdma.c **** 
 859:Drivers/STM32H7xx_HAL_Driver/Src/stm32h7xx_hal_mdma.c ****   if(HAL_MDMA_STATE_READY == hmdma->State)
 1495              		.loc 1 859 35 is_stmt 1
 1496 003c 7B68     		ldr	r3, [r7, #4]
 1497 003e 93F83D30 		ldrb	r3, [r3, #61]
 1498 0042 DBB2     		uxtb	r3, r3
 1499              		.loc 1 859 5
 1500 0044 012B     		cmp	r3, #1
 1501 0046 40F08380 		bne	.L92
 860:Drivers/STM32H7xx_HAL_Driver/Src/stm32h7xx_hal_mdma.c ****   {
 861:Drivers/STM32H7xx_HAL_Driver/Src/stm32h7xx_hal_mdma.c ****     /* Change MDMA peripheral state */
 862:Drivers/STM32H7xx_HAL_Driver/Src/stm32h7xx_hal_mdma.c ****     hmdma->State = HAL_MDMA_STATE_BUSY;
 1502              		.loc 1 862 18
 1503 004a 7B68     		ldr	r3, [r7, #4]
 1504 004c 0222     		movs	r2, #2
 1505 004e 83F83D20 		strb	r2, [r3, #61]
 863:Drivers/STM32H7xx_HAL_Driver/Src/stm32h7xx_hal_mdma.c **** 
 864:Drivers/STM32H7xx_HAL_Driver/Src/stm32h7xx_hal_mdma.c ****     /* If first and last node are null (no nodes in the list) : return error*/
 865:Drivers/STM32H7xx_HAL_Driver/Src/stm32h7xx_hal_mdma.c ****     if(((uint32_t)hmdma->FirstLinkedListNodeAddress == 0U) || ((uint32_t)hmdma->LastLinkedListNodeA
 1506              		.loc 1 865 24
 1507 0052 7B68     		ldr	r3, [r7, #4]
 1508 0054 DB6D     		ldr	r3, [r3, #92]
 1509              		.loc 1 865 7
 1510 0056 002B     		cmp	r3, #0
 1511 0058 07D0     		beq	.L93
 1512              		.loc 1 865 79 discriminator 1
 1513 005a 7B68     		ldr	r3, [r7, #4]
 1514 005c 1B6E     		ldr	r3, [r3, #96]
 1515              		.loc 1 865 60 discriminator 1
 1516 005e 002B     		cmp	r3, #0
 1517 0060 03D0     		beq	.L93
 1518              		.loc 1 865 123 discriminator 2
 1519 0062 7B68     		ldr	r3, [r7, #4]
 1520 0064 5B6E     		ldr	r3, [r3, #100]
 1521              		.loc 1 865 114 discriminator 2
 1522 0066 002B     		cmp	r3, #0
 1523 0068 02D1     		bne	.L94
 1524              	.L93:
 866:Drivers/STM32H7xx_HAL_Driver/Src/stm32h7xx_hal_mdma.c ****     {
 867:Drivers/STM32H7xx_HAL_Driver/Src/stm32h7xx_hal_mdma.c ****       hal_status = HAL_ERROR;
 1525              		.loc 1 867 18
ARM GAS  /var/folders/g1/j12m_ky910s3_sv7d4yrsdn00000gn/T//ccW7oTPr.s 			page 43


 1526 006a 0123     		movs	r3, #1
 1527 006c FB72     		strb	r3, [r7, #11]
 1528 006e 65E0     		b	.L95
 1529              	.L94:
 868:Drivers/STM32H7xx_HAL_Driver/Src/stm32h7xx_hal_mdma.c ****     }
 869:Drivers/STM32H7xx_HAL_Driver/Src/stm32h7xx_hal_mdma.c ****     else if(hmdma->FirstLinkedListNodeAddress == pNode) /* Deleting first node */
 1530              		.loc 1 869 18
 1531 0070 7B68     		ldr	r3, [r7, #4]
 1532 0072 DB6D     		ldr	r3, [r3, #92]
 1533              		.loc 1 869 12
 1534 0074 3A68     		ldr	r2, [r7]
 1535 0076 9A42     		cmp	r2, r3
 1536 0078 30D1     		bne	.L96
 870:Drivers/STM32H7xx_HAL_Driver/Src/stm32h7xx_hal_mdma.c ****     {
 871:Drivers/STM32H7xx_HAL_Driver/Src/stm32h7xx_hal_mdma.c ****       /* Delete 1st node */
 872:Drivers/STM32H7xx_HAL_Driver/Src/stm32h7xx_hal_mdma.c ****       if(hmdma->LastLinkedListNodeAddress == pNode)
 1537              		.loc 1 872 15
 1538 007a 7B68     		ldr	r3, [r7, #4]
 1539 007c 1B6E     		ldr	r3, [r3, #96]
 1540              		.loc 1 872 9
 1541 007e 3A68     		ldr	r2, [r7]
 1542 0080 9A42     		cmp	r2, r3
 1543 0082 0DD1     		bne	.L97
 873:Drivers/STM32H7xx_HAL_Driver/Src/stm32h7xx_hal_mdma.c ****       {
 874:Drivers/STM32H7xx_HAL_Driver/Src/stm32h7xx_hal_mdma.c ****         /*if the last node is at the same time the first one (1 single node after the init node 0)
 875:Drivers/STM32H7xx_HAL_Driver/Src/stm32h7xx_hal_mdma.c ****         then update the last node too */
 876:Drivers/STM32H7xx_HAL_Driver/Src/stm32h7xx_hal_mdma.c **** 
 877:Drivers/STM32H7xx_HAL_Driver/Src/stm32h7xx_hal_mdma.c ****         hmdma->FirstLinkedListNodeAddress = 0;
 1544              		.loc 1 877 43
 1545 0084 7B68     		ldr	r3, [r7, #4]
 1546 0086 0022     		movs	r2, #0
 1547 0088 DA65     		str	r2, [r3, #92]
 878:Drivers/STM32H7xx_HAL_Driver/Src/stm32h7xx_hal_mdma.c ****         hmdma->LastLinkedListNodeAddress  = 0;
 1548              		.loc 1 878 43
 1549 008a 7B68     		ldr	r3, [r7, #4]
 1550 008c 0022     		movs	r2, #0
 1551 008e 1A66     		str	r2, [r3, #96]
 879:Drivers/STM32H7xx_HAL_Driver/Src/stm32h7xx_hal_mdma.c ****         hmdma->LinkedListNodeCounter = 0;
 1552              		.loc 1 879 38
 1553 0090 7B68     		ldr	r3, [r7, #4]
 1554 0092 0022     		movs	r2, #0
 1555 0094 5A66     		str	r2, [r3, #100]
 880:Drivers/STM32H7xx_HAL_Driver/Src/stm32h7xx_hal_mdma.c **** 
 881:Drivers/STM32H7xx_HAL_Driver/Src/stm32h7xx_hal_mdma.c ****         hmdma->Instance->CLAR = 0;
 1556              		.loc 1 881 14
 1557 0096 7B68     		ldr	r3, [r7, #4]
 1558 0098 1B68     		ldr	r3, [r3]
 1559              		.loc 1 881 31
 1560 009a 0022     		movs	r2, #0
 1561 009c 5A62     		str	r2, [r3, #36]
 1562 009e 4DE0     		b	.L95
 1563              	.L97:
 882:Drivers/STM32H7xx_HAL_Driver/Src/stm32h7xx_hal_mdma.c ****       }
 883:Drivers/STM32H7xx_HAL_Driver/Src/stm32h7xx_hal_mdma.c ****       else
 884:Drivers/STM32H7xx_HAL_Driver/Src/stm32h7xx_hal_mdma.c ****       {
 885:Drivers/STM32H7xx_HAL_Driver/Src/stm32h7xx_hal_mdma.c ****         if((uint32_t)hmdma->FirstLinkedListNodeAddress == hmdma->LastLinkedListNodeAddress->CLAR)
 1564              		.loc 1 885 27
ARM GAS  /var/folders/g1/j12m_ky910s3_sv7d4yrsdn00000gn/T//ccW7oTPr.s 			page 44


 1565 00a0 7B68     		ldr	r3, [r7, #4]
 1566 00a2 DB6D     		ldr	r3, [r3, #92]
 1567              		.loc 1 885 12
 1568 00a4 1A46     		mov	r2, r3
 1569              		.loc 1 885 64
 1570 00a6 7B68     		ldr	r3, [r7, #4]
 1571 00a8 1B6E     		ldr	r3, [r3, #96]
 1572              		.loc 1 885 91
 1573 00aa 5B69     		ldr	r3, [r3, #20]
 1574              		.loc 1 885 11
 1575 00ac 9A42     		cmp	r2, r3
 1576 00ae 04D1     		bne	.L98
 886:Drivers/STM32H7xx_HAL_Driver/Src/stm32h7xx_hal_mdma.c ****         {
 887:Drivers/STM32H7xx_HAL_Driver/Src/stm32h7xx_hal_mdma.c ****           /* if last node is looping to first (circular list) one update the last node connection *
 888:Drivers/STM32H7xx_HAL_Driver/Src/stm32h7xx_hal_mdma.c ****           hmdma->LastLinkedListNodeAddress->CLAR = pNode->CLAR;
 1577              		.loc 1 888 16
 1578 00b0 7B68     		ldr	r3, [r7, #4]
 1579 00b2 1B6E     		ldr	r3, [r3, #96]
 1580              		.loc 1 888 57
 1581 00b4 3A68     		ldr	r2, [r7]
 1582 00b6 5269     		ldr	r2, [r2, #20]
 1583              		.loc 1 888 50
 1584 00b8 5A61     		str	r2, [r3, #20]
 1585              	.L98:
 889:Drivers/STM32H7xx_HAL_Driver/Src/stm32h7xx_hal_mdma.c ****         }
 890:Drivers/STM32H7xx_HAL_Driver/Src/stm32h7xx_hal_mdma.c **** 
 891:Drivers/STM32H7xx_HAL_Driver/Src/stm32h7xx_hal_mdma.c ****         /* if deleting the first node after the initialization
 892:Drivers/STM32H7xx_HAL_Driver/Src/stm32h7xx_hal_mdma.c ****         connect the next node to the node 0 by updating
 893:Drivers/STM32H7xx_HAL_Driver/Src/stm32h7xx_hal_mdma.c ****         the MDMA channel CLAR register to this node address */
 894:Drivers/STM32H7xx_HAL_Driver/Src/stm32h7xx_hal_mdma.c ****         hmdma->Instance->CLAR = pNode->CLAR;
 1586              		.loc 1 894 14
 1587 00ba 7B68     		ldr	r3, [r7, #4]
 1588 00bc 1B68     		ldr	r3, [r3]
 1589              		.loc 1 894 38
 1590 00be 3A68     		ldr	r2, [r7]
 1591 00c0 5269     		ldr	r2, [r2, #20]
 1592              		.loc 1 894 31
 1593 00c2 5A62     		str	r2, [r3, #36]
 895:Drivers/STM32H7xx_HAL_Driver/Src/stm32h7xx_hal_mdma.c ****         hmdma->FirstLinkedListNodeAddress = (MDMA_LinkNodeTypeDef *)hmdma->Instance->CLAR;
 1594              		.loc 1 895 74
 1595 00c4 7B68     		ldr	r3, [r7, #4]
 1596 00c6 1B68     		ldr	r3, [r3]
 1597              		.loc 1 895 84
 1598 00c8 5B6A     		ldr	r3, [r3, #36]
 1599              		.loc 1 895 45
 1600 00ca 1A46     		mov	r2, r3
 1601              		.loc 1 895 43
 1602 00cc 7B68     		ldr	r3, [r7, #4]
 1603 00ce DA65     		str	r2, [r3, #92]
 896:Drivers/STM32H7xx_HAL_Driver/Src/stm32h7xx_hal_mdma.c ****         /* Update the Handle node counter */
 897:Drivers/STM32H7xx_HAL_Driver/Src/stm32h7xx_hal_mdma.c ****         hmdma->LinkedListNodeCounter--;
 1604              		.loc 1 897 14
 1605 00d0 7B68     		ldr	r3, [r7, #4]
 1606 00d2 5B6E     		ldr	r3, [r3, #100]
 1607              		.loc 1 897 37
 1608 00d4 5A1E     		subs	r2, r3, #1
 1609 00d6 7B68     		ldr	r3, [r7, #4]
ARM GAS  /var/folders/g1/j12m_ky910s3_sv7d4yrsdn00000gn/T//ccW7oTPr.s 			page 45


 1610 00d8 5A66     		str	r2, [r3, #100]
 1611 00da 2FE0     		b	.L95
 1612              	.L96:
 898:Drivers/STM32H7xx_HAL_Driver/Src/stm32h7xx_hal_mdma.c ****       }
 899:Drivers/STM32H7xx_HAL_Driver/Src/stm32h7xx_hal_mdma.c ****     }
 900:Drivers/STM32H7xx_HAL_Driver/Src/stm32h7xx_hal_mdma.c ****     else /* Deleting any other node */
 901:Drivers/STM32H7xx_HAL_Driver/Src/stm32h7xx_hal_mdma.c ****     {
 902:Drivers/STM32H7xx_HAL_Driver/Src/stm32h7xx_hal_mdma.c ****       /*Deleted node is not the first one : find it  */
 903:Drivers/STM32H7xx_HAL_Driver/Src/stm32h7xx_hal_mdma.c ****       ptmpNode = hmdma->FirstLinkedListNodeAddress;
 1613              		.loc 1 903 16
 1614 00dc 7B68     		ldr	r3, [r7, #4]
 1615 00de DB6D     		ldr	r3, [r3, #92]
 1616 00e0 7B61     		str	r3, [r7, #20]
 904:Drivers/STM32H7xx_HAL_Driver/Src/stm32h7xx_hal_mdma.c ****       while((counter < hmdma->LinkedListNodeCounter) && (nodeDeleted == 0U))
 1617              		.loc 1 904 12
 1618 00e2 1EE0     		b	.L99
 1619              	.L104:
 905:Drivers/STM32H7xx_HAL_Driver/Src/stm32h7xx_hal_mdma.c ****       {
 906:Drivers/STM32H7xx_HAL_Driver/Src/stm32h7xx_hal_mdma.c ****         counter++;
 1620              		.loc 1 906 16
 1621 00e4 3B69     		ldr	r3, [r7, #16]
 1622 00e6 0133     		adds	r3, r3, #1
 1623 00e8 3B61     		str	r3, [r7, #16]
 907:Drivers/STM32H7xx_HAL_Driver/Src/stm32h7xx_hal_mdma.c ****         if(ptmpNode->CLAR == ((uint32_t)pNode))
 1624              		.loc 1 907 20
 1625 00ea 7B69     		ldr	r3, [r7, #20]
 1626 00ec 5A69     		ldr	r2, [r3, #20]
 1627              		.loc 1 907 27
 1628 00ee 3B68     		ldr	r3, [r7]
 1629              		.loc 1 907 11
 1630 00f0 9A42     		cmp	r2, r3
 1631 00f2 13D1     		bne	.L100
 908:Drivers/STM32H7xx_HAL_Driver/Src/stm32h7xx_hal_mdma.c ****         {
 909:Drivers/STM32H7xx_HAL_Driver/Src/stm32h7xx_hal_mdma.c ****           /* if deleting the last node */
 910:Drivers/STM32H7xx_HAL_Driver/Src/stm32h7xx_hal_mdma.c ****           if(pNode == hmdma->LastLinkedListNodeAddress)
 1632              		.loc 1 910 28
 1633 00f4 7B68     		ldr	r3, [r7, #4]
 1634 00f6 1B6E     		ldr	r3, [r3, #96]
 1635              		.loc 1 910 13
 1636 00f8 3A68     		ldr	r2, [r7]
 1637 00fa 9A42     		cmp	r2, r3
 1638 00fc 02D1     		bne	.L101
 911:Drivers/STM32H7xx_HAL_Driver/Src/stm32h7xx_hal_mdma.c ****           {
 912:Drivers/STM32H7xx_HAL_Driver/Src/stm32h7xx_hal_mdma.c ****             /*Update the linked list last node address in the handle*/
 913:Drivers/STM32H7xx_HAL_Driver/Src/stm32h7xx_hal_mdma.c ****             hmdma->LastLinkedListNodeAddress = ptmpNode;
 1639              		.loc 1 913 46
 1640 00fe 7B68     		ldr	r3, [r7, #4]
 1641 0100 7A69     		ldr	r2, [r7, #20]
 1642 0102 1A66     		str	r2, [r3, #96]
 1643              	.L101:
 914:Drivers/STM32H7xx_HAL_Driver/Src/stm32h7xx_hal_mdma.c ****           }
 915:Drivers/STM32H7xx_HAL_Driver/Src/stm32h7xx_hal_mdma.c ****           /* update the next node link after deleting pMDMA_LinkedListNode */
 916:Drivers/STM32H7xx_HAL_Driver/Src/stm32h7xx_hal_mdma.c ****           ptmpNode->CLAR = pNode->CLAR;
 1644              		.loc 1 916 33
 1645 0104 3B68     		ldr	r3, [r7]
 1646 0106 5A69     		ldr	r2, [r3, #20]
 1647              		.loc 1 916 26
ARM GAS  /var/folders/g1/j12m_ky910s3_sv7d4yrsdn00000gn/T//ccW7oTPr.s 			page 46


 1648 0108 7B69     		ldr	r3, [r7, #20]
 1649 010a 5A61     		str	r2, [r3, #20]
 917:Drivers/STM32H7xx_HAL_Driver/Src/stm32h7xx_hal_mdma.c ****           nodeDeleted = 1;
 1650              		.loc 1 917 23
 1651 010c 0123     		movs	r3, #1
 1652 010e FB60     		str	r3, [r7, #12]
 918:Drivers/STM32H7xx_HAL_Driver/Src/stm32h7xx_hal_mdma.c ****           /* Update the Handle node counter */
 919:Drivers/STM32H7xx_HAL_Driver/Src/stm32h7xx_hal_mdma.c ****           hmdma->LinkedListNodeCounter--;
 1653              		.loc 1 919 16
 1654 0110 7B68     		ldr	r3, [r7, #4]
 1655 0112 5B6E     		ldr	r3, [r3, #100]
 1656              		.loc 1 919 39
 1657 0114 5A1E     		subs	r2, r3, #1
 1658 0116 7B68     		ldr	r3, [r7, #4]
 1659 0118 5A66     		str	r2, [r3, #100]
 1660 011a 02E0     		b	.L99
 1661              	.L100:
 920:Drivers/STM32H7xx_HAL_Driver/Src/stm32h7xx_hal_mdma.c ****         }
 921:Drivers/STM32H7xx_HAL_Driver/Src/stm32h7xx_hal_mdma.c ****         else
 922:Drivers/STM32H7xx_HAL_Driver/Src/stm32h7xx_hal_mdma.c ****         {
 923:Drivers/STM32H7xx_HAL_Driver/Src/stm32h7xx_hal_mdma.c ****           ptmpNode = (MDMA_LinkNodeTypeDef *)ptmpNode->CLAR;
 1662              		.loc 1 923 54
 1663 011c 7B69     		ldr	r3, [r7, #20]
 1664 011e 5B69     		ldr	r3, [r3, #20]
 1665              		.loc 1 923 20
 1666 0120 7B61     		str	r3, [r7, #20]
 1667              	.L99:
 904:Drivers/STM32H7xx_HAL_Driver/Src/stm32h7xx_hal_mdma.c ****       {
 1668              		.loc 1 904 29
 1669 0122 7B68     		ldr	r3, [r7, #4]
 1670 0124 5B6E     		ldr	r3, [r3, #100]
 904:Drivers/STM32H7xx_HAL_Driver/Src/stm32h7xx_hal_mdma.c ****       {
 1671              		.loc 1 904 54
 1672 0126 3A69     		ldr	r2, [r7, #16]
 1673 0128 9A42     		cmp	r2, r3
 1674 012a 02D2     		bcs	.L103
 904:Drivers/STM32H7xx_HAL_Driver/Src/stm32h7xx_hal_mdma.c ****       {
 1675              		.loc 1 904 54 is_stmt 0 discriminator 1
 1676 012c FB68     		ldr	r3, [r7, #12]
 1677 012e 002B     		cmp	r3, #0
 1678 0130 D8D0     		beq	.L104
 1679              	.L103:
 924:Drivers/STM32H7xx_HAL_Driver/Src/stm32h7xx_hal_mdma.c ****         }
 925:Drivers/STM32H7xx_HAL_Driver/Src/stm32h7xx_hal_mdma.c ****       }
 926:Drivers/STM32H7xx_HAL_Driver/Src/stm32h7xx_hal_mdma.c **** 
 927:Drivers/STM32H7xx_HAL_Driver/Src/stm32h7xx_hal_mdma.c ****       if(nodeDeleted == 0U)
 1680              		.loc 1 927 9 is_stmt 1
 1681 0132 FB68     		ldr	r3, [r7, #12]
 1682 0134 002B     		cmp	r3, #0
 1683 0136 01D1     		bne	.L95
 928:Drivers/STM32H7xx_HAL_Driver/Src/stm32h7xx_hal_mdma.c ****       {
 929:Drivers/STM32H7xx_HAL_Driver/Src/stm32h7xx_hal_mdma.c ****         /* last node reashed without finding the node to delete : return error */
 930:Drivers/STM32H7xx_HAL_Driver/Src/stm32h7xx_hal_mdma.c ****         hal_status = HAL_ERROR;
 1684              		.loc 1 930 20
 1685 0138 0123     		movs	r3, #1
 1686 013a FB72     		strb	r3, [r7, #11]
 1687              	.L95:
ARM GAS  /var/folders/g1/j12m_ky910s3_sv7d4yrsdn00000gn/T//ccW7oTPr.s 			page 47


 931:Drivers/STM32H7xx_HAL_Driver/Src/stm32h7xx_hal_mdma.c ****       }
 932:Drivers/STM32H7xx_HAL_Driver/Src/stm32h7xx_hal_mdma.c ****     }
 933:Drivers/STM32H7xx_HAL_Driver/Src/stm32h7xx_hal_mdma.c **** 
 934:Drivers/STM32H7xx_HAL_Driver/Src/stm32h7xx_hal_mdma.c ****     /* Process unlocked */
 935:Drivers/STM32H7xx_HAL_Driver/Src/stm32h7xx_hal_mdma.c ****     __HAL_UNLOCK(hmdma);
 1688              		.loc 1 935 5
 1689 013c 7B68     		ldr	r3, [r7, #4]
 1690 013e 0022     		movs	r2, #0
 1691 0140 83F83C20 		strb	r2, [r3, #60]
 936:Drivers/STM32H7xx_HAL_Driver/Src/stm32h7xx_hal_mdma.c **** 
 937:Drivers/STM32H7xx_HAL_Driver/Src/stm32h7xx_hal_mdma.c ****     hmdma->State = HAL_MDMA_STATE_READY;
 1692              		.loc 1 937 18
 1693 0144 7B68     		ldr	r3, [r7, #4]
 1694 0146 0122     		movs	r2, #1
 1695 0148 83F83D20 		strb	r2, [r3, #61]
 938:Drivers/STM32H7xx_HAL_Driver/Src/stm32h7xx_hal_mdma.c **** 
 939:Drivers/STM32H7xx_HAL_Driver/Src/stm32h7xx_hal_mdma.c ****     return hal_status;
 1696              		.loc 1 939 12
 1697 014c FB7A     		ldrb	r3, [r7, #11]	@ zero_extendqisi2
 1698 014e 04E0     		b	.L90
 1699              	.L92:
 940:Drivers/STM32H7xx_HAL_Driver/Src/stm32h7xx_hal_mdma.c ****   }
 941:Drivers/STM32H7xx_HAL_Driver/Src/stm32h7xx_hal_mdma.c ****   else
 942:Drivers/STM32H7xx_HAL_Driver/Src/stm32h7xx_hal_mdma.c ****   {
 943:Drivers/STM32H7xx_HAL_Driver/Src/stm32h7xx_hal_mdma.c ****     /* Process unlocked */
 944:Drivers/STM32H7xx_HAL_Driver/Src/stm32h7xx_hal_mdma.c ****     __HAL_UNLOCK(hmdma);
 1700              		.loc 1 944 5
 1701 0150 7B68     		ldr	r3, [r7, #4]
 1702 0152 0022     		movs	r2, #0
 1703 0154 83F83C20 		strb	r2, [r3, #60]
 945:Drivers/STM32H7xx_HAL_Driver/Src/stm32h7xx_hal_mdma.c **** 
 946:Drivers/STM32H7xx_HAL_Driver/Src/stm32h7xx_hal_mdma.c ****     /* Return error status */
 947:Drivers/STM32H7xx_HAL_Driver/Src/stm32h7xx_hal_mdma.c ****     return HAL_BUSY;
 1704              		.loc 1 947 12
 1705 0158 0223     		movs	r3, #2
 1706              	.L90:
 948:Drivers/STM32H7xx_HAL_Driver/Src/stm32h7xx_hal_mdma.c ****   }
 949:Drivers/STM32H7xx_HAL_Driver/Src/stm32h7xx_hal_mdma.c **** }
 1707              		.loc 1 949 1
 1708 015a 1846     		mov	r0, r3
 1709 015c 1C37     		adds	r7, r7, #28
 1710              	.LCFI44:
 1711              		.cfi_def_cfa_offset 4
 1712 015e BD46     		mov	sp, r7
 1713              	.LCFI45:
 1714              		.cfi_def_cfa_register 13
 1715              		@ sp needed
 1716 0160 5DF8047B 		ldr	r7, [sp], #4
 1717              	.LCFI46:
 1718              		.cfi_restore 7
 1719              		.cfi_def_cfa_offset 0
 1720 0164 7047     		bx	lr
 1721              		.cfi_endproc
 1722              	.LFE151:
 1724              		.section	.text.HAL_MDMA_LinkedList_EnableCircularMode,"ax",%progbits
 1725              		.align	1
 1726              		.global	HAL_MDMA_LinkedList_EnableCircularMode
ARM GAS  /var/folders/g1/j12m_ky910s3_sv7d4yrsdn00000gn/T//ccW7oTPr.s 			page 48


 1727              		.syntax unified
 1728              		.thumb
 1729              		.thumb_func
 1731              	HAL_MDMA_LinkedList_EnableCircularMode:
 1732              	.LFB152:
 950:Drivers/STM32H7xx_HAL_Driver/Src/stm32h7xx_hal_mdma.c **** 
 951:Drivers/STM32H7xx_HAL_Driver/Src/stm32h7xx_hal_mdma.c **** /**
 952:Drivers/STM32H7xx_HAL_Driver/Src/stm32h7xx_hal_mdma.c ****   * @brief  Make the linked list circular by connecting the last node to the first.
 953:Drivers/STM32H7xx_HAL_Driver/Src/stm32h7xx_hal_mdma.c ****   * @param  hmdma : Pointer to a MDMA_HandleTypeDef structure that contains
 954:Drivers/STM32H7xx_HAL_Driver/Src/stm32h7xx_hal_mdma.c ****   *                 the configuration information for the specified MDMA Channel.
 955:Drivers/STM32H7xx_HAL_Driver/Src/stm32h7xx_hal_mdma.c ****   * @retval HAL status
 956:Drivers/STM32H7xx_HAL_Driver/Src/stm32h7xx_hal_mdma.c ****   */
 957:Drivers/STM32H7xx_HAL_Driver/Src/stm32h7xx_hal_mdma.c **** HAL_StatusTypeDef HAL_MDMA_LinkedList_EnableCircularMode(MDMA_HandleTypeDef *hmdma)
 958:Drivers/STM32H7xx_HAL_Driver/Src/stm32h7xx_hal_mdma.c **** {
 1733              		.loc 1 958 1
 1734              		.cfi_startproc
 1735              		@ args = 0, pretend = 0, frame = 16
 1736              		@ frame_needed = 1, uses_anonymous_args = 0
 1737              		@ link register save eliminated.
 1738 0000 80B4     		push	{r7}
 1739              	.LCFI47:
 1740              		.cfi_def_cfa_offset 4
 1741              		.cfi_offset 7, -4
 1742 0002 85B0     		sub	sp, sp, #20
 1743              	.LCFI48:
 1744              		.cfi_def_cfa_offset 24
 1745 0004 00AF     		add	r7, sp, #0
 1746              	.LCFI49:
 1747              		.cfi_def_cfa_register 7
 1748 0006 7860     		str	r0, [r7, #4]
 959:Drivers/STM32H7xx_HAL_Driver/Src/stm32h7xx_hal_mdma.c ****   HAL_StatusTypeDef hal_status = HAL_OK;
 1749              		.loc 1 959 21
 1750 0008 0023     		movs	r3, #0
 1751 000a FB73     		strb	r3, [r7, #15]
 960:Drivers/STM32H7xx_HAL_Driver/Src/stm32h7xx_hal_mdma.c **** 
 961:Drivers/STM32H7xx_HAL_Driver/Src/stm32h7xx_hal_mdma.c ****   /* Check the MDMA peripheral handle */
 962:Drivers/STM32H7xx_HAL_Driver/Src/stm32h7xx_hal_mdma.c ****   if(hmdma == NULL)
 1752              		.loc 1 962 5
 1753 000c 7B68     		ldr	r3, [r7, #4]
 1754 000e 002B     		cmp	r3, #0
 1755 0010 01D1     		bne	.L106
 963:Drivers/STM32H7xx_HAL_Driver/Src/stm32h7xx_hal_mdma.c ****   {
 964:Drivers/STM32H7xx_HAL_Driver/Src/stm32h7xx_hal_mdma.c ****     return HAL_ERROR;
 1756              		.loc 1 964 12
 1757 0012 0123     		movs	r3, #1
 1758 0014 31E0     		b	.L107
 1759              	.L106:
 965:Drivers/STM32H7xx_HAL_Driver/Src/stm32h7xx_hal_mdma.c ****   }
 966:Drivers/STM32H7xx_HAL_Driver/Src/stm32h7xx_hal_mdma.c **** 
 967:Drivers/STM32H7xx_HAL_Driver/Src/stm32h7xx_hal_mdma.c ****   /* Process locked */
 968:Drivers/STM32H7xx_HAL_Driver/Src/stm32h7xx_hal_mdma.c ****   __HAL_LOCK(hmdma);
 1760              		.loc 1 968 3
 1761 0016 7B68     		ldr	r3, [r7, #4]
 1762 0018 93F83C30 		ldrb	r3, [r3, #60]	@ zero_extendqisi2
 1763 001c 012B     		cmp	r3, #1
 1764 001e 01D1     		bne	.L108
 1765              		.loc 1 968 3 is_stmt 0 discriminator 1
ARM GAS  /var/folders/g1/j12m_ky910s3_sv7d4yrsdn00000gn/T//ccW7oTPr.s 			page 49


 1766 0020 0223     		movs	r3, #2
 1767              		.loc 1 968 3
 1768 0022 2AE0     		b	.L107
 1769              	.L108:
 1770              		.loc 1 968 3 discriminator 2
 1771 0024 7B68     		ldr	r3, [r7, #4]
 1772 0026 0122     		movs	r2, #1
 1773 0028 83F83C20 		strb	r2, [r3, #60]
 969:Drivers/STM32H7xx_HAL_Driver/Src/stm32h7xx_hal_mdma.c **** 
 970:Drivers/STM32H7xx_HAL_Driver/Src/stm32h7xx_hal_mdma.c ****   if(HAL_MDMA_STATE_READY == hmdma->State)
 1774              		.loc 1 970 35 is_stmt 1
 1775 002c 7B68     		ldr	r3, [r7, #4]
 1776 002e 93F83D30 		ldrb	r3, [r3, #61]
 1777 0032 DBB2     		uxtb	r3, r3
 1778              		.loc 1 970 5
 1779 0034 012B     		cmp	r3, #1
 1780 0036 17D1     		bne	.L109
 971:Drivers/STM32H7xx_HAL_Driver/Src/stm32h7xx_hal_mdma.c ****   {
 972:Drivers/STM32H7xx_HAL_Driver/Src/stm32h7xx_hal_mdma.c ****     /* Change MDMA peripheral state */
 973:Drivers/STM32H7xx_HAL_Driver/Src/stm32h7xx_hal_mdma.c ****     hmdma->State = HAL_MDMA_STATE_BUSY;
 1781              		.loc 1 973 18
 1782 0038 7B68     		ldr	r3, [r7, #4]
 1783 003a 0222     		movs	r2, #2
 1784 003c 83F83D20 		strb	r2, [r3, #61]
 974:Drivers/STM32H7xx_HAL_Driver/Src/stm32h7xx_hal_mdma.c **** 
 975:Drivers/STM32H7xx_HAL_Driver/Src/stm32h7xx_hal_mdma.c ****     /* If first and last node are null (no nodes in the list) : return error*/
 976:Drivers/STM32H7xx_HAL_Driver/Src/stm32h7xx_hal_mdma.c ****     if(((uint32_t)hmdma->FirstLinkedListNodeAddress == 0U) || ((uint32_t)hmdma->LastLinkedListNodeA
 1785              		.loc 1 976 24
 1786 0040 7B68     		ldr	r3, [r7, #4]
 1787 0042 DB6D     		ldr	r3, [r3, #92]
 1788              		.loc 1 976 7
 1789 0044 002B     		cmp	r3, #0
 1790 0046 07D0     		beq	.L110
 1791              		.loc 1 976 79 discriminator 1
 1792 0048 7B68     		ldr	r3, [r7, #4]
 1793 004a 1B6E     		ldr	r3, [r3, #96]
 1794              		.loc 1 976 60 discriminator 1
 1795 004c 002B     		cmp	r3, #0
 1796 004e 03D0     		beq	.L110
 1797              		.loc 1 976 123 discriminator 2
 1798 0050 7B68     		ldr	r3, [r7, #4]
 1799 0052 5B6E     		ldr	r3, [r3, #100]
 1800              		.loc 1 976 114 discriminator 2
 1801 0054 002B     		cmp	r3, #0
 1802 0056 02D1     		bne	.L111
 1803              	.L110:
 977:Drivers/STM32H7xx_HAL_Driver/Src/stm32h7xx_hal_mdma.c ****     {
 978:Drivers/STM32H7xx_HAL_Driver/Src/stm32h7xx_hal_mdma.c ****       hal_status = HAL_ERROR;
 1804              		.loc 1 978 18
 1805 0058 0123     		movs	r3, #1
 1806 005a FB73     		strb	r3, [r7, #15]
 1807 005c 04E0     		b	.L109
 1808              	.L111:
 979:Drivers/STM32H7xx_HAL_Driver/Src/stm32h7xx_hal_mdma.c ****     }
 980:Drivers/STM32H7xx_HAL_Driver/Src/stm32h7xx_hal_mdma.c ****     else
 981:Drivers/STM32H7xx_HAL_Driver/Src/stm32h7xx_hal_mdma.c ****     {
 982:Drivers/STM32H7xx_HAL_Driver/Src/stm32h7xx_hal_mdma.c ****       /* to enable circular mode Last Node should be connected to first node */
ARM GAS  /var/folders/g1/j12m_ky910s3_sv7d4yrsdn00000gn/T//ccW7oTPr.s 			page 50


 983:Drivers/STM32H7xx_HAL_Driver/Src/stm32h7xx_hal_mdma.c ****       hmdma->LastLinkedListNodeAddress->CLAR = (uint32_t)hmdma->FirstLinkedListNodeAddress;
 1809              		.loc 1 983 63
 1810 005e 7B68     		ldr	r3, [r7, #4]
 1811 0060 DA6D     		ldr	r2, [r3, #92]
 1812              		.loc 1 983 12
 1813 0062 7B68     		ldr	r3, [r7, #4]
 1814 0064 1B6E     		ldr	r3, [r3, #96]
 1815              		.loc 1 983 46
 1816 0066 5A61     		str	r2, [r3, #20]
 1817              	.L109:
 984:Drivers/STM32H7xx_HAL_Driver/Src/stm32h7xx_hal_mdma.c ****     }
 985:Drivers/STM32H7xx_HAL_Driver/Src/stm32h7xx_hal_mdma.c **** 
 986:Drivers/STM32H7xx_HAL_Driver/Src/stm32h7xx_hal_mdma.c ****   }
 987:Drivers/STM32H7xx_HAL_Driver/Src/stm32h7xx_hal_mdma.c ****   /* Process unlocked */
 988:Drivers/STM32H7xx_HAL_Driver/Src/stm32h7xx_hal_mdma.c ****   __HAL_UNLOCK(hmdma);
 1818              		.loc 1 988 3
 1819 0068 7B68     		ldr	r3, [r7, #4]
 1820 006a 0022     		movs	r2, #0
 1821 006c 83F83C20 		strb	r2, [r3, #60]
 989:Drivers/STM32H7xx_HAL_Driver/Src/stm32h7xx_hal_mdma.c **** 
 990:Drivers/STM32H7xx_HAL_Driver/Src/stm32h7xx_hal_mdma.c ****   hmdma->State = HAL_MDMA_STATE_READY;
 1822              		.loc 1 990 16
 1823 0070 7B68     		ldr	r3, [r7, #4]
 1824 0072 0122     		movs	r2, #1
 1825 0074 83F83D20 		strb	r2, [r3, #61]
 991:Drivers/STM32H7xx_HAL_Driver/Src/stm32h7xx_hal_mdma.c **** 
 992:Drivers/STM32H7xx_HAL_Driver/Src/stm32h7xx_hal_mdma.c ****   return hal_status;
 1826              		.loc 1 992 10
 1827 0078 FB7B     		ldrb	r3, [r7, #15]	@ zero_extendqisi2
 1828              	.L107:
 993:Drivers/STM32H7xx_HAL_Driver/Src/stm32h7xx_hal_mdma.c **** }
 1829              		.loc 1 993 1
 1830 007a 1846     		mov	r0, r3
 1831 007c 1437     		adds	r7, r7, #20
 1832              	.LCFI50:
 1833              		.cfi_def_cfa_offset 4
 1834 007e BD46     		mov	sp, r7
 1835              	.LCFI51:
 1836              		.cfi_def_cfa_register 13
 1837              		@ sp needed
 1838 0080 5DF8047B 		ldr	r7, [sp], #4
 1839              	.LCFI52:
 1840              		.cfi_restore 7
 1841              		.cfi_def_cfa_offset 0
 1842 0084 7047     		bx	lr
 1843              		.cfi_endproc
 1844              	.LFE152:
 1846              		.section	.text.HAL_MDMA_LinkedList_DisableCircularMode,"ax",%progbits
 1847              		.align	1
 1848              		.global	HAL_MDMA_LinkedList_DisableCircularMode
 1849              		.syntax unified
 1850              		.thumb
 1851              		.thumb_func
 1853              	HAL_MDMA_LinkedList_DisableCircularMode:
 1854              	.LFB153:
 994:Drivers/STM32H7xx_HAL_Driver/Src/stm32h7xx_hal_mdma.c **** 
 995:Drivers/STM32H7xx_HAL_Driver/Src/stm32h7xx_hal_mdma.c **** /**
ARM GAS  /var/folders/g1/j12m_ky910s3_sv7d4yrsdn00000gn/T//ccW7oTPr.s 			page 51


 996:Drivers/STM32H7xx_HAL_Driver/Src/stm32h7xx_hal_mdma.c ****   * @brief  Disable the linked list circular mode by setting the last node connection to null
 997:Drivers/STM32H7xx_HAL_Driver/Src/stm32h7xx_hal_mdma.c ****   * @param  hmdma : Pointer to a MDMA_HandleTypeDef structure that contains
 998:Drivers/STM32H7xx_HAL_Driver/Src/stm32h7xx_hal_mdma.c ****   *                 the configuration information for the specified MDMA Channel.
 999:Drivers/STM32H7xx_HAL_Driver/Src/stm32h7xx_hal_mdma.c ****   * @retval HAL status
1000:Drivers/STM32H7xx_HAL_Driver/Src/stm32h7xx_hal_mdma.c ****   */
1001:Drivers/STM32H7xx_HAL_Driver/Src/stm32h7xx_hal_mdma.c **** HAL_StatusTypeDef HAL_MDMA_LinkedList_DisableCircularMode(MDMA_HandleTypeDef *hmdma)
1002:Drivers/STM32H7xx_HAL_Driver/Src/stm32h7xx_hal_mdma.c **** {
 1855              		.loc 1 1002 1
 1856              		.cfi_startproc
 1857              		@ args = 0, pretend = 0, frame = 16
 1858              		@ frame_needed = 1, uses_anonymous_args = 0
 1859              		@ link register save eliminated.
 1860 0000 80B4     		push	{r7}
 1861              	.LCFI53:
 1862              		.cfi_def_cfa_offset 4
 1863              		.cfi_offset 7, -4
 1864 0002 85B0     		sub	sp, sp, #20
 1865              	.LCFI54:
 1866              		.cfi_def_cfa_offset 24
 1867 0004 00AF     		add	r7, sp, #0
 1868              	.LCFI55:
 1869              		.cfi_def_cfa_register 7
 1870 0006 7860     		str	r0, [r7, #4]
1003:Drivers/STM32H7xx_HAL_Driver/Src/stm32h7xx_hal_mdma.c ****   HAL_StatusTypeDef hal_status = HAL_OK;
 1871              		.loc 1 1003 21
 1872 0008 0023     		movs	r3, #0
 1873 000a FB73     		strb	r3, [r7, #15]
1004:Drivers/STM32H7xx_HAL_Driver/Src/stm32h7xx_hal_mdma.c **** 
1005:Drivers/STM32H7xx_HAL_Driver/Src/stm32h7xx_hal_mdma.c ****   /* Check the MDMA peripheral handle */
1006:Drivers/STM32H7xx_HAL_Driver/Src/stm32h7xx_hal_mdma.c ****   if(hmdma == NULL)
 1874              		.loc 1 1006 5
 1875 000c 7B68     		ldr	r3, [r7, #4]
 1876 000e 002B     		cmp	r3, #0
 1877 0010 01D1     		bne	.L113
1007:Drivers/STM32H7xx_HAL_Driver/Src/stm32h7xx_hal_mdma.c ****   {
1008:Drivers/STM32H7xx_HAL_Driver/Src/stm32h7xx_hal_mdma.c ****     return HAL_ERROR;
 1878              		.loc 1 1008 12
 1879 0012 0123     		movs	r3, #1
 1880 0014 30E0     		b	.L114
 1881              	.L113:
1009:Drivers/STM32H7xx_HAL_Driver/Src/stm32h7xx_hal_mdma.c ****   }
1010:Drivers/STM32H7xx_HAL_Driver/Src/stm32h7xx_hal_mdma.c **** 
1011:Drivers/STM32H7xx_HAL_Driver/Src/stm32h7xx_hal_mdma.c ****   /* Process locked */
1012:Drivers/STM32H7xx_HAL_Driver/Src/stm32h7xx_hal_mdma.c ****   __HAL_LOCK(hmdma);
 1882              		.loc 1 1012 3
 1883 0016 7B68     		ldr	r3, [r7, #4]
 1884 0018 93F83C30 		ldrb	r3, [r3, #60]	@ zero_extendqisi2
 1885 001c 012B     		cmp	r3, #1
 1886 001e 01D1     		bne	.L115
 1887              		.loc 1 1012 3 is_stmt 0 discriminator 1
 1888 0020 0223     		movs	r3, #2
 1889              		.loc 1 1012 3
 1890 0022 29E0     		b	.L114
 1891              	.L115:
 1892              		.loc 1 1012 3 discriminator 2
 1893 0024 7B68     		ldr	r3, [r7, #4]
 1894 0026 0122     		movs	r2, #1
ARM GAS  /var/folders/g1/j12m_ky910s3_sv7d4yrsdn00000gn/T//ccW7oTPr.s 			page 52


 1895 0028 83F83C20 		strb	r2, [r3, #60]
1013:Drivers/STM32H7xx_HAL_Driver/Src/stm32h7xx_hal_mdma.c **** 
1014:Drivers/STM32H7xx_HAL_Driver/Src/stm32h7xx_hal_mdma.c ****   if(HAL_MDMA_STATE_READY == hmdma->State)
 1896              		.loc 1 1014 35 is_stmt 1
 1897 002c 7B68     		ldr	r3, [r7, #4]
 1898 002e 93F83D30 		ldrb	r3, [r3, #61]
 1899 0032 DBB2     		uxtb	r3, r3
 1900              		.loc 1 1014 5
 1901 0034 012B     		cmp	r3, #1
 1902 0036 16D1     		bne	.L116
1015:Drivers/STM32H7xx_HAL_Driver/Src/stm32h7xx_hal_mdma.c ****   {
1016:Drivers/STM32H7xx_HAL_Driver/Src/stm32h7xx_hal_mdma.c ****     /* Change MDMA peripheral state */
1017:Drivers/STM32H7xx_HAL_Driver/Src/stm32h7xx_hal_mdma.c ****     hmdma->State = HAL_MDMA_STATE_BUSY;
 1903              		.loc 1 1017 18
 1904 0038 7B68     		ldr	r3, [r7, #4]
 1905 003a 0222     		movs	r2, #2
 1906 003c 83F83D20 		strb	r2, [r3, #61]
1018:Drivers/STM32H7xx_HAL_Driver/Src/stm32h7xx_hal_mdma.c **** 
1019:Drivers/STM32H7xx_HAL_Driver/Src/stm32h7xx_hal_mdma.c ****     /* If first and last node are null (no nodes in the list) : return error*/
1020:Drivers/STM32H7xx_HAL_Driver/Src/stm32h7xx_hal_mdma.c ****     if(((uint32_t)hmdma->FirstLinkedListNodeAddress == 0U) || ((uint32_t)hmdma->LastLinkedListNodeA
 1907              		.loc 1 1020 24
 1908 0040 7B68     		ldr	r3, [r7, #4]
 1909 0042 DB6D     		ldr	r3, [r3, #92]
 1910              		.loc 1 1020 7
 1911 0044 002B     		cmp	r3, #0
 1912 0046 07D0     		beq	.L117
 1913              		.loc 1 1020 79 discriminator 1
 1914 0048 7B68     		ldr	r3, [r7, #4]
 1915 004a 1B6E     		ldr	r3, [r3, #96]
 1916              		.loc 1 1020 60 discriminator 1
 1917 004c 002B     		cmp	r3, #0
 1918 004e 03D0     		beq	.L117
 1919              		.loc 1 1020 123 discriminator 2
 1920 0050 7B68     		ldr	r3, [r7, #4]
 1921 0052 5B6E     		ldr	r3, [r3, #100]
 1922              		.loc 1 1020 114 discriminator 2
 1923 0054 002B     		cmp	r3, #0
 1924 0056 02D1     		bne	.L118
 1925              	.L117:
1021:Drivers/STM32H7xx_HAL_Driver/Src/stm32h7xx_hal_mdma.c ****     {
1022:Drivers/STM32H7xx_HAL_Driver/Src/stm32h7xx_hal_mdma.c ****       hal_status = HAL_ERROR;
 1926              		.loc 1 1022 18
 1927 0058 0123     		movs	r3, #1
 1928 005a FB73     		strb	r3, [r7, #15]
 1929 005c 03E0     		b	.L116
 1930              	.L118:
1023:Drivers/STM32H7xx_HAL_Driver/Src/stm32h7xx_hal_mdma.c ****     }
1024:Drivers/STM32H7xx_HAL_Driver/Src/stm32h7xx_hal_mdma.c ****     else
1025:Drivers/STM32H7xx_HAL_Driver/Src/stm32h7xx_hal_mdma.c ****     {
1026:Drivers/STM32H7xx_HAL_Driver/Src/stm32h7xx_hal_mdma.c ****       /* to disable circular mode Last Node should be connected to NULL */
1027:Drivers/STM32H7xx_HAL_Driver/Src/stm32h7xx_hal_mdma.c ****       hmdma->LastLinkedListNodeAddress->CLAR = 0;
 1931              		.loc 1 1027 12
 1932 005e 7B68     		ldr	r3, [r7, #4]
 1933 0060 1B6E     		ldr	r3, [r3, #96]
 1934              		.loc 1 1027 46
 1935 0062 0022     		movs	r2, #0
 1936 0064 5A61     		str	r2, [r3, #20]
ARM GAS  /var/folders/g1/j12m_ky910s3_sv7d4yrsdn00000gn/T//ccW7oTPr.s 			page 53


 1937              	.L116:
1028:Drivers/STM32H7xx_HAL_Driver/Src/stm32h7xx_hal_mdma.c ****     }
1029:Drivers/STM32H7xx_HAL_Driver/Src/stm32h7xx_hal_mdma.c **** 
1030:Drivers/STM32H7xx_HAL_Driver/Src/stm32h7xx_hal_mdma.c ****   }
1031:Drivers/STM32H7xx_HAL_Driver/Src/stm32h7xx_hal_mdma.c ****   /* Process unlocked */
1032:Drivers/STM32H7xx_HAL_Driver/Src/stm32h7xx_hal_mdma.c ****   __HAL_UNLOCK(hmdma);
 1938              		.loc 1 1032 3
 1939 0066 7B68     		ldr	r3, [r7, #4]
 1940 0068 0022     		movs	r2, #0
 1941 006a 83F83C20 		strb	r2, [r3, #60]
1033:Drivers/STM32H7xx_HAL_Driver/Src/stm32h7xx_hal_mdma.c **** 
1034:Drivers/STM32H7xx_HAL_Driver/Src/stm32h7xx_hal_mdma.c ****   hmdma->State = HAL_MDMA_STATE_READY;
 1942              		.loc 1 1034 16
 1943 006e 7B68     		ldr	r3, [r7, #4]
 1944 0070 0122     		movs	r2, #1
 1945 0072 83F83D20 		strb	r2, [r3, #61]
1035:Drivers/STM32H7xx_HAL_Driver/Src/stm32h7xx_hal_mdma.c **** 
1036:Drivers/STM32H7xx_HAL_Driver/Src/stm32h7xx_hal_mdma.c ****   return hal_status;
 1946              		.loc 1 1036 10
 1947 0076 FB7B     		ldrb	r3, [r7, #15]	@ zero_extendqisi2
 1948              	.L114:
1037:Drivers/STM32H7xx_HAL_Driver/Src/stm32h7xx_hal_mdma.c **** }
 1949              		.loc 1 1037 1
 1950 0078 1846     		mov	r0, r3
 1951 007a 1437     		adds	r7, r7, #20
 1952              	.LCFI56:
 1953              		.cfi_def_cfa_offset 4
 1954 007c BD46     		mov	sp, r7
 1955              	.LCFI57:
 1956              		.cfi_def_cfa_register 13
 1957              		@ sp needed
 1958 007e 5DF8047B 		ldr	r7, [sp], #4
 1959              	.LCFI58:
 1960              		.cfi_restore 7
 1961              		.cfi_def_cfa_offset 0
 1962 0082 7047     		bx	lr
 1963              		.cfi_endproc
 1964              	.LFE153:
 1966              		.section	.text.HAL_MDMA_Start,"ax",%progbits
 1967              		.align	1
 1968              		.global	HAL_MDMA_Start
 1969              		.syntax unified
 1970              		.thumb
 1971              		.thumb_func
 1973              	HAL_MDMA_Start:
 1974              	.LFB154:
1038:Drivers/STM32H7xx_HAL_Driver/Src/stm32h7xx_hal_mdma.c **** 
1039:Drivers/STM32H7xx_HAL_Driver/Src/stm32h7xx_hal_mdma.c **** /**
1040:Drivers/STM32H7xx_HAL_Driver/Src/stm32h7xx_hal_mdma.c ****   * @}
1041:Drivers/STM32H7xx_HAL_Driver/Src/stm32h7xx_hal_mdma.c ****   */
1042:Drivers/STM32H7xx_HAL_Driver/Src/stm32h7xx_hal_mdma.c **** 
1043:Drivers/STM32H7xx_HAL_Driver/Src/stm32h7xx_hal_mdma.c **** /** @addtogroup MDMA_Exported_Functions_Group3
1044:Drivers/STM32H7xx_HAL_Driver/Src/stm32h7xx_hal_mdma.c ****  *
1045:Drivers/STM32H7xx_HAL_Driver/Src/stm32h7xx_hal_mdma.c **** @verbatim
1046:Drivers/STM32H7xx_HAL_Driver/Src/stm32h7xx_hal_mdma.c ****  ===============================================================================
1047:Drivers/STM32H7xx_HAL_Driver/Src/stm32h7xx_hal_mdma.c ****                       #####  IO operation functions  #####
1048:Drivers/STM32H7xx_HAL_Driver/Src/stm32h7xx_hal_mdma.c ****  ===============================================================================
ARM GAS  /var/folders/g1/j12m_ky910s3_sv7d4yrsdn00000gn/T//ccW7oTPr.s 			page 54


1049:Drivers/STM32H7xx_HAL_Driver/Src/stm32h7xx_hal_mdma.c ****     [..]  This section provides functions allowing to:
1050:Drivers/STM32H7xx_HAL_Driver/Src/stm32h7xx_hal_mdma.c ****       (+) Configure the source, destination address and data length and Start MDMA transfer
1051:Drivers/STM32H7xx_HAL_Driver/Src/stm32h7xx_hal_mdma.c ****       (+) Configure the source, destination address and data length and
1052:Drivers/STM32H7xx_HAL_Driver/Src/stm32h7xx_hal_mdma.c ****           Start MDMA transfer with interrupt
1053:Drivers/STM32H7xx_HAL_Driver/Src/stm32h7xx_hal_mdma.c ****       (+) Abort MDMA transfer
1054:Drivers/STM32H7xx_HAL_Driver/Src/stm32h7xx_hal_mdma.c ****       (+) Poll for transfer complete
1055:Drivers/STM32H7xx_HAL_Driver/Src/stm32h7xx_hal_mdma.c ****       (+) Generate a SW request (when Request is set to MDMA_REQUEST_SW)
1056:Drivers/STM32H7xx_HAL_Driver/Src/stm32h7xx_hal_mdma.c ****       (+) Handle MDMA interrupt request
1057:Drivers/STM32H7xx_HAL_Driver/Src/stm32h7xx_hal_mdma.c **** 
1058:Drivers/STM32H7xx_HAL_Driver/Src/stm32h7xx_hal_mdma.c **** @endverbatim
1059:Drivers/STM32H7xx_HAL_Driver/Src/stm32h7xx_hal_mdma.c ****   * @{
1060:Drivers/STM32H7xx_HAL_Driver/Src/stm32h7xx_hal_mdma.c ****   */
1061:Drivers/STM32H7xx_HAL_Driver/Src/stm32h7xx_hal_mdma.c **** 
1062:Drivers/STM32H7xx_HAL_Driver/Src/stm32h7xx_hal_mdma.c **** /**
1063:Drivers/STM32H7xx_HAL_Driver/Src/stm32h7xx_hal_mdma.c ****   * @brief  Starts the MDMA Transfer.
1064:Drivers/STM32H7xx_HAL_Driver/Src/stm32h7xx_hal_mdma.c ****   * @param  hmdma           : pointer to a MDMA_HandleTypeDef structure that contains
1065:Drivers/STM32H7xx_HAL_Driver/Src/stm32h7xx_hal_mdma.c ****   *                           the configuration information for the specified MDMA Channel.
1066:Drivers/STM32H7xx_HAL_Driver/Src/stm32h7xx_hal_mdma.c ****   * @param  SrcAddress      : The source memory Buffer address
1067:Drivers/STM32H7xx_HAL_Driver/Src/stm32h7xx_hal_mdma.c ****   * @param  DstAddress      : The destination memory Buffer address
1068:Drivers/STM32H7xx_HAL_Driver/Src/stm32h7xx_hal_mdma.c ****   * @param  BlockDataLength : The length of a block transfer in bytes
1069:Drivers/STM32H7xx_HAL_Driver/Src/stm32h7xx_hal_mdma.c ****   * @param  BlockCount      : The number of a blocks to be transfer
1070:Drivers/STM32H7xx_HAL_Driver/Src/stm32h7xx_hal_mdma.c ****   * @retval HAL status
1071:Drivers/STM32H7xx_HAL_Driver/Src/stm32h7xx_hal_mdma.c ****   */
1072:Drivers/STM32H7xx_HAL_Driver/Src/stm32h7xx_hal_mdma.c **** HAL_StatusTypeDef HAL_MDMA_Start(MDMA_HandleTypeDef *hmdma, uint32_t SrcAddress, uint32_t DstAddres
1073:Drivers/STM32H7xx_HAL_Driver/Src/stm32h7xx_hal_mdma.c **** {
 1975              		.loc 1 1073 1
 1976              		.cfi_startproc
 1977              		@ args = 4, pretend = 0, frame = 16
 1978              		@ frame_needed = 1, uses_anonymous_args = 0
 1979 0000 80B5     		push	{r7, lr}
 1980              	.LCFI59:
 1981              		.cfi_def_cfa_offset 8
 1982              		.cfi_offset 7, -8
 1983              		.cfi_offset 14, -4
 1984 0002 86B0     		sub	sp, sp, #24
 1985              	.LCFI60:
 1986              		.cfi_def_cfa_offset 32
 1987 0004 02AF     		add	r7, sp, #8
 1988              	.LCFI61:
 1989              		.cfi_def_cfa 7, 24
 1990 0006 F860     		str	r0, [r7, #12]
 1991 0008 B960     		str	r1, [r7, #8]
 1992 000a 7A60     		str	r2, [r7, #4]
 1993 000c 3B60     		str	r3, [r7]
1074:Drivers/STM32H7xx_HAL_Driver/Src/stm32h7xx_hal_mdma.c ****   /* Check the parameters */
1075:Drivers/STM32H7xx_HAL_Driver/Src/stm32h7xx_hal_mdma.c ****   assert_param(IS_MDMA_TRANSFER_LENGTH(BlockDataLength));
1076:Drivers/STM32H7xx_HAL_Driver/Src/stm32h7xx_hal_mdma.c ****   assert_param(IS_MDMA_BLOCK_COUNT(BlockCount));
1077:Drivers/STM32H7xx_HAL_Driver/Src/stm32h7xx_hal_mdma.c **** 
1078:Drivers/STM32H7xx_HAL_Driver/Src/stm32h7xx_hal_mdma.c ****   /* Check the MDMA peripheral handle */
1079:Drivers/STM32H7xx_HAL_Driver/Src/stm32h7xx_hal_mdma.c ****   if(hmdma == NULL)
 1994              		.loc 1 1079 5
 1995 000e FB68     		ldr	r3, [r7, #12]
 1996 0010 002B     		cmp	r3, #0
 1997 0012 01D1     		bne	.L120
1080:Drivers/STM32H7xx_HAL_Driver/Src/stm32h7xx_hal_mdma.c ****   {
1081:Drivers/STM32H7xx_HAL_Driver/Src/stm32h7xx_hal_mdma.c ****     return HAL_ERROR;
 1998              		.loc 1 1081 12
ARM GAS  /var/folders/g1/j12m_ky910s3_sv7d4yrsdn00000gn/T//ccW7oTPr.s 			page 55


 1999 0014 0123     		movs	r3, #1
 2000 0016 44E0     		b	.L121
 2001              	.L120:
1082:Drivers/STM32H7xx_HAL_Driver/Src/stm32h7xx_hal_mdma.c ****   }
1083:Drivers/STM32H7xx_HAL_Driver/Src/stm32h7xx_hal_mdma.c **** 
1084:Drivers/STM32H7xx_HAL_Driver/Src/stm32h7xx_hal_mdma.c ****   /* Process locked */
1085:Drivers/STM32H7xx_HAL_Driver/Src/stm32h7xx_hal_mdma.c ****   __HAL_LOCK(hmdma);
 2002              		.loc 1 1085 3
 2003 0018 FB68     		ldr	r3, [r7, #12]
 2004 001a 93F83C30 		ldrb	r3, [r3, #60]	@ zero_extendqisi2
 2005 001e 012B     		cmp	r3, #1
 2006 0020 01D1     		bne	.L122
 2007              		.loc 1 1085 3 is_stmt 0 discriminator 1
 2008 0022 0223     		movs	r3, #2
 2009              		.loc 1 1085 3
 2010 0024 3DE0     		b	.L121
 2011              	.L122:
 2012              		.loc 1 1085 3 discriminator 2
 2013 0026 FB68     		ldr	r3, [r7, #12]
 2014 0028 0122     		movs	r2, #1
 2015 002a 83F83C20 		strb	r2, [r3, #60]
1086:Drivers/STM32H7xx_HAL_Driver/Src/stm32h7xx_hal_mdma.c **** 
1087:Drivers/STM32H7xx_HAL_Driver/Src/stm32h7xx_hal_mdma.c ****   if(HAL_MDMA_STATE_READY == hmdma->State)
 2016              		.loc 1 1087 35 is_stmt 1
 2017 002e FB68     		ldr	r3, [r7, #12]
 2018 0030 93F83D30 		ldrb	r3, [r3, #61]
 2019 0034 DBB2     		uxtb	r3, r3
 2020              		.loc 1 1087 5
 2021 0036 012B     		cmp	r3, #1
 2022 0038 2CD1     		bne	.L123
1088:Drivers/STM32H7xx_HAL_Driver/Src/stm32h7xx_hal_mdma.c ****   {
1089:Drivers/STM32H7xx_HAL_Driver/Src/stm32h7xx_hal_mdma.c ****     /* Change MDMA peripheral state */
1090:Drivers/STM32H7xx_HAL_Driver/Src/stm32h7xx_hal_mdma.c ****     hmdma->State = HAL_MDMA_STATE_BUSY;
 2023              		.loc 1 1090 18
 2024 003a FB68     		ldr	r3, [r7, #12]
 2025 003c 0222     		movs	r2, #2
 2026 003e 83F83D20 		strb	r2, [r3, #61]
1091:Drivers/STM32H7xx_HAL_Driver/Src/stm32h7xx_hal_mdma.c **** 
1092:Drivers/STM32H7xx_HAL_Driver/Src/stm32h7xx_hal_mdma.c ****     /* Initialize the error code */
1093:Drivers/STM32H7xx_HAL_Driver/Src/stm32h7xx_hal_mdma.c ****     hmdma->ErrorCode = HAL_MDMA_ERROR_NONE;
 2027              		.loc 1 1093 22
 2028 0042 FB68     		ldr	r3, [r7, #12]
 2029 0044 0022     		movs	r2, #0
 2030 0046 9A66     		str	r2, [r3, #104]
1094:Drivers/STM32H7xx_HAL_Driver/Src/stm32h7xx_hal_mdma.c **** 
1095:Drivers/STM32H7xx_HAL_Driver/Src/stm32h7xx_hal_mdma.c ****     /* Disable the peripheral */
1096:Drivers/STM32H7xx_HAL_Driver/Src/stm32h7xx_hal_mdma.c ****     __HAL_MDMA_DISABLE(hmdma);
 2031              		.loc 1 1096 5
 2032 0048 FB68     		ldr	r3, [r7, #12]
 2033 004a 1B68     		ldr	r3, [r3]
 2034 004c DA68     		ldr	r2, [r3, #12]
 2035 004e FB68     		ldr	r3, [r7, #12]
 2036 0050 1B68     		ldr	r3, [r3]
 2037 0052 22F00102 		bic	r2, r2, #1
 2038 0056 DA60     		str	r2, [r3, #12]
1097:Drivers/STM32H7xx_HAL_Driver/Src/stm32h7xx_hal_mdma.c **** 
1098:Drivers/STM32H7xx_HAL_Driver/Src/stm32h7xx_hal_mdma.c ****     /* Configure the source, destination address and the data length */
ARM GAS  /var/folders/g1/j12m_ky910s3_sv7d4yrsdn00000gn/T//ccW7oTPr.s 			page 56


1099:Drivers/STM32H7xx_HAL_Driver/Src/stm32h7xx_hal_mdma.c ****     MDMA_SetConfig(hmdma, SrcAddress, DstAddress, BlockDataLength, BlockCount);
 2039              		.loc 1 1099 5
 2040 0058 BB69     		ldr	r3, [r7, #24]
 2041 005a 0093     		str	r3, [sp]
 2042 005c 3B68     		ldr	r3, [r7]
 2043 005e 7A68     		ldr	r2, [r7, #4]
 2044 0060 B968     		ldr	r1, [r7, #8]
 2045 0062 F868     		ldr	r0, [r7, #12]
 2046 0064 FFF7FEFF 		bl	MDMA_SetConfig
1100:Drivers/STM32H7xx_HAL_Driver/Src/stm32h7xx_hal_mdma.c **** 
1101:Drivers/STM32H7xx_HAL_Driver/Src/stm32h7xx_hal_mdma.c ****     /* Enable the Peripheral */
1102:Drivers/STM32H7xx_HAL_Driver/Src/stm32h7xx_hal_mdma.c ****     __HAL_MDMA_ENABLE(hmdma);
 2047              		.loc 1 1102 5
 2048 0068 FB68     		ldr	r3, [r7, #12]
 2049 006a 1B68     		ldr	r3, [r3]
 2050 006c DA68     		ldr	r2, [r3, #12]
 2051 006e FB68     		ldr	r3, [r7, #12]
 2052 0070 1B68     		ldr	r3, [r3]
 2053 0072 42F00102 		orr	r2, r2, #1
 2054 0076 DA60     		str	r2, [r3, #12]
1103:Drivers/STM32H7xx_HAL_Driver/Src/stm32h7xx_hal_mdma.c **** 
1104:Drivers/STM32H7xx_HAL_Driver/Src/stm32h7xx_hal_mdma.c ****     if(hmdma->Init.Request == MDMA_REQUEST_SW)
 2055              		.loc 1 1104 19
 2056 0078 FB68     		ldr	r3, [r7, #12]
 2057 007a 5B68     		ldr	r3, [r3, #4]
 2058              		.loc 1 1104 7
 2059 007c B3F1804F 		cmp	r3, #1073741824
 2060 0080 0ED1     		bne	.L124
1105:Drivers/STM32H7xx_HAL_Driver/Src/stm32h7xx_hal_mdma.c ****     {
1106:Drivers/STM32H7xx_HAL_Driver/Src/stm32h7xx_hal_mdma.c ****       /* activate If SW request mode*/
1107:Drivers/STM32H7xx_HAL_Driver/Src/stm32h7xx_hal_mdma.c ****       hmdma->Instance->CCR |=  MDMA_CCR_SWRQ;
 2061              		.loc 1 1107 12
 2062 0082 FB68     		ldr	r3, [r7, #12]
 2063 0084 1B68     		ldr	r3, [r3]
 2064              		.loc 1 1107 22
 2065 0086 DA68     		ldr	r2, [r3, #12]
 2066              		.loc 1 1107 12
 2067 0088 FB68     		ldr	r3, [r7, #12]
 2068 008a 1B68     		ldr	r3, [r3]
 2069              		.loc 1 1107 28
 2070 008c 42F48032 		orr	r2, r2, #65536
 2071 0090 DA60     		str	r2, [r3, #12]
 2072 0092 05E0     		b	.L124
 2073              	.L123:
1108:Drivers/STM32H7xx_HAL_Driver/Src/stm32h7xx_hal_mdma.c ****     }
1109:Drivers/STM32H7xx_HAL_Driver/Src/stm32h7xx_hal_mdma.c ****   }
1110:Drivers/STM32H7xx_HAL_Driver/Src/stm32h7xx_hal_mdma.c ****   else
1111:Drivers/STM32H7xx_HAL_Driver/Src/stm32h7xx_hal_mdma.c ****   {
1112:Drivers/STM32H7xx_HAL_Driver/Src/stm32h7xx_hal_mdma.c ****     /* Process unlocked */
1113:Drivers/STM32H7xx_HAL_Driver/Src/stm32h7xx_hal_mdma.c ****     __HAL_UNLOCK(hmdma);
 2074              		.loc 1 1113 5
 2075 0094 FB68     		ldr	r3, [r7, #12]
 2076 0096 0022     		movs	r2, #0
 2077 0098 83F83C20 		strb	r2, [r3, #60]
1114:Drivers/STM32H7xx_HAL_Driver/Src/stm32h7xx_hal_mdma.c **** 
1115:Drivers/STM32H7xx_HAL_Driver/Src/stm32h7xx_hal_mdma.c ****     /* Return error status */
1116:Drivers/STM32H7xx_HAL_Driver/Src/stm32h7xx_hal_mdma.c ****     return HAL_BUSY;
ARM GAS  /var/folders/g1/j12m_ky910s3_sv7d4yrsdn00000gn/T//ccW7oTPr.s 			page 57


 2078              		.loc 1 1116 12
 2079 009c 0223     		movs	r3, #2
 2080 009e 00E0     		b	.L121
 2081              	.L124:
1117:Drivers/STM32H7xx_HAL_Driver/Src/stm32h7xx_hal_mdma.c ****   }
1118:Drivers/STM32H7xx_HAL_Driver/Src/stm32h7xx_hal_mdma.c **** 
1119:Drivers/STM32H7xx_HAL_Driver/Src/stm32h7xx_hal_mdma.c ****   return HAL_OK;
 2082              		.loc 1 1119 10
 2083 00a0 0023     		movs	r3, #0
 2084              	.L121:
1120:Drivers/STM32H7xx_HAL_Driver/Src/stm32h7xx_hal_mdma.c **** }
 2085              		.loc 1 1120 1
 2086 00a2 1846     		mov	r0, r3
 2087 00a4 1037     		adds	r7, r7, #16
 2088              	.LCFI62:
 2089              		.cfi_def_cfa_offset 8
 2090 00a6 BD46     		mov	sp, r7
 2091              	.LCFI63:
 2092              		.cfi_def_cfa_register 13
 2093              		@ sp needed
 2094 00a8 80BD     		pop	{r7, pc}
 2095              		.cfi_endproc
 2096              	.LFE154:
 2098              		.section	.text.HAL_MDMA_Start_IT,"ax",%progbits
 2099              		.align	1
 2100              		.global	HAL_MDMA_Start_IT
 2101              		.syntax unified
 2102              		.thumb
 2103              		.thumb_func
 2105              	HAL_MDMA_Start_IT:
 2106              	.LFB155:
1121:Drivers/STM32H7xx_HAL_Driver/Src/stm32h7xx_hal_mdma.c **** 
1122:Drivers/STM32H7xx_HAL_Driver/Src/stm32h7xx_hal_mdma.c **** /**
1123:Drivers/STM32H7xx_HAL_Driver/Src/stm32h7xx_hal_mdma.c ****   * @brief  Starts the MDMA Transfer with interrupts enabled.
1124:Drivers/STM32H7xx_HAL_Driver/Src/stm32h7xx_hal_mdma.c ****   * @param  hmdma           : pointer to a MDMA_HandleTypeDef structure that contains
1125:Drivers/STM32H7xx_HAL_Driver/Src/stm32h7xx_hal_mdma.c ****   *                           the configuration information for the specified MDMA Channel.
1126:Drivers/STM32H7xx_HAL_Driver/Src/stm32h7xx_hal_mdma.c ****   * @param  SrcAddress      : The source memory Buffer address
1127:Drivers/STM32H7xx_HAL_Driver/Src/stm32h7xx_hal_mdma.c ****   * @param  DstAddress      : The destination memory Buffer address
1128:Drivers/STM32H7xx_HAL_Driver/Src/stm32h7xx_hal_mdma.c ****   * @param  BlockDataLength : The length of a block transfer in bytes
1129:Drivers/STM32H7xx_HAL_Driver/Src/stm32h7xx_hal_mdma.c ****   * @param  BlockCount      : The number of a blocks to be transfer
1130:Drivers/STM32H7xx_HAL_Driver/Src/stm32h7xx_hal_mdma.c ****   * @retval HAL status
1131:Drivers/STM32H7xx_HAL_Driver/Src/stm32h7xx_hal_mdma.c ****   */
1132:Drivers/STM32H7xx_HAL_Driver/Src/stm32h7xx_hal_mdma.c **** HAL_StatusTypeDef HAL_MDMA_Start_IT(MDMA_HandleTypeDef *hmdma, uint32_t SrcAddress, uint32_t DstAdd
1133:Drivers/STM32H7xx_HAL_Driver/Src/stm32h7xx_hal_mdma.c **** {
 2107              		.loc 1 1133 1
 2108              		.cfi_startproc
 2109              		@ args = 4, pretend = 0, frame = 16
 2110              		@ frame_needed = 1, uses_anonymous_args = 0
 2111 0000 80B5     		push	{r7, lr}
 2112              	.LCFI64:
 2113              		.cfi_def_cfa_offset 8
 2114              		.cfi_offset 7, -8
 2115              		.cfi_offset 14, -4
 2116 0002 86B0     		sub	sp, sp, #24
 2117              	.LCFI65:
 2118              		.cfi_def_cfa_offset 32
 2119 0004 02AF     		add	r7, sp, #8
ARM GAS  /var/folders/g1/j12m_ky910s3_sv7d4yrsdn00000gn/T//ccW7oTPr.s 			page 58


 2120              	.LCFI66:
 2121              		.cfi_def_cfa 7, 24
 2122 0006 F860     		str	r0, [r7, #12]
 2123 0008 B960     		str	r1, [r7, #8]
 2124 000a 7A60     		str	r2, [r7, #4]
 2125 000c 3B60     		str	r3, [r7]
1134:Drivers/STM32H7xx_HAL_Driver/Src/stm32h7xx_hal_mdma.c ****   /* Check the parameters */
1135:Drivers/STM32H7xx_HAL_Driver/Src/stm32h7xx_hal_mdma.c ****   assert_param(IS_MDMA_TRANSFER_LENGTH(BlockDataLength));
1136:Drivers/STM32H7xx_HAL_Driver/Src/stm32h7xx_hal_mdma.c ****   assert_param(IS_MDMA_BLOCK_COUNT(BlockCount));
1137:Drivers/STM32H7xx_HAL_Driver/Src/stm32h7xx_hal_mdma.c **** 
1138:Drivers/STM32H7xx_HAL_Driver/Src/stm32h7xx_hal_mdma.c ****   /* Check the MDMA peripheral handle */
1139:Drivers/STM32H7xx_HAL_Driver/Src/stm32h7xx_hal_mdma.c ****   if(hmdma == NULL)
 2126              		.loc 1 1139 5
 2127 000e FB68     		ldr	r3, [r7, #12]
 2128 0010 002B     		cmp	r3, #0
 2129 0012 01D1     		bne	.L126
1140:Drivers/STM32H7xx_HAL_Driver/Src/stm32h7xx_hal_mdma.c ****   {
1141:Drivers/STM32H7xx_HAL_Driver/Src/stm32h7xx_hal_mdma.c ****     return HAL_ERROR;
 2130              		.loc 1 1141 12
 2131 0014 0123     		movs	r3, #1
 2132 0016 70E0     		b	.L127
 2133              	.L126:
1142:Drivers/STM32H7xx_HAL_Driver/Src/stm32h7xx_hal_mdma.c ****   }
1143:Drivers/STM32H7xx_HAL_Driver/Src/stm32h7xx_hal_mdma.c **** 
1144:Drivers/STM32H7xx_HAL_Driver/Src/stm32h7xx_hal_mdma.c ****   /* Process locked */
1145:Drivers/STM32H7xx_HAL_Driver/Src/stm32h7xx_hal_mdma.c ****   __HAL_LOCK(hmdma);
 2134              		.loc 1 1145 3
 2135 0018 FB68     		ldr	r3, [r7, #12]
 2136 001a 93F83C30 		ldrb	r3, [r3, #60]	@ zero_extendqisi2
 2137 001e 012B     		cmp	r3, #1
 2138 0020 01D1     		bne	.L128
 2139              		.loc 1 1145 3 is_stmt 0 discriminator 1
 2140 0022 0223     		movs	r3, #2
 2141              		.loc 1 1145 3
 2142 0024 69E0     		b	.L127
 2143              	.L128:
 2144              		.loc 1 1145 3 discriminator 2
 2145 0026 FB68     		ldr	r3, [r7, #12]
 2146 0028 0122     		movs	r2, #1
 2147 002a 83F83C20 		strb	r2, [r3, #60]
1146:Drivers/STM32H7xx_HAL_Driver/Src/stm32h7xx_hal_mdma.c **** 
1147:Drivers/STM32H7xx_HAL_Driver/Src/stm32h7xx_hal_mdma.c ****   if(HAL_MDMA_STATE_READY == hmdma->State)
 2148              		.loc 1 1147 35 is_stmt 1
 2149 002e FB68     		ldr	r3, [r7, #12]
 2150 0030 93F83D30 		ldrb	r3, [r3, #61]
 2151 0034 DBB2     		uxtb	r3, r3
 2152              		.loc 1 1147 5
 2153 0036 012B     		cmp	r3, #1
 2154 0038 58D1     		bne	.L129
1148:Drivers/STM32H7xx_HAL_Driver/Src/stm32h7xx_hal_mdma.c ****   {
1149:Drivers/STM32H7xx_HAL_Driver/Src/stm32h7xx_hal_mdma.c ****     /* Change MDMA peripheral state */
1150:Drivers/STM32H7xx_HAL_Driver/Src/stm32h7xx_hal_mdma.c ****     hmdma->State = HAL_MDMA_STATE_BUSY;
 2155              		.loc 1 1150 18
 2156 003a FB68     		ldr	r3, [r7, #12]
 2157 003c 0222     		movs	r2, #2
 2158 003e 83F83D20 		strb	r2, [r3, #61]
1151:Drivers/STM32H7xx_HAL_Driver/Src/stm32h7xx_hal_mdma.c **** 
ARM GAS  /var/folders/g1/j12m_ky910s3_sv7d4yrsdn00000gn/T//ccW7oTPr.s 			page 59


1152:Drivers/STM32H7xx_HAL_Driver/Src/stm32h7xx_hal_mdma.c ****     /* Initialize the error code */
1153:Drivers/STM32H7xx_HAL_Driver/Src/stm32h7xx_hal_mdma.c ****     hmdma->ErrorCode = HAL_MDMA_ERROR_NONE;
 2159              		.loc 1 1153 22
 2160 0042 FB68     		ldr	r3, [r7, #12]
 2161 0044 0022     		movs	r2, #0
 2162 0046 9A66     		str	r2, [r3, #104]
1154:Drivers/STM32H7xx_HAL_Driver/Src/stm32h7xx_hal_mdma.c **** 
1155:Drivers/STM32H7xx_HAL_Driver/Src/stm32h7xx_hal_mdma.c ****     /* Disable the peripheral */
1156:Drivers/STM32H7xx_HAL_Driver/Src/stm32h7xx_hal_mdma.c ****     __HAL_MDMA_DISABLE(hmdma);
 2163              		.loc 1 1156 5
 2164 0048 FB68     		ldr	r3, [r7, #12]
 2165 004a 1B68     		ldr	r3, [r3]
 2166 004c DA68     		ldr	r2, [r3, #12]
 2167 004e FB68     		ldr	r3, [r7, #12]
 2168 0050 1B68     		ldr	r3, [r3]
 2169 0052 22F00102 		bic	r2, r2, #1
 2170 0056 DA60     		str	r2, [r3, #12]
1157:Drivers/STM32H7xx_HAL_Driver/Src/stm32h7xx_hal_mdma.c **** 
1158:Drivers/STM32H7xx_HAL_Driver/Src/stm32h7xx_hal_mdma.c ****     /* Configure the source, destination address and the data length */
1159:Drivers/STM32H7xx_HAL_Driver/Src/stm32h7xx_hal_mdma.c ****     MDMA_SetConfig(hmdma, SrcAddress, DstAddress, BlockDataLength, BlockCount);
 2171              		.loc 1 1159 5
 2172 0058 BB69     		ldr	r3, [r7, #24]
 2173 005a 0093     		str	r3, [sp]
 2174 005c 3B68     		ldr	r3, [r7]
 2175 005e 7A68     		ldr	r2, [r7, #4]
 2176 0060 B968     		ldr	r1, [r7, #8]
 2177 0062 F868     		ldr	r0, [r7, #12]
 2178 0064 FFF7FEFF 		bl	MDMA_SetConfig
1160:Drivers/STM32H7xx_HAL_Driver/Src/stm32h7xx_hal_mdma.c **** 
1161:Drivers/STM32H7xx_HAL_Driver/Src/stm32h7xx_hal_mdma.c ****     /* Enable Common interrupts i.e Transfer Error IT and Channel Transfer Complete IT*/
1162:Drivers/STM32H7xx_HAL_Driver/Src/stm32h7xx_hal_mdma.c ****     __HAL_MDMA_ENABLE_IT(hmdma, (MDMA_IT_TE | MDMA_IT_CTC));
 2179              		.loc 1 1162 5
 2180 0068 FB68     		ldr	r3, [r7, #12]
 2181 006a 1B68     		ldr	r3, [r3]
 2182 006c DA68     		ldr	r2, [r3, #12]
 2183 006e FB68     		ldr	r3, [r7, #12]
 2184 0070 1B68     		ldr	r3, [r3]
 2185 0072 42F00602 		orr	r2, r2, #6
 2186 0076 DA60     		str	r2, [r3, #12]
1163:Drivers/STM32H7xx_HAL_Driver/Src/stm32h7xx_hal_mdma.c **** 
1164:Drivers/STM32H7xx_HAL_Driver/Src/stm32h7xx_hal_mdma.c ****     if(hmdma->XferBlockCpltCallback != NULL)
 2187              		.loc 1 1164 13
 2188 0078 FB68     		ldr	r3, [r7, #12]
 2189 007a DB6C     		ldr	r3, [r3, #76]
 2190              		.loc 1 1164 7
 2191 007c 002B     		cmp	r3, #0
 2192 007e 07D0     		beq	.L130
1165:Drivers/STM32H7xx_HAL_Driver/Src/stm32h7xx_hal_mdma.c ****     {
1166:Drivers/STM32H7xx_HAL_Driver/Src/stm32h7xx_hal_mdma.c ****       /* if Block transfer complete Callback is set enable the corresponding IT*/
1167:Drivers/STM32H7xx_HAL_Driver/Src/stm32h7xx_hal_mdma.c ****       __HAL_MDMA_ENABLE_IT(hmdma, MDMA_IT_BT);
 2193              		.loc 1 1167 7
 2194 0080 FB68     		ldr	r3, [r7, #12]
 2195 0082 1B68     		ldr	r3, [r3]
 2196 0084 DA68     		ldr	r2, [r3, #12]
 2197 0086 FB68     		ldr	r3, [r7, #12]
 2198 0088 1B68     		ldr	r3, [r3]
 2199 008a 42F01002 		orr	r2, r2, #16
ARM GAS  /var/folders/g1/j12m_ky910s3_sv7d4yrsdn00000gn/T//ccW7oTPr.s 			page 60


 2200 008e DA60     		str	r2, [r3, #12]
 2201              	.L130:
1168:Drivers/STM32H7xx_HAL_Driver/Src/stm32h7xx_hal_mdma.c ****     }
1169:Drivers/STM32H7xx_HAL_Driver/Src/stm32h7xx_hal_mdma.c **** 
1170:Drivers/STM32H7xx_HAL_Driver/Src/stm32h7xx_hal_mdma.c ****     if(hmdma->XferRepeatBlockCpltCallback != NULL)
 2202              		.loc 1 1170 13
 2203 0090 FB68     		ldr	r3, [r7, #12]
 2204 0092 1B6D     		ldr	r3, [r3, #80]
 2205              		.loc 1 1170 7
 2206 0094 002B     		cmp	r3, #0
 2207 0096 07D0     		beq	.L131
1171:Drivers/STM32H7xx_HAL_Driver/Src/stm32h7xx_hal_mdma.c ****     {
1172:Drivers/STM32H7xx_HAL_Driver/Src/stm32h7xx_hal_mdma.c ****       /* if Repeated Block transfer complete Callback is set enable the corresponding IT*/
1173:Drivers/STM32H7xx_HAL_Driver/Src/stm32h7xx_hal_mdma.c ****       __HAL_MDMA_ENABLE_IT(hmdma, MDMA_IT_BRT);
 2208              		.loc 1 1173 7
 2209 0098 FB68     		ldr	r3, [r7, #12]
 2210 009a 1B68     		ldr	r3, [r3]
 2211 009c DA68     		ldr	r2, [r3, #12]
 2212 009e FB68     		ldr	r3, [r7, #12]
 2213 00a0 1B68     		ldr	r3, [r3]
 2214 00a2 42F00802 		orr	r2, r2, #8
 2215 00a6 DA60     		str	r2, [r3, #12]
 2216              	.L131:
1174:Drivers/STM32H7xx_HAL_Driver/Src/stm32h7xx_hal_mdma.c ****     }
1175:Drivers/STM32H7xx_HAL_Driver/Src/stm32h7xx_hal_mdma.c **** 
1176:Drivers/STM32H7xx_HAL_Driver/Src/stm32h7xx_hal_mdma.c ****     if(hmdma->XferBufferCpltCallback != NULL)
 2217              		.loc 1 1176 13
 2218 00a8 FB68     		ldr	r3, [r7, #12]
 2219 00aa 9B6C     		ldr	r3, [r3, #72]
 2220              		.loc 1 1176 7
 2221 00ac 002B     		cmp	r3, #0
 2222 00ae 07D0     		beq	.L132
1177:Drivers/STM32H7xx_HAL_Driver/Src/stm32h7xx_hal_mdma.c ****     {
1178:Drivers/STM32H7xx_HAL_Driver/Src/stm32h7xx_hal_mdma.c ****       /* if buffer transfer complete Callback is set enable the corresponding IT*/
1179:Drivers/STM32H7xx_HAL_Driver/Src/stm32h7xx_hal_mdma.c ****       __HAL_MDMA_ENABLE_IT(hmdma, MDMA_IT_BFTC);
 2223              		.loc 1 1179 7
 2224 00b0 FB68     		ldr	r3, [r7, #12]
 2225 00b2 1B68     		ldr	r3, [r3]
 2226 00b4 DA68     		ldr	r2, [r3, #12]
 2227 00b6 FB68     		ldr	r3, [r7, #12]
 2228 00b8 1B68     		ldr	r3, [r3]
 2229 00ba 42F02002 		orr	r2, r2, #32
 2230 00be DA60     		str	r2, [r3, #12]
 2231              	.L132:
1180:Drivers/STM32H7xx_HAL_Driver/Src/stm32h7xx_hal_mdma.c ****     }
1181:Drivers/STM32H7xx_HAL_Driver/Src/stm32h7xx_hal_mdma.c **** 
1182:Drivers/STM32H7xx_HAL_Driver/Src/stm32h7xx_hal_mdma.c ****     /* Enable the Peripheral */
1183:Drivers/STM32H7xx_HAL_Driver/Src/stm32h7xx_hal_mdma.c ****     __HAL_MDMA_ENABLE(hmdma);
 2232              		.loc 1 1183 5
 2233 00c0 FB68     		ldr	r3, [r7, #12]
 2234 00c2 1B68     		ldr	r3, [r3]
 2235 00c4 DA68     		ldr	r2, [r3, #12]
 2236 00c6 FB68     		ldr	r3, [r7, #12]
 2237 00c8 1B68     		ldr	r3, [r3]
 2238 00ca 42F00102 		orr	r2, r2, #1
 2239 00ce DA60     		str	r2, [r3, #12]
1184:Drivers/STM32H7xx_HAL_Driver/Src/stm32h7xx_hal_mdma.c **** 
ARM GAS  /var/folders/g1/j12m_ky910s3_sv7d4yrsdn00000gn/T//ccW7oTPr.s 			page 61


1185:Drivers/STM32H7xx_HAL_Driver/Src/stm32h7xx_hal_mdma.c ****     if(hmdma->Init.Request == MDMA_REQUEST_SW)
 2240              		.loc 1 1185 19
 2241 00d0 FB68     		ldr	r3, [r7, #12]
 2242 00d2 5B68     		ldr	r3, [r3, #4]
 2243              		.loc 1 1185 7
 2244 00d4 B3F1804F 		cmp	r3, #1073741824
 2245 00d8 0ED1     		bne	.L133
1186:Drivers/STM32H7xx_HAL_Driver/Src/stm32h7xx_hal_mdma.c ****     {
1187:Drivers/STM32H7xx_HAL_Driver/Src/stm32h7xx_hal_mdma.c ****       /* activate If SW request mode*/
1188:Drivers/STM32H7xx_HAL_Driver/Src/stm32h7xx_hal_mdma.c ****       hmdma->Instance->CCR |=  MDMA_CCR_SWRQ;
 2246              		.loc 1 1188 12
 2247 00da FB68     		ldr	r3, [r7, #12]
 2248 00dc 1B68     		ldr	r3, [r3]
 2249              		.loc 1 1188 22
 2250 00de DA68     		ldr	r2, [r3, #12]
 2251              		.loc 1 1188 12
 2252 00e0 FB68     		ldr	r3, [r7, #12]
 2253 00e2 1B68     		ldr	r3, [r3]
 2254              		.loc 1 1188 28
 2255 00e4 42F48032 		orr	r2, r2, #65536
 2256 00e8 DA60     		str	r2, [r3, #12]
 2257 00ea 05E0     		b	.L133
 2258              	.L129:
1189:Drivers/STM32H7xx_HAL_Driver/Src/stm32h7xx_hal_mdma.c ****     }
1190:Drivers/STM32H7xx_HAL_Driver/Src/stm32h7xx_hal_mdma.c ****   }
1191:Drivers/STM32H7xx_HAL_Driver/Src/stm32h7xx_hal_mdma.c ****   else
1192:Drivers/STM32H7xx_HAL_Driver/Src/stm32h7xx_hal_mdma.c ****   {
1193:Drivers/STM32H7xx_HAL_Driver/Src/stm32h7xx_hal_mdma.c ****     /* Process unlocked */
1194:Drivers/STM32H7xx_HAL_Driver/Src/stm32h7xx_hal_mdma.c ****     __HAL_UNLOCK(hmdma);
 2259              		.loc 1 1194 5
 2260 00ec FB68     		ldr	r3, [r7, #12]
 2261 00ee 0022     		movs	r2, #0
 2262 00f0 83F83C20 		strb	r2, [r3, #60]
1195:Drivers/STM32H7xx_HAL_Driver/Src/stm32h7xx_hal_mdma.c **** 
1196:Drivers/STM32H7xx_HAL_Driver/Src/stm32h7xx_hal_mdma.c ****     /* Return error status */
1197:Drivers/STM32H7xx_HAL_Driver/Src/stm32h7xx_hal_mdma.c ****     return HAL_BUSY;
 2263              		.loc 1 1197 12
 2264 00f4 0223     		movs	r3, #2
 2265 00f6 00E0     		b	.L127
 2266              	.L133:
1198:Drivers/STM32H7xx_HAL_Driver/Src/stm32h7xx_hal_mdma.c ****   }
1199:Drivers/STM32H7xx_HAL_Driver/Src/stm32h7xx_hal_mdma.c **** 
1200:Drivers/STM32H7xx_HAL_Driver/Src/stm32h7xx_hal_mdma.c ****   return HAL_OK;
 2267              		.loc 1 1200 10
 2268 00f8 0023     		movs	r3, #0
 2269              	.L127:
1201:Drivers/STM32H7xx_HAL_Driver/Src/stm32h7xx_hal_mdma.c **** }
 2270              		.loc 1 1201 1
 2271 00fa 1846     		mov	r0, r3
 2272 00fc 1037     		adds	r7, r7, #16
 2273              	.LCFI67:
 2274              		.cfi_def_cfa_offset 8
 2275 00fe BD46     		mov	sp, r7
 2276              	.LCFI68:
 2277              		.cfi_def_cfa_register 13
 2278              		@ sp needed
 2279 0100 80BD     		pop	{r7, pc}
ARM GAS  /var/folders/g1/j12m_ky910s3_sv7d4yrsdn00000gn/T//ccW7oTPr.s 			page 62


 2280              		.cfi_endproc
 2281              	.LFE155:
 2283              		.section	.text.HAL_MDMA_Abort,"ax",%progbits
 2284              		.align	1
 2285              		.global	HAL_MDMA_Abort
 2286              		.syntax unified
 2287              		.thumb
 2288              		.thumb_func
 2290              	HAL_MDMA_Abort:
 2291              	.LFB156:
1202:Drivers/STM32H7xx_HAL_Driver/Src/stm32h7xx_hal_mdma.c **** 
1203:Drivers/STM32H7xx_HAL_Driver/Src/stm32h7xx_hal_mdma.c **** /**
1204:Drivers/STM32H7xx_HAL_Driver/Src/stm32h7xx_hal_mdma.c ****   * @brief  Aborts the MDMA Transfer.
1205:Drivers/STM32H7xx_HAL_Driver/Src/stm32h7xx_hal_mdma.c ****   * @param  hmdma  : pointer to a MDMA_HandleTypeDef structure that contains
1206:Drivers/STM32H7xx_HAL_Driver/Src/stm32h7xx_hal_mdma.c ****   *                 the configuration information for the specified MDMA Channel.
1207:Drivers/STM32H7xx_HAL_Driver/Src/stm32h7xx_hal_mdma.c ****   *
1208:Drivers/STM32H7xx_HAL_Driver/Src/stm32h7xx_hal_mdma.c ****   * @note  After disabling a MDMA Channel, a check for wait until the MDMA Channel is
1209:Drivers/STM32H7xx_HAL_Driver/Src/stm32h7xx_hal_mdma.c ****   *        effectively disabled is added. If a Channel is disabled
1210:Drivers/STM32H7xx_HAL_Driver/Src/stm32h7xx_hal_mdma.c ****   *        while a data transfer is ongoing, the current data will be transferred
1211:Drivers/STM32H7xx_HAL_Driver/Src/stm32h7xx_hal_mdma.c ****   *        and the Channel will be effectively disabled only after the transfer of
1212:Drivers/STM32H7xx_HAL_Driver/Src/stm32h7xx_hal_mdma.c ****   *        this single data is finished.
1213:Drivers/STM32H7xx_HAL_Driver/Src/stm32h7xx_hal_mdma.c ****   * @retval HAL status
1214:Drivers/STM32H7xx_HAL_Driver/Src/stm32h7xx_hal_mdma.c ****   */
1215:Drivers/STM32H7xx_HAL_Driver/Src/stm32h7xx_hal_mdma.c **** HAL_StatusTypeDef HAL_MDMA_Abort(MDMA_HandleTypeDef *hmdma)
1216:Drivers/STM32H7xx_HAL_Driver/Src/stm32h7xx_hal_mdma.c **** {
 2292              		.loc 1 1216 1
 2293              		.cfi_startproc
 2294              		@ args = 0, pretend = 0, frame = 16
 2295              		@ frame_needed = 1, uses_anonymous_args = 0
 2296 0000 80B5     		push	{r7, lr}
 2297              	.LCFI69:
 2298              		.cfi_def_cfa_offset 8
 2299              		.cfi_offset 7, -8
 2300              		.cfi_offset 14, -4
 2301 0002 84B0     		sub	sp, sp, #16
 2302              	.LCFI70:
 2303              		.cfi_def_cfa_offset 24
 2304 0004 00AF     		add	r7, sp, #0
 2305              	.LCFI71:
 2306              		.cfi_def_cfa_register 7
 2307 0006 7860     		str	r0, [r7, #4]
1217:Drivers/STM32H7xx_HAL_Driver/Src/stm32h7xx_hal_mdma.c ****   uint32_t tickstart =  HAL_GetTick();
 2308              		.loc 1 1217 25
 2309 0008 FFF7FEFF 		bl	HAL_GetTick
 2310 000c F860     		str	r0, [r7, #12]
1218:Drivers/STM32H7xx_HAL_Driver/Src/stm32h7xx_hal_mdma.c **** 
1219:Drivers/STM32H7xx_HAL_Driver/Src/stm32h7xx_hal_mdma.c ****   /* Check the MDMA peripheral handle */
1220:Drivers/STM32H7xx_HAL_Driver/Src/stm32h7xx_hal_mdma.c ****   if(hmdma == NULL)
 2311              		.loc 1 1220 5
 2312 000e 7B68     		ldr	r3, [r7, #4]
 2313 0010 002B     		cmp	r3, #0
 2314 0012 01D1     		bne	.L135
1221:Drivers/STM32H7xx_HAL_Driver/Src/stm32h7xx_hal_mdma.c ****   {
1222:Drivers/STM32H7xx_HAL_Driver/Src/stm32h7xx_hal_mdma.c ****     return HAL_ERROR;
 2315              		.loc 1 1222 12
 2316 0014 0123     		movs	r3, #1
 2317 0016 4AE0     		b	.L136
ARM GAS  /var/folders/g1/j12m_ky910s3_sv7d4yrsdn00000gn/T//ccW7oTPr.s 			page 63


 2318              	.L135:
1223:Drivers/STM32H7xx_HAL_Driver/Src/stm32h7xx_hal_mdma.c ****   }
1224:Drivers/STM32H7xx_HAL_Driver/Src/stm32h7xx_hal_mdma.c **** 
1225:Drivers/STM32H7xx_HAL_Driver/Src/stm32h7xx_hal_mdma.c ****   if(HAL_MDMA_STATE_BUSY != hmdma->State)
 2319              		.loc 1 1225 34
 2320 0018 7B68     		ldr	r3, [r7, #4]
 2321 001a 93F83D30 		ldrb	r3, [r3, #61]
 2322 001e DBB2     		uxtb	r3, r3
 2323              		.loc 1 1225 5
 2324 0020 022B     		cmp	r3, #2
 2325 0022 08D0     		beq	.L137
1226:Drivers/STM32H7xx_HAL_Driver/Src/stm32h7xx_hal_mdma.c ****   {
1227:Drivers/STM32H7xx_HAL_Driver/Src/stm32h7xx_hal_mdma.c ****     hmdma->ErrorCode = HAL_MDMA_ERROR_NO_XFER;
 2326              		.loc 1 1227 22
 2327 0024 7B68     		ldr	r3, [r7, #4]
 2328 0026 8022     		movs	r2, #128
 2329 0028 9A66     		str	r2, [r3, #104]
1228:Drivers/STM32H7xx_HAL_Driver/Src/stm32h7xx_hal_mdma.c **** 
1229:Drivers/STM32H7xx_HAL_Driver/Src/stm32h7xx_hal_mdma.c ****     /* Process Unlocked */
1230:Drivers/STM32H7xx_HAL_Driver/Src/stm32h7xx_hal_mdma.c ****     __HAL_UNLOCK(hmdma);
 2330              		.loc 1 1230 5
 2331 002a 7B68     		ldr	r3, [r7, #4]
 2332 002c 0022     		movs	r2, #0
 2333 002e 83F83C20 		strb	r2, [r3, #60]
1231:Drivers/STM32H7xx_HAL_Driver/Src/stm32h7xx_hal_mdma.c **** 
1232:Drivers/STM32H7xx_HAL_Driver/Src/stm32h7xx_hal_mdma.c ****     return HAL_ERROR;
 2334              		.loc 1 1232 12
 2335 0032 0123     		movs	r3, #1
 2336 0034 3BE0     		b	.L136
 2337              	.L137:
1233:Drivers/STM32H7xx_HAL_Driver/Src/stm32h7xx_hal_mdma.c ****   }
1234:Drivers/STM32H7xx_HAL_Driver/Src/stm32h7xx_hal_mdma.c ****   else
1235:Drivers/STM32H7xx_HAL_Driver/Src/stm32h7xx_hal_mdma.c ****   {
1236:Drivers/STM32H7xx_HAL_Driver/Src/stm32h7xx_hal_mdma.c ****     /* Disable all the transfer interrupts */
1237:Drivers/STM32H7xx_HAL_Driver/Src/stm32h7xx_hal_mdma.c ****     __HAL_MDMA_DISABLE_IT(hmdma, (MDMA_IT_TE | MDMA_IT_CTC | MDMA_IT_BT | MDMA_IT_BRT | MDMA_IT_BFT
 2338              		.loc 1 1237 5
 2339 0036 7B68     		ldr	r3, [r7, #4]
 2340 0038 1B68     		ldr	r3, [r3]
 2341 003a DA68     		ldr	r2, [r3, #12]
 2342 003c 7B68     		ldr	r3, [r7, #4]
 2343 003e 1B68     		ldr	r3, [r3]
 2344 0040 22F03E02 		bic	r2, r2, #62
 2345 0044 DA60     		str	r2, [r3, #12]
1238:Drivers/STM32H7xx_HAL_Driver/Src/stm32h7xx_hal_mdma.c **** 
1239:Drivers/STM32H7xx_HAL_Driver/Src/stm32h7xx_hal_mdma.c ****     /* Disable the channel */
1240:Drivers/STM32H7xx_HAL_Driver/Src/stm32h7xx_hal_mdma.c ****     __HAL_MDMA_DISABLE(hmdma);
 2346              		.loc 1 1240 5
 2347 0046 7B68     		ldr	r3, [r7, #4]
 2348 0048 1B68     		ldr	r3, [r3]
 2349 004a DA68     		ldr	r2, [r3, #12]
 2350 004c 7B68     		ldr	r3, [r7, #4]
 2351 004e 1B68     		ldr	r3, [r3]
 2352 0050 22F00102 		bic	r2, r2, #1
 2353 0054 DA60     		str	r2, [r3, #12]
1241:Drivers/STM32H7xx_HAL_Driver/Src/stm32h7xx_hal_mdma.c **** 
1242:Drivers/STM32H7xx_HAL_Driver/Src/stm32h7xx_hal_mdma.c ****     /* Check if the MDMA Channel is effectively disabled */
1243:Drivers/STM32H7xx_HAL_Driver/Src/stm32h7xx_hal_mdma.c ****     while((hmdma->Instance->CCR & MDMA_CCR_EN) != 0U)
ARM GAS  /var/folders/g1/j12m_ky910s3_sv7d4yrsdn00000gn/T//ccW7oTPr.s 			page 64


 2354              		.loc 1 1243 10
 2355 0056 16E0     		b	.L138
 2356              	.L139:
1244:Drivers/STM32H7xx_HAL_Driver/Src/stm32h7xx_hal_mdma.c ****     {
1245:Drivers/STM32H7xx_HAL_Driver/Src/stm32h7xx_hal_mdma.c ****       /* Check for the Timeout */
1246:Drivers/STM32H7xx_HAL_Driver/Src/stm32h7xx_hal_mdma.c ****       if( (HAL_GetTick()  - tickstart ) > HAL_TIMEOUT_MDMA_ABORT)
 2357              		.loc 1 1246 12
 2358 0058 FFF7FEFF 		bl	HAL_GetTick
 2359 005c 0246     		mov	r2, r0
 2360              		.loc 1 1246 27 discriminator 1
 2361 005e FB68     		ldr	r3, [r7, #12]
 2362 0060 D31A     		subs	r3, r2, r3
 2363              		.loc 1 1246 9 discriminator 1
 2364 0062 052B     		cmp	r3, #5
 2365 0064 0FD9     		bls	.L138
1247:Drivers/STM32H7xx_HAL_Driver/Src/stm32h7xx_hal_mdma.c ****       {
1248:Drivers/STM32H7xx_HAL_Driver/Src/stm32h7xx_hal_mdma.c ****         /* Update error code */
1249:Drivers/STM32H7xx_HAL_Driver/Src/stm32h7xx_hal_mdma.c ****         hmdma->ErrorCode |= HAL_MDMA_ERROR_TIMEOUT;
 2366              		.loc 1 1249 14
 2367 0066 7B68     		ldr	r3, [r7, #4]
 2368 0068 9B6E     		ldr	r3, [r3, #104]
 2369              		.loc 1 1249 26
 2370 006a 43F04002 		orr	r2, r3, #64
 2371 006e 7B68     		ldr	r3, [r7, #4]
 2372 0070 9A66     		str	r2, [r3, #104]
1250:Drivers/STM32H7xx_HAL_Driver/Src/stm32h7xx_hal_mdma.c **** 
1251:Drivers/STM32H7xx_HAL_Driver/Src/stm32h7xx_hal_mdma.c ****         /* Process Unlocked */
1252:Drivers/STM32H7xx_HAL_Driver/Src/stm32h7xx_hal_mdma.c ****         __HAL_UNLOCK(hmdma);
 2373              		.loc 1 1252 9
 2374 0072 7B68     		ldr	r3, [r7, #4]
 2375 0074 0022     		movs	r2, #0
 2376 0076 83F83C20 		strb	r2, [r3, #60]
1253:Drivers/STM32H7xx_HAL_Driver/Src/stm32h7xx_hal_mdma.c **** 
1254:Drivers/STM32H7xx_HAL_Driver/Src/stm32h7xx_hal_mdma.c ****         /* Change the MDMA state */
1255:Drivers/STM32H7xx_HAL_Driver/Src/stm32h7xx_hal_mdma.c ****         hmdma->State = HAL_MDMA_STATE_ERROR;
 2377              		.loc 1 1255 22
 2378 007a 7B68     		ldr	r3, [r7, #4]
 2379 007c 0322     		movs	r2, #3
 2380 007e 83F83D20 		strb	r2, [r3, #61]
1256:Drivers/STM32H7xx_HAL_Driver/Src/stm32h7xx_hal_mdma.c **** 
1257:Drivers/STM32H7xx_HAL_Driver/Src/stm32h7xx_hal_mdma.c ****         return HAL_ERROR;
 2381              		.loc 1 1257 16
 2382 0082 0123     		movs	r3, #1
 2383 0084 13E0     		b	.L136
 2384              	.L138:
1243:Drivers/STM32H7xx_HAL_Driver/Src/stm32h7xx_hal_mdma.c ****     {
 2385              		.loc 1 1243 17
 2386 0086 7B68     		ldr	r3, [r7, #4]
 2387 0088 1B68     		ldr	r3, [r3]
1243:Drivers/STM32H7xx_HAL_Driver/Src/stm32h7xx_hal_mdma.c ****     {
 2388              		.loc 1 1243 27
 2389 008a DB68     		ldr	r3, [r3, #12]
1243:Drivers/STM32H7xx_HAL_Driver/Src/stm32h7xx_hal_mdma.c ****     {
 2390              		.loc 1 1243 33
 2391 008c 03F00103 		and	r3, r3, #1
1243:Drivers/STM32H7xx_HAL_Driver/Src/stm32h7xx_hal_mdma.c ****     {
 2392              		.loc 1 1243 48
ARM GAS  /var/folders/g1/j12m_ky910s3_sv7d4yrsdn00000gn/T//ccW7oTPr.s 			page 65


 2393 0090 002B     		cmp	r3, #0
 2394 0092 E1D1     		bne	.L139
1258:Drivers/STM32H7xx_HAL_Driver/Src/stm32h7xx_hal_mdma.c ****       }
1259:Drivers/STM32H7xx_HAL_Driver/Src/stm32h7xx_hal_mdma.c ****     }
1260:Drivers/STM32H7xx_HAL_Driver/Src/stm32h7xx_hal_mdma.c **** 
1261:Drivers/STM32H7xx_HAL_Driver/Src/stm32h7xx_hal_mdma.c ****     /* Clear all interrupt flags */
1262:Drivers/STM32H7xx_HAL_Driver/Src/stm32h7xx_hal_mdma.c ****     __HAL_MDMA_CLEAR_FLAG(hmdma, (MDMA_FLAG_TE | MDMA_FLAG_CTC | MDMA_FLAG_BT | MDMA_FLAG_BRT | MDM
 2395              		.loc 1 1262 5
 2396 0094 7B68     		ldr	r3, [r7, #4]
 2397 0096 1B68     		ldr	r3, [r3]
 2398 0098 1F22     		movs	r2, #31
 2399 009a 5A60     		str	r2, [r3, #4]
1263:Drivers/STM32H7xx_HAL_Driver/Src/stm32h7xx_hal_mdma.c **** 
1264:Drivers/STM32H7xx_HAL_Driver/Src/stm32h7xx_hal_mdma.c ****     /* Process Unlocked */
1265:Drivers/STM32H7xx_HAL_Driver/Src/stm32h7xx_hal_mdma.c ****     __HAL_UNLOCK(hmdma);
 2400              		.loc 1 1265 5
 2401 009c 7B68     		ldr	r3, [r7, #4]
 2402 009e 0022     		movs	r2, #0
 2403 00a0 83F83C20 		strb	r2, [r3, #60]
1266:Drivers/STM32H7xx_HAL_Driver/Src/stm32h7xx_hal_mdma.c **** 
1267:Drivers/STM32H7xx_HAL_Driver/Src/stm32h7xx_hal_mdma.c ****     /* Change the MDMA state*/
1268:Drivers/STM32H7xx_HAL_Driver/Src/stm32h7xx_hal_mdma.c ****     hmdma->State = HAL_MDMA_STATE_READY;
 2404              		.loc 1 1268 18
 2405 00a4 7B68     		ldr	r3, [r7, #4]
 2406 00a6 0122     		movs	r2, #1
 2407 00a8 83F83D20 		strb	r2, [r3, #61]
1269:Drivers/STM32H7xx_HAL_Driver/Src/stm32h7xx_hal_mdma.c ****   }
1270:Drivers/STM32H7xx_HAL_Driver/Src/stm32h7xx_hal_mdma.c **** 
1271:Drivers/STM32H7xx_HAL_Driver/Src/stm32h7xx_hal_mdma.c ****   return HAL_OK;
 2408              		.loc 1 1271 10
 2409 00ac 0023     		movs	r3, #0
 2410              	.L136:
1272:Drivers/STM32H7xx_HAL_Driver/Src/stm32h7xx_hal_mdma.c **** }
 2411              		.loc 1 1272 1
 2412 00ae 1846     		mov	r0, r3
 2413 00b0 1037     		adds	r7, r7, #16
 2414              	.LCFI72:
 2415              		.cfi_def_cfa_offset 8
 2416 00b2 BD46     		mov	sp, r7
 2417              	.LCFI73:
 2418              		.cfi_def_cfa_register 13
 2419              		@ sp needed
 2420 00b4 80BD     		pop	{r7, pc}
 2421              		.cfi_endproc
 2422              	.LFE156:
 2424              		.section	.text.HAL_MDMA_Abort_IT,"ax",%progbits
 2425              		.align	1
 2426              		.global	HAL_MDMA_Abort_IT
 2427              		.syntax unified
 2428              		.thumb
 2429              		.thumb_func
 2431              	HAL_MDMA_Abort_IT:
 2432              	.LFB157:
1273:Drivers/STM32H7xx_HAL_Driver/Src/stm32h7xx_hal_mdma.c **** 
1274:Drivers/STM32H7xx_HAL_Driver/Src/stm32h7xx_hal_mdma.c **** /**
1275:Drivers/STM32H7xx_HAL_Driver/Src/stm32h7xx_hal_mdma.c ****   * @brief  Aborts the MDMA Transfer in Interrupt mode.
1276:Drivers/STM32H7xx_HAL_Driver/Src/stm32h7xx_hal_mdma.c ****   * @param  hmdma  : pointer to a MDMA_HandleTypeDef structure that contains
ARM GAS  /var/folders/g1/j12m_ky910s3_sv7d4yrsdn00000gn/T//ccW7oTPr.s 			page 66


1277:Drivers/STM32H7xx_HAL_Driver/Src/stm32h7xx_hal_mdma.c ****   *                 the configuration information for the specified MDMA Channel.
1278:Drivers/STM32H7xx_HAL_Driver/Src/stm32h7xx_hal_mdma.c ****   * @retval HAL status
1279:Drivers/STM32H7xx_HAL_Driver/Src/stm32h7xx_hal_mdma.c ****   */
1280:Drivers/STM32H7xx_HAL_Driver/Src/stm32h7xx_hal_mdma.c **** HAL_StatusTypeDef HAL_MDMA_Abort_IT(MDMA_HandleTypeDef *hmdma)
1281:Drivers/STM32H7xx_HAL_Driver/Src/stm32h7xx_hal_mdma.c **** {
 2433              		.loc 1 1281 1
 2434              		.cfi_startproc
 2435              		@ args = 0, pretend = 0, frame = 8
 2436              		@ frame_needed = 1, uses_anonymous_args = 0
 2437              		@ link register save eliminated.
 2438 0000 80B4     		push	{r7}
 2439              	.LCFI74:
 2440              		.cfi_def_cfa_offset 4
 2441              		.cfi_offset 7, -4
 2442 0002 83B0     		sub	sp, sp, #12
 2443              	.LCFI75:
 2444              		.cfi_def_cfa_offset 16
 2445 0004 00AF     		add	r7, sp, #0
 2446              	.LCFI76:
 2447              		.cfi_def_cfa_register 7
 2448 0006 7860     		str	r0, [r7, #4]
1282:Drivers/STM32H7xx_HAL_Driver/Src/stm32h7xx_hal_mdma.c ****   /* Check the MDMA peripheral handle */
1283:Drivers/STM32H7xx_HAL_Driver/Src/stm32h7xx_hal_mdma.c ****   if(hmdma == NULL)
 2449              		.loc 1 1283 5
 2450 0008 7B68     		ldr	r3, [r7, #4]
 2451 000a 002B     		cmp	r3, #0
 2452 000c 01D1     		bne	.L141
1284:Drivers/STM32H7xx_HAL_Driver/Src/stm32h7xx_hal_mdma.c ****   {
1285:Drivers/STM32H7xx_HAL_Driver/Src/stm32h7xx_hal_mdma.c ****     return HAL_ERROR;
 2453              		.loc 1 1285 12
 2454 000e 0123     		movs	r3, #1
 2455 0010 17E0     		b	.L142
 2456              	.L141:
1286:Drivers/STM32H7xx_HAL_Driver/Src/stm32h7xx_hal_mdma.c ****   }
1287:Drivers/STM32H7xx_HAL_Driver/Src/stm32h7xx_hal_mdma.c **** 
1288:Drivers/STM32H7xx_HAL_Driver/Src/stm32h7xx_hal_mdma.c ****   if(HAL_MDMA_STATE_BUSY != hmdma->State)
 2457              		.loc 1 1288 34
 2458 0012 7B68     		ldr	r3, [r7, #4]
 2459 0014 93F83D30 		ldrb	r3, [r3, #61]
 2460 0018 DBB2     		uxtb	r3, r3
 2461              		.loc 1 1288 5
 2462 001a 022B     		cmp	r3, #2
 2463 001c 04D0     		beq	.L143
1289:Drivers/STM32H7xx_HAL_Driver/Src/stm32h7xx_hal_mdma.c ****   {
1290:Drivers/STM32H7xx_HAL_Driver/Src/stm32h7xx_hal_mdma.c ****     /* No transfer ongoing */
1291:Drivers/STM32H7xx_HAL_Driver/Src/stm32h7xx_hal_mdma.c ****     hmdma->ErrorCode = HAL_MDMA_ERROR_NO_XFER;
 2464              		.loc 1 1291 22
 2465 001e 7B68     		ldr	r3, [r7, #4]
 2466 0020 8022     		movs	r2, #128
 2467 0022 9A66     		str	r2, [r3, #104]
1292:Drivers/STM32H7xx_HAL_Driver/Src/stm32h7xx_hal_mdma.c **** 
1293:Drivers/STM32H7xx_HAL_Driver/Src/stm32h7xx_hal_mdma.c ****     return HAL_ERROR;
 2468              		.loc 1 1293 12
 2469 0024 0123     		movs	r3, #1
 2470 0026 0CE0     		b	.L142
 2471              	.L143:
1294:Drivers/STM32H7xx_HAL_Driver/Src/stm32h7xx_hal_mdma.c ****   }
ARM GAS  /var/folders/g1/j12m_ky910s3_sv7d4yrsdn00000gn/T//ccW7oTPr.s 			page 67


1295:Drivers/STM32H7xx_HAL_Driver/Src/stm32h7xx_hal_mdma.c ****   else
1296:Drivers/STM32H7xx_HAL_Driver/Src/stm32h7xx_hal_mdma.c ****   {
1297:Drivers/STM32H7xx_HAL_Driver/Src/stm32h7xx_hal_mdma.c ****     /* Set Abort State  */
1298:Drivers/STM32H7xx_HAL_Driver/Src/stm32h7xx_hal_mdma.c ****     hmdma->State = HAL_MDMA_STATE_ABORT;
 2472              		.loc 1 1298 18
 2473 0028 7B68     		ldr	r3, [r7, #4]
 2474 002a 0422     		movs	r2, #4
 2475 002c 83F83D20 		strb	r2, [r3, #61]
1299:Drivers/STM32H7xx_HAL_Driver/Src/stm32h7xx_hal_mdma.c **** 
1300:Drivers/STM32H7xx_HAL_Driver/Src/stm32h7xx_hal_mdma.c ****     /* Disable the stream */
1301:Drivers/STM32H7xx_HAL_Driver/Src/stm32h7xx_hal_mdma.c ****     __HAL_MDMA_DISABLE(hmdma);
 2476              		.loc 1 1301 5
 2477 0030 7B68     		ldr	r3, [r7, #4]
 2478 0032 1B68     		ldr	r3, [r3]
 2479 0034 DA68     		ldr	r2, [r3, #12]
 2480 0036 7B68     		ldr	r3, [r7, #4]
 2481 0038 1B68     		ldr	r3, [r3]
 2482 003a 22F00102 		bic	r2, r2, #1
 2483 003e DA60     		str	r2, [r3, #12]
1302:Drivers/STM32H7xx_HAL_Driver/Src/stm32h7xx_hal_mdma.c ****   }
1303:Drivers/STM32H7xx_HAL_Driver/Src/stm32h7xx_hal_mdma.c **** 
1304:Drivers/STM32H7xx_HAL_Driver/Src/stm32h7xx_hal_mdma.c ****   return HAL_OK;
 2484              		.loc 1 1304 10
 2485 0040 0023     		movs	r3, #0
 2486              	.L142:
1305:Drivers/STM32H7xx_HAL_Driver/Src/stm32h7xx_hal_mdma.c **** }
 2487              		.loc 1 1305 1
 2488 0042 1846     		mov	r0, r3
 2489 0044 0C37     		adds	r7, r7, #12
 2490              	.LCFI77:
 2491              		.cfi_def_cfa_offset 4
 2492 0046 BD46     		mov	sp, r7
 2493              	.LCFI78:
 2494              		.cfi_def_cfa_register 13
 2495              		@ sp needed
 2496 0048 5DF8047B 		ldr	r7, [sp], #4
 2497              	.LCFI79:
 2498              		.cfi_restore 7
 2499              		.cfi_def_cfa_offset 0
 2500 004c 7047     		bx	lr
 2501              		.cfi_endproc
 2502              	.LFE157:
 2504              		.section	.text.HAL_MDMA_PollForTransfer,"ax",%progbits
 2505              		.align	1
 2506              		.global	HAL_MDMA_PollForTransfer
 2507              		.syntax unified
 2508              		.thumb
 2509              		.thumb_func
 2511              	HAL_MDMA_PollForTransfer:
 2512              	.LFB158:
1306:Drivers/STM32H7xx_HAL_Driver/Src/stm32h7xx_hal_mdma.c **** 
1307:Drivers/STM32H7xx_HAL_Driver/Src/stm32h7xx_hal_mdma.c **** /**
1308:Drivers/STM32H7xx_HAL_Driver/Src/stm32h7xx_hal_mdma.c ****   * @brief  Polling for transfer complete.
1309:Drivers/STM32H7xx_HAL_Driver/Src/stm32h7xx_hal_mdma.c ****   * @param  hmdma:          pointer to a MDMA_HandleTypeDef structure that contains
1310:Drivers/STM32H7xx_HAL_Driver/Src/stm32h7xx_hal_mdma.c ****   *                        the configuration information for the specified MDMA Channel.
1311:Drivers/STM32H7xx_HAL_Driver/Src/stm32h7xx_hal_mdma.c ****   * @param  CompleteLevel: Specifies the MDMA level complete.
1312:Drivers/STM32H7xx_HAL_Driver/Src/stm32h7xx_hal_mdma.c ****   * @param  Timeout:       Timeout duration.
ARM GAS  /var/folders/g1/j12m_ky910s3_sv7d4yrsdn00000gn/T//ccW7oTPr.s 			page 68


1313:Drivers/STM32H7xx_HAL_Driver/Src/stm32h7xx_hal_mdma.c ****   * @retval HAL status
1314:Drivers/STM32H7xx_HAL_Driver/Src/stm32h7xx_hal_mdma.c ****   */
1315:Drivers/STM32H7xx_HAL_Driver/Src/stm32h7xx_hal_mdma.c **** HAL_StatusTypeDef HAL_MDMA_PollForTransfer(MDMA_HandleTypeDef *hmdma, HAL_MDMA_LevelCompleteTypeDef
1316:Drivers/STM32H7xx_HAL_Driver/Src/stm32h7xx_hal_mdma.c **** {
 2513              		.loc 1 1316 1
 2514              		.cfi_startproc
 2515              		@ args = 0, pretend = 0, frame = 32
 2516              		@ frame_needed = 1, uses_anonymous_args = 0
 2517 0000 80B5     		push	{r7, lr}
 2518              	.LCFI80:
 2519              		.cfi_def_cfa_offset 8
 2520              		.cfi_offset 7, -8
 2521              		.cfi_offset 14, -4
 2522 0002 88B0     		sub	sp, sp, #32
 2523              	.LCFI81:
 2524              		.cfi_def_cfa_offset 40
 2525 0004 00AF     		add	r7, sp, #0
 2526              	.LCFI82:
 2527              		.cfi_def_cfa_register 7
 2528 0006 F860     		str	r0, [r7, #12]
 2529 0008 0B46     		mov	r3, r1
 2530 000a 7A60     		str	r2, [r7, #4]
 2531 000c FB72     		strb	r3, [r7, #11]
1317:Drivers/STM32H7xx_HAL_Driver/Src/stm32h7xx_hal_mdma.c ****   uint32_t levelFlag, errorFlag;
1318:Drivers/STM32H7xx_HAL_Driver/Src/stm32h7xx_hal_mdma.c ****   uint32_t tickstart;
1319:Drivers/STM32H7xx_HAL_Driver/Src/stm32h7xx_hal_mdma.c **** 
1320:Drivers/STM32H7xx_HAL_Driver/Src/stm32h7xx_hal_mdma.c ****   /* Check the parameters */
1321:Drivers/STM32H7xx_HAL_Driver/Src/stm32h7xx_hal_mdma.c ****   assert_param(IS_MDMA_LEVEL_COMPLETE(CompleteLevel));
1322:Drivers/STM32H7xx_HAL_Driver/Src/stm32h7xx_hal_mdma.c **** 
1323:Drivers/STM32H7xx_HAL_Driver/Src/stm32h7xx_hal_mdma.c ****   /* Check the MDMA peripheral handle */
1324:Drivers/STM32H7xx_HAL_Driver/Src/stm32h7xx_hal_mdma.c ****   if(hmdma == NULL)
 2532              		.loc 1 1324 5
 2533 000e FB68     		ldr	r3, [r7, #12]
 2534 0010 002B     		cmp	r3, #0
 2535 0012 01D1     		bne	.L145
1325:Drivers/STM32H7xx_HAL_Driver/Src/stm32h7xx_hal_mdma.c ****   {
1326:Drivers/STM32H7xx_HAL_Driver/Src/stm32h7xx_hal_mdma.c ****     return HAL_ERROR;
 2536              		.loc 1 1326 12
 2537 0014 0123     		movs	r3, #1
 2538 0016 B9E0     		b	.L146
 2539              	.L145:
1327:Drivers/STM32H7xx_HAL_Driver/Src/stm32h7xx_hal_mdma.c ****   }
1328:Drivers/STM32H7xx_HAL_Driver/Src/stm32h7xx_hal_mdma.c **** 
1329:Drivers/STM32H7xx_HAL_Driver/Src/stm32h7xx_hal_mdma.c ****   if(HAL_MDMA_STATE_BUSY != hmdma->State)
 2540              		.loc 1 1329 34
 2541 0018 FB68     		ldr	r3, [r7, #12]
 2542 001a 93F83D30 		ldrb	r3, [r3, #61]
 2543 001e DBB2     		uxtb	r3, r3
 2544              		.loc 1 1329 5
 2545 0020 022B     		cmp	r3, #2
 2546 0022 04D0     		beq	.L147
1330:Drivers/STM32H7xx_HAL_Driver/Src/stm32h7xx_hal_mdma.c ****   {
1331:Drivers/STM32H7xx_HAL_Driver/Src/stm32h7xx_hal_mdma.c ****     /* No transfer ongoing */
1332:Drivers/STM32H7xx_HAL_Driver/Src/stm32h7xx_hal_mdma.c ****     hmdma->ErrorCode = HAL_MDMA_ERROR_NO_XFER;
 2547              		.loc 1 1332 22
 2548 0024 FB68     		ldr	r3, [r7, #12]
 2549 0026 8022     		movs	r2, #128
ARM GAS  /var/folders/g1/j12m_ky910s3_sv7d4yrsdn00000gn/T//ccW7oTPr.s 			page 69


 2550 0028 9A66     		str	r2, [r3, #104]
1333:Drivers/STM32H7xx_HAL_Driver/Src/stm32h7xx_hal_mdma.c **** 
1334:Drivers/STM32H7xx_HAL_Driver/Src/stm32h7xx_hal_mdma.c ****     return HAL_ERROR;
 2551              		.loc 1 1334 12
 2552 002a 0123     		movs	r3, #1
 2553 002c AEE0     		b	.L146
 2554              	.L147:
1335:Drivers/STM32H7xx_HAL_Driver/Src/stm32h7xx_hal_mdma.c ****   }
1336:Drivers/STM32H7xx_HAL_Driver/Src/stm32h7xx_hal_mdma.c **** 
1337:Drivers/STM32H7xx_HAL_Driver/Src/stm32h7xx_hal_mdma.c ****   /* Get the level transfer complete flag */
1338:Drivers/STM32H7xx_HAL_Driver/Src/stm32h7xx_hal_mdma.c ****   levelFlag = ((CompleteLevel == HAL_MDMA_FULL_TRANSFER)  ? MDMA_FLAG_CTC  : \
 2555              		.loc 1 1338 76
 2556 002e FB7A     		ldrb	r3, [r7, #11]	@ zero_extendqisi2
 2557 0030 002B     		cmp	r3, #0
 2558 0032 0BD0     		beq	.L148
1339:Drivers/STM32H7xx_HAL_Driver/Src/stm32h7xx_hal_mdma.c ****                (CompleteLevel == HAL_MDMA_BUFFER_TRANSFER)? MDMA_FLAG_BFTC : \
 2559              		.loc 1 1339 76
 2560 0034 FB7A     		ldrb	r3, [r7, #11]	@ zero_extendqisi2
 2561 0036 012B     		cmp	r3, #1
 2562 0038 06D0     		beq	.L149
1340:Drivers/STM32H7xx_HAL_Driver/Src/stm32h7xx_hal_mdma.c ****                (CompleteLevel == HAL_MDMA_BLOCK_TRANSFER) ? MDMA_FLAG_BT   : \
 2563              		.loc 1 1340 76
 2564 003a FB7A     		ldrb	r3, [r7, #11]	@ zero_extendqisi2
 2565 003c 022B     		cmp	r3, #2
 2566 003e 01D1     		bne	.L150
 2567              		.loc 1 1340 76 is_stmt 0 discriminator 1
 2568 0040 0823     		movs	r3, #8
 2569 0042 04E0     		b	.L153
 2570              	.L150:
 2571              		.loc 1 1340 76 discriminator 2
 2572 0044 0423     		movs	r3, #4
 2573 0046 02E0     		b	.L153
 2574              	.L149:
1339:Drivers/STM32H7xx_HAL_Driver/Src/stm32h7xx_hal_mdma.c ****                (CompleteLevel == HAL_MDMA_BUFFER_TRANSFER)? MDMA_FLAG_BFTC : \
 2575              		.loc 1 1339 76 is_stmt 1 discriminator 1
 2576 0048 1023     		movs	r3, #16
 2577 004a 00E0     		b	.L153
 2578              	.L148:
1338:Drivers/STM32H7xx_HAL_Driver/Src/stm32h7xx_hal_mdma.c ****                (CompleteLevel == HAL_MDMA_BUFFER_TRANSFER)? MDMA_FLAG_BFTC : \
 2579              		.loc 1 1338 76 discriminator 1
 2580 004c 0223     		movs	r3, #2
 2581              	.L153:
1338:Drivers/STM32H7xx_HAL_Driver/Src/stm32h7xx_hal_mdma.c ****                (CompleteLevel == HAL_MDMA_BUFFER_TRANSFER)? MDMA_FLAG_BFTC : \
 2582              		.loc 1 1338 13 discriminator 3
 2583 004e FB61     		str	r3, [r7, #28]
1341:Drivers/STM32H7xx_HAL_Driver/Src/stm32h7xx_hal_mdma.c ****                MDMA_FLAG_BRT);
1342:Drivers/STM32H7xx_HAL_Driver/Src/stm32h7xx_hal_mdma.c **** 
1343:Drivers/STM32H7xx_HAL_Driver/Src/stm32h7xx_hal_mdma.c **** 
1344:Drivers/STM32H7xx_HAL_Driver/Src/stm32h7xx_hal_mdma.c ****   /* Get timeout */
1345:Drivers/STM32H7xx_HAL_Driver/Src/stm32h7xx_hal_mdma.c ****   tickstart = HAL_GetTick();
 2584              		.loc 1 1345 15
 2585 0050 FFF7FEFF 		bl	HAL_GetTick
 2586 0054 B861     		str	r0, [r7, #24]
1346:Drivers/STM32H7xx_HAL_Driver/Src/stm32h7xx_hal_mdma.c **** 
1347:Drivers/STM32H7xx_HAL_Driver/Src/stm32h7xx_hal_mdma.c ****   while(__HAL_MDMA_GET_FLAG(hmdma, levelFlag) == 0U)
 2587              		.loc 1 1347 8
 2588 0056 67E0     		b	.L162
ARM GAS  /var/folders/g1/j12m_ky910s3_sv7d4yrsdn00000gn/T//ccW7oTPr.s 			page 70


 2589              	.L164:
1348:Drivers/STM32H7xx_HAL_Driver/Src/stm32h7xx_hal_mdma.c ****   {
1349:Drivers/STM32H7xx_HAL_Driver/Src/stm32h7xx_hal_mdma.c ****     if((__HAL_MDMA_GET_FLAG(hmdma, MDMA_FLAG_TE) != 0U))
 2590              		.loc 1 1349 9
 2591 0058 FB68     		ldr	r3, [r7, #12]
 2592 005a 1B68     		ldr	r3, [r3]
 2593 005c 1B68     		ldr	r3, [r3]
 2594 005e 03F00103 		and	r3, r3, #1
 2595              		.loc 1 1349 7
 2596 0062 002B     		cmp	r3, #0
 2597 0064 46D0     		beq	.L155
1350:Drivers/STM32H7xx_HAL_Driver/Src/stm32h7xx_hal_mdma.c ****     {
1351:Drivers/STM32H7xx_HAL_Driver/Src/stm32h7xx_hal_mdma.c ****       /* Get the transfer error source flag */
1352:Drivers/STM32H7xx_HAL_Driver/Src/stm32h7xx_hal_mdma.c ****       errorFlag = hmdma->Instance->CESR;
 2598              		.loc 1 1352 24
 2599 0066 FB68     		ldr	r3, [r7, #12]
 2600 0068 1B68     		ldr	r3, [r3]
 2601              		.loc 1 1352 17
 2602 006a 9B68     		ldr	r3, [r3, #8]
 2603 006c 7B61     		str	r3, [r7, #20]
1353:Drivers/STM32H7xx_HAL_Driver/Src/stm32h7xx_hal_mdma.c **** 
1354:Drivers/STM32H7xx_HAL_Driver/Src/stm32h7xx_hal_mdma.c ****       if((errorFlag & MDMA_CESR_TED) == 0U)
 2604              		.loc 1 1354 21
 2605 006e 7B69     		ldr	r3, [r7, #20]
 2606 0070 03F08003 		and	r3, r3, #128
 2607              		.loc 1 1354 9
 2608 0074 002B     		cmp	r3, #0
 2609 0076 06D1     		bne	.L156
1355:Drivers/STM32H7xx_HAL_Driver/Src/stm32h7xx_hal_mdma.c ****       {
1356:Drivers/STM32H7xx_HAL_Driver/Src/stm32h7xx_hal_mdma.c ****         /* Update error code : Read Transfer error  */
1357:Drivers/STM32H7xx_HAL_Driver/Src/stm32h7xx_hal_mdma.c ****         hmdma->ErrorCode |= HAL_MDMA_ERROR_READ_XFER;
 2610              		.loc 1 1357 14
 2611 0078 FB68     		ldr	r3, [r7, #12]
 2612 007a 9B6E     		ldr	r3, [r3, #104]
 2613              		.loc 1 1357 26
 2614 007c 43F00102 		orr	r2, r3, #1
 2615 0080 FB68     		ldr	r3, [r7, #12]
 2616 0082 9A66     		str	r2, [r3, #104]
 2617 0084 05E0     		b	.L157
 2618              	.L156:
1358:Drivers/STM32H7xx_HAL_Driver/Src/stm32h7xx_hal_mdma.c ****       }
1359:Drivers/STM32H7xx_HAL_Driver/Src/stm32h7xx_hal_mdma.c ****       else
1360:Drivers/STM32H7xx_HAL_Driver/Src/stm32h7xx_hal_mdma.c ****       {
1361:Drivers/STM32H7xx_HAL_Driver/Src/stm32h7xx_hal_mdma.c ****         /* Update error code : Write Transfer error */
1362:Drivers/STM32H7xx_HAL_Driver/Src/stm32h7xx_hal_mdma.c ****         hmdma->ErrorCode |= HAL_MDMA_ERROR_WRITE_XFER;
 2619              		.loc 1 1362 14
 2620 0086 FB68     		ldr	r3, [r7, #12]
 2621 0088 9B6E     		ldr	r3, [r3, #104]
 2622              		.loc 1 1362 26
 2623 008a 43F00202 		orr	r2, r3, #2
 2624 008e FB68     		ldr	r3, [r7, #12]
 2625 0090 9A66     		str	r2, [r3, #104]
 2626              	.L157:
1363:Drivers/STM32H7xx_HAL_Driver/Src/stm32h7xx_hal_mdma.c ****       }
1364:Drivers/STM32H7xx_HAL_Driver/Src/stm32h7xx_hal_mdma.c **** 
1365:Drivers/STM32H7xx_HAL_Driver/Src/stm32h7xx_hal_mdma.c ****       if((errorFlag & MDMA_CESR_TEMD) != 0U)
 2627              		.loc 1 1365 21
ARM GAS  /var/folders/g1/j12m_ky910s3_sv7d4yrsdn00000gn/T//ccW7oTPr.s 			page 71


 2628 0092 7B69     		ldr	r3, [r7, #20]
 2629 0094 03F40073 		and	r3, r3, #512
 2630              		.loc 1 1365 9
 2631 0098 002B     		cmp	r3, #0
 2632 009a 05D0     		beq	.L158
1366:Drivers/STM32H7xx_HAL_Driver/Src/stm32h7xx_hal_mdma.c ****       {
1367:Drivers/STM32H7xx_HAL_Driver/Src/stm32h7xx_hal_mdma.c ****         /* Update error code : Error Mask Data */
1368:Drivers/STM32H7xx_HAL_Driver/Src/stm32h7xx_hal_mdma.c ****         hmdma->ErrorCode |= HAL_MDMA_ERROR_MASK_DATA;
 2633              		.loc 1 1368 14
 2634 009c FB68     		ldr	r3, [r7, #12]
 2635 009e 9B6E     		ldr	r3, [r3, #104]
 2636              		.loc 1 1368 26
 2637 00a0 43F00402 		orr	r2, r3, #4
 2638 00a4 FB68     		ldr	r3, [r7, #12]
 2639 00a6 9A66     		str	r2, [r3, #104]
 2640              	.L158:
1369:Drivers/STM32H7xx_HAL_Driver/Src/stm32h7xx_hal_mdma.c ****       }
1370:Drivers/STM32H7xx_HAL_Driver/Src/stm32h7xx_hal_mdma.c **** 
1371:Drivers/STM32H7xx_HAL_Driver/Src/stm32h7xx_hal_mdma.c ****       if((errorFlag & MDMA_CESR_TELD) != 0U)
 2641              		.loc 1 1371 21
 2642 00a8 7B69     		ldr	r3, [r7, #20]
 2643 00aa 03F48073 		and	r3, r3, #256
 2644              		.loc 1 1371 9
 2645 00ae 002B     		cmp	r3, #0
 2646 00b0 05D0     		beq	.L159
1372:Drivers/STM32H7xx_HAL_Driver/Src/stm32h7xx_hal_mdma.c ****       {
1373:Drivers/STM32H7xx_HAL_Driver/Src/stm32h7xx_hal_mdma.c ****         /* Update error code : Error Linked list */
1374:Drivers/STM32H7xx_HAL_Driver/Src/stm32h7xx_hal_mdma.c ****         hmdma->ErrorCode |= HAL_MDMA_ERROR_LINKED_LIST;
 2647              		.loc 1 1374 14
 2648 00b2 FB68     		ldr	r3, [r7, #12]
 2649 00b4 9B6E     		ldr	r3, [r3, #104]
 2650              		.loc 1 1374 26
 2651 00b6 43F00802 		orr	r2, r3, #8
 2652 00ba FB68     		ldr	r3, [r7, #12]
 2653 00bc 9A66     		str	r2, [r3, #104]
 2654              	.L159:
1375:Drivers/STM32H7xx_HAL_Driver/Src/stm32h7xx_hal_mdma.c ****       }
1376:Drivers/STM32H7xx_HAL_Driver/Src/stm32h7xx_hal_mdma.c **** 
1377:Drivers/STM32H7xx_HAL_Driver/Src/stm32h7xx_hal_mdma.c ****       if((errorFlag & MDMA_CESR_ASE) != 0U)
 2655              		.loc 1 1377 21
 2656 00be 7B69     		ldr	r3, [r7, #20]
 2657 00c0 03F48063 		and	r3, r3, #1024
 2658              		.loc 1 1377 9
 2659 00c4 002B     		cmp	r3, #0
 2660 00c6 05D0     		beq	.L160
1378:Drivers/STM32H7xx_HAL_Driver/Src/stm32h7xx_hal_mdma.c ****       {
1379:Drivers/STM32H7xx_HAL_Driver/Src/stm32h7xx_hal_mdma.c ****         /* Update error code : Address/Size alignment error */
1380:Drivers/STM32H7xx_HAL_Driver/Src/stm32h7xx_hal_mdma.c ****         hmdma->ErrorCode |= HAL_MDMA_ERROR_ALIGNMENT;
 2661              		.loc 1 1380 14
 2662 00c8 FB68     		ldr	r3, [r7, #12]
 2663 00ca 9B6E     		ldr	r3, [r3, #104]
 2664              		.loc 1 1380 26
 2665 00cc 43F01002 		orr	r2, r3, #16
 2666 00d0 FB68     		ldr	r3, [r7, #12]
 2667 00d2 9A66     		str	r2, [r3, #104]
 2668              	.L160:
1381:Drivers/STM32H7xx_HAL_Driver/Src/stm32h7xx_hal_mdma.c ****       }
ARM GAS  /var/folders/g1/j12m_ky910s3_sv7d4yrsdn00000gn/T//ccW7oTPr.s 			page 72


1382:Drivers/STM32H7xx_HAL_Driver/Src/stm32h7xx_hal_mdma.c **** 
1383:Drivers/STM32H7xx_HAL_Driver/Src/stm32h7xx_hal_mdma.c ****       if((errorFlag & MDMA_CESR_BSE) != 0U)
 2669              		.loc 1 1383 21
 2670 00d4 7B69     		ldr	r3, [r7, #20]
 2671 00d6 03F40063 		and	r3, r3, #2048
 2672              		.loc 1 1383 9
 2673 00da 002B     		cmp	r3, #0
 2674 00dc 05D0     		beq	.L161
1384:Drivers/STM32H7xx_HAL_Driver/Src/stm32h7xx_hal_mdma.c ****       {
1385:Drivers/STM32H7xx_HAL_Driver/Src/stm32h7xx_hal_mdma.c ****         /* Update error code : Block Size error */
1386:Drivers/STM32H7xx_HAL_Driver/Src/stm32h7xx_hal_mdma.c ****         hmdma->ErrorCode |= HAL_MDMA_ERROR_BLOCK_SIZE;
 2675              		.loc 1 1386 14
 2676 00de FB68     		ldr	r3, [r7, #12]
 2677 00e0 9B6E     		ldr	r3, [r3, #104]
 2678              		.loc 1 1386 26
 2679 00e2 43F02002 		orr	r2, r3, #32
 2680 00e6 FB68     		ldr	r3, [r7, #12]
 2681 00e8 9A66     		str	r2, [r3, #104]
 2682              	.L161:
1387:Drivers/STM32H7xx_HAL_Driver/Src/stm32h7xx_hal_mdma.c ****       }
1388:Drivers/STM32H7xx_HAL_Driver/Src/stm32h7xx_hal_mdma.c **** 
1389:Drivers/STM32H7xx_HAL_Driver/Src/stm32h7xx_hal_mdma.c ****       (void) HAL_MDMA_Abort(hmdma); /* if error then abort the current transfer */
 2683              		.loc 1 1389 14
 2684 00ea F868     		ldr	r0, [r7, #12]
 2685 00ec FFF7FEFF 		bl	HAL_MDMA_Abort
1390:Drivers/STM32H7xx_HAL_Driver/Src/stm32h7xx_hal_mdma.c **** 
1391:Drivers/STM32H7xx_HAL_Driver/Src/stm32h7xx_hal_mdma.c ****       /*
1392:Drivers/STM32H7xx_HAL_Driver/Src/stm32h7xx_hal_mdma.c ****         Note that the Abort function will
1393:Drivers/STM32H7xx_HAL_Driver/Src/stm32h7xx_hal_mdma.c ****           - Clear all transfer flags
1394:Drivers/STM32H7xx_HAL_Driver/Src/stm32h7xx_hal_mdma.c ****           - Unlock
1395:Drivers/STM32H7xx_HAL_Driver/Src/stm32h7xx_hal_mdma.c ****           - Set the State
1396:Drivers/STM32H7xx_HAL_Driver/Src/stm32h7xx_hal_mdma.c ****       */
1397:Drivers/STM32H7xx_HAL_Driver/Src/stm32h7xx_hal_mdma.c **** 
1398:Drivers/STM32H7xx_HAL_Driver/Src/stm32h7xx_hal_mdma.c ****       return HAL_ERROR;
 2686              		.loc 1 1398 14
 2687 00f0 0123     		movs	r3, #1
 2688 00f2 4BE0     		b	.L146
 2689              	.L155:
1399:Drivers/STM32H7xx_HAL_Driver/Src/stm32h7xx_hal_mdma.c **** 
1400:Drivers/STM32H7xx_HAL_Driver/Src/stm32h7xx_hal_mdma.c ****     }
1401:Drivers/STM32H7xx_HAL_Driver/Src/stm32h7xx_hal_mdma.c **** 
1402:Drivers/STM32H7xx_HAL_Driver/Src/stm32h7xx_hal_mdma.c ****     /* Check for the Timeout */
1403:Drivers/STM32H7xx_HAL_Driver/Src/stm32h7xx_hal_mdma.c ****     if(Timeout != HAL_MAX_DELAY)
 2690              		.loc 1 1403 7
 2691 00f4 7B68     		ldr	r3, [r7, #4]
 2692 00f6 B3F1FF3F 		cmp	r3, #-1
 2693 00fa 15D0     		beq	.L162
1404:Drivers/STM32H7xx_HAL_Driver/Src/stm32h7xx_hal_mdma.c ****     {
1405:Drivers/STM32H7xx_HAL_Driver/Src/stm32h7xx_hal_mdma.c ****       if(((HAL_GetTick() - tickstart ) > Timeout) || (Timeout == 0U))
 2694              		.loc 1 1405 12
 2695 00fc FFF7FEFF 		bl	HAL_GetTick
 2696 0100 0246     		mov	r2, r0
 2697              		.loc 1 1405 26 discriminator 1
 2698 0102 BB69     		ldr	r3, [r7, #24]
 2699 0104 D31A     		subs	r3, r2, r3
 2700              		.loc 1 1405 9 discriminator 1
 2701 0106 7A68     		ldr	r2, [r7, #4]
ARM GAS  /var/folders/g1/j12m_ky910s3_sv7d4yrsdn00000gn/T//ccW7oTPr.s 			page 73


 2702 0108 9A42     		cmp	r2, r3
 2703 010a 02D3     		bcc	.L163
 2704              		.loc 1 1405 51 discriminator 1
 2705 010c 7B68     		ldr	r3, [r7, #4]
 2706 010e 002B     		cmp	r3, #0
 2707 0110 0AD1     		bne	.L162
 2708              	.L163:
1406:Drivers/STM32H7xx_HAL_Driver/Src/stm32h7xx_hal_mdma.c ****       {
1407:Drivers/STM32H7xx_HAL_Driver/Src/stm32h7xx_hal_mdma.c ****         /* Update error code */
1408:Drivers/STM32H7xx_HAL_Driver/Src/stm32h7xx_hal_mdma.c ****         hmdma->ErrorCode |= HAL_MDMA_ERROR_TIMEOUT;
 2709              		.loc 1 1408 14
 2710 0112 FB68     		ldr	r3, [r7, #12]
 2711 0114 9B6E     		ldr	r3, [r3, #104]
 2712              		.loc 1 1408 26
 2713 0116 43F04002 		orr	r2, r3, #64
 2714 011a FB68     		ldr	r3, [r7, #12]
 2715 011c 9A66     		str	r2, [r3, #104]
1409:Drivers/STM32H7xx_HAL_Driver/Src/stm32h7xx_hal_mdma.c **** 
1410:Drivers/STM32H7xx_HAL_Driver/Src/stm32h7xx_hal_mdma.c ****         (void) HAL_MDMA_Abort(hmdma); /* if timeout then abort the current transfer */
 2716              		.loc 1 1410 16
 2717 011e F868     		ldr	r0, [r7, #12]
 2718 0120 FFF7FEFF 		bl	HAL_MDMA_Abort
1411:Drivers/STM32H7xx_HAL_Driver/Src/stm32h7xx_hal_mdma.c **** 
1412:Drivers/STM32H7xx_HAL_Driver/Src/stm32h7xx_hal_mdma.c ****         /*
1413:Drivers/STM32H7xx_HAL_Driver/Src/stm32h7xx_hal_mdma.c ****           Note that the Abort function will
1414:Drivers/STM32H7xx_HAL_Driver/Src/stm32h7xx_hal_mdma.c ****             - Clear all transfer flags
1415:Drivers/STM32H7xx_HAL_Driver/Src/stm32h7xx_hal_mdma.c ****             - Unlock
1416:Drivers/STM32H7xx_HAL_Driver/Src/stm32h7xx_hal_mdma.c ****             - Set the State
1417:Drivers/STM32H7xx_HAL_Driver/Src/stm32h7xx_hal_mdma.c ****         */
1418:Drivers/STM32H7xx_HAL_Driver/Src/stm32h7xx_hal_mdma.c **** 
1419:Drivers/STM32H7xx_HAL_Driver/Src/stm32h7xx_hal_mdma.c ****         return HAL_ERROR;
 2719              		.loc 1 1419 16
 2720 0124 0123     		movs	r3, #1
 2721 0126 31E0     		b	.L146
 2722              	.L162:
1347:Drivers/STM32H7xx_HAL_Driver/Src/stm32h7xx_hal_mdma.c ****   {
 2723              		.loc 1 1347 9
 2724 0128 FB68     		ldr	r3, [r7, #12]
 2725 012a 1B68     		ldr	r3, [r3]
 2726 012c 1A68     		ldr	r2, [r3]
 2727 012e FB69     		ldr	r3, [r7, #28]
 2728 0130 1340     		ands	r3, r3, r2
1347:Drivers/STM32H7xx_HAL_Driver/Src/stm32h7xx_hal_mdma.c ****   {
 2729              		.loc 1 1347 47
 2730 0132 002B     		cmp	r3, #0
 2731 0134 90D0     		beq	.L164
1420:Drivers/STM32H7xx_HAL_Driver/Src/stm32h7xx_hal_mdma.c ****       }
1421:Drivers/STM32H7xx_HAL_Driver/Src/stm32h7xx_hal_mdma.c ****     }
1422:Drivers/STM32H7xx_HAL_Driver/Src/stm32h7xx_hal_mdma.c ****   }
1423:Drivers/STM32H7xx_HAL_Driver/Src/stm32h7xx_hal_mdma.c **** 
1424:Drivers/STM32H7xx_HAL_Driver/Src/stm32h7xx_hal_mdma.c ****   /* Clear the transfer level flag */
1425:Drivers/STM32H7xx_HAL_Driver/Src/stm32h7xx_hal_mdma.c ****   if(CompleteLevel == HAL_MDMA_BUFFER_TRANSFER)
 2732              		.loc 1 1425 5
 2733 0136 FB7A     		ldrb	r3, [r7, #11]	@ zero_extendqisi2
 2734 0138 012B     		cmp	r3, #1
 2735 013a 04D1     		bne	.L165
1426:Drivers/STM32H7xx_HAL_Driver/Src/stm32h7xx_hal_mdma.c ****   {
ARM GAS  /var/folders/g1/j12m_ky910s3_sv7d4yrsdn00000gn/T//ccW7oTPr.s 			page 74


1427:Drivers/STM32H7xx_HAL_Driver/Src/stm32h7xx_hal_mdma.c ****     __HAL_MDMA_CLEAR_FLAG(hmdma, MDMA_FLAG_BFTC);
 2736              		.loc 1 1427 5
 2737 013c FB68     		ldr	r3, [r7, #12]
 2738 013e 1B68     		ldr	r3, [r3]
 2739 0140 1022     		movs	r2, #16
 2740 0142 5A60     		str	r2, [r3, #4]
 2741 0144 21E0     		b	.L166
 2742              	.L165:
1428:Drivers/STM32H7xx_HAL_Driver/Src/stm32h7xx_hal_mdma.c **** 
1429:Drivers/STM32H7xx_HAL_Driver/Src/stm32h7xx_hal_mdma.c ****   }
1430:Drivers/STM32H7xx_HAL_Driver/Src/stm32h7xx_hal_mdma.c ****   else if(CompleteLevel == HAL_MDMA_BLOCK_TRANSFER)
 2743              		.loc 1 1430 10
 2744 0146 FB7A     		ldrb	r3, [r7, #11]	@ zero_extendqisi2
 2745 0148 022B     		cmp	r3, #2
 2746 014a 04D1     		bne	.L167
1431:Drivers/STM32H7xx_HAL_Driver/Src/stm32h7xx_hal_mdma.c ****   {
1432:Drivers/STM32H7xx_HAL_Driver/Src/stm32h7xx_hal_mdma.c ****     __HAL_MDMA_CLEAR_FLAG(hmdma, (MDMA_FLAG_BFTC | MDMA_FLAG_BT));
 2747              		.loc 1 1432 5
 2748 014c FB68     		ldr	r3, [r7, #12]
 2749 014e 1B68     		ldr	r3, [r3]
 2750 0150 1822     		movs	r2, #24
 2751 0152 5A60     		str	r2, [r3, #4]
 2752 0154 19E0     		b	.L166
 2753              	.L167:
1433:Drivers/STM32H7xx_HAL_Driver/Src/stm32h7xx_hal_mdma.c **** 
1434:Drivers/STM32H7xx_HAL_Driver/Src/stm32h7xx_hal_mdma.c ****   }
1435:Drivers/STM32H7xx_HAL_Driver/Src/stm32h7xx_hal_mdma.c ****   else if(CompleteLevel == HAL_MDMA_REPEAT_BLOCK_TRANSFER)
 2754              		.loc 1 1435 10
 2755 0156 FB7A     		ldrb	r3, [r7, #11]	@ zero_extendqisi2
 2756 0158 032B     		cmp	r3, #3
 2757 015a 04D1     		bne	.L168
1436:Drivers/STM32H7xx_HAL_Driver/Src/stm32h7xx_hal_mdma.c ****   {
1437:Drivers/STM32H7xx_HAL_Driver/Src/stm32h7xx_hal_mdma.c ****     __HAL_MDMA_CLEAR_FLAG(hmdma, (MDMA_FLAG_BFTC | MDMA_FLAG_BT | MDMA_FLAG_BRT));
 2758              		.loc 1 1437 5
 2759 015c FB68     		ldr	r3, [r7, #12]
 2760 015e 1B68     		ldr	r3, [r3]
 2761 0160 1C22     		movs	r2, #28
 2762 0162 5A60     		str	r2, [r3, #4]
 2763 0164 11E0     		b	.L166
 2764              	.L168:
1438:Drivers/STM32H7xx_HAL_Driver/Src/stm32h7xx_hal_mdma.c ****   }
1439:Drivers/STM32H7xx_HAL_Driver/Src/stm32h7xx_hal_mdma.c ****   else if(CompleteLevel == HAL_MDMA_FULL_TRANSFER)
 2765              		.loc 1 1439 10
 2766 0166 FB7A     		ldrb	r3, [r7, #11]	@ zero_extendqisi2
 2767 0168 002B     		cmp	r3, #0
 2768 016a 0CD1     		bne	.L169
1440:Drivers/STM32H7xx_HAL_Driver/Src/stm32h7xx_hal_mdma.c ****   {
1441:Drivers/STM32H7xx_HAL_Driver/Src/stm32h7xx_hal_mdma.c ****     __HAL_MDMA_CLEAR_FLAG(hmdma, (MDMA_FLAG_BRT | MDMA_FLAG_BT | MDMA_FLAG_BFTC | MDMA_FLAG_CTC));
 2769              		.loc 1 1441 5
 2770 016c FB68     		ldr	r3, [r7, #12]
 2771 016e 1B68     		ldr	r3, [r3]
 2772 0170 1E22     		movs	r2, #30
 2773 0172 5A60     		str	r2, [r3, #4]
1442:Drivers/STM32H7xx_HAL_Driver/Src/stm32h7xx_hal_mdma.c **** 
1443:Drivers/STM32H7xx_HAL_Driver/Src/stm32h7xx_hal_mdma.c ****     /* Process unlocked */
1444:Drivers/STM32H7xx_HAL_Driver/Src/stm32h7xx_hal_mdma.c ****     __HAL_UNLOCK(hmdma);
 2774              		.loc 1 1444 5
ARM GAS  /var/folders/g1/j12m_ky910s3_sv7d4yrsdn00000gn/T//ccW7oTPr.s 			page 75


 2775 0174 FB68     		ldr	r3, [r7, #12]
 2776 0176 0022     		movs	r2, #0
 2777 0178 83F83C20 		strb	r2, [r3, #60]
1445:Drivers/STM32H7xx_HAL_Driver/Src/stm32h7xx_hal_mdma.c **** 
1446:Drivers/STM32H7xx_HAL_Driver/Src/stm32h7xx_hal_mdma.c ****     hmdma->State = HAL_MDMA_STATE_READY;
