ARM GAS  /var/folders/g1/j12m_ky910s3_sv7d4yrsdn00000gn/T//ccliMUVd.s 			page 1


   1              		.cpu cortex-m7
   2              		.arch armv7e-m
   3              		.fpu fpv5-d16
   4              		.eabi_attribute 28, 1
   5              		.eabi_attribute 20, 1
   6              		.eabi_attribute 21, 1
   7              		.eabi_attribute 23, 3
   8              		.eabi_attribute 24, 1
   9              		.eabi_attribute 25, 1
  10              		.eabi_attribute 26, 1
  11              		.eabi_attribute 30, 6
  12              		.eabi_attribute 34, 1
  13              		.eabi_attribute 18, 4
  14              		.file	"stm32h7xx_hal_dma.c"
  15              		.text
  16              	.Ltext0:
  17              		.cfi_sections	.debug_frame
  18              		.file 1 "Drivers/STM32H7xx_HAL_Driver/Src/stm32h7xx_hal_dma.c"
  19              		.section	.text.HAL_DMA_Init,"ax",%progbits
  20              		.align	1
  21              		.global	HAL_DMA_Init
  22              		.syntax unified
  23              		.thumb
  24              		.thumb_func
  26              	HAL_DMA_Init:
  27              	.LFB144:
   1:Drivers/STM32H7xx_HAL_Driver/Src/stm32h7xx_hal_dma.c **** /**
   2:Drivers/STM32H7xx_HAL_Driver/Src/stm32h7xx_hal_dma.c ****   ******************************************************************************
   3:Drivers/STM32H7xx_HAL_Driver/Src/stm32h7xx_hal_dma.c ****   * @file    stm32h7xx_hal_dma.c
   4:Drivers/STM32H7xx_HAL_Driver/Src/stm32h7xx_hal_dma.c ****   * @author  MCD Application Team
   5:Drivers/STM32H7xx_HAL_Driver/Src/stm32h7xx_hal_dma.c ****   * @brief   DMA HAL module driver.
   6:Drivers/STM32H7xx_HAL_Driver/Src/stm32h7xx_hal_dma.c ****   *          This file provides firmware functions to manage the following
   7:Drivers/STM32H7xx_HAL_Driver/Src/stm32h7xx_hal_dma.c ****   *          functionalities of the Direct Memory Access (DMA) peripheral:
   8:Drivers/STM32H7xx_HAL_Driver/Src/stm32h7xx_hal_dma.c ****   *           + Initialization and de-initialization functions
   9:Drivers/STM32H7xx_HAL_Driver/Src/stm32h7xx_hal_dma.c ****   *           + IO operation functions
  10:Drivers/STM32H7xx_HAL_Driver/Src/stm32h7xx_hal_dma.c ****   *           + Peripheral State and errors functions
  11:Drivers/STM32H7xx_HAL_Driver/Src/stm32h7xx_hal_dma.c ****   ******************************************************************************
  12:Drivers/STM32H7xx_HAL_Driver/Src/stm32h7xx_hal_dma.c ****   * @attention
  13:Drivers/STM32H7xx_HAL_Driver/Src/stm32h7xx_hal_dma.c ****   *
  14:Drivers/STM32H7xx_HAL_Driver/Src/stm32h7xx_hal_dma.c ****   * Copyright (c) 2017 STMicroelectronics.
  15:Drivers/STM32H7xx_HAL_Driver/Src/stm32h7xx_hal_dma.c ****   * All rights reserved.
  16:Drivers/STM32H7xx_HAL_Driver/Src/stm32h7xx_hal_dma.c ****   *
  17:Drivers/STM32H7xx_HAL_Driver/Src/stm32h7xx_hal_dma.c ****   * This software is licensed under terms that can be found in the LICENSE file
  18:Drivers/STM32H7xx_HAL_Driver/Src/stm32h7xx_hal_dma.c ****   * in the root directory of this software component.
  19:Drivers/STM32H7xx_HAL_Driver/Src/stm32h7xx_hal_dma.c ****   * If no LICENSE file comes with this software, it is provided AS-IS.
  20:Drivers/STM32H7xx_HAL_Driver/Src/stm32h7xx_hal_dma.c ****   *
  21:Drivers/STM32H7xx_HAL_Driver/Src/stm32h7xx_hal_dma.c ****   ******************************************************************************
  22:Drivers/STM32H7xx_HAL_Driver/Src/stm32h7xx_hal_dma.c ****   @verbatim
  23:Drivers/STM32H7xx_HAL_Driver/Src/stm32h7xx_hal_dma.c ****   ==============================================================================
  24:Drivers/STM32H7xx_HAL_Driver/Src/stm32h7xx_hal_dma.c ****                         ##### How to use this driver #####
  25:Drivers/STM32H7xx_HAL_Driver/Src/stm32h7xx_hal_dma.c ****   ==============================================================================
  26:Drivers/STM32H7xx_HAL_Driver/Src/stm32h7xx_hal_dma.c ****   [..]
  27:Drivers/STM32H7xx_HAL_Driver/Src/stm32h7xx_hal_dma.c ****    (#) Enable and configure the peripheral to be connected to the DMA Stream
  28:Drivers/STM32H7xx_HAL_Driver/Src/stm32h7xx_hal_dma.c ****        (except for internal SRAM/FLASH memories: no initialization is
  29:Drivers/STM32H7xx_HAL_Driver/Src/stm32h7xx_hal_dma.c ****        necessary) please refer to Reference manual for connection between peripherals
  30:Drivers/STM32H7xx_HAL_Driver/Src/stm32h7xx_hal_dma.c ****        and DMA requests .
  31:Drivers/STM32H7xx_HAL_Driver/Src/stm32h7xx_hal_dma.c **** 
ARM GAS  /var/folders/g1/j12m_ky910s3_sv7d4yrsdn00000gn/T//ccliMUVd.s 			page 2


  32:Drivers/STM32H7xx_HAL_Driver/Src/stm32h7xx_hal_dma.c ****    (#) For a given Stream, program the required configuration through the following parameters:
  33:Drivers/STM32H7xx_HAL_Driver/Src/stm32h7xx_hal_dma.c ****        Transfer Direction, Source and Destination data formats,
  34:Drivers/STM32H7xx_HAL_Driver/Src/stm32h7xx_hal_dma.c ****        Circular, Normal or peripheral flow control mode, Stream Priority level,
  35:Drivers/STM32H7xx_HAL_Driver/Src/stm32h7xx_hal_dma.c ****        Source and Destination Increment mode, FIFO mode and its Threshold (if needed),
  36:Drivers/STM32H7xx_HAL_Driver/Src/stm32h7xx_hal_dma.c ****        Burst mode for Source and/or Destination (if needed) using HAL_DMA_Init() function.
  37:Drivers/STM32H7xx_HAL_Driver/Src/stm32h7xx_hal_dma.c **** 
  38:Drivers/STM32H7xx_HAL_Driver/Src/stm32h7xx_hal_dma.c ****      *** Polling mode IO operation ***
  39:Drivers/STM32H7xx_HAL_Driver/Src/stm32h7xx_hal_dma.c ****      =================================
  40:Drivers/STM32H7xx_HAL_Driver/Src/stm32h7xx_hal_dma.c ****     [..]
  41:Drivers/STM32H7xx_HAL_Driver/Src/stm32h7xx_hal_dma.c ****           (+) Use HAL_DMA_Start() to start DMA transfer after the configuration of Source
  42:Drivers/STM32H7xx_HAL_Driver/Src/stm32h7xx_hal_dma.c ****               address and destination address and the Length of data to be transferred
  43:Drivers/STM32H7xx_HAL_Driver/Src/stm32h7xx_hal_dma.c ****           (+) Use HAL_DMA_PollForTransfer() to poll for the end of current transfer, in this
  44:Drivers/STM32H7xx_HAL_Driver/Src/stm32h7xx_hal_dma.c ****               case a fixed Timeout can be configured by User depending from his application.
  45:Drivers/STM32H7xx_HAL_Driver/Src/stm32h7xx_hal_dma.c **** 
  46:Drivers/STM32H7xx_HAL_Driver/Src/stm32h7xx_hal_dma.c ****      *** Interrupt mode IO operation ***
  47:Drivers/STM32H7xx_HAL_Driver/Src/stm32h7xx_hal_dma.c ****      ===================================
  48:Drivers/STM32H7xx_HAL_Driver/Src/stm32h7xx_hal_dma.c ****     [..]
  49:Drivers/STM32H7xx_HAL_Driver/Src/stm32h7xx_hal_dma.c ****           (+) Configure the DMA interrupt priority using HAL_NVIC_SetPriority()
  50:Drivers/STM32H7xx_HAL_Driver/Src/stm32h7xx_hal_dma.c ****           (+) Enable the DMA IRQ handler using HAL_NVIC_EnableIRQ()
  51:Drivers/STM32H7xx_HAL_Driver/Src/stm32h7xx_hal_dma.c ****           (+) Use HAL_DMA_Start_IT() to start DMA transfer after the configuration of
  52:Drivers/STM32H7xx_HAL_Driver/Src/stm32h7xx_hal_dma.c ****               Source address and destination address and the Length of data to be transferred. In t
  53:Drivers/STM32H7xx_HAL_Driver/Src/stm32h7xx_hal_dma.c ****               case the DMA interrupt is configured
  54:Drivers/STM32H7xx_HAL_Driver/Src/stm32h7xx_hal_dma.c ****           (+) Use HAL_DMA_IRQHandler() called under DMA_IRQHandler() Interrupt subroutine
  55:Drivers/STM32H7xx_HAL_Driver/Src/stm32h7xx_hal_dma.c ****           (+) At the end of data transfer HAL_DMA_IRQHandler() function is executed and user can
  56:Drivers/STM32H7xx_HAL_Driver/Src/stm32h7xx_hal_dma.c ****               add his own function by customization of function pointer XferCpltCallback and
  57:Drivers/STM32H7xx_HAL_Driver/Src/stm32h7xx_hal_dma.c ****               XferErrorCallback (i.e a member of DMA handle structure).
  58:Drivers/STM32H7xx_HAL_Driver/Src/stm32h7xx_hal_dma.c ****     [..]
  59:Drivers/STM32H7xx_HAL_Driver/Src/stm32h7xx_hal_dma.c ****      (#) Use HAL_DMA_GetState() function to return the DMA state and HAL_DMA_GetError() in case of 
  60:Drivers/STM32H7xx_HAL_Driver/Src/stm32h7xx_hal_dma.c ****          detection.
  61:Drivers/STM32H7xx_HAL_Driver/Src/stm32h7xx_hal_dma.c **** 
  62:Drivers/STM32H7xx_HAL_Driver/Src/stm32h7xx_hal_dma.c ****      (#) Use HAL_DMA_Abort() function to abort the current transfer
  63:Drivers/STM32H7xx_HAL_Driver/Src/stm32h7xx_hal_dma.c **** 
  64:Drivers/STM32H7xx_HAL_Driver/Src/stm32h7xx_hal_dma.c ****      -@-   In Memory-to-Memory transfer mode, Circular mode is not allowed.
  65:Drivers/STM32H7xx_HAL_Driver/Src/stm32h7xx_hal_dma.c **** 
  66:Drivers/STM32H7xx_HAL_Driver/Src/stm32h7xx_hal_dma.c ****      -@-   The FIFO is used mainly to reduce bus usage and to allow data packing/unpacking: it is
  67:Drivers/STM32H7xx_HAL_Driver/Src/stm32h7xx_hal_dma.c ****            possible to set different Data Sizes for the Peripheral and the Memory (ie. you can set
  68:Drivers/STM32H7xx_HAL_Driver/Src/stm32h7xx_hal_dma.c ****            Half-Word data size for the peripheral to access its data register and set Word data siz
  69:Drivers/STM32H7xx_HAL_Driver/Src/stm32h7xx_hal_dma.c ****            for the Memory to gain in access time. Each two half words will be packed and written in
  70:Drivers/STM32H7xx_HAL_Driver/Src/stm32h7xx_hal_dma.c ****            a single access to a Word in the Memory).
  71:Drivers/STM32H7xx_HAL_Driver/Src/stm32h7xx_hal_dma.c **** 
  72:Drivers/STM32H7xx_HAL_Driver/Src/stm32h7xx_hal_dma.c ****      -@-   When FIFO is disabled, it is not allowed to configure different Data Sizes for Source
  73:Drivers/STM32H7xx_HAL_Driver/Src/stm32h7xx_hal_dma.c ****            and Destination. In this case the Peripheral Data Size will be applied to both Source
  74:Drivers/STM32H7xx_HAL_Driver/Src/stm32h7xx_hal_dma.c ****            and Destination.
  75:Drivers/STM32H7xx_HAL_Driver/Src/stm32h7xx_hal_dma.c **** 
  76:Drivers/STM32H7xx_HAL_Driver/Src/stm32h7xx_hal_dma.c ****      *** DMA HAL driver macros list ***
  77:Drivers/STM32H7xx_HAL_Driver/Src/stm32h7xx_hal_dma.c ****      =============================================
  78:Drivers/STM32H7xx_HAL_Driver/Src/stm32h7xx_hal_dma.c ****      [..]
  79:Drivers/STM32H7xx_HAL_Driver/Src/stm32h7xx_hal_dma.c ****        Below the list of most used macros in DMA HAL driver.
  80:Drivers/STM32H7xx_HAL_Driver/Src/stm32h7xx_hal_dma.c **** 
  81:Drivers/STM32H7xx_HAL_Driver/Src/stm32h7xx_hal_dma.c ****       (+) __HAL_DMA_ENABLE: Enable the specified DMA Stream.
  82:Drivers/STM32H7xx_HAL_Driver/Src/stm32h7xx_hal_dma.c ****       (+) __HAL_DMA_DISABLE: Disable the specified DMA Stream.
  83:Drivers/STM32H7xx_HAL_Driver/Src/stm32h7xx_hal_dma.c ****       (+) __HAL_DMA_GET_FS: Return the current DMA Stream FIFO filled level.
  84:Drivers/STM32H7xx_HAL_Driver/Src/stm32h7xx_hal_dma.c ****       (+) __HAL_DMA_ENABLE_IT: Enable the specified DMA Stream interrupts.
  85:Drivers/STM32H7xx_HAL_Driver/Src/stm32h7xx_hal_dma.c ****       (+) __HAL_DMA_DISABLE_IT: Disable the specified DMA Stream interrupts.
  86:Drivers/STM32H7xx_HAL_Driver/Src/stm32h7xx_hal_dma.c ****       (+) __HAL_DMA_GET_IT_SOURCE: Check whether the specified DMA Stream interrupt has occurred or
  87:Drivers/STM32H7xx_HAL_Driver/Src/stm32h7xx_hal_dma.c **** 
  88:Drivers/STM32H7xx_HAL_Driver/Src/stm32h7xx_hal_dma.c ****      [..]
ARM GAS  /var/folders/g1/j12m_ky910s3_sv7d4yrsdn00000gn/T//ccliMUVd.s 			page 3


  89:Drivers/STM32H7xx_HAL_Driver/Src/stm32h7xx_hal_dma.c ****       (@) You can refer to the DMA HAL driver header file for more useful macros.
  90:Drivers/STM32H7xx_HAL_Driver/Src/stm32h7xx_hal_dma.c **** 
  91:Drivers/STM32H7xx_HAL_Driver/Src/stm32h7xx_hal_dma.c ****   @endverbatim
  92:Drivers/STM32H7xx_HAL_Driver/Src/stm32h7xx_hal_dma.c ****   */
  93:Drivers/STM32H7xx_HAL_Driver/Src/stm32h7xx_hal_dma.c **** 
  94:Drivers/STM32H7xx_HAL_Driver/Src/stm32h7xx_hal_dma.c **** /* Includes ------------------------------------------------------------------*/
  95:Drivers/STM32H7xx_HAL_Driver/Src/stm32h7xx_hal_dma.c **** #include "stm32h7xx_hal.h"
  96:Drivers/STM32H7xx_HAL_Driver/Src/stm32h7xx_hal_dma.c **** 
  97:Drivers/STM32H7xx_HAL_Driver/Src/stm32h7xx_hal_dma.c **** /** @addtogroup STM32H7xx_HAL_Driver
  98:Drivers/STM32H7xx_HAL_Driver/Src/stm32h7xx_hal_dma.c ****   * @{
  99:Drivers/STM32H7xx_HAL_Driver/Src/stm32h7xx_hal_dma.c ****   */
 100:Drivers/STM32H7xx_HAL_Driver/Src/stm32h7xx_hal_dma.c **** 
 101:Drivers/STM32H7xx_HAL_Driver/Src/stm32h7xx_hal_dma.c **** /** @defgroup DMA DMA
 102:Drivers/STM32H7xx_HAL_Driver/Src/stm32h7xx_hal_dma.c ****   * @brief DMA HAL module driver
 103:Drivers/STM32H7xx_HAL_Driver/Src/stm32h7xx_hal_dma.c ****   * @{
 104:Drivers/STM32H7xx_HAL_Driver/Src/stm32h7xx_hal_dma.c ****   */
 105:Drivers/STM32H7xx_HAL_Driver/Src/stm32h7xx_hal_dma.c **** 
 106:Drivers/STM32H7xx_HAL_Driver/Src/stm32h7xx_hal_dma.c **** #ifdef HAL_DMA_MODULE_ENABLED
 107:Drivers/STM32H7xx_HAL_Driver/Src/stm32h7xx_hal_dma.c **** 
 108:Drivers/STM32H7xx_HAL_Driver/Src/stm32h7xx_hal_dma.c **** /* Private types -------------------------------------------------------------*/
 109:Drivers/STM32H7xx_HAL_Driver/Src/stm32h7xx_hal_dma.c **** /** @addtogroup DMA_Private_Types
 110:Drivers/STM32H7xx_HAL_Driver/Src/stm32h7xx_hal_dma.c ****   * @{
 111:Drivers/STM32H7xx_HAL_Driver/Src/stm32h7xx_hal_dma.c ****   */
 112:Drivers/STM32H7xx_HAL_Driver/Src/stm32h7xx_hal_dma.c **** typedef struct
 113:Drivers/STM32H7xx_HAL_Driver/Src/stm32h7xx_hal_dma.c **** {
 114:Drivers/STM32H7xx_HAL_Driver/Src/stm32h7xx_hal_dma.c ****   __IO uint32_t ISR;   /*!< DMA interrupt status register */
 115:Drivers/STM32H7xx_HAL_Driver/Src/stm32h7xx_hal_dma.c ****   __IO uint32_t Reserved0;
 116:Drivers/STM32H7xx_HAL_Driver/Src/stm32h7xx_hal_dma.c ****   __IO uint32_t IFCR;  /*!< DMA interrupt flag clear register */
 117:Drivers/STM32H7xx_HAL_Driver/Src/stm32h7xx_hal_dma.c **** } DMA_Base_Registers;
 118:Drivers/STM32H7xx_HAL_Driver/Src/stm32h7xx_hal_dma.c **** 
 119:Drivers/STM32H7xx_HAL_Driver/Src/stm32h7xx_hal_dma.c **** typedef struct
 120:Drivers/STM32H7xx_HAL_Driver/Src/stm32h7xx_hal_dma.c **** {
 121:Drivers/STM32H7xx_HAL_Driver/Src/stm32h7xx_hal_dma.c ****   __IO uint32_t ISR;   /*!< BDMA interrupt status register */
 122:Drivers/STM32H7xx_HAL_Driver/Src/stm32h7xx_hal_dma.c ****   __IO uint32_t IFCR;  /*!< BDMA interrupt flag clear register */
 123:Drivers/STM32H7xx_HAL_Driver/Src/stm32h7xx_hal_dma.c **** } BDMA_Base_Registers;
 124:Drivers/STM32H7xx_HAL_Driver/Src/stm32h7xx_hal_dma.c **** /**
 125:Drivers/STM32H7xx_HAL_Driver/Src/stm32h7xx_hal_dma.c ****   * @}
 126:Drivers/STM32H7xx_HAL_Driver/Src/stm32h7xx_hal_dma.c ****   */
 127:Drivers/STM32H7xx_HAL_Driver/Src/stm32h7xx_hal_dma.c **** 
 128:Drivers/STM32H7xx_HAL_Driver/Src/stm32h7xx_hal_dma.c **** /* Private variables ---------------------------------------------------------*/
 129:Drivers/STM32H7xx_HAL_Driver/Src/stm32h7xx_hal_dma.c **** /* Private constants ---------------------------------------------------------*/
 130:Drivers/STM32H7xx_HAL_Driver/Src/stm32h7xx_hal_dma.c **** /** @addtogroup DMA_Private_Constants
 131:Drivers/STM32H7xx_HAL_Driver/Src/stm32h7xx_hal_dma.c ****  * @{
 132:Drivers/STM32H7xx_HAL_Driver/Src/stm32h7xx_hal_dma.c ****  */
 133:Drivers/STM32H7xx_HAL_Driver/Src/stm32h7xx_hal_dma.c **** #define HAL_TIMEOUT_DMA_ABORT         (5U)  /* 5 ms */
 134:Drivers/STM32H7xx_HAL_Driver/Src/stm32h7xx_hal_dma.c **** 
 135:Drivers/STM32H7xx_HAL_Driver/Src/stm32h7xx_hal_dma.c **** #define BDMA_PERIPH_TO_MEMORY         (0x00000000U)                /*!< Peripheral to memory direct
 136:Drivers/STM32H7xx_HAL_Driver/Src/stm32h7xx_hal_dma.c **** #define BDMA_MEMORY_TO_PERIPH         ((uint32_t)BDMA_CCR_DIR)     /*!< Memory to peripheral direct
 137:Drivers/STM32H7xx_HAL_Driver/Src/stm32h7xx_hal_dma.c **** #define BDMA_MEMORY_TO_MEMORY         ((uint32_t)BDMA_CCR_MEM2MEM) /*!< Memory to memory direction 
 138:Drivers/STM32H7xx_HAL_Driver/Src/stm32h7xx_hal_dma.c **** 
 139:Drivers/STM32H7xx_HAL_Driver/Src/stm32h7xx_hal_dma.c **** /* DMA to BDMA conversion */
 140:Drivers/STM32H7xx_HAL_Driver/Src/stm32h7xx_hal_dma.c **** #define DMA_TO_BDMA_DIRECTION(__DMA_DIRECTION__) (((__DMA_DIRECTION__) == DMA_MEMORY_TO_PERIPH)? BD
 141:Drivers/STM32H7xx_HAL_Driver/Src/stm32h7xx_hal_dma.c ****                                                   ((__DMA_DIRECTION__) == DMA_MEMORY_TO_MEMORY)? BD
 142:Drivers/STM32H7xx_HAL_Driver/Src/stm32h7xx_hal_dma.c ****                                                   BDMA_PERIPH_TO_MEMORY)
 143:Drivers/STM32H7xx_HAL_Driver/Src/stm32h7xx_hal_dma.c **** 
 144:Drivers/STM32H7xx_HAL_Driver/Src/stm32h7xx_hal_dma.c **** #define DMA_TO_BDMA_PERIPHERAL_INC(__DMA_PERIPHERAL_INC__) ((__DMA_PERIPHERAL_INC__) >> 3U)
 145:Drivers/STM32H7xx_HAL_Driver/Src/stm32h7xx_hal_dma.c **** #define DMA_TO_BDMA_MEMORY_INC(__DMA_MEMORY_INC__) ((__DMA_MEMORY_INC__) >> 3U)
ARM GAS  /var/folders/g1/j12m_ky910s3_sv7d4yrsdn00000gn/T//ccliMUVd.s 			page 4


 146:Drivers/STM32H7xx_HAL_Driver/Src/stm32h7xx_hal_dma.c **** 
 147:Drivers/STM32H7xx_HAL_Driver/Src/stm32h7xx_hal_dma.c **** #define DMA_TO_BDMA_PDATA_SIZE(__DMA_PDATA_SIZE__) ((__DMA_PDATA_SIZE__) >> 3U)
 148:Drivers/STM32H7xx_HAL_Driver/Src/stm32h7xx_hal_dma.c **** #define DMA_TO_BDMA_MDATA_SIZE(__DMA_MDATA_SIZE__) ((__DMA_MDATA_SIZE__) >> 3U)
 149:Drivers/STM32H7xx_HAL_Driver/Src/stm32h7xx_hal_dma.c **** 
 150:Drivers/STM32H7xx_HAL_Driver/Src/stm32h7xx_hal_dma.c **** #define DMA_TO_BDMA_MODE(__DMA_MODE__) ((__DMA_MODE__) >> 3U)
 151:Drivers/STM32H7xx_HAL_Driver/Src/stm32h7xx_hal_dma.c **** 
 152:Drivers/STM32H7xx_HAL_Driver/Src/stm32h7xx_hal_dma.c **** #define DMA_TO_BDMA_PRIORITY(__DMA_PRIORITY__) ((__DMA_PRIORITY__) >> 4U)
 153:Drivers/STM32H7xx_HAL_Driver/Src/stm32h7xx_hal_dma.c **** 
 154:Drivers/STM32H7xx_HAL_Driver/Src/stm32h7xx_hal_dma.c **** #if defined(UART9)
 155:Drivers/STM32H7xx_HAL_Driver/Src/stm32h7xx_hal_dma.c **** #define IS_DMA_UART_USART_REQUEST(__REQUEST__) ((((__REQUEST__) >= DMA_REQUEST_USART1_RX)  &&  ((__
 156:Drivers/STM32H7xx_HAL_Driver/Src/stm32h7xx_hal_dma.c ****                                                  (((__REQUEST__) >= DMA_REQUEST_UART4_RX)  &&  ((__
 157:Drivers/STM32H7xx_HAL_Driver/Src/stm32h7xx_hal_dma.c ****                                                  (((__REQUEST__) >= DMA_REQUEST_USART6_RX) &&  ((__
 158:Drivers/STM32H7xx_HAL_Driver/Src/stm32h7xx_hal_dma.c ****                                                  (((__REQUEST__) >= DMA_REQUEST_UART7_RX)  &&  ((__
 159:Drivers/STM32H7xx_HAL_Driver/Src/stm32h7xx_hal_dma.c ****                                                  (((__REQUEST__) >= DMA_REQUEST_UART9_RX)  &&  ((__
 160:Drivers/STM32H7xx_HAL_Driver/Src/stm32h7xx_hal_dma.c **** #else
 161:Drivers/STM32H7xx_HAL_Driver/Src/stm32h7xx_hal_dma.c **** #define IS_DMA_UART_USART_REQUEST(__REQUEST__) ((((__REQUEST__) >= DMA_REQUEST_USART1_RX)  &&  ((__
 162:Drivers/STM32H7xx_HAL_Driver/Src/stm32h7xx_hal_dma.c ****                                                  (((__REQUEST__) >= DMA_REQUEST_UART4_RX)  &&  ((__
 163:Drivers/STM32H7xx_HAL_Driver/Src/stm32h7xx_hal_dma.c ****                                                  (((__REQUEST__) >= DMA_REQUEST_USART6_RX) &&  ((__
 164:Drivers/STM32H7xx_HAL_Driver/Src/stm32h7xx_hal_dma.c ****                                                  (((__REQUEST__) >= DMA_REQUEST_UART7_RX)  &&  ((__
 165:Drivers/STM32H7xx_HAL_Driver/Src/stm32h7xx_hal_dma.c **** 
 166:Drivers/STM32H7xx_HAL_Driver/Src/stm32h7xx_hal_dma.c **** #endif
 167:Drivers/STM32H7xx_HAL_Driver/Src/stm32h7xx_hal_dma.c **** /**
 168:Drivers/STM32H7xx_HAL_Driver/Src/stm32h7xx_hal_dma.c ****   * @}
 169:Drivers/STM32H7xx_HAL_Driver/Src/stm32h7xx_hal_dma.c ****   */
 170:Drivers/STM32H7xx_HAL_Driver/Src/stm32h7xx_hal_dma.c **** /* Private macros ------------------------------------------------------------*/
 171:Drivers/STM32H7xx_HAL_Driver/Src/stm32h7xx_hal_dma.c **** /* Private functions ---------------------------------------------------------*/
 172:Drivers/STM32H7xx_HAL_Driver/Src/stm32h7xx_hal_dma.c **** /** @addtogroup DMA_Private_Functions
 173:Drivers/STM32H7xx_HAL_Driver/Src/stm32h7xx_hal_dma.c ****   * @{
 174:Drivers/STM32H7xx_HAL_Driver/Src/stm32h7xx_hal_dma.c ****   */
 175:Drivers/STM32H7xx_HAL_Driver/Src/stm32h7xx_hal_dma.c **** static void DMA_SetConfig(DMA_HandleTypeDef *hdma, uint32_t SrcAddress, uint32_t DstAddress, uint32
 176:Drivers/STM32H7xx_HAL_Driver/Src/stm32h7xx_hal_dma.c **** static uint32_t DMA_CalcBaseAndBitshift(DMA_HandleTypeDef *hdma);
 177:Drivers/STM32H7xx_HAL_Driver/Src/stm32h7xx_hal_dma.c **** static HAL_StatusTypeDef DMA_CheckFifoParam(const DMA_HandleTypeDef *hdma);
 178:Drivers/STM32H7xx_HAL_Driver/Src/stm32h7xx_hal_dma.c **** static void DMA_CalcDMAMUXChannelBaseAndMask(DMA_HandleTypeDef *hdma);
 179:Drivers/STM32H7xx_HAL_Driver/Src/stm32h7xx_hal_dma.c **** static void DMA_CalcDMAMUXRequestGenBaseAndMask(DMA_HandleTypeDef *hdma);
 180:Drivers/STM32H7xx_HAL_Driver/Src/stm32h7xx_hal_dma.c **** 
 181:Drivers/STM32H7xx_HAL_Driver/Src/stm32h7xx_hal_dma.c **** /**
 182:Drivers/STM32H7xx_HAL_Driver/Src/stm32h7xx_hal_dma.c ****   * @}
 183:Drivers/STM32H7xx_HAL_Driver/Src/stm32h7xx_hal_dma.c ****   */
 184:Drivers/STM32H7xx_HAL_Driver/Src/stm32h7xx_hal_dma.c **** 
 185:Drivers/STM32H7xx_HAL_Driver/Src/stm32h7xx_hal_dma.c **** /* Exported functions ---------------------------------------------------------*/
 186:Drivers/STM32H7xx_HAL_Driver/Src/stm32h7xx_hal_dma.c **** /** @addtogroup DMA_Exported_Functions
 187:Drivers/STM32H7xx_HAL_Driver/Src/stm32h7xx_hal_dma.c ****   * @{
 188:Drivers/STM32H7xx_HAL_Driver/Src/stm32h7xx_hal_dma.c ****   */
 189:Drivers/STM32H7xx_HAL_Driver/Src/stm32h7xx_hal_dma.c **** 
 190:Drivers/STM32H7xx_HAL_Driver/Src/stm32h7xx_hal_dma.c **** /** @addtogroup DMA_Exported_Functions_Group1
 191:Drivers/STM32H7xx_HAL_Driver/Src/stm32h7xx_hal_dma.c ****   *
 192:Drivers/STM32H7xx_HAL_Driver/Src/stm32h7xx_hal_dma.c **** @verbatim
 193:Drivers/STM32H7xx_HAL_Driver/Src/stm32h7xx_hal_dma.c ****  ===============================================================================
 194:Drivers/STM32H7xx_HAL_Driver/Src/stm32h7xx_hal_dma.c ****              ##### Initialization and de-initialization functions  #####
 195:Drivers/STM32H7xx_HAL_Driver/Src/stm32h7xx_hal_dma.c ****  ===============================================================================
 196:Drivers/STM32H7xx_HAL_Driver/Src/stm32h7xx_hal_dma.c ****     [..]
 197:Drivers/STM32H7xx_HAL_Driver/Src/stm32h7xx_hal_dma.c ****     This section provides functions allowing to initialize the DMA Stream source
 198:Drivers/STM32H7xx_HAL_Driver/Src/stm32h7xx_hal_dma.c ****     and destination incrementation and data sizes, transfer direction,
 199:Drivers/STM32H7xx_HAL_Driver/Src/stm32h7xx_hal_dma.c ****     circular/normal mode selection, memory-to-memory mode selection and Stream priority value.
 200:Drivers/STM32H7xx_HAL_Driver/Src/stm32h7xx_hal_dma.c ****     [..]
 201:Drivers/STM32H7xx_HAL_Driver/Src/stm32h7xx_hal_dma.c ****     The HAL_DMA_Init() function follows the DMA configuration procedures as described in
 202:Drivers/STM32H7xx_HAL_Driver/Src/stm32h7xx_hal_dma.c ****     reference manual.
ARM GAS  /var/folders/g1/j12m_ky910s3_sv7d4yrsdn00000gn/T//ccliMUVd.s 			page 5


 203:Drivers/STM32H7xx_HAL_Driver/Src/stm32h7xx_hal_dma.c ****     The HAL_DMA_DeInit function allows to deinitialize the DMA stream.
 204:Drivers/STM32H7xx_HAL_Driver/Src/stm32h7xx_hal_dma.c **** 
 205:Drivers/STM32H7xx_HAL_Driver/Src/stm32h7xx_hal_dma.c **** @endverbatim
 206:Drivers/STM32H7xx_HAL_Driver/Src/stm32h7xx_hal_dma.c ****   * @{
 207:Drivers/STM32H7xx_HAL_Driver/Src/stm32h7xx_hal_dma.c ****   */
 208:Drivers/STM32H7xx_HAL_Driver/Src/stm32h7xx_hal_dma.c **** 
 209:Drivers/STM32H7xx_HAL_Driver/Src/stm32h7xx_hal_dma.c **** /**
 210:Drivers/STM32H7xx_HAL_Driver/Src/stm32h7xx_hal_dma.c ****   * @brief  Initialize the DMA according to the specified
 211:Drivers/STM32H7xx_HAL_Driver/Src/stm32h7xx_hal_dma.c ****   *         parameters in the DMA_InitTypeDef and create the associated handle.
 212:Drivers/STM32H7xx_HAL_Driver/Src/stm32h7xx_hal_dma.c ****   * @param  hdma: Pointer to a DMA_HandleTypeDef structure that contains
 213:Drivers/STM32H7xx_HAL_Driver/Src/stm32h7xx_hal_dma.c ****   *               the configuration information for the specified DMA Stream.
 214:Drivers/STM32H7xx_HAL_Driver/Src/stm32h7xx_hal_dma.c ****   * @retval HAL status
 215:Drivers/STM32H7xx_HAL_Driver/Src/stm32h7xx_hal_dma.c ****   */
 216:Drivers/STM32H7xx_HAL_Driver/Src/stm32h7xx_hal_dma.c **** HAL_StatusTypeDef HAL_DMA_Init(DMA_HandleTypeDef *hdma)
 217:Drivers/STM32H7xx_HAL_Driver/Src/stm32h7xx_hal_dma.c **** {
  28              		.loc 1 217 1
  29              		.cfi_startproc
  30              		@ args = 0, pretend = 0, frame = 24
  31              		@ frame_needed = 1, uses_anonymous_args = 0
  32 0000 80B5     		push	{r7, lr}
  33              	.LCFI0:
  34              		.cfi_def_cfa_offset 8
  35              		.cfi_offset 7, -8
  36              		.cfi_offset 14, -4
  37 0002 86B0     		sub	sp, sp, #24
  38              	.LCFI1:
  39              		.cfi_def_cfa_offset 32
  40 0004 00AF     		add	r7, sp, #0
  41              	.LCFI2:
  42              		.cfi_def_cfa_register 7
  43 0006 7860     		str	r0, [r7, #4]
 218:Drivers/STM32H7xx_HAL_Driver/Src/stm32h7xx_hal_dma.c ****   uint32_t registerValue;
 219:Drivers/STM32H7xx_HAL_Driver/Src/stm32h7xx_hal_dma.c ****   uint32_t tickstart = HAL_GetTick();
  44              		.loc 1 219 24
  45 0008 FFF7FEFF 		bl	HAL_GetTick
  46 000c 3861     		str	r0, [r7, #16]
 220:Drivers/STM32H7xx_HAL_Driver/Src/stm32h7xx_hal_dma.c ****   DMA_Base_Registers *regs_dma;
 221:Drivers/STM32H7xx_HAL_Driver/Src/stm32h7xx_hal_dma.c ****   BDMA_Base_Registers *regs_bdma;
 222:Drivers/STM32H7xx_HAL_Driver/Src/stm32h7xx_hal_dma.c **** 
 223:Drivers/STM32H7xx_HAL_Driver/Src/stm32h7xx_hal_dma.c ****   /* Check the DMA peripheral handle */
 224:Drivers/STM32H7xx_HAL_Driver/Src/stm32h7xx_hal_dma.c ****   if(hdma == NULL)
  47              		.loc 1 224 5
  48 000e 7B68     		ldr	r3, [r7, #4]
  49 0010 002B     		cmp	r3, #0
  50 0012 01D1     		bne	.L2
 225:Drivers/STM32H7xx_HAL_Driver/Src/stm32h7xx_hal_dma.c ****   {
 226:Drivers/STM32H7xx_HAL_Driver/Src/stm32h7xx_hal_dma.c ****     return HAL_ERROR;
  51              		.loc 1 226 12
  52 0014 0123     		movs	r3, #1
  53 0016 16E3     		b	.L3
  54              	.L2:
 227:Drivers/STM32H7xx_HAL_Driver/Src/stm32h7xx_hal_dma.c ****   }
 228:Drivers/STM32H7xx_HAL_Driver/Src/stm32h7xx_hal_dma.c **** 
 229:Drivers/STM32H7xx_HAL_Driver/Src/stm32h7xx_hal_dma.c ****   /* Check the parameters */
 230:Drivers/STM32H7xx_HAL_Driver/Src/stm32h7xx_hal_dma.c ****   assert_param(IS_DMA_ALL_INSTANCE(hdma->Instance));
 231:Drivers/STM32H7xx_HAL_Driver/Src/stm32h7xx_hal_dma.c ****   assert_param(IS_DMA_DIRECTION(hdma->Init.Direction));
 232:Drivers/STM32H7xx_HAL_Driver/Src/stm32h7xx_hal_dma.c ****   assert_param(IS_DMA_PERIPHERAL_INC_STATE(hdma->Init.PeriphInc));
ARM GAS  /var/folders/g1/j12m_ky910s3_sv7d4yrsdn00000gn/T//ccliMUVd.s 			page 6


 233:Drivers/STM32H7xx_HAL_Driver/Src/stm32h7xx_hal_dma.c ****   assert_param(IS_DMA_MEMORY_INC_STATE(hdma->Init.MemInc));
 234:Drivers/STM32H7xx_HAL_Driver/Src/stm32h7xx_hal_dma.c ****   assert_param(IS_DMA_PERIPHERAL_DATA_SIZE(hdma->Init.PeriphDataAlignment));
 235:Drivers/STM32H7xx_HAL_Driver/Src/stm32h7xx_hal_dma.c ****   assert_param(IS_DMA_MEMORY_DATA_SIZE(hdma->Init.MemDataAlignment));
 236:Drivers/STM32H7xx_HAL_Driver/Src/stm32h7xx_hal_dma.c ****   assert_param(IS_DMA_MODE(hdma->Init.Mode));
 237:Drivers/STM32H7xx_HAL_Driver/Src/stm32h7xx_hal_dma.c ****   assert_param(IS_DMA_PRIORITY(hdma->Init.Priority));
 238:Drivers/STM32H7xx_HAL_Driver/Src/stm32h7xx_hal_dma.c **** 
 239:Drivers/STM32H7xx_HAL_Driver/Src/stm32h7xx_hal_dma.c ****   if(IS_DMA_STREAM_INSTANCE(hdma->Instance) != 0U) /* DMA1 or DMA2 instance */
  55              		.loc 1 239 6
  56 0018 7B68     		ldr	r3, [r7, #4]
  57 001a 1B68     		ldr	r3, [r3]
  58 001c 664A     		ldr	r2, .L41
  59 001e 9342     		cmp	r3, r2
  60 0020 4AD0     		beq	.L4
  61              		.loc 1 239 6 is_stmt 0 discriminator 2
  62 0022 7B68     		ldr	r3, [r7, #4]
  63 0024 1B68     		ldr	r3, [r3]
  64 0026 654A     		ldr	r2, .L41+4
  65 0028 9342     		cmp	r3, r2
  66 002a 45D0     		beq	.L4
  67              		.loc 1 239 6 discriminator 4
  68 002c 7B68     		ldr	r3, [r7, #4]
  69 002e 1B68     		ldr	r3, [r3]
  70 0030 634A     		ldr	r2, .L41+8
  71 0032 9342     		cmp	r3, r2
  72 0034 40D0     		beq	.L4
  73              		.loc 1 239 6 discriminator 6
  74 0036 7B68     		ldr	r3, [r7, #4]
  75 0038 1B68     		ldr	r3, [r3]
  76 003a 624A     		ldr	r2, .L41+12
  77 003c 9342     		cmp	r3, r2
  78 003e 3BD0     		beq	.L4
  79              		.loc 1 239 6 discriminator 8
  80 0040 7B68     		ldr	r3, [r7, #4]
  81 0042 1B68     		ldr	r3, [r3]
  82 0044 604A     		ldr	r2, .L41+16
  83 0046 9342     		cmp	r3, r2
  84 0048 36D0     		beq	.L4
  85              		.loc 1 239 6 discriminator 10
  86 004a 7B68     		ldr	r3, [r7, #4]
  87 004c 1B68     		ldr	r3, [r3]
  88 004e 5F4A     		ldr	r2, .L41+20
  89 0050 9342     		cmp	r3, r2
  90 0052 31D0     		beq	.L4
  91              		.loc 1 239 6 discriminator 12
  92 0054 7B68     		ldr	r3, [r7, #4]
  93 0056 1B68     		ldr	r3, [r3]
  94 0058 5D4A     		ldr	r2, .L41+24
  95 005a 9342     		cmp	r3, r2
  96 005c 2CD0     		beq	.L4
  97              		.loc 1 239 6 discriminator 14
  98 005e 7B68     		ldr	r3, [r7, #4]
  99 0060 1B68     		ldr	r3, [r3]
 100 0062 5C4A     		ldr	r2, .L41+28
 101 0064 9342     		cmp	r3, r2
 102 0066 27D0     		beq	.L4
 103              		.loc 1 239 6 discriminator 16
 104 0068 7B68     		ldr	r3, [r7, #4]
ARM GAS  /var/folders/g1/j12m_ky910s3_sv7d4yrsdn00000gn/T//ccliMUVd.s 			page 7


 105 006a 1B68     		ldr	r3, [r3]
 106 006c 5A4A     		ldr	r2, .L41+32
 107 006e 9342     		cmp	r3, r2
 108 0070 22D0     		beq	.L4
 109              		.loc 1 239 6 discriminator 18
 110 0072 7B68     		ldr	r3, [r7, #4]
 111 0074 1B68     		ldr	r3, [r3]
 112 0076 594A     		ldr	r2, .L41+36
 113 0078 9342     		cmp	r3, r2
 114 007a 1DD0     		beq	.L4
 115              		.loc 1 239 6 discriminator 20
 116 007c 7B68     		ldr	r3, [r7, #4]
 117 007e 1B68     		ldr	r3, [r3]
 118 0080 574A     		ldr	r2, .L41+40
 119 0082 9342     		cmp	r3, r2
 120 0084 18D0     		beq	.L4
 121              		.loc 1 239 6 discriminator 22
 122 0086 7B68     		ldr	r3, [r7, #4]
 123 0088 1B68     		ldr	r3, [r3]
 124 008a 564A     		ldr	r2, .L41+44
 125 008c 9342     		cmp	r3, r2
 126 008e 13D0     		beq	.L4
 127              		.loc 1 239 6 discriminator 24
 128 0090 7B68     		ldr	r3, [r7, #4]
 129 0092 1B68     		ldr	r3, [r3]
 130 0094 544A     		ldr	r2, .L41+48
 131 0096 9342     		cmp	r3, r2
 132 0098 0ED0     		beq	.L4
 133              		.loc 1 239 6 discriminator 26
 134 009a 7B68     		ldr	r3, [r7, #4]
 135 009c 1B68     		ldr	r3, [r3]
 136 009e 534A     		ldr	r2, .L41+52
 137 00a0 9342     		cmp	r3, r2
 138 00a2 09D0     		beq	.L4
 139              		.loc 1 239 6 discriminator 28
 140 00a4 7B68     		ldr	r3, [r7, #4]
 141 00a6 1B68     		ldr	r3, [r3]
 142 00a8 514A     		ldr	r2, .L41+56
 143 00aa 9342     		cmp	r3, r2
 144 00ac 04D0     		beq	.L4
 145              		.loc 1 239 6 discriminator 30
 146 00ae 7B68     		ldr	r3, [r7, #4]
 147 00b0 1B68     		ldr	r3, [r3]
 148 00b2 504A     		ldr	r2, .L41+60
 149 00b4 9342     		cmp	r3, r2
 150 00b6 01D1     		bne	.L5
 151              	.L4:
 152              		.loc 1 239 6 discriminator 31
 153 00b8 0123     		movs	r3, #1
 154              		.loc 1 239 6
 155 00ba 00E0     		b	.L6
 156              	.L5:
 157              		.loc 1 239 6 discriminator 32
 158 00bc 0023     		movs	r3, #0
 159              	.L6:
 160              		.loc 1 239 5 is_stmt 1 discriminator 34
 161 00be 002B     		cmp	r3, #0
ARM GAS  /var/folders/g1/j12m_ky910s3_sv7d4yrsdn00000gn/T//ccliMUVd.s 			page 8


 162 00c0 00F03B81 		beq	.L7
 240:Drivers/STM32H7xx_HAL_Driver/Src/stm32h7xx_hal_dma.c ****   {
 241:Drivers/STM32H7xx_HAL_Driver/Src/stm32h7xx_hal_dma.c ****     assert_param(IS_DMA_REQUEST(hdma->Init.Request));
 242:Drivers/STM32H7xx_HAL_Driver/Src/stm32h7xx_hal_dma.c ****     assert_param(IS_DMA_FIFO_MODE_STATE(hdma->Init.FIFOMode));
 243:Drivers/STM32H7xx_HAL_Driver/Src/stm32h7xx_hal_dma.c ****     /* Check the memory burst, peripheral burst and FIFO threshold parameters only
 244:Drivers/STM32H7xx_HAL_Driver/Src/stm32h7xx_hal_dma.c ****        when FIFO mode is enabled */
 245:Drivers/STM32H7xx_HAL_Driver/Src/stm32h7xx_hal_dma.c ****     if(hdma->Init.FIFOMode != DMA_FIFOMODE_DISABLE)
 246:Drivers/STM32H7xx_HAL_Driver/Src/stm32h7xx_hal_dma.c ****     {
 247:Drivers/STM32H7xx_HAL_Driver/Src/stm32h7xx_hal_dma.c ****       assert_param(IS_DMA_FIFO_THRESHOLD(hdma->Init.FIFOThreshold));
 248:Drivers/STM32H7xx_HAL_Driver/Src/stm32h7xx_hal_dma.c ****       assert_param(IS_DMA_MEMORY_BURST(hdma->Init.MemBurst));
 249:Drivers/STM32H7xx_HAL_Driver/Src/stm32h7xx_hal_dma.c ****       assert_param(IS_DMA_PERIPHERAL_BURST(hdma->Init.PeriphBurst));
 250:Drivers/STM32H7xx_HAL_Driver/Src/stm32h7xx_hal_dma.c ****     }
 251:Drivers/STM32H7xx_HAL_Driver/Src/stm32h7xx_hal_dma.c **** 
 252:Drivers/STM32H7xx_HAL_Driver/Src/stm32h7xx_hal_dma.c ****     /* Change DMA peripheral state */
 253:Drivers/STM32H7xx_HAL_Driver/Src/stm32h7xx_hal_dma.c ****     hdma->State = HAL_DMA_STATE_BUSY;
 163              		.loc 1 253 17
 164 00c4 7B68     		ldr	r3, [r7, #4]
 165 00c6 0222     		movs	r2, #2
 166 00c8 83F83520 		strb	r2, [r3, #53]
 254:Drivers/STM32H7xx_HAL_Driver/Src/stm32h7xx_hal_dma.c **** 
 255:Drivers/STM32H7xx_HAL_Driver/Src/stm32h7xx_hal_dma.c ****     /* Allocate lock resource */
 256:Drivers/STM32H7xx_HAL_Driver/Src/stm32h7xx_hal_dma.c ****     __HAL_UNLOCK(hdma);
 167              		.loc 1 256 5
 168 00cc 7B68     		ldr	r3, [r7, #4]
 169 00ce 0022     		movs	r2, #0
 170 00d0 83F83420 		strb	r2, [r3, #52]
 257:Drivers/STM32H7xx_HAL_Driver/Src/stm32h7xx_hal_dma.c **** 
 258:Drivers/STM32H7xx_HAL_Driver/Src/stm32h7xx_hal_dma.c ****     /* Disable the peripheral */
 259:Drivers/STM32H7xx_HAL_Driver/Src/stm32h7xx_hal_dma.c ****     __HAL_DMA_DISABLE(hdma);
 171              		.loc 1 259 5
 172 00d4 7B68     		ldr	r3, [r7, #4]
 173 00d6 1B68     		ldr	r3, [r3]
 174 00d8 374A     		ldr	r2, .L41
 175 00da 9342     		cmp	r3, r2
 176 00dc 4AD0     		beq	.L8
 177              		.loc 1 259 5 is_stmt 0 discriminator 2
 178 00de 7B68     		ldr	r3, [r7, #4]
 179 00e0 1B68     		ldr	r3, [r3]
 180 00e2 364A     		ldr	r2, .L41+4
 181 00e4 9342     		cmp	r3, r2
 182 00e6 45D0     		beq	.L8
 183              		.loc 1 259 5 discriminator 4
 184 00e8 7B68     		ldr	r3, [r7, #4]
 185 00ea 1B68     		ldr	r3, [r3]
 186 00ec 344A     		ldr	r2, .L41+8
 187 00ee 9342     		cmp	r3, r2
 188 00f0 40D0     		beq	.L8
 189              		.loc 1 259 5 discriminator 6
 190 00f2 7B68     		ldr	r3, [r7, #4]
 191 00f4 1B68     		ldr	r3, [r3]
 192 00f6 334A     		ldr	r2, .L41+12
 193 00f8 9342     		cmp	r3, r2
 194 00fa 3BD0     		beq	.L8
 195              		.loc 1 259 5 discriminator 8
 196 00fc 7B68     		ldr	r3, [r7, #4]
 197 00fe 1B68     		ldr	r3, [r3]
 198 0100 314A     		ldr	r2, .L41+16
ARM GAS  /var/folders/g1/j12m_ky910s3_sv7d4yrsdn00000gn/T//ccliMUVd.s 			page 9


 199 0102 9342     		cmp	r3, r2
 200 0104 36D0     		beq	.L8
 201              		.loc 1 259 5 discriminator 10
 202 0106 7B68     		ldr	r3, [r7, #4]
 203 0108 1B68     		ldr	r3, [r3]
 204 010a 304A     		ldr	r2, .L41+20
 205 010c 9342     		cmp	r3, r2
 206 010e 31D0     		beq	.L8
 207              		.loc 1 259 5 discriminator 12
 208 0110 7B68     		ldr	r3, [r7, #4]
 209 0112 1B68     		ldr	r3, [r3]
 210 0114 2E4A     		ldr	r2, .L41+24
 211 0116 9342     		cmp	r3, r2
 212 0118 2CD0     		beq	.L8
 213              		.loc 1 259 5 discriminator 14
 214 011a 7B68     		ldr	r3, [r7, #4]
 215 011c 1B68     		ldr	r3, [r3]
 216 011e 2D4A     		ldr	r2, .L41+28
 217 0120 9342     		cmp	r3, r2
 218 0122 27D0     		beq	.L8
 219              		.loc 1 259 5 discriminator 16
 220 0124 7B68     		ldr	r3, [r7, #4]
 221 0126 1B68     		ldr	r3, [r3]
 222 0128 2B4A     		ldr	r2, .L41+32
 223 012a 9342     		cmp	r3, r2
 224 012c 22D0     		beq	.L8
 225              		.loc 1 259 5 discriminator 18
 226 012e 7B68     		ldr	r3, [r7, #4]
 227 0130 1B68     		ldr	r3, [r3]
 228 0132 2A4A     		ldr	r2, .L41+36
 229 0134 9342     		cmp	r3, r2
 230 0136 1DD0     		beq	.L8
 231              		.loc 1 259 5 discriminator 20
 232 0138 7B68     		ldr	r3, [r7, #4]
 233 013a 1B68     		ldr	r3, [r3]
 234 013c 284A     		ldr	r2, .L41+40
 235 013e 9342     		cmp	r3, r2
 236 0140 18D0     		beq	.L8
 237              		.loc 1 259 5 discriminator 22
 238 0142 7B68     		ldr	r3, [r7, #4]
 239 0144 1B68     		ldr	r3, [r3]
 240 0146 274A     		ldr	r2, .L41+44
 241 0148 9342     		cmp	r3, r2
 242 014a 13D0     		beq	.L8
 243              		.loc 1 259 5 discriminator 24
 244 014c 7B68     		ldr	r3, [r7, #4]
 245 014e 1B68     		ldr	r3, [r3]
 246 0150 254A     		ldr	r2, .L41+48
 247 0152 9342     		cmp	r3, r2
 248 0154 0ED0     		beq	.L8
 249              		.loc 1 259 5 discriminator 26
 250 0156 7B68     		ldr	r3, [r7, #4]
 251 0158 1B68     		ldr	r3, [r3]
 252 015a 244A     		ldr	r2, .L41+52
 253 015c 9342     		cmp	r3, r2
 254 015e 09D0     		beq	.L8
 255              		.loc 1 259 5 discriminator 28
ARM GAS  /var/folders/g1/j12m_ky910s3_sv7d4yrsdn00000gn/T//ccliMUVd.s 			page 10


 256 0160 7B68     		ldr	r3, [r7, #4]
 257 0162 1B68     		ldr	r3, [r3]
 258 0164 224A     		ldr	r2, .L41+56
 259 0166 9342     		cmp	r3, r2
 260 0168 04D0     		beq	.L8
 261              		.loc 1 259 5 discriminator 30
 262 016a 7B68     		ldr	r3, [r7, #4]
 263 016c 1B68     		ldr	r3, [r3]
 264 016e 214A     		ldr	r2, .L41+60
 265 0170 9342     		cmp	r3, r2
 266 0172 08D1     		bne	.L9
 267              	.L8:
 268              		.loc 1 259 5 discriminator 31
 269 0174 7B68     		ldr	r3, [r7, #4]
 270 0176 1B68     		ldr	r3, [r3]
 271 0178 1A68     		ldr	r2, [r3]
 272 017a 7B68     		ldr	r3, [r7, #4]
 273 017c 1B68     		ldr	r3, [r3]
 274 017e 22F00102 		bic	r2, r2, #1
 275 0182 1A60     		str	r2, [r3]
 276              		.loc 1 259 5
 277 0184 07E0     		b	.L10
 278              	.L9:
 279              		.loc 1 259 5 discriminator 32
 280 0186 7B68     		ldr	r3, [r7, #4]
 281 0188 1B68     		ldr	r3, [r3]
 282 018a 1A68     		ldr	r2, [r3]
 283 018c 7B68     		ldr	r3, [r7, #4]
 284 018e 1B68     		ldr	r3, [r3]
 285 0190 22F00102 		bic	r2, r2, #1
 286 0194 1A60     		str	r2, [r3]
 287              	.L10:
 260:Drivers/STM32H7xx_HAL_Driver/Src/stm32h7xx_hal_dma.c **** 
 261:Drivers/STM32H7xx_HAL_Driver/Src/stm32h7xx_hal_dma.c ****     /* Check if the DMA Stream is effectively disabled */
 262:Drivers/STM32H7xx_HAL_Driver/Src/stm32h7xx_hal_dma.c ****     while((((DMA_Stream_TypeDef   *)hdma->Instance)->CR & DMA_SxCR_EN) != 0U)
 288              		.loc 1 262 10 is_stmt 1
 289 0196 2FE0     		b	.L11
 290              	.L12:
 263:Drivers/STM32H7xx_HAL_Driver/Src/stm32h7xx_hal_dma.c ****     {
 264:Drivers/STM32H7xx_HAL_Driver/Src/stm32h7xx_hal_dma.c ****       /* Check for the Timeout */
 265:Drivers/STM32H7xx_HAL_Driver/Src/stm32h7xx_hal_dma.c ****       if((HAL_GetTick() - tickstart ) > HAL_TIMEOUT_DMA_ABORT)
 291              		.loc 1 265 11
 292 0198 FFF7FEFF 		bl	HAL_GetTick
 293 019c 0246     		mov	r2, r0
 294              		.loc 1 265 25 discriminator 1
 295 019e 3B69     		ldr	r3, [r7, #16]
 296 01a0 D31A     		subs	r3, r2, r3
 297              		.loc 1 265 9 discriminator 1
 298 01a2 052B     		cmp	r3, #5
 299 01a4 28D9     		bls	.L11
 266:Drivers/STM32H7xx_HAL_Driver/Src/stm32h7xx_hal_dma.c ****       {
 267:Drivers/STM32H7xx_HAL_Driver/Src/stm32h7xx_hal_dma.c ****         /* Update error code */
 268:Drivers/STM32H7xx_HAL_Driver/Src/stm32h7xx_hal_dma.c ****         hdma->ErrorCode = HAL_DMA_ERROR_TIMEOUT;
 300              		.loc 1 268 25
 301 01a6 7B68     		ldr	r3, [r7, #4]
 302 01a8 2022     		movs	r2, #32
 303 01aa 5A65     		str	r2, [r3, #84]
ARM GAS  /var/folders/g1/j12m_ky910s3_sv7d4yrsdn00000gn/T//ccliMUVd.s 			page 11


 269:Drivers/STM32H7xx_HAL_Driver/Src/stm32h7xx_hal_dma.c **** 
 270:Drivers/STM32H7xx_HAL_Driver/Src/stm32h7xx_hal_dma.c ****         /* Change the DMA state */
 271:Drivers/STM32H7xx_HAL_Driver/Src/stm32h7xx_hal_dma.c ****         hdma->State = HAL_DMA_STATE_ERROR;
 304              		.loc 1 271 21
 305 01ac 7B68     		ldr	r3, [r7, #4]
 306 01ae 0322     		movs	r2, #3
 307 01b0 83F83520 		strb	r2, [r3, #53]
 272:Drivers/STM32H7xx_HAL_Driver/Src/stm32h7xx_hal_dma.c **** 
 273:Drivers/STM32H7xx_HAL_Driver/Src/stm32h7xx_hal_dma.c ****         return HAL_ERROR;
 308              		.loc 1 273 16
 309 01b4 0123     		movs	r3, #1
 310 01b6 46E2     		b	.L3
 311              	.L42:
 312              		.align	2
 313              	.L41:
 314 01b8 10000240 		.word	1073872912
 315 01bc 28000240 		.word	1073872936
 316 01c0 40000240 		.word	1073872960
 317 01c4 58000240 		.word	1073872984
 318 01c8 70000240 		.word	1073873008
 319 01cc 88000240 		.word	1073873032
 320 01d0 A0000240 		.word	1073873056
 321 01d4 B8000240 		.word	1073873080
 322 01d8 10040240 		.word	1073873936
 323 01dc 28040240 		.word	1073873960
 324 01e0 40040240 		.word	1073873984
 325 01e4 58040240 		.word	1073874008
 326 01e8 70040240 		.word	1073874032
 327 01ec 88040240 		.word	1073874056
 328 01f0 A0040240 		.word	1073874080
 329 01f4 B8040240 		.word	1073874104
 330              	.L11:
 262:Drivers/STM32H7xx_HAL_Driver/Src/stm32h7xx_hal_dma.c ****     {
 331              		.loc 1 262 41
 332 01f8 7B68     		ldr	r3, [r7, #4]
 333 01fa 1B68     		ldr	r3, [r3]
 262:Drivers/STM32H7xx_HAL_Driver/Src/stm32h7xx_hal_dma.c ****     {
 334              		.loc 1 262 52
 335 01fc 1B68     		ldr	r3, [r3]
 262:Drivers/STM32H7xx_HAL_Driver/Src/stm32h7xx_hal_dma.c ****     {
 336              		.loc 1 262 57
 337 01fe 03F00103 		and	r3, r3, #1
 262:Drivers/STM32H7xx_HAL_Driver/Src/stm32h7xx_hal_dma.c ****     {
 338              		.loc 1 262 72
 339 0202 002B     		cmp	r3, #0
 340 0204 C8D1     		bne	.L12
 274:Drivers/STM32H7xx_HAL_Driver/Src/stm32h7xx_hal_dma.c ****       }
 275:Drivers/STM32H7xx_HAL_Driver/Src/stm32h7xx_hal_dma.c ****     }
 276:Drivers/STM32H7xx_HAL_Driver/Src/stm32h7xx_hal_dma.c **** 
 277:Drivers/STM32H7xx_HAL_Driver/Src/stm32h7xx_hal_dma.c ****     /* Get the CR register value */
 278:Drivers/STM32H7xx_HAL_Driver/Src/stm32h7xx_hal_dma.c ****     registerValue = ((DMA_Stream_TypeDef   *)hdma->Instance)->CR;
 341              		.loc 1 278 50
 342 0206 7B68     		ldr	r3, [r7, #4]
 343 0208 1B68     		ldr	r3, [r3]
 344              		.loc 1 278 19
 345 020a 1B68     		ldr	r3, [r3]
 346 020c 7B61     		str	r3, [r7, #20]
ARM GAS  /var/folders/g1/j12m_ky910s3_sv7d4yrsdn00000gn/T//ccliMUVd.s 			page 12


 279:Drivers/STM32H7xx_HAL_Driver/Src/stm32h7xx_hal_dma.c **** 
 280:Drivers/STM32H7xx_HAL_Driver/Src/stm32h7xx_hal_dma.c ****     /* Clear CHSEL, MBURST, PBURST, PL, MSIZE, PSIZE, MINC, PINC, CIRC, DIR, CT and DBM bits */
 281:Drivers/STM32H7xx_HAL_Driver/Src/stm32h7xx_hal_dma.c ****     registerValue &= ((uint32_t)~(DMA_SxCR_MBURST | DMA_SxCR_PBURST | \
 347              		.loc 1 281 19
 348 020e 7A69     		ldr	r2, [r7, #20]
 349 0210 834B     		ldr	r3, .L43
 350 0212 1340     		ands	r3, r3, r2
 351 0214 7B61     		str	r3, [r7, #20]
 282:Drivers/STM32H7xx_HAL_Driver/Src/stm32h7xx_hal_dma.c ****                         DMA_SxCR_PL    | DMA_SxCR_MSIZE  | DMA_SxCR_PSIZE  | \
 283:Drivers/STM32H7xx_HAL_Driver/Src/stm32h7xx_hal_dma.c ****                         DMA_SxCR_MINC  | DMA_SxCR_PINC   | DMA_SxCR_CIRC   | \
 284:Drivers/STM32H7xx_HAL_Driver/Src/stm32h7xx_hal_dma.c ****                         DMA_SxCR_DIR   | DMA_SxCR_CT     | DMA_SxCR_DBM));
 285:Drivers/STM32H7xx_HAL_Driver/Src/stm32h7xx_hal_dma.c **** 
 286:Drivers/STM32H7xx_HAL_Driver/Src/stm32h7xx_hal_dma.c ****     /* Prepare the DMA Stream configuration */
 287:Drivers/STM32H7xx_HAL_Driver/Src/stm32h7xx_hal_dma.c ****     registerValue |=  hdma->Init.Direction           |
 352              		.loc 1 287 33
 353 0216 7B68     		ldr	r3, [r7, #4]
 354 0218 9A68     		ldr	r2, [r3, #8]
 288:Drivers/STM32H7xx_HAL_Driver/Src/stm32h7xx_hal_dma.c ****             hdma->Init.PeriphInc           | hdma->Init.MemInc           |
 355              		.loc 1 288 23
 356 021a 7B68     		ldr	r3, [r7, #4]
 357 021c DB68     		ldr	r3, [r3, #12]
 287:Drivers/STM32H7xx_HAL_Driver/Src/stm32h7xx_hal_dma.c ****             hdma->Init.PeriphInc           | hdma->Init.MemInc           |
 358              		.loc 1 287 54
 359 021e 1A43     		orrs	r2, r2, r3
 360              		.loc 1 288 56
 361 0220 7B68     		ldr	r3, [r7, #4]
 362 0222 1B69     		ldr	r3, [r3, #16]
 363              		.loc 1 288 44
 364 0224 1A43     		orrs	r2, r2, r3
 289:Drivers/STM32H7xx_HAL_Driver/Src/stm32h7xx_hal_dma.c ****             hdma->Init.PeriphDataAlignment | hdma->Init.MemDataAlignment |
 365              		.loc 1 289 23
 366 0226 7B68     		ldr	r3, [r7, #4]
 367 0228 5B69     		ldr	r3, [r3, #20]
 288:Drivers/STM32H7xx_HAL_Driver/Src/stm32h7xx_hal_dma.c ****             hdma->Init.PeriphInc           | hdma->Init.MemInc           |
 368              		.loc 1 288 74
 369 022a 1A43     		orrs	r2, r2, r3
 370              		.loc 1 289 56
 371 022c 7B68     		ldr	r3, [r7, #4]
 372 022e 9B69     		ldr	r3, [r3, #24]
 373              		.loc 1 289 44
 374 0230 1A43     		orrs	r2, r2, r3
 290:Drivers/STM32H7xx_HAL_Driver/Src/stm32h7xx_hal_dma.c ****             hdma->Init.Mode                | hdma->Init.Priority;
 375              		.loc 1 290 23
 376 0232 7B68     		ldr	r3, [r7, #4]
 377 0234 DB69     		ldr	r3, [r3, #28]
 289:Drivers/STM32H7xx_HAL_Driver/Src/stm32h7xx_hal_dma.c ****             hdma->Init.PeriphDataAlignment | hdma->Init.MemDataAlignment |
 378              		.loc 1 289 74
 379 0236 1A43     		orrs	r2, r2, r3
 380              		.loc 1 290 56
 381 0238 7B68     		ldr	r3, [r7, #4]
 382 023a 1B6A     		ldr	r3, [r3, #32]
 383              		.loc 1 290 44
 384 023c 1343     		orrs	r3, r3, r2
 287:Drivers/STM32H7xx_HAL_Driver/Src/stm32h7xx_hal_dma.c ****             hdma->Init.PeriphInc           | hdma->Init.MemInc           |
 385              		.loc 1 287 19
 386 023e 7A69     		ldr	r2, [r7, #20]
 387 0240 1343     		orrs	r3, r3, r2
ARM GAS  /var/folders/g1/j12m_ky910s3_sv7d4yrsdn00000gn/T//ccliMUVd.s 			page 13


 388 0242 7B61     		str	r3, [r7, #20]
 291:Drivers/STM32H7xx_HAL_Driver/Src/stm32h7xx_hal_dma.c **** 
 292:Drivers/STM32H7xx_HAL_Driver/Src/stm32h7xx_hal_dma.c ****     /* the Memory burst and peripheral burst are not used when the FIFO is disabled */
 293:Drivers/STM32H7xx_HAL_Driver/Src/stm32h7xx_hal_dma.c ****     if(hdma->Init.FIFOMode == DMA_FIFOMODE_ENABLE)
 389              		.loc 1 293 18
 390 0244 7B68     		ldr	r3, [r7, #4]
 391 0246 5B6A     		ldr	r3, [r3, #36]
 392              		.loc 1 293 7
 393 0248 042B     		cmp	r3, #4
 394 024a 07D1     		bne	.L13
 294:Drivers/STM32H7xx_HAL_Driver/Src/stm32h7xx_hal_dma.c ****     {
 295:Drivers/STM32H7xx_HAL_Driver/Src/stm32h7xx_hal_dma.c ****       /* Get memory burst and peripheral burst */
 296:Drivers/STM32H7xx_HAL_Driver/Src/stm32h7xx_hal_dma.c ****       registerValue |=  hdma->Init.MemBurst | hdma->Init.PeriphBurst;
 395              		.loc 1 296 35
 396 024c 7B68     		ldr	r3, [r7, #4]
 397 024e DA6A     		ldr	r2, [r3, #44]
 398              		.loc 1 296 57
 399 0250 7B68     		ldr	r3, [r7, #4]
 400 0252 1B6B     		ldr	r3, [r3, #48]
 401              		.loc 1 296 45
 402 0254 1343     		orrs	r3, r3, r2
 403              		.loc 1 296 21
 404 0256 7A69     		ldr	r2, [r7, #20]
 405 0258 1343     		orrs	r3, r3, r2
 406 025a 7B61     		str	r3, [r7, #20]
 407              	.L13:
 297:Drivers/STM32H7xx_HAL_Driver/Src/stm32h7xx_hal_dma.c ****     }
 298:Drivers/STM32H7xx_HAL_Driver/Src/stm32h7xx_hal_dma.c **** 
 299:Drivers/STM32H7xx_HAL_Driver/Src/stm32h7xx_hal_dma.c ****     /* Work around for Errata 2.22: UART/USART- DMA transfer lock: DMA stream could be
 300:Drivers/STM32H7xx_HAL_Driver/Src/stm32h7xx_hal_dma.c ****                                     lock when transferring data to/from USART/UART */
 301:Drivers/STM32H7xx_HAL_Driver/Src/stm32h7xx_hal_dma.c **** #if (STM32H7_DEV_ID == 0x450UL)
 302:Drivers/STM32H7xx_HAL_Driver/Src/stm32h7xx_hal_dma.c ****     if((DBGMCU->IDCODE & 0xFFFF0000U) >= 0x20000000U)
 408              		.loc 1 302 15
 409 025c 714B     		ldr	r3, .L43+4
 410 025e 1A68     		ldr	r2, [r3]
 411              		.loc 1 302 24
 412 0260 714B     		ldr	r3, .L43+8
 413 0262 1340     		ands	r3, r3, r2
 414              		.loc 1 302 7
 415 0264 B3F1005F 		cmp	r3, #536870912
 416 0268 28D3     		bcc	.L14
 303:Drivers/STM32H7xx_HAL_Driver/Src/stm32h7xx_hal_dma.c ****     {
 304:Drivers/STM32H7xx_HAL_Driver/Src/stm32h7xx_hal_dma.c **** #endif /* STM32H7_DEV_ID == 0x450UL */
 305:Drivers/STM32H7xx_HAL_Driver/Src/stm32h7xx_hal_dma.c ****       if(IS_DMA_UART_USART_REQUEST(hdma->Init.Request) != 0U)
 417              		.loc 1 305 10
 418 026a 7B68     		ldr	r3, [r7, #4]
 419 026c 5B68     		ldr	r3, [r3, #4]
 420 026e 282B     		cmp	r3, #40
 421 0270 03D9     		bls	.L15
 422              		.loc 1 305 10 is_stmt 0 discriminator 1
 423 0272 7B68     		ldr	r3, [r7, #4]
 424 0274 5B68     		ldr	r3, [r3, #4]
 425 0276 2E2B     		cmp	r3, #46
 426 0278 17D9     		bls	.L16
 427              	.L15:
 428              		.loc 1 305 10 discriminator 4
 429 027a 7B68     		ldr	r3, [r7, #4]
ARM GAS  /var/folders/g1/j12m_ky910s3_sv7d4yrsdn00000gn/T//ccliMUVd.s 			page 14


 430 027c 5B68     		ldr	r3, [r3, #4]
 431 027e 3E2B     		cmp	r3, #62
 432 0280 03D9     		bls	.L17
 433              		.loc 1 305 10 discriminator 5
 434 0282 7B68     		ldr	r3, [r7, #4]
 435 0284 5B68     		ldr	r3, [r3, #4]
 436 0286 422B     		cmp	r3, #66
 437 0288 0FD9     		bls	.L16
 438              	.L17:
 439              		.loc 1 305 10 discriminator 8
 440 028a 7B68     		ldr	r3, [r7, #4]
 441 028c 5B68     		ldr	r3, [r3, #4]
 442 028e 462B     		cmp	r3, #70
 443 0290 03D9     		bls	.L18
 444              		.loc 1 305 10 discriminator 9
 445 0292 7B68     		ldr	r3, [r7, #4]
 446 0294 5B68     		ldr	r3, [r3, #4]
 447 0296 482B     		cmp	r3, #72
 448 0298 07D9     		bls	.L16
 449              	.L18:
 450              		.loc 1 305 10 discriminator 12
 451 029a 7B68     		ldr	r3, [r7, #4]
 452 029c 5B68     		ldr	r3, [r3, #4]
 453 029e 4E2B     		cmp	r3, #78
 454 02a0 05D9     		bls	.L19
 455              		.loc 1 305 10 discriminator 13
 456 02a2 7B68     		ldr	r3, [r7, #4]
 457 02a4 5B68     		ldr	r3, [r3, #4]
 458 02a6 522B     		cmp	r3, #82
 459 02a8 01D8     		bhi	.L19
 460              	.L16:
 461              		.loc 1 305 10 discriminator 15
 462 02aa 0123     		movs	r3, #1
 463              		.loc 1 305 10
 464 02ac 00E0     		b	.L20
 465              	.L19:
 466              		.loc 1 305 10 discriminator 16
 467 02ae 0023     		movs	r3, #0
 468              	.L20:
 469              		.loc 1 305 9 is_stmt 1 discriminator 18
 470 02b0 002B     		cmp	r3, #0
 471 02b2 03D0     		beq	.L14
 306:Drivers/STM32H7xx_HAL_Driver/Src/stm32h7xx_hal_dma.c ****       {
 307:Drivers/STM32H7xx_HAL_Driver/Src/stm32h7xx_hal_dma.c ****         registerValue |= DMA_SxCR_TRBUFF;
 472              		.loc 1 307 23
 473 02b4 7B69     		ldr	r3, [r7, #20]
 474 02b6 43F48013 		orr	r3, r3, #1048576
 475 02ba 7B61     		str	r3, [r7, #20]
 476              	.L14:
 308:Drivers/STM32H7xx_HAL_Driver/Src/stm32h7xx_hal_dma.c ****       }
 309:Drivers/STM32H7xx_HAL_Driver/Src/stm32h7xx_hal_dma.c **** #if (STM32H7_DEV_ID == 0x450UL)
 310:Drivers/STM32H7xx_HAL_Driver/Src/stm32h7xx_hal_dma.c ****     }
 311:Drivers/STM32H7xx_HAL_Driver/Src/stm32h7xx_hal_dma.c **** #endif /* STM32H7_DEV_ID == 0x450UL */
 312:Drivers/STM32H7xx_HAL_Driver/Src/stm32h7xx_hal_dma.c **** 
 313:Drivers/STM32H7xx_HAL_Driver/Src/stm32h7xx_hal_dma.c ****     /* Write to DMA Stream CR register */
 314:Drivers/STM32H7xx_HAL_Driver/Src/stm32h7xx_hal_dma.c ****     ((DMA_Stream_TypeDef   *)hdma->Instance)->CR = registerValue;
 477              		.loc 1 314 34
ARM GAS  /var/folders/g1/j12m_ky910s3_sv7d4yrsdn00000gn/T//ccliMUVd.s 			page 15


 478 02bc 7B68     		ldr	r3, [r7, #4]
 479 02be 1B68     		ldr	r3, [r3]
 480              		.loc 1 314 50
 481 02c0 7A69     		ldr	r2, [r7, #20]
 482 02c2 1A60     		str	r2, [r3]
 315:Drivers/STM32H7xx_HAL_Driver/Src/stm32h7xx_hal_dma.c **** 
 316:Drivers/STM32H7xx_HAL_Driver/Src/stm32h7xx_hal_dma.c ****     /* Get the FCR register value */
 317:Drivers/STM32H7xx_HAL_Driver/Src/stm32h7xx_hal_dma.c ****     registerValue = ((DMA_Stream_TypeDef   *)hdma->Instance)->FCR;
 483              		.loc 1 317 50
 484 02c4 7B68     		ldr	r3, [r7, #4]
 485 02c6 1B68     		ldr	r3, [r3]
 486              		.loc 1 317 19
 487 02c8 5B69     		ldr	r3, [r3, #20]
 488 02ca 7B61     		str	r3, [r7, #20]
 318:Drivers/STM32H7xx_HAL_Driver/Src/stm32h7xx_hal_dma.c **** 
 319:Drivers/STM32H7xx_HAL_Driver/Src/stm32h7xx_hal_dma.c ****     /* Clear Direct mode and FIFO threshold bits */
 320:Drivers/STM32H7xx_HAL_Driver/Src/stm32h7xx_hal_dma.c ****     registerValue &= (uint32_t)~(DMA_SxFCR_DMDIS | DMA_SxFCR_FTH);
 489              		.loc 1 320 19
 490 02cc 7B69     		ldr	r3, [r7, #20]
 491 02ce 23F00703 		bic	r3, r3, #7
 492 02d2 7B61     		str	r3, [r7, #20]
 321:Drivers/STM32H7xx_HAL_Driver/Src/stm32h7xx_hal_dma.c **** 
 322:Drivers/STM32H7xx_HAL_Driver/Src/stm32h7xx_hal_dma.c ****     /* Prepare the DMA Stream FIFO configuration */
 323:Drivers/STM32H7xx_HAL_Driver/Src/stm32h7xx_hal_dma.c ****     registerValue |= hdma->Init.FIFOMode;
 493              		.loc 1 323 32
 494 02d4 7B68     		ldr	r3, [r7, #4]
 495 02d6 5B6A     		ldr	r3, [r3, #36]
 496              		.loc 1 323 19
 497 02d8 7A69     		ldr	r2, [r7, #20]
 498 02da 1343     		orrs	r3, r3, r2
 499 02dc 7B61     		str	r3, [r7, #20]
 324:Drivers/STM32H7xx_HAL_Driver/Src/stm32h7xx_hal_dma.c **** 
 325:Drivers/STM32H7xx_HAL_Driver/Src/stm32h7xx_hal_dma.c ****     /* the FIFO threshold is not used when the FIFO mode is disabled */
 326:Drivers/STM32H7xx_HAL_Driver/Src/stm32h7xx_hal_dma.c ****     if(hdma->Init.FIFOMode == DMA_FIFOMODE_ENABLE)
 500              		.loc 1 326 18
 501 02de 7B68     		ldr	r3, [r7, #4]
 502 02e0 5B6A     		ldr	r3, [r3, #36]
 503              		.loc 1 326 7
 504 02e2 042B     		cmp	r3, #4
 505 02e4 17D1     		bne	.L21
 327:Drivers/STM32H7xx_HAL_Driver/Src/stm32h7xx_hal_dma.c ****     {
 328:Drivers/STM32H7xx_HAL_Driver/Src/stm32h7xx_hal_dma.c ****       /* Get the FIFO threshold */
 329:Drivers/STM32H7xx_HAL_Driver/Src/stm32h7xx_hal_dma.c ****       registerValue |= hdma->Init.FIFOThreshold;
 506              		.loc 1 329 34
 507 02e6 7B68     		ldr	r3, [r7, #4]
 508 02e8 9B6A     		ldr	r3, [r3, #40]
 509              		.loc 1 329 21
 510 02ea 7A69     		ldr	r2, [r7, #20]
 511 02ec 1343     		orrs	r3, r3, r2
 512 02ee 7B61     		str	r3, [r7, #20]
 330:Drivers/STM32H7xx_HAL_Driver/Src/stm32h7xx_hal_dma.c **** 
 331:Drivers/STM32H7xx_HAL_Driver/Src/stm32h7xx_hal_dma.c ****       /* Check compatibility between FIFO threshold level and size of the memory burst */
 332:Drivers/STM32H7xx_HAL_Driver/Src/stm32h7xx_hal_dma.c ****       /* for INCR4, INCR8, INCR16 */
 333:Drivers/STM32H7xx_HAL_Driver/Src/stm32h7xx_hal_dma.c ****       if(hdma->Init.MemBurst != DMA_MBURST_SINGLE)
 513              		.loc 1 333 20
 514 02f0 7B68     		ldr	r3, [r7, #4]
 515 02f2 DB6A     		ldr	r3, [r3, #44]
ARM GAS  /var/folders/g1/j12m_ky910s3_sv7d4yrsdn00000gn/T//ccliMUVd.s 			page 16


 516              		.loc 1 333 9
 517 02f4 002B     		cmp	r3, #0
 518 02f6 0ED0     		beq	.L21
 334:Drivers/STM32H7xx_HAL_Driver/Src/stm32h7xx_hal_dma.c ****       {
 335:Drivers/STM32H7xx_HAL_Driver/Src/stm32h7xx_hal_dma.c ****         if (DMA_CheckFifoParam(hdma) != HAL_OK)
 519              		.loc 1 335 13
 520 02f8 7868     		ldr	r0, [r7, #4]
 521 02fa FFF7FEFF 		bl	DMA_CheckFifoParam
 522 02fe 0346     		mov	r3, r0
 523              		.loc 1 335 12 discriminator 1
 524 0300 002B     		cmp	r3, #0
 525 0302 08D0     		beq	.L21
 336:Drivers/STM32H7xx_HAL_Driver/Src/stm32h7xx_hal_dma.c ****         {
 337:Drivers/STM32H7xx_HAL_Driver/Src/stm32h7xx_hal_dma.c ****           /* Update error code */
 338:Drivers/STM32H7xx_HAL_Driver/Src/stm32h7xx_hal_dma.c ****           hdma->ErrorCode = HAL_DMA_ERROR_PARAM;
 526              		.loc 1 338 27
 527 0304 7B68     		ldr	r3, [r7, #4]
 528 0306 4022     		movs	r2, #64
 529 0308 5A65     		str	r2, [r3, #84]
 339:Drivers/STM32H7xx_HAL_Driver/Src/stm32h7xx_hal_dma.c **** 
 340:Drivers/STM32H7xx_HAL_Driver/Src/stm32h7xx_hal_dma.c ****           /* Change the DMA state */
 341:Drivers/STM32H7xx_HAL_Driver/Src/stm32h7xx_hal_dma.c ****           hdma->State = HAL_DMA_STATE_READY;
 530              		.loc 1 341 23
 531 030a 7B68     		ldr	r3, [r7, #4]
 532 030c 0122     		movs	r2, #1
 533 030e 83F83520 		strb	r2, [r3, #53]
 342:Drivers/STM32H7xx_HAL_Driver/Src/stm32h7xx_hal_dma.c **** 
 343:Drivers/STM32H7xx_HAL_Driver/Src/stm32h7xx_hal_dma.c ****           return HAL_ERROR;
 534              		.loc 1 343 18
 535 0312 0123     		movs	r3, #1
 536 0314 97E1     		b	.L3
 537              	.L21:
 344:Drivers/STM32H7xx_HAL_Driver/Src/stm32h7xx_hal_dma.c ****         }
 345:Drivers/STM32H7xx_HAL_Driver/Src/stm32h7xx_hal_dma.c ****       }
 346:Drivers/STM32H7xx_HAL_Driver/Src/stm32h7xx_hal_dma.c ****     }
 347:Drivers/STM32H7xx_HAL_Driver/Src/stm32h7xx_hal_dma.c **** 
 348:Drivers/STM32H7xx_HAL_Driver/Src/stm32h7xx_hal_dma.c ****     /* Write to DMA Stream FCR */
 349:Drivers/STM32H7xx_HAL_Driver/Src/stm32h7xx_hal_dma.c ****     ((DMA_Stream_TypeDef   *)hdma->Instance)->FCR = registerValue;
 538              		.loc 1 349 34
 539 0316 7B68     		ldr	r3, [r7, #4]
 540 0318 1B68     		ldr	r3, [r3]
 541              		.loc 1 349 51
 542 031a 7A69     		ldr	r2, [r7, #20]
 543 031c 5A61     		str	r2, [r3, #20]
 350:Drivers/STM32H7xx_HAL_Driver/Src/stm32h7xx_hal_dma.c **** 
 351:Drivers/STM32H7xx_HAL_Driver/Src/stm32h7xx_hal_dma.c ****     /* Initialize StreamBaseAddress and StreamIndex parameters to be used to calculate
 352:Drivers/STM32H7xx_HAL_Driver/Src/stm32h7xx_hal_dma.c ****        DMA steam Base Address needed by HAL_DMA_IRQHandler() and HAL_DMA_PollForTransfer() */
 353:Drivers/STM32H7xx_HAL_Driver/Src/stm32h7xx_hal_dma.c ****     regs_dma = (DMA_Base_Registers *)DMA_CalcBaseAndBitshift(hdma);
 544              		.loc 1 353 38
 545 031e 7868     		ldr	r0, [r7, #4]
 546 0320 FFF7FEFF 		bl	DMA_CalcBaseAndBitshift
 547 0324 0346     		mov	r3, r0
 548              		.loc 1 353 14 discriminator 1
 549 0326 BB60     		str	r3, [r7, #8]
 354:Drivers/STM32H7xx_HAL_Driver/Src/stm32h7xx_hal_dma.c **** 
 355:Drivers/STM32H7xx_HAL_Driver/Src/stm32h7xx_hal_dma.c ****     /* Clear all interrupt flags */
 356:Drivers/STM32H7xx_HAL_Driver/Src/stm32h7xx_hal_dma.c ****     regs_dma->IFCR = 0x3FUL << (hdma->StreamIndex & 0x1FU);
ARM GAS  /var/folders/g1/j12m_ky910s3_sv7d4yrsdn00000gn/T//ccliMUVd.s 			page 17


 550              		.loc 1 356 37
 551 0328 7B68     		ldr	r3, [r7, #4]
 552 032a DB6D     		ldr	r3, [r3, #92]
 553              		.loc 1 356 51
 554 032c 03F01F03 		and	r3, r3, #31
 555              		.loc 1 356 29
 556 0330 3F22     		movs	r2, #63
 557 0332 9A40     		lsls	r2, r2, r3
 558              		.loc 1 356 20
 559 0334 BB68     		ldr	r3, [r7, #8]
 560 0336 9A60     		str	r2, [r3, #8]
 561 0338 CDE0     		b	.L22
 562              	.L7:
 357:Drivers/STM32H7xx_HAL_Driver/Src/stm32h7xx_hal_dma.c ****   }
 358:Drivers/STM32H7xx_HAL_Driver/Src/stm32h7xx_hal_dma.c ****   else if(IS_BDMA_CHANNEL_INSTANCE(hdma->Instance) != 0U) /* BDMA instance(s) */
 563              		.loc 1 358 11
 564 033a 7B68     		ldr	r3, [r7, #4]
 565 033c 1B68     		ldr	r3, [r3]
 566 033e 3B4A     		ldr	r2, .L43+12
 567 0340 9342     		cmp	r3, r2
 568 0342 22D0     		beq	.L23
 569              		.loc 1 358 11 is_stmt 0 discriminator 2
 570 0344 7B68     		ldr	r3, [r7, #4]
 571 0346 1B68     		ldr	r3, [r3]
 572 0348 394A     		ldr	r2, .L43+16
 573 034a 9342     		cmp	r3, r2
 574 034c 1DD0     		beq	.L23
 575              		.loc 1 358 11 discriminator 4
 576 034e 7B68     		ldr	r3, [r7, #4]
 577 0350 1B68     		ldr	r3, [r3]
 578 0352 384A     		ldr	r2, .L43+20
 579 0354 9342     		cmp	r3, r2
 580 0356 18D0     		beq	.L23
 581              		.loc 1 358 11 discriminator 6
 582 0358 7B68     		ldr	r3, [r7, #4]
 583 035a 1B68     		ldr	r3, [r3]
 584 035c 364A     		ldr	r2, .L43+24
 585 035e 9342     		cmp	r3, r2
 586 0360 13D0     		beq	.L23
 587              		.loc 1 358 11 discriminator 8
 588 0362 7B68     		ldr	r3, [r7, #4]
 589 0364 1B68     		ldr	r3, [r3]
 590 0366 354A     		ldr	r2, .L43+28
 591 0368 9342     		cmp	r3, r2
 592 036a 0ED0     		beq	.L23
 593              		.loc 1 358 11 discriminator 10
 594 036c 7B68     		ldr	r3, [r7, #4]
 595 036e 1B68     		ldr	r3, [r3]
 596 0370 334A     		ldr	r2, .L43+32
 597 0372 9342     		cmp	r3, r2
 598 0374 09D0     		beq	.L23
 599              		.loc 1 358 11 discriminator 12
 600 0376 7B68     		ldr	r3, [r7, #4]
 601 0378 1B68     		ldr	r3, [r3]
 602 037a 324A     		ldr	r2, .L43+36
 603 037c 9342     		cmp	r3, r2
 604 037e 04D0     		beq	.L23
ARM GAS  /var/folders/g1/j12m_ky910s3_sv7d4yrsdn00000gn/T//ccliMUVd.s 			page 18


 605              		.loc 1 358 11 discriminator 14
 606 0380 7B68     		ldr	r3, [r7, #4]
 607 0382 1B68     		ldr	r3, [r3]
 608 0384 304A     		ldr	r2, .L43+40
 609 0386 9342     		cmp	r3, r2
 610 0388 01D1     		bne	.L24
 611              	.L23:
 612              		.loc 1 358 11 discriminator 15
 613 038a 0123     		movs	r3, #1
 614              		.loc 1 358 11
 615 038c 00E0     		b	.L25
 616              	.L24:
 617              		.loc 1 358 11 discriminator 16
 618 038e 0023     		movs	r3, #0
 619              	.L25:
 620              		.loc 1 358 10 is_stmt 1 discriminator 18
 621 0390 002B     		cmp	r3, #0
 622 0392 00F09780 		beq	.L26
 359:Drivers/STM32H7xx_HAL_Driver/Src/stm32h7xx_hal_dma.c ****   {
 360:Drivers/STM32H7xx_HAL_Driver/Src/stm32h7xx_hal_dma.c ****     if(IS_BDMA_CHANNEL_DMAMUX_INSTANCE(hdma->Instance) != 0U)
 623              		.loc 1 360 8
 624 0396 7B68     		ldr	r3, [r7, #4]
 625 0398 1B68     		ldr	r3, [r3]
 626 039a 244A     		ldr	r2, .L43+12
 627 039c 9342     		cmp	r3, r2
 628 039e 21D0     		beq	.L40
 629              		.loc 1 360 8 is_stmt 0 discriminator 2
 630 03a0 7B68     		ldr	r3, [r7, #4]
 631 03a2 1B68     		ldr	r3, [r3]
 632 03a4 224A     		ldr	r2, .L43+16
 633 03a6 9342     		cmp	r3, r2
 634 03a8 1CD0     		beq	.L40
 635              		.loc 1 360 8 discriminator 4
 636 03aa 7B68     		ldr	r3, [r7, #4]
 637 03ac 1B68     		ldr	r3, [r3]
 638 03ae 214A     		ldr	r2, .L43+20
 639 03b0 9342     		cmp	r3, r2
 640 03b2 17D0     		beq	.L40
 641              		.loc 1 360 8 discriminator 6
 642 03b4 7B68     		ldr	r3, [r7, #4]
 643 03b6 1B68     		ldr	r3, [r3]
 644 03b8 1F4A     		ldr	r2, .L43+24
 645 03ba 9342     		cmp	r3, r2
 646 03bc 12D0     		beq	.L40
 647              		.loc 1 360 8 discriminator 8
 648 03be 7B68     		ldr	r3, [r7, #4]
 649 03c0 1B68     		ldr	r3, [r3]
 650 03c2 1E4A     		ldr	r2, .L43+28
 651 03c4 9342     		cmp	r3, r2
 652 03c6 0DD0     		beq	.L40
 653              		.loc 1 360 8 discriminator 10
 654 03c8 7B68     		ldr	r3, [r7, #4]
 655 03ca 1B68     		ldr	r3, [r3]
 656 03cc 1C4A     		ldr	r2, .L43+32
 657 03ce 9342     		cmp	r3, r2
 658 03d0 08D0     		beq	.L40
 659              		.loc 1 360 8 discriminator 12
ARM GAS  /var/folders/g1/j12m_ky910s3_sv7d4yrsdn00000gn/T//ccliMUVd.s 			page 19


 660 03d2 7B68     		ldr	r3, [r7, #4]
 661 03d4 1B68     		ldr	r3, [r3]
 662 03d6 1B4A     		ldr	r2, .L43+36
 663 03d8 9342     		cmp	r3, r2
 664 03da 03D0     		beq	.L40
 665              		.loc 1 360 8 discriminator 14
 666 03dc 7B68     		ldr	r3, [r7, #4]
 667 03de 1B68     		ldr	r3, [r3]
 668 03e0 194A     		ldr	r2, .L43+40
 669 03e2 9342     		cmp	r3, r2
 670              	.L40:
 361:Drivers/STM32H7xx_HAL_Driver/Src/stm32h7xx_hal_dma.c ****     {
 362:Drivers/STM32H7xx_HAL_Driver/Src/stm32h7xx_hal_dma.c ****       /* Check the request parameter */
 363:Drivers/STM32H7xx_HAL_Driver/Src/stm32h7xx_hal_dma.c ****       assert_param(IS_BDMA_REQUEST(hdma->Init.Request));
 364:Drivers/STM32H7xx_HAL_Driver/Src/stm32h7xx_hal_dma.c ****     }
 365:Drivers/STM32H7xx_HAL_Driver/Src/stm32h7xx_hal_dma.c **** 
 366:Drivers/STM32H7xx_HAL_Driver/Src/stm32h7xx_hal_dma.c ****     /* Change DMA peripheral state */
 367:Drivers/STM32H7xx_HAL_Driver/Src/stm32h7xx_hal_dma.c ****     hdma->State = HAL_DMA_STATE_BUSY;
 671              		.loc 1 367 17 is_stmt 1
 672 03e4 7B68     		ldr	r3, [r7, #4]
 673 03e6 0222     		movs	r2, #2
 674 03e8 83F83520 		strb	r2, [r3, #53]
 368:Drivers/STM32H7xx_HAL_Driver/Src/stm32h7xx_hal_dma.c **** 
 369:Drivers/STM32H7xx_HAL_Driver/Src/stm32h7xx_hal_dma.c ****     /* Allocate lock resource */
 370:Drivers/STM32H7xx_HAL_Driver/Src/stm32h7xx_hal_dma.c ****     __HAL_UNLOCK(hdma);
 675              		.loc 1 370 5
 676 03ec 7B68     		ldr	r3, [r7, #4]
 677 03ee 0022     		movs	r2, #0
 678 03f0 83F83420 		strb	r2, [r3, #52]
 371:Drivers/STM32H7xx_HAL_Driver/Src/stm32h7xx_hal_dma.c **** 
 372:Drivers/STM32H7xx_HAL_Driver/Src/stm32h7xx_hal_dma.c ****     /* Get the CR register value */
 373:Drivers/STM32H7xx_HAL_Driver/Src/stm32h7xx_hal_dma.c ****     registerValue = ((BDMA_Channel_TypeDef *)hdma->Instance)->CCR;
 679              		.loc 1 373 50
 680 03f4 7B68     		ldr	r3, [r7, #4]
 681 03f6 1B68     		ldr	r3, [r3]
 682              		.loc 1 373 19
 683 03f8 1B68     		ldr	r3, [r3]
 684 03fa 7B61     		str	r3, [r7, #20]
 374:Drivers/STM32H7xx_HAL_Driver/Src/stm32h7xx_hal_dma.c **** 
 375:Drivers/STM32H7xx_HAL_Driver/Src/stm32h7xx_hal_dma.c ****     /* Clear PL, MSIZE, PSIZE, MINC, PINC, CIRC, DIR, MEM2MEM, DBM and CT bits */
 376:Drivers/STM32H7xx_HAL_Driver/Src/stm32h7xx_hal_dma.c ****     registerValue &= ((uint32_t)~(BDMA_CCR_PL    | BDMA_CCR_MSIZE   | BDMA_CCR_PSIZE  | \
 685              		.loc 1 376 19
 686 03fc 7A69     		ldr	r2, [r7, #20]
 687 03fe 134B     		ldr	r3, .L43+44
 688 0400 1340     		ands	r3, r3, r2
 689 0402 7B61     		str	r3, [r7, #20]
 377:Drivers/STM32H7xx_HAL_Driver/Src/stm32h7xx_hal_dma.c ****                                   BDMA_CCR_MINC  | BDMA_CCR_PINC    | BDMA_CCR_CIRC   | \
 378:Drivers/STM32H7xx_HAL_Driver/Src/stm32h7xx_hal_dma.c ****                                   BDMA_CCR_DIR   | BDMA_CCR_MEM2MEM | BDMA_CCR_DBM    | \
 379:Drivers/STM32H7xx_HAL_Driver/Src/stm32h7xx_hal_dma.c ****                                   BDMA_CCR_CT));
 380:Drivers/STM32H7xx_HAL_Driver/Src/stm32h7xx_hal_dma.c **** 
 381:Drivers/STM32H7xx_HAL_Driver/Src/stm32h7xx_hal_dma.c ****     /* Prepare the DMA Channel configuration */
 382:Drivers/STM32H7xx_HAL_Driver/Src/stm32h7xx_hal_dma.c ****     registerValue |=  DMA_TO_BDMA_DIRECTION(hdma->Init.Direction)            |
 690              		.loc 1 382 23
 691 0404 7B68     		ldr	r3, [r7, #4]
 692 0406 9B68     		ldr	r3, [r3, #8]
 693 0408 402B     		cmp	r3, #64
 694 040a 21D0     		beq	.L30
ARM GAS  /var/folders/g1/j12m_ky910s3_sv7d4yrsdn00000gn/T//ccliMUVd.s 			page 20


 695              		.loc 1 382 23 is_stmt 0 discriminator 1
 696 040c 7B68     		ldr	r3, [r7, #4]
 697 040e 9B68     		ldr	r3, [r3, #8]
 698 0410 802B     		cmp	r3, #128
 699 0412 02D1     		bne	.L31
 700              		.loc 1 382 23 discriminator 3
 701 0414 4FF48043 		mov	r3, #16384
 702 0418 1BE0     		b	.L33
 703              	.L31:
 704              		.loc 1 382 23 discriminator 4
 705 041a 0023     		movs	r3, #0
 706 041c 19E0     		b	.L33
 707              	.L44:
 708 041e 00BF     		.align	2
 709              	.L43:
 710 0420 3F8010FE 		.word	-32473025
 711 0424 0010005C 		.word	1543507968
 712 0428 0000FFFF 		.word	-65536
 713 042c 08540258 		.word	1476547592
 714 0430 1C540258 		.word	1476547612
 715 0434 30540258 		.word	1476547632
 716 0438 44540258 		.word	1476547652
 717 043c 58540258 		.word	1476547672
 718 0440 6C540258 		.word	1476547692
 719 0444 80540258 		.word	1476547712
 720 0448 94540258 		.word	1476547732
 721 044c 0F00FEFF 		.word	-131057
 722              	.L30:
 723              		.loc 1 382 23 discriminator 2
 724 0450 1023     		movs	r3, #16
 725              	.L33:
 383:Drivers/STM32H7xx_HAL_Driver/Src/stm32h7xx_hal_dma.c ****                       DMA_TO_BDMA_PERIPHERAL_INC(hdma->Init.PeriphInc)       |
 726              		.loc 1 383 23 is_stmt 1
 727 0452 7A68     		ldr	r2, [r7, #4]
 728 0454 D268     		ldr	r2, [r2, #12]
 729 0456 D208     		lsrs	r2, r2, #3
 382:Drivers/STM32H7xx_HAL_Driver/Src/stm32h7xx_hal_dma.c ****                       DMA_TO_BDMA_PERIPHERAL_INC(hdma->Init.PeriphInc)       |
 730              		.loc 1 382 78
 731 0458 1A43     		orrs	r2, r2, r3
 384:Drivers/STM32H7xx_HAL_Driver/Src/stm32h7xx_hal_dma.c ****                       DMA_TO_BDMA_MEMORY_INC(hdma->Init.MemInc)              |
 732              		.loc 1 384 23
 733 045a 7B68     		ldr	r3, [r7, #4]
 734 045c 1B69     		ldr	r3, [r3, #16]
 735 045e DB08     		lsrs	r3, r3, #3
 383:Drivers/STM32H7xx_HAL_Driver/Src/stm32h7xx_hal_dma.c ****                       DMA_TO_BDMA_PERIPHERAL_INC(hdma->Init.PeriphInc)       |
 736              		.loc 1 383 78
 737 0460 1A43     		orrs	r2, r2, r3
 385:Drivers/STM32H7xx_HAL_Driver/Src/stm32h7xx_hal_dma.c ****                       DMA_TO_BDMA_PDATA_SIZE(hdma->Init.PeriphDataAlignment) |
 738              		.loc 1 385 23
 739 0462 7B68     		ldr	r3, [r7, #4]
 740 0464 5B69     		ldr	r3, [r3, #20]
 741 0466 DB08     		lsrs	r3, r3, #3
 384:Drivers/STM32H7xx_HAL_Driver/Src/stm32h7xx_hal_dma.c ****                       DMA_TO_BDMA_MEMORY_INC(hdma->Init.MemInc)              |
 742              		.loc 1 384 78
 743 0468 1A43     		orrs	r2, r2, r3
 386:Drivers/STM32H7xx_HAL_Driver/Src/stm32h7xx_hal_dma.c ****                       DMA_TO_BDMA_MDATA_SIZE(hdma->Init.MemDataAlignment)    |
 744              		.loc 1 386 23
ARM GAS  /var/folders/g1/j12m_ky910s3_sv7d4yrsdn00000gn/T//ccliMUVd.s 			page 21


 745 046a 7B68     		ldr	r3, [r7, #4]
 746 046c 9B69     		ldr	r3, [r3, #24]
 747 046e DB08     		lsrs	r3, r3, #3
 385:Drivers/STM32H7xx_HAL_Driver/Src/stm32h7xx_hal_dma.c ****                       DMA_TO_BDMA_PDATA_SIZE(hdma->Init.PeriphDataAlignment) |
 748              		.loc 1 385 78
 749 0470 1A43     		orrs	r2, r2, r3
 387:Drivers/STM32H7xx_HAL_Driver/Src/stm32h7xx_hal_dma.c ****                       DMA_TO_BDMA_MODE(hdma->Init.Mode)                      |
 750              		.loc 1 387 23
 751 0472 7B68     		ldr	r3, [r7, #4]
 752 0474 DB69     		ldr	r3, [r3, #28]
 753 0476 DB08     		lsrs	r3, r3, #3
 386:Drivers/STM32H7xx_HAL_Driver/Src/stm32h7xx_hal_dma.c ****                       DMA_TO_BDMA_MDATA_SIZE(hdma->Init.MemDataAlignment)    |
 754              		.loc 1 386 78
 755 0478 1A43     		orrs	r2, r2, r3
 388:Drivers/STM32H7xx_HAL_Driver/Src/stm32h7xx_hal_dma.c ****                       DMA_TO_BDMA_PRIORITY(hdma->Init.Priority);
 756              		.loc 1 388 23
 757 047a 7B68     		ldr	r3, [r7, #4]
 758 047c 1B6A     		ldr	r3, [r3, #32]
 759 047e 1B09     		lsrs	r3, r3, #4
 387:Drivers/STM32H7xx_HAL_Driver/Src/stm32h7xx_hal_dma.c ****                       DMA_TO_BDMA_MODE(hdma->Init.Mode)                      |
 760              		.loc 1 387 78
 761 0480 1343     		orrs	r3, r3, r2
 382:Drivers/STM32H7xx_HAL_Driver/Src/stm32h7xx_hal_dma.c ****                       DMA_TO_BDMA_PERIPHERAL_INC(hdma->Init.PeriphInc)       |
 762              		.loc 1 382 19
 763 0482 7A69     		ldr	r2, [r7, #20]
 764 0484 1343     		orrs	r3, r3, r2
 765 0486 7B61     		str	r3, [r7, #20]
 389:Drivers/STM32H7xx_HAL_Driver/Src/stm32h7xx_hal_dma.c **** 
 390:Drivers/STM32H7xx_HAL_Driver/Src/stm32h7xx_hal_dma.c ****     /* Write to DMA Channel CR register */
 391:Drivers/STM32H7xx_HAL_Driver/Src/stm32h7xx_hal_dma.c ****     ((BDMA_Channel_TypeDef *)hdma->Instance)->CCR = registerValue;
 766              		.loc 1 391 34
 767 0488 7B68     		ldr	r3, [r7, #4]
 768 048a 1B68     		ldr	r3, [r3]
 769              		.loc 1 391 51
 770 048c 7A69     		ldr	r2, [r7, #20]
 771 048e 1A60     		str	r2, [r3]
 392:Drivers/STM32H7xx_HAL_Driver/Src/stm32h7xx_hal_dma.c **** 
 393:Drivers/STM32H7xx_HAL_Driver/Src/stm32h7xx_hal_dma.c ****     /* calculation of the channel index */
 394:Drivers/STM32H7xx_HAL_Driver/Src/stm32h7xx_hal_dma.c ****     hdma->StreamIndex = (((uint32_t)((uint32_t*)hdma->Instance) - (uint32_t)BDMA_Channel0) / ((uint
 772              		.loc 1 394 53
 773 0490 7B68     		ldr	r3, [r7, #4]
 774 0492 1B68     		ldr	r3, [r3]
 775              		.loc 1 394 27
 776 0494 1A46     		mov	r2, r3
 777              		.loc 1 394 65
 778 0496 6E4B     		ldr	r3, .L45
 779 0498 1344     		add	r3, r3, r2
 780              		.loc 1 394 92
 781 049a 6E4A     		ldr	r2, .L45+4
 782 049c A2FB0323 		umull	r2, r3, r2, r3
 783 04a0 1B09     		lsrs	r3, r3, #4
 784              		.loc 1 394 147
 785 04a2 9A00     		lsls	r2, r3, #2
 786              		.loc 1 394 23
 787 04a4 7B68     		ldr	r3, [r7, #4]
 788 04a6 DA65     		str	r2, [r3, #92]
 395:Drivers/STM32H7xx_HAL_Driver/Src/stm32h7xx_hal_dma.c **** 
ARM GAS  /var/folders/g1/j12m_ky910s3_sv7d4yrsdn00000gn/T//ccliMUVd.s 			page 22


 396:Drivers/STM32H7xx_HAL_Driver/Src/stm32h7xx_hal_dma.c ****     /* Initialize StreamBaseAddress and StreamIndex parameters to be used to calculate
 397:Drivers/STM32H7xx_HAL_Driver/Src/stm32h7xx_hal_dma.c ****     DMA steam Base Address needed by HAL_DMA_IRQHandler() and HAL_DMA_PollForTransfer() */
 398:Drivers/STM32H7xx_HAL_Driver/Src/stm32h7xx_hal_dma.c ****     regs_bdma = (BDMA_Base_Registers *)DMA_CalcBaseAndBitshift(hdma);
 789              		.loc 1 398 40
 790 04a8 7868     		ldr	r0, [r7, #4]
 791 04aa FFF7FEFF 		bl	DMA_CalcBaseAndBitshift
 792 04ae 0346     		mov	r3, r0
 793              		.loc 1 398 15 discriminator 1
 794 04b0 FB60     		str	r3, [r7, #12]
 399:Drivers/STM32H7xx_HAL_Driver/Src/stm32h7xx_hal_dma.c **** 
 400:Drivers/STM32H7xx_HAL_Driver/Src/stm32h7xx_hal_dma.c ****     /* Clear all interrupt flags */
 401:Drivers/STM32H7xx_HAL_Driver/Src/stm32h7xx_hal_dma.c ****     regs_bdma->IFCR = ((BDMA_IFCR_CGIF0) << (hdma->StreamIndex & 0x1FU));
 795              		.loc 1 401 50
 796 04b2 7B68     		ldr	r3, [r7, #4]
 797 04b4 DB6D     		ldr	r3, [r3, #92]
 798              		.loc 1 401 64
 799 04b6 03F01F03 		and	r3, r3, #31
 800              		.loc 1 401 42
 801 04ba 0122     		movs	r2, #1
 802 04bc 9A40     		lsls	r2, r2, r3
 803              		.loc 1 401 21
 804 04be FB68     		ldr	r3, [r7, #12]
 805 04c0 5A60     		str	r2, [r3, #4]
 806 04c2 08E0     		b	.L22
 807              	.L26:
 402:Drivers/STM32H7xx_HAL_Driver/Src/stm32h7xx_hal_dma.c ****   }
 403:Drivers/STM32H7xx_HAL_Driver/Src/stm32h7xx_hal_dma.c ****   else
 404:Drivers/STM32H7xx_HAL_Driver/Src/stm32h7xx_hal_dma.c ****   {
 405:Drivers/STM32H7xx_HAL_Driver/Src/stm32h7xx_hal_dma.c ****     hdma->ErrorCode = HAL_DMA_ERROR_PARAM;
 808              		.loc 1 405 21
 809 04c4 7B68     		ldr	r3, [r7, #4]
 810 04c6 4022     		movs	r2, #64
 811 04c8 5A65     		str	r2, [r3, #84]
 406:Drivers/STM32H7xx_HAL_Driver/Src/stm32h7xx_hal_dma.c ****     hdma->State     = HAL_DMA_STATE_ERROR;
 812              		.loc 1 406 21
 813 04ca 7B68     		ldr	r3, [r7, #4]
 814 04cc 0322     		movs	r2, #3
 815 04ce 83F83520 		strb	r2, [r3, #53]
 407:Drivers/STM32H7xx_HAL_Driver/Src/stm32h7xx_hal_dma.c **** 
 408:Drivers/STM32H7xx_HAL_Driver/Src/stm32h7xx_hal_dma.c ****     return HAL_ERROR;
 816              		.loc 1 408 12
 817 04d2 0123     		movs	r3, #1
 818 04d4 B7E0     		b	.L3
 819              	.L22:
 409:Drivers/STM32H7xx_HAL_Driver/Src/stm32h7xx_hal_dma.c ****   }
 410:Drivers/STM32H7xx_HAL_Driver/Src/stm32h7xx_hal_dma.c **** 
 411:Drivers/STM32H7xx_HAL_Driver/Src/stm32h7xx_hal_dma.c ****   if(IS_DMA_DMAMUX_ALL_INSTANCE(hdma->Instance) != 0U) /* No DMAMUX available for BDMA1 */
 820              		.loc 1 411 6
 821 04d6 7B68     		ldr	r3, [r7, #4]
 822 04d8 1B68     		ldr	r3, [r3]
 823 04da 5F4A     		ldr	r2, .L45+8
 824 04dc 9342     		cmp	r3, r2
 825 04de 72D0     		beq	.L34
 826              		.loc 1 411 6 is_stmt 0 discriminator 2
 827 04e0 7B68     		ldr	r3, [r7, #4]
 828 04e2 1B68     		ldr	r3, [r3]
 829 04e4 5D4A     		ldr	r2, .L45+12
ARM GAS  /var/folders/g1/j12m_ky910s3_sv7d4yrsdn00000gn/T//ccliMUVd.s 			page 23


 830 04e6 9342     		cmp	r3, r2
 831 04e8 6DD0     		beq	.L34
 832              		.loc 1 411 6 discriminator 4
 833 04ea 7B68     		ldr	r3, [r7, #4]
 834 04ec 1B68     		ldr	r3, [r3]
 835 04ee 5C4A     		ldr	r2, .L45+16
 836 04f0 9342     		cmp	r3, r2
 837 04f2 68D0     		beq	.L34
 838              		.loc 1 411 6 discriminator 6
 839 04f4 7B68     		ldr	r3, [r7, #4]
 840 04f6 1B68     		ldr	r3, [r3]
 841 04f8 5A4A     		ldr	r2, .L45+20
 842 04fa 9342     		cmp	r3, r2
 843 04fc 63D0     		beq	.L34
 844              		.loc 1 411 6 discriminator 8
 845 04fe 7B68     		ldr	r3, [r7, #4]
 846 0500 1B68     		ldr	r3, [r3]
 847 0502 594A     		ldr	r2, .L45+24
 848 0504 9342     		cmp	r3, r2
 849 0506 5ED0     		beq	.L34
 850              		.loc 1 411 6 discriminator 10
 851 0508 7B68     		ldr	r3, [r7, #4]
 852 050a 1B68     		ldr	r3, [r3]
 853 050c 574A     		ldr	r2, .L45+28
 854 050e 9342     		cmp	r3, r2
 855 0510 59D0     		beq	.L34
 856              		.loc 1 411 6 discriminator 12
 857 0512 7B68     		ldr	r3, [r7, #4]
 858 0514 1B68     		ldr	r3, [r3]
 859 0516 564A     		ldr	r2, .L45+32
 860 0518 9342     		cmp	r3, r2
 861 051a 54D0     		beq	.L34
 862              		.loc 1 411 6 discriminator 14
 863 051c 7B68     		ldr	r3, [r7, #4]
 864 051e 1B68     		ldr	r3, [r3]
 865 0520 544A     		ldr	r2, .L45+36
 866 0522 9342     		cmp	r3, r2
 867 0524 4FD0     		beq	.L34
 868              		.loc 1 411 6 discriminator 16
 869 0526 7B68     		ldr	r3, [r7, #4]
 870 0528 1B68     		ldr	r3, [r3]
 871 052a 534A     		ldr	r2, .L45+40
 872 052c 9342     		cmp	r3, r2
 873 052e 4AD0     		beq	.L34
 874              		.loc 1 411 6 discriminator 18
 875 0530 7B68     		ldr	r3, [r7, #4]
 876 0532 1B68     		ldr	r3, [r3]
 877 0534 514A     		ldr	r2, .L45+44
 878 0536 9342     		cmp	r3, r2
 879 0538 45D0     		beq	.L34
 880              		.loc 1 411 6 discriminator 20
 881 053a 7B68     		ldr	r3, [r7, #4]
 882 053c 1B68     		ldr	r3, [r3]
 883 053e 504A     		ldr	r2, .L45+48
 884 0540 9342     		cmp	r3, r2
 885 0542 40D0     		beq	.L34
 886              		.loc 1 411 6 discriminator 22
ARM GAS  /var/folders/g1/j12m_ky910s3_sv7d4yrsdn00000gn/T//ccliMUVd.s 			page 24


 887 0544 7B68     		ldr	r3, [r7, #4]
 888 0546 1B68     		ldr	r3, [r3]
 889 0548 4E4A     		ldr	r2, .L45+52
 890 054a 9342     		cmp	r3, r2
 891 054c 3BD0     		beq	.L34
 892              		.loc 1 411 6 discriminator 24
 893 054e 7B68     		ldr	r3, [r7, #4]
 894 0550 1B68     		ldr	r3, [r3]
 895 0552 4D4A     		ldr	r2, .L45+56
 896 0554 9342     		cmp	r3, r2
 897 0556 36D0     		beq	.L34
 898              		.loc 1 411 6 discriminator 26
 899 0558 7B68     		ldr	r3, [r7, #4]
 900 055a 1B68     		ldr	r3, [r3]
 901 055c 4B4A     		ldr	r2, .L45+60
 902 055e 9342     		cmp	r3, r2
 903 0560 31D0     		beq	.L34
 904              		.loc 1 411 6 discriminator 28
 905 0562 7B68     		ldr	r3, [r7, #4]
 906 0564 1B68     		ldr	r3, [r3]
 907 0566 4A4A     		ldr	r2, .L45+64
 908 0568 9342     		cmp	r3, r2
 909 056a 2CD0     		beq	.L34
 910              		.loc 1 411 6 discriminator 30
 911 056c 7B68     		ldr	r3, [r7, #4]
 912 056e 1B68     		ldr	r3, [r3]
 913 0570 484A     		ldr	r2, .L45+68
 914 0572 9342     		cmp	r3, r2
 915 0574 27D0     		beq	.L34
 916              		.loc 1 411 6 discriminator 32
 917 0576 7B68     		ldr	r3, [r7, #4]
 918 0578 1B68     		ldr	r3, [r3]
 919 057a 474A     		ldr	r2, .L45+72
 920 057c 9342     		cmp	r3, r2
 921 057e 22D0     		beq	.L34
 922              		.loc 1 411 6 discriminator 34
 923 0580 7B68     		ldr	r3, [r7, #4]
 924 0582 1B68     		ldr	r3, [r3]
 925 0584 454A     		ldr	r2, .L45+76
 926 0586 9342     		cmp	r3, r2
 927 0588 1DD0     		beq	.L34
 928              		.loc 1 411 6 discriminator 36
 929 058a 7B68     		ldr	r3, [r7, #4]
 930 058c 1B68     		ldr	r3, [r3]
 931 058e 444A     		ldr	r2, .L45+80
 932 0590 9342     		cmp	r3, r2
 933 0592 18D0     		beq	.L34
 934              		.loc 1 411 6 discriminator 38
 935 0594 7B68     		ldr	r3, [r7, #4]
 936 0596 1B68     		ldr	r3, [r3]
 937 0598 424A     		ldr	r2, .L45+84
 938 059a 9342     		cmp	r3, r2
 939 059c 13D0     		beq	.L34
 940              		.loc 1 411 6 discriminator 40
 941 059e 7B68     		ldr	r3, [r7, #4]
 942 05a0 1B68     		ldr	r3, [r3]
 943 05a2 414A     		ldr	r2, .L45+88
ARM GAS  /var/folders/g1/j12m_ky910s3_sv7d4yrsdn00000gn/T//ccliMUVd.s 			page 25


 944 05a4 9342     		cmp	r3, r2
 945 05a6 0ED0     		beq	.L34
 946              		.loc 1 411 6 discriminator 42
 947 05a8 7B68     		ldr	r3, [r7, #4]
 948 05aa 1B68     		ldr	r3, [r3]
 949 05ac 3F4A     		ldr	r2, .L45+92
 950 05ae 9342     		cmp	r3, r2
 951 05b0 09D0     		beq	.L34
 952              		.loc 1 411 6 discriminator 44
 953 05b2 7B68     		ldr	r3, [r7, #4]
 954 05b4 1B68     		ldr	r3, [r3]
 955 05b6 3E4A     		ldr	r2, .L45+96
 956 05b8 9342     		cmp	r3, r2
 957 05ba 04D0     		beq	.L34
 958              		.loc 1 411 6 discriminator 46
 959 05bc 7B68     		ldr	r3, [r7, #4]
 960 05be 1B68     		ldr	r3, [r3]
 961 05c0 3C4A     		ldr	r2, .L45+100
 962 05c2 9342     		cmp	r3, r2
 963 05c4 01D1     		bne	.L35
 964              	.L34:
 965              		.loc 1 411 6 discriminator 47
 966 05c6 0123     		movs	r3, #1
 967              		.loc 1 411 6
 968 05c8 00E0     		b	.L36
 969              	.L35:
 970              		.loc 1 411 6 discriminator 48
 971 05ca 0023     		movs	r3, #0
 972              	.L36:
 973              		.loc 1 411 5 is_stmt 1 discriminator 50
 974 05cc 002B     		cmp	r3, #0
 975 05ce 32D0     		beq	.L37
 412:Drivers/STM32H7xx_HAL_Driver/Src/stm32h7xx_hal_dma.c ****   {
 413:Drivers/STM32H7xx_HAL_Driver/Src/stm32h7xx_hal_dma.c ****     /* Initialize parameters for DMAMUX channel :
 414:Drivers/STM32H7xx_HAL_Driver/Src/stm32h7xx_hal_dma.c ****     DMAmuxChannel, DMAmuxChannelStatus and DMAmuxChannelStatusMask
 415:Drivers/STM32H7xx_HAL_Driver/Src/stm32h7xx_hal_dma.c ****     */
 416:Drivers/STM32H7xx_HAL_Driver/Src/stm32h7xx_hal_dma.c ****     DMA_CalcDMAMUXChannelBaseAndMask(hdma);
 976              		.loc 1 416 5
 977 05d0 7868     		ldr	r0, [r7, #4]
 978 05d2 FFF7FEFF 		bl	DMA_CalcDMAMUXChannelBaseAndMask
 417:Drivers/STM32H7xx_HAL_Driver/Src/stm32h7xx_hal_dma.c **** 
 418:Drivers/STM32H7xx_HAL_Driver/Src/stm32h7xx_hal_dma.c ****     if(hdma->Init.Direction == DMA_MEMORY_TO_MEMORY)
 979              		.loc 1 418 18
 980 05d6 7B68     		ldr	r3, [r7, #4]
 981 05d8 9B68     		ldr	r3, [r3, #8]
 982              		.loc 1 418 7
 983 05da 802B     		cmp	r3, #128
 984 05dc 02D1     		bne	.L38
 419:Drivers/STM32H7xx_HAL_Driver/Src/stm32h7xx_hal_dma.c ****     {
 420:Drivers/STM32H7xx_HAL_Driver/Src/stm32h7xx_hal_dma.c ****       /* if memory to memory force the request to 0*/
 421:Drivers/STM32H7xx_HAL_Driver/Src/stm32h7xx_hal_dma.c ****       hdma->Init.Request = DMA_REQUEST_MEM2MEM;
 985              		.loc 1 421 26
 986 05de 7B68     		ldr	r3, [r7, #4]
 987 05e0 0022     		movs	r2, #0
 988 05e2 5A60     		str	r2, [r3, #4]
 989              	.L38:
 422:Drivers/STM32H7xx_HAL_Driver/Src/stm32h7xx_hal_dma.c ****     }
ARM GAS  /var/folders/g1/j12m_ky910s3_sv7d4yrsdn00000gn/T//ccliMUVd.s 			page 26


 423:Drivers/STM32H7xx_HAL_Driver/Src/stm32h7xx_hal_dma.c **** 
 424:Drivers/STM32H7xx_HAL_Driver/Src/stm32h7xx_hal_dma.c ****     /* Set peripheral request  to DMAMUX channel */
 425:Drivers/STM32H7xx_HAL_Driver/Src/stm32h7xx_hal_dma.c ****     hdma->DMAmuxChannel->CCR = (hdma->Init.Request & DMAMUX_CxCR_DMAREQ_ID);
 990              		.loc 1 425 43
 991 05e4 7B68     		ldr	r3, [r7, #4]
 992 05e6 5A68     		ldr	r2, [r3, #4]
 993              		.loc 1 425 9
 994 05e8 7B68     		ldr	r3, [r7, #4]
 995 05ea 1B6E     		ldr	r3, [r3, #96]
 996              		.loc 1 425 52
 997 05ec D2B2     		uxtb	r2, r2
 998              		.loc 1 425 30
 999 05ee 1A60     		str	r2, [r3]
 426:Drivers/STM32H7xx_HAL_Driver/Src/stm32h7xx_hal_dma.c **** 
 427:Drivers/STM32H7xx_HAL_Driver/Src/stm32h7xx_hal_dma.c ****     /* Clear the DMAMUX synchro overrun flag */
 428:Drivers/STM32H7xx_HAL_Driver/Src/stm32h7xx_hal_dma.c ****     hdma->DMAmuxChannelStatus->CFR = hdma->DMAmuxChannelStatusMask;
 1000              		.loc 1 428 9
 1001 05f0 7B68     		ldr	r3, [r7, #4]
 1002 05f2 5B6E     		ldr	r3, [r3, #100]
 1003              		.loc 1 428 42
 1004 05f4 7A68     		ldr	r2, [r7, #4]
 1005 05f6 926E     		ldr	r2, [r2, #104]
 1006              		.loc 1 428 36
 1007 05f8 5A60     		str	r2, [r3, #4]
 429:Drivers/STM32H7xx_HAL_Driver/Src/stm32h7xx_hal_dma.c **** 
 430:Drivers/STM32H7xx_HAL_Driver/Src/stm32h7xx_hal_dma.c ****     /* Initialize parameters for DMAMUX request generator :
 431:Drivers/STM32H7xx_HAL_Driver/Src/stm32h7xx_hal_dma.c ****     if the DMA request is DMA_REQUEST_GENERATOR0 to DMA_REQUEST_GENERATOR7
 432:Drivers/STM32H7xx_HAL_Driver/Src/stm32h7xx_hal_dma.c ****     */
 433:Drivers/STM32H7xx_HAL_Driver/Src/stm32h7xx_hal_dma.c ****     if((hdma->Init.Request >= DMA_REQUEST_GENERATOR0) && (hdma->Init.Request <= DMA_REQUEST_GENERAT
 1008              		.loc 1 433 19
 1009 05fa 7B68     		ldr	r3, [r7, #4]
 1010 05fc 5B68     		ldr	r3, [r3, #4]
 1011              		.loc 1 433 7
 1012 05fe 002B     		cmp	r3, #0
 1013 0600 10D0     		beq	.L39
 1014              		.loc 1 433 69 discriminator 1
 1015 0602 7B68     		ldr	r3, [r7, #4]
 1016 0604 5B68     		ldr	r3, [r3, #4]
 1017              		.loc 1 433 55 discriminator 1
 1018 0606 082B     		cmp	r3, #8
 1019 0608 0CD8     		bhi	.L39
 434:Drivers/STM32H7xx_HAL_Driver/Src/stm32h7xx_hal_dma.c ****     {
 435:Drivers/STM32H7xx_HAL_Driver/Src/stm32h7xx_hal_dma.c ****       /* Initialize parameters for DMAMUX request generator :
 436:Drivers/STM32H7xx_HAL_Driver/Src/stm32h7xx_hal_dma.c ****       DMAmuxRequestGen, DMAmuxRequestGenStatus and DMAmuxRequestGenStatusMask */
 437:Drivers/STM32H7xx_HAL_Driver/Src/stm32h7xx_hal_dma.c ****       DMA_CalcDMAMUXRequestGenBaseAndMask(hdma);
 1020              		.loc 1 437 7
 1021 060a 7868     		ldr	r0, [r7, #4]
 1022 060c FFF7FEFF 		bl	DMA_CalcDMAMUXRequestGenBaseAndMask
 438:Drivers/STM32H7xx_HAL_Driver/Src/stm32h7xx_hal_dma.c **** 
 439:Drivers/STM32H7xx_HAL_Driver/Src/stm32h7xx_hal_dma.c ****       /* Reset the DMAMUX request generator register */
 440:Drivers/STM32H7xx_HAL_Driver/Src/stm32h7xx_hal_dma.c ****       hdma->DMAmuxRequestGen->RGCR = 0U;
 1023              		.loc 1 440 11
 1024 0610 7B68     		ldr	r3, [r7, #4]
 1025 0612 DB6E     		ldr	r3, [r3, #108]
 1026              		.loc 1 440 36
 1027 0614 0022     		movs	r2, #0
 1028 0616 1A60     		str	r2, [r3]
ARM GAS  /var/folders/g1/j12m_ky910s3_sv7d4yrsdn00000gn/T//ccliMUVd.s 			page 27


 441:Drivers/STM32H7xx_HAL_Driver/Src/stm32h7xx_hal_dma.c **** 
 442:Drivers/STM32H7xx_HAL_Driver/Src/stm32h7xx_hal_dma.c ****       /* Clear the DMAMUX request generator overrun flag */
 443:Drivers/STM32H7xx_HAL_Driver/Src/stm32h7xx_hal_dma.c ****       hdma->DMAmuxRequestGenStatus->RGCFR = hdma->DMAmuxRequestGenStatusMask;
 1029              		.loc 1 443 11
 1030 0618 7B68     		ldr	r3, [r7, #4]
 1031 061a 1B6F     		ldr	r3, [r3, #112]
 1032              		.loc 1 443 49
 1033 061c 7A68     		ldr	r2, [r7, #4]
 1034 061e 526F     		ldr	r2, [r2, #116]
 1035              		.loc 1 443 43
 1036 0620 5A60     		str	r2, [r3, #4]
 1037 0622 08E0     		b	.L37
 1038              	.L39:
 444:Drivers/STM32H7xx_HAL_Driver/Src/stm32h7xx_hal_dma.c ****     }
 445:Drivers/STM32H7xx_HAL_Driver/Src/stm32h7xx_hal_dma.c ****     else
 446:Drivers/STM32H7xx_HAL_Driver/Src/stm32h7xx_hal_dma.c ****     {
 447:Drivers/STM32H7xx_HAL_Driver/Src/stm32h7xx_hal_dma.c ****       hdma->DMAmuxRequestGen = 0U;
 1039              		.loc 1 447 30
 1040 0624 7B68     		ldr	r3, [r7, #4]
 1041 0626 0022     		movs	r2, #0
 1042 0628 DA66     		str	r2, [r3, #108]
 448:Drivers/STM32H7xx_HAL_Driver/Src/stm32h7xx_hal_dma.c ****       hdma->DMAmuxRequestGenStatus = 0U;
 1043              		.loc 1 448 36
 1044 062a 7B68     		ldr	r3, [r7, #4]
 1045 062c 0022     		movs	r2, #0
 1046 062e 1A67     		str	r2, [r3, #112]
 449:Drivers/STM32H7xx_HAL_Driver/Src/stm32h7xx_hal_dma.c ****       hdma->DMAmuxRequestGenStatusMask = 0U;
 1047              		.loc 1 449 40
 1048 0630 7B68     		ldr	r3, [r7, #4]
 1049 0632 0022     		movs	r2, #0
 1050 0634 5A67     		str	r2, [r3, #116]
 1051              	.L37:
 450:Drivers/STM32H7xx_HAL_Driver/Src/stm32h7xx_hal_dma.c ****     }
 451:Drivers/STM32H7xx_HAL_Driver/Src/stm32h7xx_hal_dma.c ****   }
 452:Drivers/STM32H7xx_HAL_Driver/Src/stm32h7xx_hal_dma.c **** 
 453:Drivers/STM32H7xx_HAL_Driver/Src/stm32h7xx_hal_dma.c ****   /* Initialize the error code */
 454:Drivers/STM32H7xx_HAL_Driver/Src/stm32h7xx_hal_dma.c ****   hdma->ErrorCode = HAL_DMA_ERROR_NONE;
 1052              		.loc 1 454 19
 1053 0636 7B68     		ldr	r3, [r7, #4]
 1054 0638 0022     		movs	r2, #0
 1055 063a 5A65     		str	r2, [r3, #84]
 455:Drivers/STM32H7xx_HAL_Driver/Src/stm32h7xx_hal_dma.c **** 
 456:Drivers/STM32H7xx_HAL_Driver/Src/stm32h7xx_hal_dma.c ****   /* Initialize the DMA state */
 457:Drivers/STM32H7xx_HAL_Driver/Src/stm32h7xx_hal_dma.c ****   hdma->State = HAL_DMA_STATE_READY;
 1056              		.loc 1 457 15
 1057 063c 7B68     		ldr	r3, [r7, #4]
 1058 063e 0122     		movs	r2, #1
 1059 0640 83F83520 		strb	r2, [r3, #53]
 458:Drivers/STM32H7xx_HAL_Driver/Src/stm32h7xx_hal_dma.c **** 
 459:Drivers/STM32H7xx_HAL_Driver/Src/stm32h7xx_hal_dma.c ****   return HAL_OK;
 1060              		.loc 1 459 10
 1061 0644 0023     		movs	r3, #0
 1062              	.L3:
 460:Drivers/STM32H7xx_HAL_Driver/Src/stm32h7xx_hal_dma.c **** }
 1063              		.loc 1 460 1
 1064 0646 1846     		mov	r0, r3
 1065 0648 1837     		adds	r7, r7, #24
ARM GAS  /var/folders/g1/j12m_ky910s3_sv7d4yrsdn00000gn/T//ccliMUVd.s 			page 28


 1066              	.LCFI3:
 1067              		.cfi_def_cfa_offset 8
 1068 064a BD46     		mov	sp, r7
 1069              	.LCFI4:
 1070              		.cfi_def_cfa_register 13
 1071              		@ sp needed
 1072 064c 80BD     		pop	{r7, pc}
 1073              	.L46:
 1074 064e 00BF     		.align	2
 1075              	.L45:
 1076 0650 F8ABFDA7 		.word	-1476547592
 1077 0654 CDCCCCCC 		.word	-858993459
 1078 0658 10000240 		.word	1073872912
 1079 065c 28000240 		.word	1073872936
 1080 0660 40000240 		.word	1073872960
 1081 0664 58000240 		.word	1073872984
 1082 0668 70000240 		.word	1073873008
 1083 066c 88000240 		.word	1073873032
 1084 0670 A0000240 		.word	1073873056
 1085 0674 B8000240 		.word	1073873080
 1086 0678 10040240 		.word	1073873936
 1087 067c 28040240 		.word	1073873960
 1088 0680 40040240 		.word	1073873984
 1089 0684 58040240 		.word	1073874008
 1090 0688 70040240 		.word	1073874032
 1091 068c 88040240 		.word	1073874056
 1092 0690 A0040240 		.word	1073874080
 1093 0694 B8040240 		.word	1073874104
 1094 0698 08540258 		.word	1476547592
 1095 069c 1C540258 		.word	1476547612
 1096 06a0 30540258 		.word	1476547632
 1097 06a4 44540258 		.word	1476547652
 1098 06a8 58540258 		.word	1476547672
 1099 06ac 6C540258 		.word	1476547692
 1100 06b0 80540258 		.word	1476547712
 1101 06b4 94540258 		.word	1476547732
 1102              		.cfi_endproc
 1103              	.LFE144:
 1105              		.section	.text.HAL_DMA_DeInit,"ax",%progbits
 1106              		.align	1
 1107              		.global	HAL_DMA_DeInit
 1108              		.syntax unified
 1109              		.thumb
 1110              		.thumb_func
 1112              	HAL_DMA_DeInit:
 1113              	.LFB145:
 461:Drivers/STM32H7xx_HAL_Driver/Src/stm32h7xx_hal_dma.c **** 
 462:Drivers/STM32H7xx_HAL_Driver/Src/stm32h7xx_hal_dma.c **** /**
 463:Drivers/STM32H7xx_HAL_Driver/Src/stm32h7xx_hal_dma.c ****   * @brief  DeInitializes the DMA peripheral
 464:Drivers/STM32H7xx_HAL_Driver/Src/stm32h7xx_hal_dma.c ****   * @param  hdma: pointer to a DMA_HandleTypeDef structure that contains
 465:Drivers/STM32H7xx_HAL_Driver/Src/stm32h7xx_hal_dma.c ****   *               the configuration information for the specified DMA Stream.
 466:Drivers/STM32H7xx_HAL_Driver/Src/stm32h7xx_hal_dma.c ****   * @retval HAL status
 467:Drivers/STM32H7xx_HAL_Driver/Src/stm32h7xx_hal_dma.c ****   */
 468:Drivers/STM32H7xx_HAL_Driver/Src/stm32h7xx_hal_dma.c **** HAL_StatusTypeDef HAL_DMA_DeInit(DMA_HandleTypeDef *hdma)
 469:Drivers/STM32H7xx_HAL_Driver/Src/stm32h7xx_hal_dma.c **** {
 1114              		.loc 1 469 1
 1115              		.cfi_startproc
ARM GAS  /var/folders/g1/j12m_ky910s3_sv7d4yrsdn00000gn/T//ccliMUVd.s 			page 29


 1116              		@ args = 0, pretend = 0, frame = 16
 1117              		@ frame_needed = 1, uses_anonymous_args = 0
 1118 0000 80B5     		push	{r7, lr}
 1119              	.LCFI5:
 1120              		.cfi_def_cfa_offset 8
 1121              		.cfi_offset 7, -8
 1122              		.cfi_offset 14, -4
 1123 0002 84B0     		sub	sp, sp, #16
 1124              	.LCFI6:
 1125              		.cfi_def_cfa_offset 24
 1126 0004 00AF     		add	r7, sp, #0
 1127              	.LCFI7:
 1128              		.cfi_def_cfa_register 7
 1129 0006 7860     		str	r0, [r7, #4]
 470:Drivers/STM32H7xx_HAL_Driver/Src/stm32h7xx_hal_dma.c ****   DMA_Base_Registers *regs_dma;
 471:Drivers/STM32H7xx_HAL_Driver/Src/stm32h7xx_hal_dma.c ****   BDMA_Base_Registers *regs_bdma;
 472:Drivers/STM32H7xx_HAL_Driver/Src/stm32h7xx_hal_dma.c **** 
 473:Drivers/STM32H7xx_HAL_Driver/Src/stm32h7xx_hal_dma.c ****   /* Check the DMA peripheral handle */
 474:Drivers/STM32H7xx_HAL_Driver/Src/stm32h7xx_hal_dma.c ****   if(hdma == NULL)
 1130              		.loc 1 474 5
 1131 0008 7B68     		ldr	r3, [r7, #4]
 1132 000a 002B     		cmp	r3, #0
 1133 000c 01D1     		bne	.L48
 475:Drivers/STM32H7xx_HAL_Driver/Src/stm32h7xx_hal_dma.c ****   {
 476:Drivers/STM32H7xx_HAL_Driver/Src/stm32h7xx_hal_dma.c ****     return HAL_ERROR;
 1134              		.loc 1 476 12
 1135 000e 0123     		movs	r3, #1
 1136 0010 A8E1     		b	.L49
 1137              	.L48:
 477:Drivers/STM32H7xx_HAL_Driver/Src/stm32h7xx_hal_dma.c ****   }
 478:Drivers/STM32H7xx_HAL_Driver/Src/stm32h7xx_hal_dma.c **** 
 479:Drivers/STM32H7xx_HAL_Driver/Src/stm32h7xx_hal_dma.c ****   /* Disable the selected DMA Streamx */
 480:Drivers/STM32H7xx_HAL_Driver/Src/stm32h7xx_hal_dma.c ****   __HAL_DMA_DISABLE(hdma);
 1138              		.loc 1 480 3
 1139 0012 7B68     		ldr	r3, [r7, #4]
 1140 0014 1B68     		ldr	r3, [r3]
 1141 0016 824A     		ldr	r2, .L64
 1142 0018 9342     		cmp	r3, r2
 1143 001a 4AD0     		beq	.L50
 1144              		.loc 1 480 3 is_stmt 0 discriminator 2
 1145 001c 7B68     		ldr	r3, [r7, #4]
 1146 001e 1B68     		ldr	r3, [r3]
 1147 0020 804A     		ldr	r2, .L64+4
 1148 0022 9342     		cmp	r3, r2
 1149 0024 45D0     		beq	.L50
 1150              		.loc 1 480 3 discriminator 4
 1151 0026 7B68     		ldr	r3, [r7, #4]
 1152 0028 1B68     		ldr	r3, [r3]
 1153 002a 7F4A     		ldr	r2, .L64+8
 1154 002c 9342     		cmp	r3, r2
 1155 002e 40D0     		beq	.L50
 1156              		.loc 1 480 3 discriminator 6
 1157 0030 7B68     		ldr	r3, [r7, #4]
 1158 0032 1B68     		ldr	r3, [r3]
 1159 0034 7D4A     		ldr	r2, .L64+12
 1160 0036 9342     		cmp	r3, r2
 1161 0038 3BD0     		beq	.L50
ARM GAS  /var/folders/g1/j12m_ky910s3_sv7d4yrsdn00000gn/T//ccliMUVd.s 			page 30


 1162              		.loc 1 480 3 discriminator 8
 1163 003a 7B68     		ldr	r3, [r7, #4]
 1164 003c 1B68     		ldr	r3, [r3]
 1165 003e 7C4A     		ldr	r2, .L64+16
 1166 0040 9342     		cmp	r3, r2
 1167 0042 36D0     		beq	.L50
 1168              		.loc 1 480 3 discriminator 10
 1169 0044 7B68     		ldr	r3, [r7, #4]
 1170 0046 1B68     		ldr	r3, [r3]
 1171 0048 7A4A     		ldr	r2, .L64+20
 1172 004a 9342     		cmp	r3, r2
 1173 004c 31D0     		beq	.L50
 1174              		.loc 1 480 3 discriminator 12
 1175 004e 7B68     		ldr	r3, [r7, #4]
 1176 0050 1B68     		ldr	r3, [r3]
 1177 0052 794A     		ldr	r2, .L64+24
 1178 0054 9342     		cmp	r3, r2
 1179 0056 2CD0     		beq	.L50
 1180              		.loc 1 480 3 discriminator 14
 1181 0058 7B68     		ldr	r3, [r7, #4]
 1182 005a 1B68     		ldr	r3, [r3]
 1183 005c 774A     		ldr	r2, .L64+28
 1184 005e 9342     		cmp	r3, r2
 1185 0060 27D0     		beq	.L50
 1186              		.loc 1 480 3 discriminator 16
 1187 0062 7B68     		ldr	r3, [r7, #4]
 1188 0064 1B68     		ldr	r3, [r3]
 1189 0066 764A     		ldr	r2, .L64+32
 1190 0068 9342     		cmp	r3, r2
 1191 006a 22D0     		beq	.L50
 1192              		.loc 1 480 3 discriminator 18
 1193 006c 7B68     		ldr	r3, [r7, #4]
 1194 006e 1B68     		ldr	r3, [r3]
 1195 0070 744A     		ldr	r2, .L64+36
 1196 0072 9342     		cmp	r3, r2
 1197 0074 1DD0     		beq	.L50
 1198              		.loc 1 480 3 discriminator 20
 1199 0076 7B68     		ldr	r3, [r7, #4]
 1200 0078 1B68     		ldr	r3, [r3]
 1201 007a 734A     		ldr	r2, .L64+40
 1202 007c 9342     		cmp	r3, r2
 1203 007e 18D0     		beq	.L50
 1204              		.loc 1 480 3 discriminator 22
 1205 0080 7B68     		ldr	r3, [r7, #4]
 1206 0082 1B68     		ldr	r3, [r3]
 1207 0084 714A     		ldr	r2, .L64+44
 1208 0086 9342     		cmp	r3, r2
 1209 0088 13D0     		beq	.L50
 1210              		.loc 1 480 3 discriminator 24
 1211 008a 7B68     		ldr	r3, [r7, #4]
 1212 008c 1B68     		ldr	r3, [r3]
 1213 008e 704A     		ldr	r2, .L64+48
 1214 0090 9342     		cmp	r3, r2
 1215 0092 0ED0     		beq	.L50
 1216              		.loc 1 480 3 discriminator 26
 1217 0094 7B68     		ldr	r3, [r7, #4]
 1218 0096 1B68     		ldr	r3, [r3]
ARM GAS  /var/folders/g1/j12m_ky910s3_sv7d4yrsdn00000gn/T//ccliMUVd.s 			page 31


 1219 0098 6E4A     		ldr	r2, .L64+52
 1220 009a 9342     		cmp	r3, r2
 1221 009c 09D0     		beq	.L50
 1222              		.loc 1 480 3 discriminator 28
 1223 009e 7B68     		ldr	r3, [r7, #4]
 1224 00a0 1B68     		ldr	r3, [r3]
 1225 00a2 6D4A     		ldr	r2, .L64+56
 1226 00a4 9342     		cmp	r3, r2
 1227 00a6 04D0     		beq	.L50
 1228              		.loc 1 480 3 discriminator 30
 1229 00a8 7B68     		ldr	r3, [r7, #4]
 1230 00aa 1B68     		ldr	r3, [r3]
 1231 00ac 6B4A     		ldr	r2, .L64+60
 1232 00ae 9342     		cmp	r3, r2
 1233 00b0 08D1     		bne	.L51
 1234              	.L50:
 1235              		.loc 1 480 3 discriminator 31
 1236 00b2 7B68     		ldr	r3, [r7, #4]
 1237 00b4 1B68     		ldr	r3, [r3]
 1238 00b6 1A68     		ldr	r2, [r3]
 1239 00b8 7B68     		ldr	r3, [r7, #4]
 1240 00ba 1B68     		ldr	r3, [r3]
 1241 00bc 22F00102 		bic	r2, r2, #1
 1242 00c0 1A60     		str	r2, [r3]
 1243              		.loc 1 480 3
 1244 00c2 07E0     		b	.L52
 1245              	.L51:
 1246              		.loc 1 480 3 discriminator 32
 1247 00c4 7B68     		ldr	r3, [r7, #4]
 1248 00c6 1B68     		ldr	r3, [r3]
 1249 00c8 1A68     		ldr	r2, [r3]
 1250 00ca 7B68     		ldr	r3, [r7, #4]
 1251 00cc 1B68     		ldr	r3, [r3]
 1252 00ce 22F00102 		bic	r2, r2, #1
 1253 00d2 1A60     		str	r2, [r3]
 1254              	.L52:
 481:Drivers/STM32H7xx_HAL_Driver/Src/stm32h7xx_hal_dma.c **** 
 482:Drivers/STM32H7xx_HAL_Driver/Src/stm32h7xx_hal_dma.c ****   if(IS_DMA_STREAM_INSTANCE(hdma->Instance) != 0U) /* DMA1 or DMA2 instance */
 1255              		.loc 1 482 6 is_stmt 1
 1256 00d4 7B68     		ldr	r3, [r7, #4]
 1257 00d6 1B68     		ldr	r3, [r3]
 1258 00d8 514A     		ldr	r2, .L64
 1259 00da 9342     		cmp	r3, r2
 1260 00dc 4AD0     		beq	.L53
 1261              		.loc 1 482 6 is_stmt 0 discriminator 2
 1262 00de 7B68     		ldr	r3, [r7, #4]
 1263 00e0 1B68     		ldr	r3, [r3]
 1264 00e2 504A     		ldr	r2, .L64+4
 1265 00e4 9342     		cmp	r3, r2
 1266 00e6 45D0     		beq	.L53
 1267              		.loc 1 482 6 discriminator 4
 1268 00e8 7B68     		ldr	r3, [r7, #4]
 1269 00ea 1B68     		ldr	r3, [r3]
 1270 00ec 4E4A     		ldr	r2, .L64+8
 1271 00ee 9342     		cmp	r3, r2
 1272 00f0 40D0     		beq	.L53
 1273              		.loc 1 482 6 discriminator 6
ARM GAS  /var/folders/g1/j12m_ky910s3_sv7d4yrsdn00000gn/T//ccliMUVd.s 			page 32


 1274 00f2 7B68     		ldr	r3, [r7, #4]
 1275 00f4 1B68     		ldr	r3, [r3]
 1276 00f6 4D4A     		ldr	r2, .L64+12
 1277 00f8 9342     		cmp	r3, r2
 1278 00fa 3BD0     		beq	.L53
 1279              		.loc 1 482 6 discriminator 8
 1280 00fc 7B68     		ldr	r3, [r7, #4]
 1281 00fe 1B68     		ldr	r3, [r3]
 1282 0100 4B4A     		ldr	r2, .L64+16
 1283 0102 9342     		cmp	r3, r2
 1284 0104 36D0     		beq	.L53
 1285              		.loc 1 482 6 discriminator 10
 1286 0106 7B68     		ldr	r3, [r7, #4]
 1287 0108 1B68     		ldr	r3, [r3]
 1288 010a 4A4A     		ldr	r2, .L64+20
 1289 010c 9342     		cmp	r3, r2
 1290 010e 31D0     		beq	.L53
 1291              		.loc 1 482 6 discriminator 12
 1292 0110 7B68     		ldr	r3, [r7, #4]
 1293 0112 1B68     		ldr	r3, [r3]
 1294 0114 484A     		ldr	r2, .L64+24
 1295 0116 9342     		cmp	r3, r2
 1296 0118 2CD0     		beq	.L53
 1297              		.loc 1 482 6 discriminator 14
 1298 011a 7B68     		ldr	r3, [r7, #4]
 1299 011c 1B68     		ldr	r3, [r3]
 1300 011e 474A     		ldr	r2, .L64+28
 1301 0120 9342     		cmp	r3, r2
 1302 0122 27D0     		beq	.L53
 1303              		.loc 1 482 6 discriminator 16
 1304 0124 7B68     		ldr	r3, [r7, #4]
 1305 0126 1B68     		ldr	r3, [r3]
 1306 0128 454A     		ldr	r2, .L64+32
 1307 012a 9342     		cmp	r3, r2
 1308 012c 22D0     		beq	.L53
 1309              		.loc 1 482 6 discriminator 18
 1310 012e 7B68     		ldr	r3, [r7, #4]
 1311 0130 1B68     		ldr	r3, [r3]
 1312 0132 444A     		ldr	r2, .L64+36
 1313 0134 9342     		cmp	r3, r2
 1314 0136 1DD0     		beq	.L53
 1315              		.loc 1 482 6 discriminator 20
 1316 0138 7B68     		ldr	r3, [r7, #4]
 1317 013a 1B68     		ldr	r3, [r3]
 1318 013c 424A     		ldr	r2, .L64+40
 1319 013e 9342     		cmp	r3, r2
 1320 0140 18D0     		beq	.L53
 1321              		.loc 1 482 6 discriminator 22
 1322 0142 7B68     		ldr	r3, [r7, #4]
 1323 0144 1B68     		ldr	r3, [r3]
 1324 0146 414A     		ldr	r2, .L64+44
 1325 0148 9342     		cmp	r3, r2
 1326 014a 13D0     		beq	.L53
 1327              		.loc 1 482 6 discriminator 24
 1328 014c 7B68     		ldr	r3, [r7, #4]
 1329 014e 1B68     		ldr	r3, [r3]
 1330 0150 3F4A     		ldr	r2, .L64+48
ARM GAS  /var/folders/g1/j12m_ky910s3_sv7d4yrsdn00000gn/T//ccliMUVd.s 			page 33


 1331 0152 9342     		cmp	r3, r2
 1332 0154 0ED0     		beq	.L53
 1333              		.loc 1 482 6 discriminator 26
 1334 0156 7B68     		ldr	r3, [r7, #4]
 1335 0158 1B68     		ldr	r3, [r3]
 1336 015a 3E4A     		ldr	r2, .L64+52
 1337 015c 9342     		cmp	r3, r2
 1338 015e 09D0     		beq	.L53
 1339              		.loc 1 482 6 discriminator 28
 1340 0160 7B68     		ldr	r3, [r7, #4]
 1341 0162 1B68     		ldr	r3, [r3]
 1342 0164 3C4A     		ldr	r2, .L64+56
 1343 0166 9342     		cmp	r3, r2
 1344 0168 04D0     		beq	.L53
 1345              		.loc 1 482 6 discriminator 30
 1346 016a 7B68     		ldr	r3, [r7, #4]
 1347 016c 1B68     		ldr	r3, [r3]
 1348 016e 3B4A     		ldr	r2, .L64+60
 1349 0170 9342     		cmp	r3, r2
 1350 0172 01D1     		bne	.L54
 1351              	.L53:
 1352              		.loc 1 482 6 discriminator 31
 1353 0174 0123     		movs	r3, #1
 1354              		.loc 1 482 6
 1355 0176 00E0     		b	.L55
 1356              	.L54:
 1357              		.loc 1 482 6 discriminator 32
 1358 0178 0023     		movs	r3, #0
 1359              	.L55:
 1360              		.loc 1 482 5 is_stmt 1 discriminator 34
 1361 017a 002B     		cmp	r3, #0
 1362 017c 25D0     		beq	.L56
 483:Drivers/STM32H7xx_HAL_Driver/Src/stm32h7xx_hal_dma.c ****   {
 484:Drivers/STM32H7xx_HAL_Driver/Src/stm32h7xx_hal_dma.c ****     /* Reset DMA Streamx control register */
 485:Drivers/STM32H7xx_HAL_Driver/Src/stm32h7xx_hal_dma.c ****     ((DMA_Stream_TypeDef   *)hdma->Instance)->CR   = 0U;
 1363              		.loc 1 485 34
 1364 017e 7B68     		ldr	r3, [r7, #4]
 1365 0180 1B68     		ldr	r3, [r3]
 1366              		.loc 1 485 52
 1367 0182 0022     		movs	r2, #0
 1368 0184 1A60     		str	r2, [r3]
 486:Drivers/STM32H7xx_HAL_Driver/Src/stm32h7xx_hal_dma.c **** 
 487:Drivers/STM32H7xx_HAL_Driver/Src/stm32h7xx_hal_dma.c ****     /* Reset DMA Streamx number of data to transfer register */
 488:Drivers/STM32H7xx_HAL_Driver/Src/stm32h7xx_hal_dma.c ****     ((DMA_Stream_TypeDef   *)hdma->Instance)->NDTR = 0U;
 1369              		.loc 1 488 34
 1370 0186 7B68     		ldr	r3, [r7, #4]
 1371 0188 1B68     		ldr	r3, [r3]
 1372              		.loc 1 488 52
 1373 018a 0022     		movs	r2, #0
 1374 018c 5A60     		str	r2, [r3, #4]
 489:Drivers/STM32H7xx_HAL_Driver/Src/stm32h7xx_hal_dma.c **** 
 490:Drivers/STM32H7xx_HAL_Driver/Src/stm32h7xx_hal_dma.c ****     /* Reset DMA Streamx peripheral address register */
 491:Drivers/STM32H7xx_HAL_Driver/Src/stm32h7xx_hal_dma.c ****     ((DMA_Stream_TypeDef   *)hdma->Instance)->PAR  = 0U;
 1375              		.loc 1 491 34
 1376 018e 7B68     		ldr	r3, [r7, #4]
 1377 0190 1B68     		ldr	r3, [r3]
 1378              		.loc 1 491 52
ARM GAS  /var/folders/g1/j12m_ky910s3_sv7d4yrsdn00000gn/T//ccliMUVd.s 			page 34


 1379 0192 0022     		movs	r2, #0
 1380 0194 9A60     		str	r2, [r3, #8]
 492:Drivers/STM32H7xx_HAL_Driver/Src/stm32h7xx_hal_dma.c **** 
 493:Drivers/STM32H7xx_HAL_Driver/Src/stm32h7xx_hal_dma.c ****     /* Reset DMA Streamx memory 0 address register */
 494:Drivers/STM32H7xx_HAL_Driver/Src/stm32h7xx_hal_dma.c ****     ((DMA_Stream_TypeDef   *)hdma->Instance)->M0AR = 0U;
 1381              		.loc 1 494 34
 1382 0196 7B68     		ldr	r3, [r7, #4]
 1383 0198 1B68     		ldr	r3, [r3]
 1384              		.loc 1 494 52
 1385 019a 0022     		movs	r2, #0
 1386 019c DA60     		str	r2, [r3, #12]
 495:Drivers/STM32H7xx_HAL_Driver/Src/stm32h7xx_hal_dma.c **** 
 496:Drivers/STM32H7xx_HAL_Driver/Src/stm32h7xx_hal_dma.c ****     /* Reset DMA Streamx memory 1 address register */
 497:Drivers/STM32H7xx_HAL_Driver/Src/stm32h7xx_hal_dma.c ****     ((DMA_Stream_TypeDef   *)hdma->Instance)->M1AR = 0U;
 1387              		.loc 1 497 34
 1388 019e 7B68     		ldr	r3, [r7, #4]
 1389 01a0 1B68     		ldr	r3, [r3]
 1390              		.loc 1 497 52
 1391 01a2 0022     		movs	r2, #0
 1392 01a4 1A61     		str	r2, [r3, #16]
 498:Drivers/STM32H7xx_HAL_Driver/Src/stm32h7xx_hal_dma.c **** 
 499:Drivers/STM32H7xx_HAL_Driver/Src/stm32h7xx_hal_dma.c ****     /* Reset DMA Streamx FIFO control register */
 500:Drivers/STM32H7xx_HAL_Driver/Src/stm32h7xx_hal_dma.c ****     ((DMA_Stream_TypeDef   *)hdma->Instance)->FCR  = (uint32_t)0x00000021U;
 1393              		.loc 1 500 34
 1394 01a6 7B68     		ldr	r3, [r7, #4]
 1395 01a8 1B68     		ldr	r3, [r3]
 1396              		.loc 1 500 52
 1397 01aa 2122     		movs	r2, #33
 1398 01ac 5A61     		str	r2, [r3, #20]
 501:Drivers/STM32H7xx_HAL_Driver/Src/stm32h7xx_hal_dma.c **** 
 502:Drivers/STM32H7xx_HAL_Driver/Src/stm32h7xx_hal_dma.c ****     /* Get DMA steam Base Address */
 503:Drivers/STM32H7xx_HAL_Driver/Src/stm32h7xx_hal_dma.c ****     regs_dma = (DMA_Base_Registers *)DMA_CalcBaseAndBitshift(hdma);
 1399              		.loc 1 503 38
 1400 01ae 7868     		ldr	r0, [r7, #4]
 1401 01b0 FFF7FEFF 		bl	DMA_CalcBaseAndBitshift
 1402 01b4 0346     		mov	r3, r0
 1403              		.loc 1 503 14 discriminator 1
 1404 01b6 BB60     		str	r3, [r7, #8]
 504:Drivers/STM32H7xx_HAL_Driver/Src/stm32h7xx_hal_dma.c **** 
 505:Drivers/STM32H7xx_HAL_Driver/Src/stm32h7xx_hal_dma.c ****     /* Clear all interrupt flags at correct offset within the register */
 506:Drivers/STM32H7xx_HAL_Driver/Src/stm32h7xx_hal_dma.c ****     regs_dma->IFCR = 0x3FUL << (hdma->StreamIndex & 0x1FU);
 1405              		.loc 1 506 37
 1406 01b8 7B68     		ldr	r3, [r7, #4]
 1407 01ba DB6D     		ldr	r3, [r3, #92]
 1408              		.loc 1 506 51
 1409 01bc 03F01F03 		and	r3, r3, #31
 1410              		.loc 1 506 29
 1411 01c0 3F22     		movs	r2, #63
 1412 01c2 9A40     		lsls	r2, r2, r3
 1413              		.loc 1 506 20
 1414 01c4 BB68     		ldr	r3, [r7, #8]
 1415 01c6 9A60     		str	r2, [r3, #8]
 1416 01c8 81E0     		b	.L57
 1417              	.L56:
 507:Drivers/STM32H7xx_HAL_Driver/Src/stm32h7xx_hal_dma.c ****   }
 508:Drivers/STM32H7xx_HAL_Driver/Src/stm32h7xx_hal_dma.c ****   else if(IS_BDMA_CHANNEL_INSTANCE(hdma->Instance) != 0U) /* BDMA instance(s) */
 1418              		.loc 1 508 11
ARM GAS  /var/folders/g1/j12m_ky910s3_sv7d4yrsdn00000gn/T//ccliMUVd.s 			page 35


 1419 01ca 7B68     		ldr	r3, [r7, #4]
 1420 01cc 1B68     		ldr	r3, [r3]
 1421 01ce 244A     		ldr	r2, .L64+64
 1422 01d0 9342     		cmp	r3, r2
 1423 01d2 22D0     		beq	.L58
 1424              		.loc 1 508 11 is_stmt 0 discriminator 2
 1425 01d4 7B68     		ldr	r3, [r7, #4]
 1426 01d6 1B68     		ldr	r3, [r3]
 1427 01d8 224A     		ldr	r2, .L64+68
 1428 01da 9342     		cmp	r3, r2
 1429 01dc 1DD0     		beq	.L58
 1430              		.loc 1 508 11 discriminator 4
 1431 01de 7B68     		ldr	r3, [r7, #4]
 1432 01e0 1B68     		ldr	r3, [r3]
 1433 01e2 214A     		ldr	r2, .L64+72
 1434 01e4 9342     		cmp	r3, r2
 1435 01e6 18D0     		beq	.L58
 1436              		.loc 1 508 11 discriminator 6
 1437 01e8 7B68     		ldr	r3, [r7, #4]
 1438 01ea 1B68     		ldr	r3, [r3]
 1439 01ec 1F4A     		ldr	r2, .L64+76
 1440 01ee 9342     		cmp	r3, r2
 1441 01f0 13D0     		beq	.L58
 1442              		.loc 1 508 11 discriminator 8
 1443 01f2 7B68     		ldr	r3, [r7, #4]
 1444 01f4 1B68     		ldr	r3, [r3]
 1445 01f6 1E4A     		ldr	r2, .L64+80
 1446 01f8 9342     		cmp	r3, r2
 1447 01fa 0ED0     		beq	.L58
 1448              		.loc 1 508 11 discriminator 10
 1449 01fc 7B68     		ldr	r3, [r7, #4]
 1450 01fe 1B68     		ldr	r3, [r3]
 1451 0200 1C4A     		ldr	r2, .L64+84
 1452 0202 9342     		cmp	r3, r2
 1453 0204 09D0     		beq	.L58
 1454              		.loc 1 508 11 discriminator 12
 1455 0206 7B68     		ldr	r3, [r7, #4]
 1456 0208 1B68     		ldr	r3, [r3]
 1457 020a 1B4A     		ldr	r2, .L64+88
 1458 020c 9342     		cmp	r3, r2
 1459 020e 04D0     		beq	.L58
 1460              		.loc 1 508 11 discriminator 14
 1461 0210 7B68     		ldr	r3, [r7, #4]
 1462 0212 1B68     		ldr	r3, [r3]
 1463 0214 194A     		ldr	r2, .L64+92
 1464 0216 9342     		cmp	r3, r2
 1465 0218 32D1     		bne	.L59
 1466              	.L58:
 1467              		.loc 1 508 11 discriminator 15
 1468 021a 0123     		movs	r3, #1
 1469              		.loc 1 508 11
 1470 021c 31E0     		b	.L60
 1471              	.L65:
 1472 021e 00BF     		.align	2
 1473              	.L64:
 1474 0220 10000240 		.word	1073872912
 1475 0224 28000240 		.word	1073872936
ARM GAS  /var/folders/g1/j12m_ky910s3_sv7d4yrsdn00000gn/T//ccliMUVd.s 			page 36


 1476 0228 40000240 		.word	1073872960
 1477 022c 58000240 		.word	1073872984
 1478 0230 70000240 		.word	1073873008
 1479 0234 88000240 		.word	1073873032
 1480 0238 A0000240 		.word	1073873056
 1481 023c B8000240 		.word	1073873080
 1482 0240 10040240 		.word	1073873936
 1483 0244 28040240 		.word	1073873960
 1484 0248 40040240 		.word	1073873984
 1485 024c 58040240 		.word	1073874008
 1486 0250 70040240 		.word	1073874032
 1487 0254 88040240 		.word	1073874056
 1488 0258 A0040240 		.word	1073874080
 1489 025c B8040240 		.word	1073874104
 1490 0260 08540258 		.word	1476547592
 1491 0264 1C540258 		.word	1476547612
 1492 0268 30540258 		.word	1476547632
 1493 026c 44540258 		.word	1476547652
 1494 0270 58540258 		.word	1476547672
 1495 0274 6C540258 		.word	1476547692
 1496 0278 80540258 		.word	1476547712
 1497 027c 94540258 		.word	1476547732
 1498              	.L59:
 1499              		.loc 1 508 11 discriminator 16
 1500 0280 0023     		movs	r3, #0
 1501              	.L60:
 1502              		.loc 1 508 10 is_stmt 1 discriminator 18
 1503 0282 002B     		cmp	r3, #0
 1504 0284 21D0     		beq	.L61
 509:Drivers/STM32H7xx_HAL_Driver/Src/stm32h7xx_hal_dma.c ****   {
 510:Drivers/STM32H7xx_HAL_Driver/Src/stm32h7xx_hal_dma.c ****     /* Reset DMA Channel control register */
 511:Drivers/STM32H7xx_HAL_Driver/Src/stm32h7xx_hal_dma.c ****     ((BDMA_Channel_TypeDef *)hdma->Instance)->CCR  = 0U;
 1505              		.loc 1 511 34
 1506 0286 7B68     		ldr	r3, [r7, #4]
 1507 0288 1B68     		ldr	r3, [r3]
 1508              		.loc 1 511 52
 1509 028a 0022     		movs	r2, #0
 1510 028c 1A60     		str	r2, [r3]
 512:Drivers/STM32H7xx_HAL_Driver/Src/stm32h7xx_hal_dma.c **** 
 513:Drivers/STM32H7xx_HAL_Driver/Src/stm32h7xx_hal_dma.c ****     /* Reset DMA Channel Number of Data to Transfer register */
 514:Drivers/STM32H7xx_HAL_Driver/Src/stm32h7xx_hal_dma.c ****     ((BDMA_Channel_TypeDef *)hdma->Instance)->CNDTR = 0U;
 1511              		.loc 1 514 34
 1512 028e 7B68     		ldr	r3, [r7, #4]
 1513 0290 1B68     		ldr	r3, [r3]
 1514              		.loc 1 514 53
 1515 0292 0022     		movs	r2, #0
 1516 0294 5A60     		str	r2, [r3, #4]
 515:Drivers/STM32H7xx_HAL_Driver/Src/stm32h7xx_hal_dma.c **** 
 516:Drivers/STM32H7xx_HAL_Driver/Src/stm32h7xx_hal_dma.c ****     /* Reset DMA Channel peripheral address register */
 517:Drivers/STM32H7xx_HAL_Driver/Src/stm32h7xx_hal_dma.c ****     ((BDMA_Channel_TypeDef *)hdma->Instance)->CPAR  = 0U;
 1517              		.loc 1 517 34
 1518 0296 7B68     		ldr	r3, [r7, #4]
 1519 0298 1B68     		ldr	r3, [r3]
 1520              		.loc 1 517 53
 1521 029a 0022     		movs	r2, #0
 1522 029c 9A60     		str	r2, [r3, #8]
 518:Drivers/STM32H7xx_HAL_Driver/Src/stm32h7xx_hal_dma.c **** 
ARM GAS  /var/folders/g1/j12m_ky910s3_sv7d4yrsdn00000gn/T//ccliMUVd.s 			page 37


 519:Drivers/STM32H7xx_HAL_Driver/Src/stm32h7xx_hal_dma.c ****     /* Reset DMA Channel memory 0 address register */
 520:Drivers/STM32H7xx_HAL_Driver/Src/stm32h7xx_hal_dma.c ****     ((BDMA_Channel_TypeDef *)hdma->Instance)->CM0AR = 0U;
 1523              		.loc 1 520 34
 1524 029e 7B68     		ldr	r3, [r7, #4]
 1525 02a0 1B68     		ldr	r3, [r3]
 1526              		.loc 1 520 53
 1527 02a2 0022     		movs	r2, #0
 1528 02a4 DA60     		str	r2, [r3, #12]
 521:Drivers/STM32H7xx_HAL_Driver/Src/stm32h7xx_hal_dma.c **** 
 522:Drivers/STM32H7xx_HAL_Driver/Src/stm32h7xx_hal_dma.c ****     /* Reset DMA Channel memory 1 address register */
 523:Drivers/STM32H7xx_HAL_Driver/Src/stm32h7xx_hal_dma.c ****     ((BDMA_Channel_TypeDef *)hdma->Instance)->CM1AR = 0U;
 1529              		.loc 1 523 34
 1530 02a6 7B68     		ldr	r3, [r7, #4]
 1531 02a8 1B68     		ldr	r3, [r3]
 1532              		.loc 1 523 53
 1533 02aa 0022     		movs	r2, #0
 1534 02ac 1A61     		str	r2, [r3, #16]
 524:Drivers/STM32H7xx_HAL_Driver/Src/stm32h7xx_hal_dma.c **** 
 525:Drivers/STM32H7xx_HAL_Driver/Src/stm32h7xx_hal_dma.c ****     /* Get DMA steam Base Address */
 526:Drivers/STM32H7xx_HAL_Driver/Src/stm32h7xx_hal_dma.c ****     regs_bdma = (BDMA_Base_Registers *)DMA_CalcBaseAndBitshift(hdma);
 1535              		.loc 1 526 40
 1536 02ae 7868     		ldr	r0, [r7, #4]
 1537 02b0 FFF7FEFF 		bl	DMA_CalcBaseAndBitshift
 1538 02b4 0346     		mov	r3, r0
 1539              		.loc 1 526 15 discriminator 1
 1540 02b6 FB60     		str	r3, [r7, #12]
 527:Drivers/STM32H7xx_HAL_Driver/Src/stm32h7xx_hal_dma.c **** 
 528:Drivers/STM32H7xx_HAL_Driver/Src/stm32h7xx_hal_dma.c ****     /* Clear all interrupt flags at correct offset within the register */
 529:Drivers/STM32H7xx_HAL_Driver/Src/stm32h7xx_hal_dma.c ****     regs_bdma->IFCR = ((BDMA_IFCR_CGIF0) << (hdma->StreamIndex & 0x1FU));
 1541              		.loc 1 529 50
 1542 02b8 7B68     		ldr	r3, [r7, #4]
 1543 02ba DB6D     		ldr	r3, [r3, #92]
 1544              		.loc 1 529 64
 1545 02bc 03F01F03 		and	r3, r3, #31
 1546              		.loc 1 529 42
 1547 02c0 0122     		movs	r2, #1
 1548 02c2 9A40     		lsls	r2, r2, r3
 1549              		.loc 1 529 21
 1550 02c4 FB68     		ldr	r3, [r7, #12]
 1551 02c6 5A60     		str	r2, [r3, #4]
 1552 02c8 01E0     		b	.L57
 1553              	.L61:
 530:Drivers/STM32H7xx_HAL_Driver/Src/stm32h7xx_hal_dma.c ****   }
 531:Drivers/STM32H7xx_HAL_Driver/Src/stm32h7xx_hal_dma.c ****   else
 532:Drivers/STM32H7xx_HAL_Driver/Src/stm32h7xx_hal_dma.c ****   {
 533:Drivers/STM32H7xx_HAL_Driver/Src/stm32h7xx_hal_dma.c ****     /* Return error status */
 534:Drivers/STM32H7xx_HAL_Driver/Src/stm32h7xx_hal_dma.c ****     return HAL_ERROR;
 1554              		.loc 1 534 12
 1555 02ca 0123     		movs	r3, #1
 1556 02cc 4AE0     		b	.L49
 1557              	.L57:
 535:Drivers/STM32H7xx_HAL_Driver/Src/stm32h7xx_hal_dma.c ****   }
 536:Drivers/STM32H7xx_HAL_Driver/Src/stm32h7xx_hal_dma.c **** 
 537:Drivers/STM32H7xx_HAL_Driver/Src/stm32h7xx_hal_dma.c **** #if defined (BDMA1) /* No DMAMUX available for BDMA1 available on  STM32H7Ax/Bx devices only */
 538:Drivers/STM32H7xx_HAL_Driver/Src/stm32h7xx_hal_dma.c ****   if(IS_DMA_DMAMUX_ALL_INSTANCE(hdma->Instance) != 0U) /* No DMAMUX available for BDMA1 */
 539:Drivers/STM32H7xx_HAL_Driver/Src/stm32h7xx_hal_dma.c **** #endif /* BDMA1 */
 540:Drivers/STM32H7xx_HAL_Driver/Src/stm32h7xx_hal_dma.c ****   {
ARM GAS  /var/folders/g1/j12m_ky910s3_sv7d4yrsdn00000gn/T//ccliMUVd.s 			page 38


 541:Drivers/STM32H7xx_HAL_Driver/Src/stm32h7xx_hal_dma.c ****     /* Initialize parameters for DMAMUX channel :
 542:Drivers/STM32H7xx_HAL_Driver/Src/stm32h7xx_hal_dma.c ****     DMAmuxChannel, DMAmuxChannelStatus and DMAmuxChannelStatusMask */
 543:Drivers/STM32H7xx_HAL_Driver/Src/stm32h7xx_hal_dma.c ****     DMA_CalcDMAMUXChannelBaseAndMask(hdma);
 1558              		.loc 1 543 5
 1559 02ce 7868     		ldr	r0, [r7, #4]
 1560 02d0 FFF7FEFF 		bl	DMA_CalcDMAMUXChannelBaseAndMask
 544:Drivers/STM32H7xx_HAL_Driver/Src/stm32h7xx_hal_dma.c **** 
 545:Drivers/STM32H7xx_HAL_Driver/Src/stm32h7xx_hal_dma.c ****     if(hdma->DMAmuxChannel != 0U)
 1561              		.loc 1 545 12
 1562 02d4 7B68     		ldr	r3, [r7, #4]
 1563 02d6 1B6E     		ldr	r3, [r3, #96]
 1564              		.loc 1 545 7
 1565 02d8 002B     		cmp	r3, #0
 1566 02da 08D0     		beq	.L62
 546:Drivers/STM32H7xx_HAL_Driver/Src/stm32h7xx_hal_dma.c ****     {
 547:Drivers/STM32H7xx_HAL_Driver/Src/stm32h7xx_hal_dma.c ****       /* Resett he DMAMUX channel that corresponds to the DMA stream */
 548:Drivers/STM32H7xx_HAL_Driver/Src/stm32h7xx_hal_dma.c ****       hdma->DMAmuxChannel->CCR = 0U;
 1567              		.loc 1 548 11
 1568 02dc 7B68     		ldr	r3, [r7, #4]
 1569 02de 1B6E     		ldr	r3, [r3, #96]
 1570              		.loc 1 548 32
 1571 02e0 0022     		movs	r2, #0
 1572 02e2 1A60     		str	r2, [r3]
 549:Drivers/STM32H7xx_HAL_Driver/Src/stm32h7xx_hal_dma.c **** 
 550:Drivers/STM32H7xx_HAL_Driver/Src/stm32h7xx_hal_dma.c ****       /* Clear the DMAMUX synchro overrun flag */
 551:Drivers/STM32H7xx_HAL_Driver/Src/stm32h7xx_hal_dma.c ****       hdma->DMAmuxChannelStatus->CFR = hdma->DMAmuxChannelStatusMask;
 1573              		.loc 1 551 11
 1574 02e4 7B68     		ldr	r3, [r7, #4]
 1575 02e6 5B6E     		ldr	r3, [r3, #100]
 1576              		.loc 1 551 44
 1577 02e8 7A68     		ldr	r2, [r7, #4]
 1578 02ea 926E     		ldr	r2, [r2, #104]
 1579              		.loc 1 551 38
 1580 02ec 5A60     		str	r2, [r3, #4]
 1581              	.L62:
 552:Drivers/STM32H7xx_HAL_Driver/Src/stm32h7xx_hal_dma.c ****     }
 553:Drivers/STM32H7xx_HAL_Driver/Src/stm32h7xx_hal_dma.c **** 
 554:Drivers/STM32H7xx_HAL_Driver/Src/stm32h7xx_hal_dma.c ****     if((hdma->Init.Request >= DMA_REQUEST_GENERATOR0) && (hdma->Init.Request <= DMA_REQUEST_GENERAT
 1582              		.loc 1 554 19
 1583 02ee 7B68     		ldr	r3, [r7, #4]
 1584 02f0 5B68     		ldr	r3, [r3, #4]
 1585              		.loc 1 554 7
 1586 02f2 002B     		cmp	r3, #0
 1587 02f4 0FD0     		beq	.L63
 1588              		.loc 1 554 69 discriminator 1
 1589 02f6 7B68     		ldr	r3, [r7, #4]
 1590 02f8 5B68     		ldr	r3, [r3, #4]
 1591              		.loc 1 554 55 discriminator 1
 1592 02fa 082B     		cmp	r3, #8
 1593 02fc 0BD8     		bhi	.L63
 555:Drivers/STM32H7xx_HAL_Driver/Src/stm32h7xx_hal_dma.c ****     {
 556:Drivers/STM32H7xx_HAL_Driver/Src/stm32h7xx_hal_dma.c ****       /* Initialize parameters for DMAMUX request generator :
 557:Drivers/STM32H7xx_HAL_Driver/Src/stm32h7xx_hal_dma.c ****       DMAmuxRequestGen, DMAmuxRequestGenStatus and DMAmuxRequestGenStatusMask */
 558:Drivers/STM32H7xx_HAL_Driver/Src/stm32h7xx_hal_dma.c ****       DMA_CalcDMAMUXRequestGenBaseAndMask(hdma);
 1594              		.loc 1 558 7
 1595 02fe 7868     		ldr	r0, [r7, #4]
 1596 0300 FFF7FEFF 		bl	DMA_CalcDMAMUXRequestGenBaseAndMask
ARM GAS  /var/folders/g1/j12m_ky910s3_sv7d4yrsdn00000gn/T//ccliMUVd.s 			page 39


 559:Drivers/STM32H7xx_HAL_Driver/Src/stm32h7xx_hal_dma.c **** 
 560:Drivers/STM32H7xx_HAL_Driver/Src/stm32h7xx_hal_dma.c ****       /* Reset the DMAMUX request generator register */
 561:Drivers/STM32H7xx_HAL_Driver/Src/stm32h7xx_hal_dma.c ****       hdma->DMAmuxRequestGen->RGCR = 0U;
 1597              		.loc 1 561 11
 1598 0304 7B68     		ldr	r3, [r7, #4]
 1599 0306 DB6E     		ldr	r3, [r3, #108]
 1600              		.loc 1 561 36
 1601 0308 0022     		movs	r2, #0
 1602 030a 1A60     		str	r2, [r3]
 562:Drivers/STM32H7xx_HAL_Driver/Src/stm32h7xx_hal_dma.c **** 
 563:Drivers/STM32H7xx_HAL_Driver/Src/stm32h7xx_hal_dma.c ****       /* Clear the DMAMUX request generator overrun flag */
 564:Drivers/STM32H7xx_HAL_Driver/Src/stm32h7xx_hal_dma.c ****       hdma->DMAmuxRequestGenStatus->RGCFR = hdma->DMAmuxRequestGenStatusMask;
 1603              		.loc 1 564 11
 1604 030c 7B68     		ldr	r3, [r7, #4]
 1605 030e 1B6F     		ldr	r3, [r3, #112]
 1606              		.loc 1 564 49
 1607 0310 7A68     		ldr	r2, [r7, #4]
 1608 0312 526F     		ldr	r2, [r2, #116]
 1609              		.loc 1 564 43
 1610 0314 5A60     		str	r2, [r3, #4]
 1611              	.L63:
 565:Drivers/STM32H7xx_HAL_Driver/Src/stm32h7xx_hal_dma.c ****     }
 566:Drivers/STM32H7xx_HAL_Driver/Src/stm32h7xx_hal_dma.c **** 
 567:Drivers/STM32H7xx_HAL_Driver/Src/stm32h7xx_hal_dma.c ****     hdma->DMAmuxRequestGen = 0U;
 1612              		.loc 1 567 28
 1613 0316 7B68     		ldr	r3, [r7, #4]
 1614 0318 0022     		movs	r2, #0
 1615 031a DA66     		str	r2, [r3, #108]
 568:Drivers/STM32H7xx_HAL_Driver/Src/stm32h7xx_hal_dma.c ****     hdma->DMAmuxRequestGenStatus = 0U;
 1616              		.loc 1 568 34
 1617 031c 7B68     		ldr	r3, [r7, #4]
 1618 031e 0022     		movs	r2, #0
 1619 0320 1A67     		str	r2, [r3, #112]
 569:Drivers/STM32H7xx_HAL_Driver/Src/stm32h7xx_hal_dma.c ****     hdma->DMAmuxRequestGenStatusMask = 0U;
 1620              		.loc 1 569 38
 1621 0322 7B68     		ldr	r3, [r7, #4]
 1622 0324 0022     		movs	r2, #0
 1623 0326 5A67     		str	r2, [r3, #116]
 570:Drivers/STM32H7xx_HAL_Driver/Src/stm32h7xx_hal_dma.c ****   }
 571:Drivers/STM32H7xx_HAL_Driver/Src/stm32h7xx_hal_dma.c **** 
 572:Drivers/STM32H7xx_HAL_Driver/Src/stm32h7xx_hal_dma.c **** 
 573:Drivers/STM32H7xx_HAL_Driver/Src/stm32h7xx_hal_dma.c ****   /* Clean callbacks */
 574:Drivers/STM32H7xx_HAL_Driver/Src/stm32h7xx_hal_dma.c ****   hdma->XferCpltCallback       = NULL;
 1624              		.loc 1 574 32
 1625 0328 7B68     		ldr	r3, [r7, #4]
 1626 032a 0022     		movs	r2, #0
 1627 032c DA63     		str	r2, [r3, #60]
 575:Drivers/STM32H7xx_HAL_Driver/Src/stm32h7xx_hal_dma.c ****   hdma->XferHalfCpltCallback   = NULL;
 1628              		.loc 1 575 32
 1629 032e 7B68     		ldr	r3, [r7, #4]
 1630 0330 0022     		movs	r2, #0
 1631 0332 1A64     		str	r2, [r3, #64]
 576:Drivers/STM32H7xx_HAL_Driver/Src/stm32h7xx_hal_dma.c ****   hdma->XferM1CpltCallback     = NULL;
 1632              		.loc 1 576 32
 1633 0334 7B68     		ldr	r3, [r7, #4]
 1634 0336 0022     		movs	r2, #0
 1635 0338 5A64     		str	r2, [r3, #68]
ARM GAS  /var/folders/g1/j12m_ky910s3_sv7d4yrsdn00000gn/T//ccliMUVd.s 			page 40


 577:Drivers/STM32H7xx_HAL_Driver/Src/stm32h7xx_hal_dma.c ****   hdma->XferM1HalfCpltCallback = NULL;
 1636              		.loc 1 577 32
 1637 033a 7B68     		ldr	r3, [r7, #4]
 1638 033c 0022     		movs	r2, #0
 1639 033e 9A64     		str	r2, [r3, #72]
 578:Drivers/STM32H7xx_HAL_Driver/Src/stm32h7xx_hal_dma.c ****   hdma->XferErrorCallback      = NULL;
 1640              		.loc 1 578 32
 1641 0340 7B68     		ldr	r3, [r7, #4]
 1642 0342 0022     		movs	r2, #0
 1643 0344 DA64     		str	r2, [r3, #76]
 579:Drivers/STM32H7xx_HAL_Driver/Src/stm32h7xx_hal_dma.c ****   hdma->XferAbortCallback      = NULL;
 1644              		.loc 1 579 32
 1645 0346 7B68     		ldr	r3, [r7, #4]
 1646 0348 0022     		movs	r2, #0
 1647 034a 1A65     		str	r2, [r3, #80]
 580:Drivers/STM32H7xx_HAL_Driver/Src/stm32h7xx_hal_dma.c **** 
 581:Drivers/STM32H7xx_HAL_Driver/Src/stm32h7xx_hal_dma.c ****   /* Initialize the error code */
 582:Drivers/STM32H7xx_HAL_Driver/Src/stm32h7xx_hal_dma.c ****   hdma->ErrorCode = HAL_DMA_ERROR_NONE;
 1648              		.loc 1 582 19
 1649 034c 7B68     		ldr	r3, [r7, #4]
 1650 034e 0022     		movs	r2, #0
 1651 0350 5A65     		str	r2, [r3, #84]
 583:Drivers/STM32H7xx_HAL_Driver/Src/stm32h7xx_hal_dma.c **** 
 584:Drivers/STM32H7xx_HAL_Driver/Src/stm32h7xx_hal_dma.c ****   /* Initialize the DMA state */
 585:Drivers/STM32H7xx_HAL_Driver/Src/stm32h7xx_hal_dma.c ****   hdma->State = HAL_DMA_STATE_RESET;
 1652              		.loc 1 585 15
 1653 0352 7B68     		ldr	r3, [r7, #4]
 1654 0354 0022     		movs	r2, #0
 1655 0356 83F83520 		strb	r2, [r3, #53]
 586:Drivers/STM32H7xx_HAL_Driver/Src/stm32h7xx_hal_dma.c **** 
 587:Drivers/STM32H7xx_HAL_Driver/Src/stm32h7xx_hal_dma.c ****   /* Release Lock */
 588:Drivers/STM32H7xx_HAL_Driver/Src/stm32h7xx_hal_dma.c ****   __HAL_UNLOCK(hdma);
 1656              		.loc 1 588 3
 1657 035a 7B68     		ldr	r3, [r7, #4]
 1658 035c 0022     		movs	r2, #0
 1659 035e 83F83420 		strb	r2, [r3, #52]
 589:Drivers/STM32H7xx_HAL_Driver/Src/stm32h7xx_hal_dma.c **** 
 590:Drivers/STM32H7xx_HAL_Driver/Src/stm32h7xx_hal_dma.c ****   return HAL_OK;
 1660              		.loc 1 590 10
 1661 0362 0023     		movs	r3, #0
 1662              	.L49:
 591:Drivers/STM32H7xx_HAL_Driver/Src/stm32h7xx_hal_dma.c **** }
 1663              		.loc 1 591 1
 1664 0364 1846     		mov	r0, r3
 1665 0366 1037     		adds	r7, r7, #16
 1666              	.LCFI8:
 1667              		.cfi_def_cfa_offset 8
 1668 0368 BD46     		mov	sp, r7
 1669              	.LCFI9:
 1670              		.cfi_def_cfa_register 13
 1671              		@ sp needed
 1672 036a 80BD     		pop	{r7, pc}
 1673              		.cfi_endproc
 1674              	.LFE145:
 1676              		.section	.text.HAL_DMA_Start,"ax",%progbits
 1677              		.align	1
 1678              		.global	HAL_DMA_Start
ARM GAS  /var/folders/g1/j12m_ky910s3_sv7d4yrsdn00000gn/T//ccliMUVd.s 			page 41


 1679              		.syntax unified
 1680              		.thumb
 1681              		.thumb_func
 1683              	HAL_DMA_Start:
 1684              	.LFB146:
 592:Drivers/STM32H7xx_HAL_Driver/Src/stm32h7xx_hal_dma.c **** 
 593:Drivers/STM32H7xx_HAL_Driver/Src/stm32h7xx_hal_dma.c **** /**
 594:Drivers/STM32H7xx_HAL_Driver/Src/stm32h7xx_hal_dma.c ****   * @}
 595:Drivers/STM32H7xx_HAL_Driver/Src/stm32h7xx_hal_dma.c ****   */
 596:Drivers/STM32H7xx_HAL_Driver/Src/stm32h7xx_hal_dma.c **** 
 597:Drivers/STM32H7xx_HAL_Driver/Src/stm32h7xx_hal_dma.c **** /** @addtogroup DMA_Exported_Functions_Group2
 598:Drivers/STM32H7xx_HAL_Driver/Src/stm32h7xx_hal_dma.c ****   *
 599:Drivers/STM32H7xx_HAL_Driver/Src/stm32h7xx_hal_dma.c **** @verbatim
 600:Drivers/STM32H7xx_HAL_Driver/Src/stm32h7xx_hal_dma.c ****  ===============================================================================
 601:Drivers/STM32H7xx_HAL_Driver/Src/stm32h7xx_hal_dma.c ****                       #####  IO operation functions  #####
 602:Drivers/STM32H7xx_HAL_Driver/Src/stm32h7xx_hal_dma.c ****  ===============================================================================
 603:Drivers/STM32H7xx_HAL_Driver/Src/stm32h7xx_hal_dma.c ****     [..]  This section provides functions allowing to:
 604:Drivers/STM32H7xx_HAL_Driver/Src/stm32h7xx_hal_dma.c ****       (+) Configure the source, destination address and data length and Start DMA transfer
 605:Drivers/STM32H7xx_HAL_Driver/Src/stm32h7xx_hal_dma.c ****       (+) Configure the source, destination address and data length and
 606:Drivers/STM32H7xx_HAL_Driver/Src/stm32h7xx_hal_dma.c ****           Start DMA transfer with interrupt
 607:Drivers/STM32H7xx_HAL_Driver/Src/stm32h7xx_hal_dma.c ****       (+) Register and Unregister DMA callbacks
 608:Drivers/STM32H7xx_HAL_Driver/Src/stm32h7xx_hal_dma.c ****       (+) Abort DMA transfer
 609:Drivers/STM32H7xx_HAL_Driver/Src/stm32h7xx_hal_dma.c ****       (+) Poll for transfer complete
 610:Drivers/STM32H7xx_HAL_Driver/Src/stm32h7xx_hal_dma.c ****       (+) Handle DMA interrupt request
 611:Drivers/STM32H7xx_HAL_Driver/Src/stm32h7xx_hal_dma.c **** 
 612:Drivers/STM32H7xx_HAL_Driver/Src/stm32h7xx_hal_dma.c **** @endverbatim
 613:Drivers/STM32H7xx_HAL_Driver/Src/stm32h7xx_hal_dma.c ****   * @{
 614:Drivers/STM32H7xx_HAL_Driver/Src/stm32h7xx_hal_dma.c ****   */
 615:Drivers/STM32H7xx_HAL_Driver/Src/stm32h7xx_hal_dma.c **** 
 616:Drivers/STM32H7xx_HAL_Driver/Src/stm32h7xx_hal_dma.c **** /**
 617:Drivers/STM32H7xx_HAL_Driver/Src/stm32h7xx_hal_dma.c ****   * @brief  Starts the DMA Transfer.
 618:Drivers/STM32H7xx_HAL_Driver/Src/stm32h7xx_hal_dma.c ****   * @param  hdma      : pointer to a DMA_HandleTypeDef structure that contains
 619:Drivers/STM32H7xx_HAL_Driver/Src/stm32h7xx_hal_dma.c ****   *                     the configuration information for the specified DMA Stream.
 620:Drivers/STM32H7xx_HAL_Driver/Src/stm32h7xx_hal_dma.c ****   * @param  SrcAddress: The source memory Buffer address
 621:Drivers/STM32H7xx_HAL_Driver/Src/stm32h7xx_hal_dma.c ****   * @param  DstAddress: The destination memory Buffer address
 622:Drivers/STM32H7xx_HAL_Driver/Src/stm32h7xx_hal_dma.c ****   * @param  DataLength: The length of data to be transferred from source to destination
 623:Drivers/STM32H7xx_HAL_Driver/Src/stm32h7xx_hal_dma.c ****   * @retval HAL status
 624:Drivers/STM32H7xx_HAL_Driver/Src/stm32h7xx_hal_dma.c ****   */
 625:Drivers/STM32H7xx_HAL_Driver/Src/stm32h7xx_hal_dma.c **** HAL_StatusTypeDef HAL_DMA_Start(DMA_HandleTypeDef *hdma, uint32_t SrcAddress, uint32_t DstAddress, 
 626:Drivers/STM32H7xx_HAL_Driver/Src/stm32h7xx_hal_dma.c **** {
 1685              		.loc 1 626 1
 1686              		.cfi_startproc
 1687              		@ args = 0, pretend = 0, frame = 24
 1688              		@ frame_needed = 1, uses_anonymous_args = 0
 1689 0000 80B5     		push	{r7, lr}
 1690              	.LCFI10:
 1691              		.cfi_def_cfa_offset 8
 1692              		.cfi_offset 7, -8
 1693              		.cfi_offset 14, -4
 1694 0002 86B0     		sub	sp, sp, #24
 1695              	.LCFI11:
 1696              		.cfi_def_cfa_offset 32
 1697 0004 00AF     		add	r7, sp, #0
 1698              	.LCFI12:
 1699              		.cfi_def_cfa_register 7
 1700 0006 F860     		str	r0, [r7, #12]
 1701 0008 B960     		str	r1, [r7, #8]
ARM GAS  /var/folders/g1/j12m_ky910s3_sv7d4yrsdn00000gn/T//ccliMUVd.s 			page 42


 1702 000a 7A60     		str	r2, [r7, #4]
 1703 000c 3B60     		str	r3, [r7]
 627:Drivers/STM32H7xx_HAL_Driver/Src/stm32h7xx_hal_dma.c ****   HAL_StatusTypeDef status = HAL_OK;
 1704              		.loc 1 627 21
 1705 000e 0023     		movs	r3, #0
 1706 0010 FB75     		strb	r3, [r7, #23]
 628:Drivers/STM32H7xx_HAL_Driver/Src/stm32h7xx_hal_dma.c **** 
 629:Drivers/STM32H7xx_HAL_Driver/Src/stm32h7xx_hal_dma.c ****   /* Check the parameters */
 630:Drivers/STM32H7xx_HAL_Driver/Src/stm32h7xx_hal_dma.c ****   assert_param(IS_DMA_BUFFER_SIZE(DataLength));
 631:Drivers/STM32H7xx_HAL_Driver/Src/stm32h7xx_hal_dma.c **** 
 632:Drivers/STM32H7xx_HAL_Driver/Src/stm32h7xx_hal_dma.c ****   /* Check the DMA peripheral handle */
 633:Drivers/STM32H7xx_HAL_Driver/Src/stm32h7xx_hal_dma.c ****   if(hdma == NULL)
 1707              		.loc 1 633 5
 1708 0012 FB68     		ldr	r3, [r7, #12]
 1709 0014 002B     		cmp	r3, #0
 1710 0016 01D1     		bne	.L67
 634:Drivers/STM32H7xx_HAL_Driver/Src/stm32h7xx_hal_dma.c ****   {
 635:Drivers/STM32H7xx_HAL_Driver/Src/stm32h7xx_hal_dma.c ****     return HAL_ERROR;
 1711              		.loc 1 635 12
 1712 0018 0123     		movs	r3, #1
 1713 001a ECE0     		b	.L68
 1714              	.L67:
 636:Drivers/STM32H7xx_HAL_Driver/Src/stm32h7xx_hal_dma.c ****   }
 637:Drivers/STM32H7xx_HAL_Driver/Src/stm32h7xx_hal_dma.c **** 
 638:Drivers/STM32H7xx_HAL_Driver/Src/stm32h7xx_hal_dma.c ****   /* Process locked */
 639:Drivers/STM32H7xx_HAL_Driver/Src/stm32h7xx_hal_dma.c ****   __HAL_LOCK(hdma);
 1715              		.loc 1 639 3
 1716 001c FB68     		ldr	r3, [r7, #12]
 1717 001e 93F83430 		ldrb	r3, [r3, #52]	@ zero_extendqisi2
 1718 0022 012B     		cmp	r3, #1
 1719 0024 01D1     		bne	.L69
 1720              		.loc 1 639 3 is_stmt 0 discriminator 1
 1721 0026 0223     		movs	r3, #2
 1722              		.loc 1 639 3
 1723 0028 E5E0     		b	.L68
 1724              	.L69:
 1725              		.loc 1 639 3 discriminator 2
 1726 002a FB68     		ldr	r3, [r7, #12]
 1727 002c 0122     		movs	r2, #1
 1728 002e 83F83420 		strb	r2, [r3, #52]
 640:Drivers/STM32H7xx_HAL_Driver/Src/stm32h7xx_hal_dma.c **** 
 641:Drivers/STM32H7xx_HAL_Driver/Src/stm32h7xx_hal_dma.c ****   if(HAL_DMA_STATE_READY == hdma->State)
 1729              		.loc 1 641 33 is_stmt 1
 1730 0032 FB68     		ldr	r3, [r7, #12]
 1731 0034 93F83530 		ldrb	r3, [r3, #53]
 1732 0038 DBB2     		uxtb	r3, r3
 1733              		.loc 1 641 5
 1734 003a 012B     		cmp	r3, #1
 1735 003c 40F0D080 		bne	.L70
 642:Drivers/STM32H7xx_HAL_Driver/Src/stm32h7xx_hal_dma.c ****   {
 643:Drivers/STM32H7xx_HAL_Driver/Src/stm32h7xx_hal_dma.c ****     /* Change DMA peripheral state */
 644:Drivers/STM32H7xx_HAL_Driver/Src/stm32h7xx_hal_dma.c ****     hdma->State = HAL_DMA_STATE_BUSY;
 1736              		.loc 1 644 17
 1737 0040 FB68     		ldr	r3, [r7, #12]
 1738 0042 0222     		movs	r2, #2
 1739 0044 83F83520 		strb	r2, [r3, #53]
 645:Drivers/STM32H7xx_HAL_Driver/Src/stm32h7xx_hal_dma.c **** 
ARM GAS  /var/folders/g1/j12m_ky910s3_sv7d4yrsdn00000gn/T//ccliMUVd.s 			page 43


 646:Drivers/STM32H7xx_HAL_Driver/Src/stm32h7xx_hal_dma.c ****     /* Initialize the error code */
 647:Drivers/STM32H7xx_HAL_Driver/Src/stm32h7xx_hal_dma.c ****     hdma->ErrorCode = HAL_DMA_ERROR_NONE;
 1740              		.loc 1 647 21
 1741 0048 FB68     		ldr	r3, [r7, #12]
 1742 004a 0022     		movs	r2, #0
 1743 004c 5A65     		str	r2, [r3, #84]
 648:Drivers/STM32H7xx_HAL_Driver/Src/stm32h7xx_hal_dma.c **** 
 649:Drivers/STM32H7xx_HAL_Driver/Src/stm32h7xx_hal_dma.c ****     /* Disable the peripheral */
 650:Drivers/STM32H7xx_HAL_Driver/Src/stm32h7xx_hal_dma.c ****     __HAL_DMA_DISABLE(hdma);
 1744              		.loc 1 650 5
 1745 004e FB68     		ldr	r3, [r7, #12]
 1746 0050 1B68     		ldr	r3, [r3]
 1747 0052 6B4A     		ldr	r2, .L78
 1748 0054 9342     		cmp	r3, r2
 1749 0056 4AD0     		beq	.L71
 1750              		.loc 1 650 5 is_stmt 0 discriminator 2
 1751 0058 FB68     		ldr	r3, [r7, #12]
 1752 005a 1B68     		ldr	r3, [r3]
 1753 005c 694A     		ldr	r2, .L78+4
 1754 005e 9342     		cmp	r3, r2
 1755 0060 45D0     		beq	.L71
 1756              		.loc 1 650 5 discriminator 4
 1757 0062 FB68     		ldr	r3, [r7, #12]
 1758 0064 1B68     		ldr	r3, [r3]
 1759 0066 684A     		ldr	r2, .L78+8
 1760 0068 9342     		cmp	r3, r2
 1761 006a 40D0     		beq	.L71
 1762              		.loc 1 650 5 discriminator 6
 1763 006c FB68     		ldr	r3, [r7, #12]
 1764 006e 1B68     		ldr	r3, [r3]
 1765 0070 664A     		ldr	r2, .L78+12
 1766 0072 9342     		cmp	r3, r2
 1767 0074 3BD0     		beq	.L71
 1768              		.loc 1 650 5 discriminator 8
 1769 0076 FB68     		ldr	r3, [r7, #12]
 1770 0078 1B68     		ldr	r3, [r3]
 1771 007a 654A     		ldr	r2, .L78+16
 1772 007c 9342     		cmp	r3, r2
 1773 007e 36D0     		beq	.L71
 1774              		.loc 1 650 5 discriminator 10
 1775 0080 FB68     		ldr	r3, [r7, #12]
 1776 0082 1B68     		ldr	r3, [r3]
 1777 0084 634A     		ldr	r2, .L78+20
 1778 0086 9342     		cmp	r3, r2
 1779 0088 31D0     		beq	.L71
 1780              		.loc 1 650 5 discriminator 12
 1781 008a FB68     		ldr	r3, [r7, #12]
 1782 008c 1B68     		ldr	r3, [r3]
 1783 008e 624A     		ldr	r2, .L78+24
 1784 0090 9342     		cmp	r3, r2
 1785 0092 2CD0     		beq	.L71
 1786              		.loc 1 650 5 discriminator 14
 1787 0094 FB68     		ldr	r3, [r7, #12]
 1788 0096 1B68     		ldr	r3, [r3]
 1789 0098 604A     		ldr	r2, .L78+28
 1790 009a 9342     		cmp	r3, r2
 1791 009c 27D0     		beq	.L71
ARM GAS  /var/folders/g1/j12m_ky910s3_sv7d4yrsdn00000gn/T//ccliMUVd.s 			page 44


 1792              		.loc 1 650 5 discriminator 16
 1793 009e FB68     		ldr	r3, [r7, #12]
 1794 00a0 1B68     		ldr	r3, [r3]
 1795 00a2 5F4A     		ldr	r2, .L78+32
 1796 00a4 9342     		cmp	r3, r2
 1797 00a6 22D0     		beq	.L71
 1798              		.loc 1 650 5 discriminator 18
 1799 00a8 FB68     		ldr	r3, [r7, #12]
 1800 00aa 1B68     		ldr	r3, [r3]
 1801 00ac 5D4A     		ldr	r2, .L78+36
 1802 00ae 9342     		cmp	r3, r2
 1803 00b0 1DD0     		beq	.L71
 1804              		.loc 1 650 5 discriminator 20
 1805 00b2 FB68     		ldr	r3, [r7, #12]
 1806 00b4 1B68     		ldr	r3, [r3]
 1807 00b6 5C4A     		ldr	r2, .L78+40
 1808 00b8 9342     		cmp	r3, r2
 1809 00ba 18D0     		beq	.L71
 1810              		.loc 1 650 5 discriminator 22
 1811 00bc FB68     		ldr	r3, [r7, #12]
 1812 00be 1B68     		ldr	r3, [r3]
 1813 00c0 5A4A     		ldr	r2, .L78+44
 1814 00c2 9342     		cmp	r3, r2
 1815 00c4 13D0     		beq	.L71
 1816              		.loc 1 650 5 discriminator 24
 1817 00c6 FB68     		ldr	r3, [r7, #12]
 1818 00c8 1B68     		ldr	r3, [r3]
 1819 00ca 594A     		ldr	r2, .L78+48
 1820 00cc 9342     		cmp	r3, r2
 1821 00ce 0ED0     		beq	.L71
 1822              		.loc 1 650 5 discriminator 26
 1823 00d0 FB68     		ldr	r3, [r7, #12]
 1824 00d2 1B68     		ldr	r3, [r3]
 1825 00d4 574A     		ldr	r2, .L78+52
 1826 00d6 9342     		cmp	r3, r2
 1827 00d8 09D0     		beq	.L71
 1828              		.loc 1 650 5 discriminator 28
 1829 00da FB68     		ldr	r3, [r7, #12]
 1830 00dc 1B68     		ldr	r3, [r3]
 1831 00de 564A     		ldr	r2, .L78+56
 1832 00e0 9342     		cmp	r3, r2
 1833 00e2 04D0     		beq	.L71
 1834              		.loc 1 650 5 discriminator 30
 1835 00e4 FB68     		ldr	r3, [r7, #12]
 1836 00e6 1B68     		ldr	r3, [r3]
 1837 00e8 544A     		ldr	r2, .L78+60
 1838 00ea 9342     		cmp	r3, r2
 1839 00ec 08D1     		bne	.L72
 1840              	.L71:
 1841              		.loc 1 650 5 discriminator 31
 1842 00ee FB68     		ldr	r3, [r7, #12]
 1843 00f0 1B68     		ldr	r3, [r3]
 1844 00f2 1A68     		ldr	r2, [r3]
 1845 00f4 FB68     		ldr	r3, [r7, #12]
 1846 00f6 1B68     		ldr	r3, [r3]
 1847 00f8 22F00102 		bic	r2, r2, #1
 1848 00fc 1A60     		str	r2, [r3]
ARM GAS  /var/folders/g1/j12m_ky910s3_sv7d4yrsdn00000gn/T//ccliMUVd.s 			page 45


 1849              		.loc 1 650 5
 1850 00fe 07E0     		b	.L73
 1851              	.L72:
 1852              		.loc 1 650 5 discriminator 32
 1853 0100 FB68     		ldr	r3, [r7, #12]
 1854 0102 1B68     		ldr	r3, [r3]
 1855 0104 1A68     		ldr	r2, [r3]
 1856 0106 FB68     		ldr	r3, [r7, #12]
 1857 0108 1B68     		ldr	r3, [r3]
 1858 010a 22F00102 		bic	r2, r2, #1
 1859 010e 1A60     		str	r2, [r3]
 1860              	.L73:
 651:Drivers/STM32H7xx_HAL_Driver/Src/stm32h7xx_hal_dma.c **** 
 652:Drivers/STM32H7xx_HAL_Driver/Src/stm32h7xx_hal_dma.c ****     /* Configure the source, destination address and the data length */
 653:Drivers/STM32H7xx_HAL_Driver/Src/stm32h7xx_hal_dma.c ****     DMA_SetConfig(hdma, SrcAddress, DstAddress, DataLength);
 1861              		.loc 1 653 5 is_stmt 1
 1862 0110 3B68     		ldr	r3, [r7]
 1863 0112 7A68     		ldr	r2, [r7, #4]
 1864 0114 B968     		ldr	r1, [r7, #8]
 1865 0116 F868     		ldr	r0, [r7, #12]
 1866 0118 FFF7FEFF 		bl	DMA_SetConfig
 654:Drivers/STM32H7xx_HAL_Driver/Src/stm32h7xx_hal_dma.c **** 
 655:Drivers/STM32H7xx_HAL_Driver/Src/stm32h7xx_hal_dma.c ****     /* Enable the Peripheral */
 656:Drivers/STM32H7xx_HAL_Driver/Src/stm32h7xx_hal_dma.c ****     __HAL_DMA_ENABLE(hdma);
 1867              		.loc 1 656 5
 1868 011c FB68     		ldr	r3, [r7, #12]
 1869 011e 1B68     		ldr	r3, [r3]
 1870 0120 374A     		ldr	r2, .L78
 1871 0122 9342     		cmp	r3, r2
 1872 0124 4AD0     		beq	.L74
 1873              		.loc 1 656 5 is_stmt 0 discriminator 2
 1874 0126 FB68     		ldr	r3, [r7, #12]
 1875 0128 1B68     		ldr	r3, [r3]
 1876 012a 364A     		ldr	r2, .L78+4
 1877 012c 9342     		cmp	r3, r2
 1878 012e 45D0     		beq	.L74
 1879              		.loc 1 656 5 discriminator 4
 1880 0130 FB68     		ldr	r3, [r7, #12]
 1881 0132 1B68     		ldr	r3, [r3]
 1882 0134 344A     		ldr	r2, .L78+8
 1883 0136 9342     		cmp	r3, r2
 1884 0138 40D0     		beq	.L74
 1885              		.loc 1 656 5 discriminator 6
 1886 013a FB68     		ldr	r3, [r7, #12]
 1887 013c 1B68     		ldr	r3, [r3]
 1888 013e 334A     		ldr	r2, .L78+12
 1889 0140 9342     		cmp	r3, r2
 1890 0142 3BD0     		beq	.L74
 1891              		.loc 1 656 5 discriminator 8
 1892 0144 FB68     		ldr	r3, [r7, #12]
 1893 0146 1B68     		ldr	r3, [r3]
 1894 0148 314A     		ldr	r2, .L78+16
 1895 014a 9342     		cmp	r3, r2
 1896 014c 36D0     		beq	.L74
 1897              		.loc 1 656 5 discriminator 10
 1898 014e FB68     		ldr	r3, [r7, #12]
 1899 0150 1B68     		ldr	r3, [r3]
ARM GAS  /var/folders/g1/j12m_ky910s3_sv7d4yrsdn00000gn/T//ccliMUVd.s 			page 46


 1900 0152 304A     		ldr	r2, .L78+20
 1901 0154 9342     		cmp	r3, r2
 1902 0156 31D0     		beq	.L74
 1903              		.loc 1 656 5 discriminator 12
 1904 0158 FB68     		ldr	r3, [r7, #12]
 1905 015a 1B68     		ldr	r3, [r3]
 1906 015c 2E4A     		ldr	r2, .L78+24
 1907 015e 9342     		cmp	r3, r2
 1908 0160 2CD0     		beq	.L74
 1909              		.loc 1 656 5 discriminator 14
 1910 0162 FB68     		ldr	r3, [r7, #12]
 1911 0164 1B68     		ldr	r3, [r3]
 1912 0166 2D4A     		ldr	r2, .L78+28
 1913 0168 9342     		cmp	r3, r2
 1914 016a 27D0     		beq	.L74
 1915              		.loc 1 656 5 discriminator 16
 1916 016c FB68     		ldr	r3, [r7, #12]
 1917 016e 1B68     		ldr	r3, [r3]
 1918 0170 2B4A     		ldr	r2, .L78+32
 1919 0172 9342     		cmp	r3, r2
 1920 0174 22D0     		beq	.L74
 1921              		.loc 1 656 5 discriminator 18
 1922 0176 FB68     		ldr	r3, [r7, #12]
 1923 0178 1B68     		ldr	r3, [r3]
 1924 017a 2A4A     		ldr	r2, .L78+36
 1925 017c 9342     		cmp	r3, r2
 1926 017e 1DD0     		beq	.L74
 1927              		.loc 1 656 5 discriminator 20
 1928 0180 FB68     		ldr	r3, [r7, #12]
 1929 0182 1B68     		ldr	r3, [r3]
 1930 0184 284A     		ldr	r2, .L78+40
 1931 0186 9342     		cmp	r3, r2
 1932 0188 18D0     		beq	.L74
 1933              		.loc 1 656 5 discriminator 22
 1934 018a FB68     		ldr	r3, [r7, #12]
 1935 018c 1B68     		ldr	r3, [r3]
 1936 018e 274A     		ldr	r2, .L78+44
 1937 0190 9342     		cmp	r3, r2
 1938 0192 13D0     		beq	.L74
 1939              		.loc 1 656 5 discriminator 24
 1940 0194 FB68     		ldr	r3, [r7, #12]
 1941 0196 1B68     		ldr	r3, [r3]
 1942 0198 254A     		ldr	r2, .L78+48
 1943 019a 9342     		cmp	r3, r2
 1944 019c 0ED0     		beq	.L74
 1945              		.loc 1 656 5 discriminator 26
 1946 019e FB68     		ldr	r3, [r7, #12]
 1947 01a0 1B68     		ldr	r3, [r3]
 1948 01a2 244A     		ldr	r2, .L78+52
 1949 01a4 9342     		cmp	r3, r2
 1950 01a6 09D0     		beq	.L74
 1951              		.loc 1 656 5 discriminator 28
 1952 01a8 FB68     		ldr	r3, [r7, #12]
 1953 01aa 1B68     		ldr	r3, [r3]
 1954 01ac 224A     		ldr	r2, .L78+56
 1955 01ae 9342     		cmp	r3, r2
 1956 01b0 04D0     		beq	.L74
ARM GAS  /var/folders/g1/j12m_ky910s3_sv7d4yrsdn00000gn/T//ccliMUVd.s 			page 47


 1957              		.loc 1 656 5 discriminator 30
 1958 01b2 FB68     		ldr	r3, [r7, #12]
 1959 01b4 1B68     		ldr	r3, [r3]
 1960 01b6 214A     		ldr	r2, .L78+60
 1961 01b8 9342     		cmp	r3, r2
 1962 01ba 08D1     		bne	.L75
 1963              	.L74:
 1964              		.loc 1 656 5 discriminator 31
 1965 01bc FB68     		ldr	r3, [r7, #12]
 1966 01be 1B68     		ldr	r3, [r3]
 1967 01c0 1A68     		ldr	r2, [r3]
 1968 01c2 FB68     		ldr	r3, [r7, #12]
 1969 01c4 1B68     		ldr	r3, [r3]
 1970 01c6 42F00102 		orr	r2, r2, #1
 1971 01ca 1A60     		str	r2, [r3]
 1972              		.loc 1 656 5
 1973 01cc 12E0     		b	.L77
 1974              	.L75:
 1975              		.loc 1 656 5 discriminator 32
 1976 01ce FB68     		ldr	r3, [r7, #12]
 1977 01d0 1B68     		ldr	r3, [r3]
 1978 01d2 1A68     		ldr	r2, [r3]
 1979 01d4 FB68     		ldr	r3, [r7, #12]
 1980 01d6 1B68     		ldr	r3, [r3]
 1981 01d8 42F00102 		orr	r2, r2, #1
 1982 01dc 1A60     		str	r2, [r3]
 1983 01de 09E0     		b	.L77
 1984              	.L70:
 657:Drivers/STM32H7xx_HAL_Driver/Src/stm32h7xx_hal_dma.c ****   }
 658:Drivers/STM32H7xx_HAL_Driver/Src/stm32h7xx_hal_dma.c ****   else
 659:Drivers/STM32H7xx_HAL_Driver/Src/stm32h7xx_hal_dma.c ****   {
 660:Drivers/STM32H7xx_HAL_Driver/Src/stm32h7xx_hal_dma.c ****     /* Set the error code to busy */
 661:Drivers/STM32H7xx_HAL_Driver/Src/stm32h7xx_hal_dma.c ****     hdma->ErrorCode = HAL_DMA_ERROR_BUSY;
 1985              		.loc 1 661 21 is_stmt 1
 1986 01e0 FB68     		ldr	r3, [r7, #12]
 1987 01e2 4FF40062 		mov	r2, #2048
 1988 01e6 5A65     		str	r2, [r3, #84]
 662:Drivers/STM32H7xx_HAL_Driver/Src/stm32h7xx_hal_dma.c **** 
 663:Drivers/STM32H7xx_HAL_Driver/Src/stm32h7xx_hal_dma.c ****     /* Process unlocked */
 664:Drivers/STM32H7xx_HAL_Driver/Src/stm32h7xx_hal_dma.c ****     __HAL_UNLOCK(hdma);
 1989              		.loc 1 664 5
 1990 01e8 FB68     		ldr	r3, [r7, #12]
 1991 01ea 0022     		movs	r2, #0
 1992 01ec 83F83420 		strb	r2, [r3, #52]
 665:Drivers/STM32H7xx_HAL_Driver/Src/stm32h7xx_hal_dma.c **** 
 666:Drivers/STM32H7xx_HAL_Driver/Src/stm32h7xx_hal_dma.c ****     /* Return error status */
 667:Drivers/STM32H7xx_HAL_Driver/Src/stm32h7xx_hal_dma.c ****     status = HAL_ERROR;
 1993              		.loc 1 667 12
 1994 01f0 0123     		movs	r3, #1
 1995 01f2 FB75     		strb	r3, [r7, #23]
 1996              	.L77:
 668:Drivers/STM32H7xx_HAL_Driver/Src/stm32h7xx_hal_dma.c ****   }
 669:Drivers/STM32H7xx_HAL_Driver/Src/stm32h7xx_hal_dma.c ****   return status;
 1997              		.loc 1 669 10
 1998 01f4 FB7D     		ldrb	r3, [r7, #23]	@ zero_extendqisi2
 1999              	.L68:
 670:Drivers/STM32H7xx_HAL_Driver/Src/stm32h7xx_hal_dma.c **** }
ARM GAS  /var/folders/g1/j12m_ky910s3_sv7d4yrsdn00000gn/T//ccliMUVd.s 			page 48


 2000              		.loc 1 670 1
 2001 01f6 1846     		mov	r0, r3
 2002 01f8 1837     		adds	r7, r7, #24
 2003              	.LCFI13:
 2004              		.cfi_def_cfa_offset 8
 2005 01fa BD46     		mov	sp, r7
 2006              	.LCFI14:
 2007              		.cfi_def_cfa_register 13
 2008              		@ sp needed
 2009 01fc 80BD     		pop	{r7, pc}
 2010              	.L79:
 2011 01fe 00BF     		.align	2
 2012              	.L78:
 2013 0200 10000240 		.word	1073872912
 2014 0204 28000240 		.word	1073872936
 2015 0208 40000240 		.word	1073872960
 2016 020c 58000240 		.word	1073872984
 2017 0210 70000240 		.word	1073873008
 2018 0214 88000240 		.word	1073873032
 2019 0218 A0000240 		.word	1073873056
 2020 021c B8000240 		.word	1073873080
 2021 0220 10040240 		.word	1073873936
 2022 0224 28040240 		.word	1073873960
 2023 0228 40040240 		.word	1073873984
 2024 022c 58040240 		.word	1073874008
 2025 0230 70040240 		.word	1073874032
 2026 0234 88040240 		.word	1073874056
 2027 0238 A0040240 		.word	1073874080
 2028 023c B8040240 		.word	1073874104
 2029              		.cfi_endproc
 2030              	.LFE146:
 2032              		.section	.text.HAL_DMA_Start_IT,"ax",%progbits
 2033              		.align	1
 2034              		.global	HAL_DMA_Start_IT
 2035              		.syntax unified
 2036              		.thumb
 2037              		.thumb_func
 2039              	HAL_DMA_Start_IT:
 2040              	.LFB147:
 671:Drivers/STM32H7xx_HAL_Driver/Src/stm32h7xx_hal_dma.c **** 
 672:Drivers/STM32H7xx_HAL_Driver/Src/stm32h7xx_hal_dma.c **** /**
 673:Drivers/STM32H7xx_HAL_Driver/Src/stm32h7xx_hal_dma.c ****   * @brief  Start the DMA Transfer with interrupt enabled.
 674:Drivers/STM32H7xx_HAL_Driver/Src/stm32h7xx_hal_dma.c ****   * @param  hdma:       pointer to a DMA_HandleTypeDef structure that contains
 675:Drivers/STM32H7xx_HAL_Driver/Src/stm32h7xx_hal_dma.c ****   *                     the configuration information for the specified DMA Stream.
 676:Drivers/STM32H7xx_HAL_Driver/Src/stm32h7xx_hal_dma.c ****   * @param  SrcAddress: The source memory Buffer address
 677:Drivers/STM32H7xx_HAL_Driver/Src/stm32h7xx_hal_dma.c ****   * @param  DstAddress: The destination memory Buffer address
 678:Drivers/STM32H7xx_HAL_Driver/Src/stm32h7xx_hal_dma.c ****   * @param  DataLength: The length of data to be transferred from source to destination
 679:Drivers/STM32H7xx_HAL_Driver/Src/stm32h7xx_hal_dma.c ****   * @retval HAL status
 680:Drivers/STM32H7xx_HAL_Driver/Src/stm32h7xx_hal_dma.c ****   */
 681:Drivers/STM32H7xx_HAL_Driver/Src/stm32h7xx_hal_dma.c **** HAL_StatusTypeDef HAL_DMA_Start_IT(DMA_HandleTypeDef *hdma, uint32_t SrcAddress, uint32_t DstAddres
 682:Drivers/STM32H7xx_HAL_Driver/Src/stm32h7xx_hal_dma.c **** {
 2041              		.loc 1 682 1
 2042              		.cfi_startproc
 2043              		@ args = 0, pretend = 0, frame = 24
 2044              		@ frame_needed = 1, uses_anonymous_args = 0
 2045 0000 80B5     		push	{r7, lr}
 2046              	.LCFI15:
ARM GAS  /var/folders/g1/j12m_ky910s3_sv7d4yrsdn00000gn/T//ccliMUVd.s 			page 49


 2047              		.cfi_def_cfa_offset 8
 2048              		.cfi_offset 7, -8
 2049              		.cfi_offset 14, -4
 2050 0002 86B0     		sub	sp, sp, #24
 2051              	.LCFI16:
 2052              		.cfi_def_cfa_offset 32
 2053 0004 00AF     		add	r7, sp, #0
 2054              	.LCFI17:
 2055              		.cfi_def_cfa_register 7
 2056 0006 F860     		str	r0, [r7, #12]
 2057 0008 B960     		str	r1, [r7, #8]
 2058 000a 7A60     		str	r2, [r7, #4]
 2059 000c 3B60     		str	r3, [r7]
 683:Drivers/STM32H7xx_HAL_Driver/Src/stm32h7xx_hal_dma.c ****   HAL_StatusTypeDef status = HAL_OK;
 2060              		.loc 1 683 21
 2061 000e 0023     		movs	r3, #0
 2062 0010 FB75     		strb	r3, [r7, #23]
 684:Drivers/STM32H7xx_HAL_Driver/Src/stm32h7xx_hal_dma.c **** 
 685:Drivers/STM32H7xx_HAL_Driver/Src/stm32h7xx_hal_dma.c ****   /* Check the parameters */
 686:Drivers/STM32H7xx_HAL_Driver/Src/stm32h7xx_hal_dma.c ****   assert_param(IS_DMA_BUFFER_SIZE(DataLength));
 687:Drivers/STM32H7xx_HAL_Driver/Src/stm32h7xx_hal_dma.c **** 
 688:Drivers/STM32H7xx_HAL_Driver/Src/stm32h7xx_hal_dma.c ****   /* Check the DMA peripheral handle */
 689:Drivers/STM32H7xx_HAL_Driver/Src/stm32h7xx_hal_dma.c ****   if(hdma == NULL)
 2063              		.loc 1 689 5
 2064 0012 FB68     		ldr	r3, [r7, #12]
 2065 0014 002B     		cmp	r3, #0
 2066 0016 01D1     		bne	.L81
 690:Drivers/STM32H7xx_HAL_Driver/Src/stm32h7xx_hal_dma.c ****   {
 691:Drivers/STM32H7xx_HAL_Driver/Src/stm32h7xx_hal_dma.c ****     return HAL_ERROR;
 2067              		.loc 1 691 12
 2068 0018 0123     		movs	r3, #1
 2069 001a 26E2     		b	.L82
 2070              	.L81:
 692:Drivers/STM32H7xx_HAL_Driver/Src/stm32h7xx_hal_dma.c ****   }
 693:Drivers/STM32H7xx_HAL_Driver/Src/stm32h7xx_hal_dma.c **** 
 694:Drivers/STM32H7xx_HAL_Driver/Src/stm32h7xx_hal_dma.c ****   /* Process locked */
 695:Drivers/STM32H7xx_HAL_Driver/Src/stm32h7xx_hal_dma.c ****   __HAL_LOCK(hdma);
 2071              		.loc 1 695 3
 2072 001c FB68     		ldr	r3, [r7, #12]
 2073 001e 93F83430 		ldrb	r3, [r3, #52]	@ zero_extendqisi2
 2074 0022 012B     		cmp	r3, #1
 2075 0024 01D1     		bne	.L83
 2076              		.loc 1 695 3 is_stmt 0 discriminator 1
 2077 0026 0223     		movs	r3, #2
 2078              		.loc 1 695 3
 2079 0028 1FE2     		b	.L82
 2080              	.L83:
 2081              		.loc 1 695 3 discriminator 2
 2082 002a FB68     		ldr	r3, [r7, #12]
 2083 002c 0122     		movs	r2, #1
 2084 002e 83F83420 		strb	r2, [r3, #52]
 696:Drivers/STM32H7xx_HAL_Driver/Src/stm32h7xx_hal_dma.c **** 
 697:Drivers/STM32H7xx_HAL_Driver/Src/stm32h7xx_hal_dma.c ****   if(HAL_DMA_STATE_READY == hdma->State)
 2085              		.loc 1 697 33 is_stmt 1
 2086 0032 FB68     		ldr	r3, [r7, #12]
 2087 0034 93F83530 		ldrb	r3, [r3, #53]
 2088 0038 DBB2     		uxtb	r3, r3
ARM GAS  /var/folders/g1/j12m_ky910s3_sv7d4yrsdn00000gn/T//ccliMUVd.s 			page 50


 2089              		.loc 1 697 5
 2090 003a 012B     		cmp	r3, #1
 2091 003c 40F00A82 		bne	.L84
 698:Drivers/STM32H7xx_HAL_Driver/Src/stm32h7xx_hal_dma.c ****   {
 699:Drivers/STM32H7xx_HAL_Driver/Src/stm32h7xx_hal_dma.c ****     /* Change DMA peripheral state */
 700:Drivers/STM32H7xx_HAL_Driver/Src/stm32h7xx_hal_dma.c ****     hdma->State = HAL_DMA_STATE_BUSY;
 2092              		.loc 1 700 17
 2093 0040 FB68     		ldr	r3, [r7, #12]
 2094 0042 0222     		movs	r2, #2
 2095 0044 83F83520 		strb	r2, [r3, #53]
 701:Drivers/STM32H7xx_HAL_Driver/Src/stm32h7xx_hal_dma.c **** 
 702:Drivers/STM32H7xx_HAL_Driver/Src/stm32h7xx_hal_dma.c ****     /* Initialize the error code */
 703:Drivers/STM32H7xx_HAL_Driver/Src/stm32h7xx_hal_dma.c ****     hdma->ErrorCode = HAL_DMA_ERROR_NONE;
 2096              		.loc 1 703 21
 2097 0048 FB68     		ldr	r3, [r7, #12]
 2098 004a 0022     		movs	r2, #0
 2099 004c 5A65     		str	r2, [r3, #84]
 704:Drivers/STM32H7xx_HAL_Driver/Src/stm32h7xx_hal_dma.c **** 
 705:Drivers/STM32H7xx_HAL_Driver/Src/stm32h7xx_hal_dma.c ****     /* Disable the peripheral */
 706:Drivers/STM32H7xx_HAL_Driver/Src/stm32h7xx_hal_dma.c ****     __HAL_DMA_DISABLE(hdma);
 2100              		.loc 1 706 5
 2101 004e FB68     		ldr	r3, [r7, #12]
 2102 0050 1B68     		ldr	r3, [r3]
 2103 0052 684A     		ldr	r2, .L102
 2104 0054 9342     		cmp	r3, r2
 2105 0056 4AD0     		beq	.L85
 2106              		.loc 1 706 5 is_stmt 0 discriminator 2
 2107 0058 FB68     		ldr	r3, [r7, #12]
 2108 005a 1B68     		ldr	r3, [r3]
 2109 005c 664A     		ldr	r2, .L102+4
 2110 005e 9342     		cmp	r3, r2
 2111 0060 45D0     		beq	.L85
 2112              		.loc 1 706 5 discriminator 4
 2113 0062 FB68     		ldr	r3, [r7, #12]
 2114 0064 1B68     		ldr	r3, [r3]
 2115 0066 654A     		ldr	r2, .L102+8
 2116 0068 9342     		cmp	r3, r2
 2117 006a 40D0     		beq	.L85
 2118              		.loc 1 706 5 discriminator 6
 2119 006c FB68     		ldr	r3, [r7, #12]
 2120 006e 1B68     		ldr	r3, [r3]
 2121 0070 634A     		ldr	r2, .L102+12
 2122 0072 9342     		cmp	r3, r2
 2123 0074 3BD0     		beq	.L85
 2124              		.loc 1 706 5 discriminator 8
 2125 0076 FB68     		ldr	r3, [r7, #12]
 2126 0078 1B68     		ldr	r3, [r3]
 2127 007a 624A     		ldr	r2, .L102+16
 2128 007c 9342     		cmp	r3, r2
 2129 007e 36D0     		beq	.L85
 2130              		.loc 1 706 5 discriminator 10
 2131 0080 FB68     		ldr	r3, [r7, #12]
 2132 0082 1B68     		ldr	r3, [r3]
 2133 0084 604A     		ldr	r2, .L102+20
 2134 0086 9342     		cmp	r3, r2
 2135 0088 31D0     		beq	.L85
 2136              		.loc 1 706 5 discriminator 12
ARM GAS  /var/folders/g1/j12m_ky910s3_sv7d4yrsdn00000gn/T//ccliMUVd.s 			page 51


 2137 008a FB68     		ldr	r3, [r7, #12]
 2138 008c 1B68     		ldr	r3, [r3]
 2139 008e 5F4A     		ldr	r2, .L102+24
 2140 0090 9342     		cmp	r3, r2
 2141 0092 2CD0     		beq	.L85
 2142              		.loc 1 706 5 discriminator 14
 2143 0094 FB68     		ldr	r3, [r7, #12]
 2144 0096 1B68     		ldr	r3, [r3]
 2145 0098 5D4A     		ldr	r2, .L102+28
 2146 009a 9342     		cmp	r3, r2
 2147 009c 27D0     		beq	.L85
 2148              		.loc 1 706 5 discriminator 16
 2149 009e FB68     		ldr	r3, [r7, #12]
 2150 00a0 1B68     		ldr	r3, [r3]
 2151 00a2 5C4A     		ldr	r2, .L102+32
 2152 00a4 9342     		cmp	r3, r2
 2153 00a6 22D0     		beq	.L85
 2154              		.loc 1 706 5 discriminator 18
 2155 00a8 FB68     		ldr	r3, [r7, #12]
 2156 00aa 1B68     		ldr	r3, [r3]
 2157 00ac 5A4A     		ldr	r2, .L102+36
 2158 00ae 9342     		cmp	r3, r2
 2159 00b0 1DD0     		beq	.L85
 2160              		.loc 1 706 5 discriminator 20
 2161 00b2 FB68     		ldr	r3, [r7, #12]
 2162 00b4 1B68     		ldr	r3, [r3]
 2163 00b6 594A     		ldr	r2, .L102+40
 2164 00b8 9342     		cmp	r3, r2
 2165 00ba 18D0     		beq	.L85
 2166              		.loc 1 706 5 discriminator 22
 2167 00bc FB68     		ldr	r3, [r7, #12]
 2168 00be 1B68     		ldr	r3, [r3]
 2169 00c0 574A     		ldr	r2, .L102+44
 2170 00c2 9342     		cmp	r3, r2
 2171 00c4 13D0     		beq	.L85
 2172              		.loc 1 706 5 discriminator 24
 2173 00c6 FB68     		ldr	r3, [r7, #12]
 2174 00c8 1B68     		ldr	r3, [r3]
 2175 00ca 564A     		ldr	r2, .L102+48
 2176 00cc 9342     		cmp	r3, r2
 2177 00ce 0ED0     		beq	.L85
 2178              		.loc 1 706 5 discriminator 26
 2179 00d0 FB68     		ldr	r3, [r7, #12]
 2180 00d2 1B68     		ldr	r3, [r3]
 2181 00d4 544A     		ldr	r2, .L102+52
 2182 00d6 9342     		cmp	r3, r2
 2183 00d8 09D0     		beq	.L85
 2184              		.loc 1 706 5 discriminator 28
 2185 00da FB68     		ldr	r3, [r7, #12]
 2186 00dc 1B68     		ldr	r3, [r3]
 2187 00de 534A     		ldr	r2, .L102+56
 2188 00e0 9342     		cmp	r3, r2
 2189 00e2 04D0     		beq	.L85
 2190              		.loc 1 706 5 discriminator 30
 2191 00e4 FB68     		ldr	r3, [r7, #12]
 2192 00e6 1B68     		ldr	r3, [r3]
 2193 00e8 514A     		ldr	r2, .L102+60
ARM GAS  /var/folders/g1/j12m_ky910s3_sv7d4yrsdn00000gn/T//ccliMUVd.s 			page 52


 2194 00ea 9342     		cmp	r3, r2
 2195 00ec 08D1     		bne	.L86
 2196              	.L85:
 2197              		.loc 1 706 5 discriminator 31
 2198 00ee FB68     		ldr	r3, [r7, #12]
 2199 00f0 1B68     		ldr	r3, [r3]
 2200 00f2 1A68     		ldr	r2, [r3]
 2201 00f4 FB68     		ldr	r3, [r7, #12]
 2202 00f6 1B68     		ldr	r3, [r3]
 2203 00f8 22F00102 		bic	r2, r2, #1
 2204 00fc 1A60     		str	r2, [r3]
 2205              		.loc 1 706 5
 2206 00fe 07E0     		b	.L87
 2207              	.L86:
 2208              		.loc 1 706 5 discriminator 32
 2209 0100 FB68     		ldr	r3, [r7, #12]
 2210 0102 1B68     		ldr	r3, [r3]
 2211 0104 1A68     		ldr	r2, [r3]
 2212 0106 FB68     		ldr	r3, [r7, #12]
 2213 0108 1B68     		ldr	r3, [r3]
 2214 010a 22F00102 		bic	r2, r2, #1
 2215 010e 1A60     		str	r2, [r3]
 2216              	.L87:
 707:Drivers/STM32H7xx_HAL_Driver/Src/stm32h7xx_hal_dma.c **** 
 708:Drivers/STM32H7xx_HAL_Driver/Src/stm32h7xx_hal_dma.c ****     /* Configure the source, destination address and the data length */
 709:Drivers/STM32H7xx_HAL_Driver/Src/stm32h7xx_hal_dma.c ****     DMA_SetConfig(hdma, SrcAddress, DstAddress, DataLength);
 2217              		.loc 1 709 5 is_stmt 1
 2218 0110 3B68     		ldr	r3, [r7]
 2219 0112 7A68     		ldr	r2, [r7, #4]
 2220 0114 B968     		ldr	r1, [r7, #8]
 2221 0116 F868     		ldr	r0, [r7, #12]
 2222 0118 FFF7FEFF 		bl	DMA_SetConfig
 710:Drivers/STM32H7xx_HAL_Driver/Src/stm32h7xx_hal_dma.c **** 
 711:Drivers/STM32H7xx_HAL_Driver/Src/stm32h7xx_hal_dma.c ****     if(IS_DMA_STREAM_INSTANCE(hdma->Instance) != 0U) /* DMA1 or DMA2 instance */
 2223              		.loc 1 711 8
 2224 011c FB68     		ldr	r3, [r7, #12]
 2225 011e 1B68     		ldr	r3, [r3]
 2226 0120 344A     		ldr	r2, .L102
 2227 0122 9342     		cmp	r3, r2
 2228 0124 4AD0     		beq	.L88
 2229              		.loc 1 711 8 is_stmt 0 discriminator 2
 2230 0126 FB68     		ldr	r3, [r7, #12]
 2231 0128 1B68     		ldr	r3, [r3]
 2232 012a 334A     		ldr	r2, .L102+4
 2233 012c 9342     		cmp	r3, r2
 2234 012e 45D0     		beq	.L88
 2235              		.loc 1 711 8 discriminator 4
 2236 0130 FB68     		ldr	r3, [r7, #12]
 2237 0132 1B68     		ldr	r3, [r3]
 2238 0134 314A     		ldr	r2, .L102+8
 2239 0136 9342     		cmp	r3, r2
 2240 0138 40D0     		beq	.L88
 2241              		.loc 1 711 8 discriminator 6
 2242 013a FB68     		ldr	r3, [r7, #12]
 2243 013c 1B68     		ldr	r3, [r3]
 2244 013e 304A     		ldr	r2, .L102+12
 2245 0140 9342     		cmp	r3, r2
ARM GAS  /var/folders/g1/j12m_ky910s3_sv7d4yrsdn00000gn/T//ccliMUVd.s 			page 53


 2246 0142 3BD0     		beq	.L88
 2247              		.loc 1 711 8 discriminator 8
 2248 0144 FB68     		ldr	r3, [r7, #12]
 2249 0146 1B68     		ldr	r3, [r3]
 2250 0148 2E4A     		ldr	r2, .L102+16
 2251 014a 9342     		cmp	r3, r2
 2252 014c 36D0     		beq	.L88
 2253              		.loc 1 711 8 discriminator 10
 2254 014e FB68     		ldr	r3, [r7, #12]
 2255 0150 1B68     		ldr	r3, [r3]
 2256 0152 2D4A     		ldr	r2, .L102+20
 2257 0154 9342     		cmp	r3, r2
 2258 0156 31D0     		beq	.L88
 2259              		.loc 1 711 8 discriminator 12
 2260 0158 FB68     		ldr	r3, [r7, #12]
 2261 015a 1B68     		ldr	r3, [r3]
 2262 015c 2B4A     		ldr	r2, .L102+24
 2263 015e 9342     		cmp	r3, r2
 2264 0160 2CD0     		beq	.L88
 2265              		.loc 1 711 8 discriminator 14
 2266 0162 FB68     		ldr	r3, [r7, #12]
 2267 0164 1B68     		ldr	r3, [r3]
 2268 0166 2A4A     		ldr	r2, .L102+28
 2269 0168 9342     		cmp	r3, r2
 2270 016a 27D0     		beq	.L88
 2271              		.loc 1 711 8 discriminator 16
 2272 016c FB68     		ldr	r3, [r7, #12]
 2273 016e 1B68     		ldr	r3, [r3]
 2274 0170 284A     		ldr	r2, .L102+32
 2275 0172 9342     		cmp	r3, r2
 2276 0174 22D0     		beq	.L88
 2277              		.loc 1 711 8 discriminator 18
 2278 0176 FB68     		ldr	r3, [r7, #12]
 2279 0178 1B68     		ldr	r3, [r3]
 2280 017a 274A     		ldr	r2, .L102+36
 2281 017c 9342     		cmp	r3, r2
 2282 017e 1DD0     		beq	.L88
 2283              		.loc 1 711 8 discriminator 20
 2284 0180 FB68     		ldr	r3, [r7, #12]
 2285 0182 1B68     		ldr	r3, [r3]
 2286 0184 254A     		ldr	r2, .L102+40
 2287 0186 9342     		cmp	r3, r2
 2288 0188 18D0     		beq	.L88
 2289              		.loc 1 711 8 discriminator 22
 2290 018a FB68     		ldr	r3, [r7, #12]
 2291 018c 1B68     		ldr	r3, [r3]
 2292 018e 244A     		ldr	r2, .L102+44
 2293 0190 9342     		cmp	r3, r2
 2294 0192 13D0     		beq	.L88
 2295              		.loc 1 711 8 discriminator 24
 2296 0194 FB68     		ldr	r3, [r7, #12]
 2297 0196 1B68     		ldr	r3, [r3]
 2298 0198 224A     		ldr	r2, .L102+48
 2299 019a 9342     		cmp	r3, r2
 2300 019c 0ED0     		beq	.L88
 2301              		.loc 1 711 8 discriminator 26
 2302 019e FB68     		ldr	r3, [r7, #12]
ARM GAS  /var/folders/g1/j12m_ky910s3_sv7d4yrsdn00000gn/T//ccliMUVd.s 			page 54


 2303 01a0 1B68     		ldr	r3, [r3]
 2304 01a2 214A     		ldr	r2, .L102+52
 2305 01a4 9342     		cmp	r3, r2
 2306 01a6 09D0     		beq	.L88
 2307              		.loc 1 711 8 discriminator 28
 2308 01a8 FB68     		ldr	r3, [r7, #12]
 2309 01aa 1B68     		ldr	r3, [r3]
 2310 01ac 1F4A     		ldr	r2, .L102+56
 2311 01ae 9342     		cmp	r3, r2
 2312 01b0 04D0     		beq	.L88
 2313              		.loc 1 711 8 discriminator 30
 2314 01b2 FB68     		ldr	r3, [r7, #12]
 2315 01b4 1B68     		ldr	r3, [r3]
 2316 01b6 1E4A     		ldr	r2, .L102+60
 2317 01b8 9342     		cmp	r3, r2
 2318 01ba 01D1     		bne	.L89
 2319              	.L88:
 2320              		.loc 1 711 8 discriminator 31
 2321 01bc 0123     		movs	r3, #1
 2322              		.loc 1 711 8
 2323 01be 00E0     		b	.L90
 2324              	.L89:
 2325              		.loc 1 711 8 discriminator 32
 2326 01c0 0023     		movs	r3, #0
 2327              	.L90:
 2328              		.loc 1 711 7 is_stmt 1 discriminator 34
 2329 01c2 002B     		cmp	r3, #0
 2330 01c4 36D0     		beq	.L91
 712:Drivers/STM32H7xx_HAL_Driver/Src/stm32h7xx_hal_dma.c ****     {
 713:Drivers/STM32H7xx_HAL_Driver/Src/stm32h7xx_hal_dma.c ****       /* Enable Common interrupts*/
 714:Drivers/STM32H7xx_HAL_Driver/Src/stm32h7xx_hal_dma.c ****       MODIFY_REG(((DMA_Stream_TypeDef   *)hdma->Instance)->CR, (DMA_IT_TC | DMA_IT_TE | DMA_IT_DME 
 2331              		.loc 1 714 7
 2332 01c6 FB68     		ldr	r3, [r7, #12]
 2333 01c8 1B68     		ldr	r3, [r3]
 2334 01ca 1B68     		ldr	r3, [r3]
 2335 01cc 23F01E02 		bic	r2, r3, #30
 2336 01d0 FB68     		ldr	r3, [r7, #12]
 2337 01d2 1B68     		ldr	r3, [r3]
 2338 01d4 42F01602 		orr	r2, r2, #22
 2339 01d8 1A60     		str	r2, [r3]
 715:Drivers/STM32H7xx_HAL_Driver/Src/stm32h7xx_hal_dma.c **** 
 716:Drivers/STM32H7xx_HAL_Driver/Src/stm32h7xx_hal_dma.c ****       if(hdma->XferHalfCpltCallback != NULL)
 2340              		.loc 1 716 14
 2341 01da FB68     		ldr	r3, [r7, #12]
 2342 01dc 1B6C     		ldr	r3, [r3, #64]
 2343              		.loc 1 716 9
 2344 01de 002B     		cmp	r3, #0
 2345 01e0 3ED0     		beq	.L92
 717:Drivers/STM32H7xx_HAL_Driver/Src/stm32h7xx_hal_dma.c ****       {
 718:Drivers/STM32H7xx_HAL_Driver/Src/stm32h7xx_hal_dma.c ****         /* Enable Half Transfer IT if corresponding Callback is set */
 719:Drivers/STM32H7xx_HAL_Driver/Src/stm32h7xx_hal_dma.c ****         ((DMA_Stream_TypeDef   *)hdma->Instance)->CR  |= DMA_IT_HT;
 2346              		.loc 1 719 38
 2347 01e2 FB68     		ldr	r3, [r7, #12]
 2348 01e4 1B68     		ldr	r3, [r3]
 2349              		.loc 1 719 49
 2350 01e6 1A68     		ldr	r2, [r3]
 2351              		.loc 1 719 38
ARM GAS  /var/folders/g1/j12m_ky910s3_sv7d4yrsdn00000gn/T//ccliMUVd.s 			page 55


 2352 01e8 FB68     		ldr	r3, [r7, #12]
 2353 01ea 1B68     		ldr	r3, [r3]
 2354              		.loc 1 719 55
 2355 01ec 42F00802 		orr	r2, r2, #8
 2356 01f0 1A60     		str	r2, [r3]
 2357 01f2 35E0     		b	.L92
 2358              	.L103:
 2359              		.align	2
 2360              	.L102:
 2361 01f4 10000240 		.word	1073872912
 2362 01f8 28000240 		.word	1073872936
 2363 01fc 40000240 		.word	1073872960
 2364 0200 58000240 		.word	1073872984
 2365 0204 70000240 		.word	1073873008
 2366 0208 88000240 		.word	1073873032
 2367 020c A0000240 		.word	1073873056
 2368 0210 B8000240 		.word	1073873080
 2369 0214 10040240 		.word	1073873936
 2370 0218 28040240 		.word	1073873960
 2371 021c 40040240 		.word	1073873984
 2372 0220 58040240 		.word	1073874008
 2373 0224 70040240 		.word	1073874032
 2374 0228 88040240 		.word	1073874056
 2375 022c A0040240 		.word	1073874080
 2376 0230 B8040240 		.word	1073874104
 2377              	.L91:
 720:Drivers/STM32H7xx_HAL_Driver/Src/stm32h7xx_hal_dma.c ****       }
 721:Drivers/STM32H7xx_HAL_Driver/Src/stm32h7xx_hal_dma.c ****     }
 722:Drivers/STM32H7xx_HAL_Driver/Src/stm32h7xx_hal_dma.c ****     else /* BDMA channel */
 723:Drivers/STM32H7xx_HAL_Driver/Src/stm32h7xx_hal_dma.c ****     {
 724:Drivers/STM32H7xx_HAL_Driver/Src/stm32h7xx_hal_dma.c ****       /* Enable Common interrupts */
 725:Drivers/STM32H7xx_HAL_Driver/Src/stm32h7xx_hal_dma.c ****       MODIFY_REG(((BDMA_Channel_TypeDef   *)hdma->Instance)->CCR, (BDMA_CCR_TCIE | BDMA_CCR_HTIE | 
 2378              		.loc 1 725 7
 2379 0234 FB68     		ldr	r3, [r7, #12]
 2380 0236 1B68     		ldr	r3, [r3]
 2381 0238 1B68     		ldr	r3, [r3]
 2382 023a 23F00E02 		bic	r2, r3, #14
 2383 023e FB68     		ldr	r3, [r7, #12]
 2384 0240 1B68     		ldr	r3, [r3]
 2385 0242 42F00A02 		orr	r2, r2, #10
 2386 0246 1A60     		str	r2, [r3]
 726:Drivers/STM32H7xx_HAL_Driver/Src/stm32h7xx_hal_dma.c **** 
 727:Drivers/STM32H7xx_HAL_Driver/Src/stm32h7xx_hal_dma.c ****       if(hdma->XferHalfCpltCallback != NULL)
 2387              		.loc 1 727 14
 2388 0248 FB68     		ldr	r3, [r7, #12]
 2389 024a 1B6C     		ldr	r3, [r3, #64]
 2390              		.loc 1 727 9
 2391 024c 002B     		cmp	r3, #0
 2392 024e 07D0     		beq	.L92
 728:Drivers/STM32H7xx_HAL_Driver/Src/stm32h7xx_hal_dma.c ****       {
 729:Drivers/STM32H7xx_HAL_Driver/Src/stm32h7xx_hal_dma.c ****         /*Enable Half Transfer IT if corresponding Callback is set */
 730:Drivers/STM32H7xx_HAL_Driver/Src/stm32h7xx_hal_dma.c ****         ((BDMA_Channel_TypeDef   *)hdma->Instance)->CCR  |= BDMA_CCR_HTIE;
 2393              		.loc 1 730 40
 2394 0250 FB68     		ldr	r3, [r7, #12]
 2395 0252 1B68     		ldr	r3, [r3]
 2396              		.loc 1 730 51
 2397 0254 1A68     		ldr	r2, [r3]
ARM GAS  /var/folders/g1/j12m_ky910s3_sv7d4yrsdn00000gn/T//ccliMUVd.s 			page 56


 2398              		.loc 1 730 40
 2399 0256 FB68     		ldr	r3, [r7, #12]
 2400 0258 1B68     		ldr	r3, [r3]
 2401              		.loc 1 730 58
 2402 025a 42F00402 		orr	r2, r2, #4
 2403 025e 1A60     		str	r2, [r3]
 2404              	.L92:
 731:Drivers/STM32H7xx_HAL_Driver/Src/stm32h7xx_hal_dma.c ****       }
 732:Drivers/STM32H7xx_HAL_Driver/Src/stm32h7xx_hal_dma.c ****     }
 733:Drivers/STM32H7xx_HAL_Driver/Src/stm32h7xx_hal_dma.c **** 
 734:Drivers/STM32H7xx_HAL_Driver/Src/stm32h7xx_hal_dma.c ****     if(IS_DMA_DMAMUX_ALL_INSTANCE(hdma->Instance) != 0U) /* No DMAMUX available for BDMA1 */
 2405              		.loc 1 734 8
 2406 0260 FB68     		ldr	r3, [r7, #12]
 2407 0262 1B68     		ldr	r3, [r3]
 2408 0264 834A     		ldr	r2, .L104
 2409 0266 9342     		cmp	r3, r2
 2410 0268 72D0     		beq	.L93
 2411              		.loc 1 734 8 is_stmt 0 discriminator 2
 2412 026a FB68     		ldr	r3, [r7, #12]
 2413 026c 1B68     		ldr	r3, [r3]
 2414 026e 824A     		ldr	r2, .L104+4
 2415 0270 9342     		cmp	r3, r2
 2416 0272 6DD0     		beq	.L93
 2417              		.loc 1 734 8 discriminator 4
 2418 0274 FB68     		ldr	r3, [r7, #12]
 2419 0276 1B68     		ldr	r3, [r3]
 2420 0278 804A     		ldr	r2, .L104+8
 2421 027a 9342     		cmp	r3, r2
 2422 027c 68D0     		beq	.L93
 2423              		.loc 1 734 8 discriminator 6
 2424 027e FB68     		ldr	r3, [r7, #12]
 2425 0280 1B68     		ldr	r3, [r3]
 2426 0282 7F4A     		ldr	r2, .L104+12
 2427 0284 9342     		cmp	r3, r2
 2428 0286 63D0     		beq	.L93
 2429              		.loc 1 734 8 discriminator 8
 2430 0288 FB68     		ldr	r3, [r7, #12]
 2431 028a 1B68     		ldr	r3, [r3]
 2432 028c 7D4A     		ldr	r2, .L104+16
 2433 028e 9342     		cmp	r3, r2
 2434 0290 5ED0     		beq	.L93
 2435              		.loc 1 734 8 discriminator 10
 2436 0292 FB68     		ldr	r3, [r7, #12]
 2437 0294 1B68     		ldr	r3, [r3]
 2438 0296 7C4A     		ldr	r2, .L104+20
 2439 0298 9342     		cmp	r3, r2
 2440 029a 59D0     		beq	.L93
 2441              		.loc 1 734 8 discriminator 12
 2442 029c FB68     		ldr	r3, [r7, #12]
 2443 029e 1B68     		ldr	r3, [r3]
 2444 02a0 7A4A     		ldr	r2, .L104+24
 2445 02a2 9342     		cmp	r3, r2
 2446 02a4 54D0     		beq	.L93
 2447              		.loc 1 734 8 discriminator 14
 2448 02a6 FB68     		ldr	r3, [r7, #12]
 2449 02a8 1B68     		ldr	r3, [r3]
 2450 02aa 794A     		ldr	r2, .L104+28
ARM GAS  /var/folders/g1/j12m_ky910s3_sv7d4yrsdn00000gn/T//ccliMUVd.s 			page 57


 2451 02ac 9342     		cmp	r3, r2
 2452 02ae 4FD0     		beq	.L93
 2453              		.loc 1 734 8 discriminator 16
 2454 02b0 FB68     		ldr	r3, [r7, #12]
 2455 02b2 1B68     		ldr	r3, [r3]
 2456 02b4 774A     		ldr	r2, .L104+32
 2457 02b6 9342     		cmp	r3, r2
 2458 02b8 4AD0     		beq	.L93
 2459              		.loc 1 734 8 discriminator 18
 2460 02ba FB68     		ldr	r3, [r7, #12]
 2461 02bc 1B68     		ldr	r3, [r3]
 2462 02be 764A     		ldr	r2, .L104+36
 2463 02c0 9342     		cmp	r3, r2
 2464 02c2 45D0     		beq	.L93
 2465              		.loc 1 734 8 discriminator 20
 2466 02c4 FB68     		ldr	r3, [r7, #12]
 2467 02c6 1B68     		ldr	r3, [r3]
 2468 02c8 744A     		ldr	r2, .L104+40
 2469 02ca 9342     		cmp	r3, r2
 2470 02cc 40D0     		beq	.L93
 2471              		.loc 1 734 8 discriminator 22
 2472 02ce FB68     		ldr	r3, [r7, #12]
 2473 02d0 1B68     		ldr	r3, [r3]
 2474 02d2 734A     		ldr	r2, .L104+44
 2475 02d4 9342     		cmp	r3, r2
 2476 02d6 3BD0     		beq	.L93
 2477              		.loc 1 734 8 discriminator 24
 2478 02d8 FB68     		ldr	r3, [r7, #12]
 2479 02da 1B68     		ldr	r3, [r3]
 2480 02dc 714A     		ldr	r2, .L104+48
 2481 02de 9342     		cmp	r3, r2
 2482 02e0 36D0     		beq	.L93
 2483              		.loc 1 734 8 discriminator 26
 2484 02e2 FB68     		ldr	r3, [r7, #12]
 2485 02e4 1B68     		ldr	r3, [r3]
 2486 02e6 704A     		ldr	r2, .L104+52
 2487 02e8 9342     		cmp	r3, r2
 2488 02ea 31D0     		beq	.L93
 2489              		.loc 1 734 8 discriminator 28
 2490 02ec FB68     		ldr	r3, [r7, #12]
 2491 02ee 1B68     		ldr	r3, [r3]
 2492 02f0 6E4A     		ldr	r2, .L104+56
 2493 02f2 9342     		cmp	r3, r2
 2494 02f4 2CD0     		beq	.L93
 2495              		.loc 1 734 8 discriminator 30
 2496 02f6 FB68     		ldr	r3, [r7, #12]
 2497 02f8 1B68     		ldr	r3, [r3]
 2498 02fa 6D4A     		ldr	r2, .L104+60
 2499 02fc 9342     		cmp	r3, r2
 2500 02fe 27D0     		beq	.L93
 2501              		.loc 1 734 8 discriminator 32
 2502 0300 FB68     		ldr	r3, [r7, #12]
 2503 0302 1B68     		ldr	r3, [r3]
 2504 0304 6B4A     		ldr	r2, .L104+64
 2505 0306 9342     		cmp	r3, r2
 2506 0308 22D0     		beq	.L93
 2507              		.loc 1 734 8 discriminator 34
ARM GAS  /var/folders/g1/j12m_ky910s3_sv7d4yrsdn00000gn/T//ccliMUVd.s 			page 58


 2508 030a FB68     		ldr	r3, [r7, #12]
 2509 030c 1B68     		ldr	r3, [r3]
 2510 030e 6A4A     		ldr	r2, .L104+68
 2511 0310 9342     		cmp	r3, r2
 2512 0312 1DD0     		beq	.L93
 2513              		.loc 1 734 8 discriminator 36
 2514 0314 FB68     		ldr	r3, [r7, #12]
 2515 0316 1B68     		ldr	r3, [r3]
 2516 0318 684A     		ldr	r2, .L104+72
 2517 031a 9342     		cmp	r3, r2
 2518 031c 18D0     		beq	.L93
 2519              		.loc 1 734 8 discriminator 38
 2520 031e FB68     		ldr	r3, [r7, #12]
 2521 0320 1B68     		ldr	r3, [r3]
 2522 0322 674A     		ldr	r2, .L104+76
 2523 0324 9342     		cmp	r3, r2
 2524 0326 13D0     		beq	.L93
 2525              		.loc 1 734 8 discriminator 40
 2526 0328 FB68     		ldr	r3, [r7, #12]
 2527 032a 1B68     		ldr	r3, [r3]
 2528 032c 654A     		ldr	r2, .L104+80
 2529 032e 9342     		cmp	r3, r2
 2530 0330 0ED0     		beq	.L93
 2531              		.loc 1 734 8 discriminator 42
 2532 0332 FB68     		ldr	r3, [r7, #12]
 2533 0334 1B68     		ldr	r3, [r3]
 2534 0336 644A     		ldr	r2, .L104+84
 2535 0338 9342     		cmp	r3, r2
 2536 033a 09D0     		beq	.L93
 2537              		.loc 1 734 8 discriminator 44
 2538 033c FB68     		ldr	r3, [r7, #12]
 2539 033e 1B68     		ldr	r3, [r3]
 2540 0340 624A     		ldr	r2, .L104+88
 2541 0342 9342     		cmp	r3, r2
 2542 0344 04D0     		beq	.L93
 2543              		.loc 1 734 8 discriminator 46
 2544 0346 FB68     		ldr	r3, [r7, #12]
 2545 0348 1B68     		ldr	r3, [r3]
 2546 034a 614A     		ldr	r2, .L104+92
 2547 034c 9342     		cmp	r3, r2
 2548 034e 01D1     		bne	.L94
 2549              	.L93:
 2550              		.loc 1 734 8 discriminator 47
 2551 0350 0123     		movs	r3, #1
 2552              		.loc 1 734 8
 2553 0352 00E0     		b	.L95
 2554              	.L94:
 2555              		.loc 1 734 8 discriminator 48
 2556 0354 0023     		movs	r3, #0
 2557              	.L95:
 2558              		.loc 1 734 7 is_stmt 1 discriminator 50
 2559 0356 002B     		cmp	r3, #0
 2560 0358 1AD0     		beq	.L96
 735:Drivers/STM32H7xx_HAL_Driver/Src/stm32h7xx_hal_dma.c ****     {
 736:Drivers/STM32H7xx_HAL_Driver/Src/stm32h7xx_hal_dma.c ****       /* Check if DMAMUX Synchronization is enabled */
 737:Drivers/STM32H7xx_HAL_Driver/Src/stm32h7xx_hal_dma.c ****       if((hdma->DMAmuxChannel->CCR & DMAMUX_CxCR_SE) != 0U)
 2561              		.loc 1 737 15
ARM GAS  /var/folders/g1/j12m_ky910s3_sv7d4yrsdn00000gn/T//ccliMUVd.s 			page 59


 2562 035a FB68     		ldr	r3, [r7, #12]
 2563 035c 1B6E     		ldr	r3, [r3, #96]
 2564              		.loc 1 737 30
 2565 035e 1B68     		ldr	r3, [r3]
 2566              		.loc 1 737 36
 2567 0360 03F48033 		and	r3, r3, #65536
 2568              		.loc 1 737 9
 2569 0364 002B     		cmp	r3, #0
 2570 0366 07D0     		beq	.L97
 738:Drivers/STM32H7xx_HAL_Driver/Src/stm32h7xx_hal_dma.c ****       {
 739:Drivers/STM32H7xx_HAL_Driver/Src/stm32h7xx_hal_dma.c ****         /* Enable DMAMUX sync overrun IT*/
 740:Drivers/STM32H7xx_HAL_Driver/Src/stm32h7xx_hal_dma.c ****         hdma->DMAmuxChannel->CCR |= DMAMUX_CxCR_SOIE;
 2571              		.loc 1 740 13
 2572 0368 FB68     		ldr	r3, [r7, #12]
 2573 036a 1B6E     		ldr	r3, [r3, #96]
 2574              		.loc 1 740 28
 2575 036c 1A68     		ldr	r2, [r3]
 2576              		.loc 1 740 13
 2577 036e FB68     		ldr	r3, [r7, #12]
 2578 0370 1B6E     		ldr	r3, [r3, #96]
 2579              		.loc 1 740 34
 2580 0372 42F48072 		orr	r2, r2, #256
 2581 0376 1A60     		str	r2, [r3]
 2582              	.L97:
 741:Drivers/STM32H7xx_HAL_Driver/Src/stm32h7xx_hal_dma.c ****       }
 742:Drivers/STM32H7xx_HAL_Driver/Src/stm32h7xx_hal_dma.c **** 
 743:Drivers/STM32H7xx_HAL_Driver/Src/stm32h7xx_hal_dma.c ****       if(hdma->DMAmuxRequestGen != 0U)
 2583              		.loc 1 743 14
 2584 0378 FB68     		ldr	r3, [r7, #12]
 2585 037a DB6E     		ldr	r3, [r3, #108]
 2586              		.loc 1 743 9
 2587 037c 002B     		cmp	r3, #0
 2588 037e 07D0     		beq	.L96
 744:Drivers/STM32H7xx_HAL_Driver/Src/stm32h7xx_hal_dma.c ****       {
 745:Drivers/STM32H7xx_HAL_Driver/Src/stm32h7xx_hal_dma.c ****         /* if using DMAMUX request generator, enable the DMAMUX request generator overrun IT*/
 746:Drivers/STM32H7xx_HAL_Driver/Src/stm32h7xx_hal_dma.c ****         /* enable the request gen overrun IT */
 747:Drivers/STM32H7xx_HAL_Driver/Src/stm32h7xx_hal_dma.c ****         hdma->DMAmuxRequestGen->RGCR |= DMAMUX_RGxCR_OIE;
 2589              		.loc 1 747 13
 2590 0380 FB68     		ldr	r3, [r7, #12]
 2591 0382 DB6E     		ldr	r3, [r3, #108]
 2592              		.loc 1 747 31
 2593 0384 1A68     		ldr	r2, [r3]
 2594              		.loc 1 747 13
 2595 0386 FB68     		ldr	r3, [r7, #12]
 2596 0388 DB6E     		ldr	r3, [r3, #108]
 2597              		.loc 1 747 38
 2598 038a 42F48072 		orr	r2, r2, #256
 2599 038e 1A60     		str	r2, [r3]
 2600              	.L96:
 748:Drivers/STM32H7xx_HAL_Driver/Src/stm32h7xx_hal_dma.c ****       }
 749:Drivers/STM32H7xx_HAL_Driver/Src/stm32h7xx_hal_dma.c ****     }
 750:Drivers/STM32H7xx_HAL_Driver/Src/stm32h7xx_hal_dma.c **** 
 751:Drivers/STM32H7xx_HAL_Driver/Src/stm32h7xx_hal_dma.c ****     /* Enable the Peripheral */
 752:Drivers/STM32H7xx_HAL_Driver/Src/stm32h7xx_hal_dma.c ****     __HAL_DMA_ENABLE(hdma);
 2601              		.loc 1 752 5
 2602 0390 FB68     		ldr	r3, [r7, #12]
 2603 0392 1B68     		ldr	r3, [r3]
ARM GAS  /var/folders/g1/j12m_ky910s3_sv7d4yrsdn00000gn/T//ccliMUVd.s 			page 60


 2604 0394 374A     		ldr	r2, .L104
 2605 0396 9342     		cmp	r3, r2
 2606 0398 4AD0     		beq	.L98
 2607              		.loc 1 752 5 is_stmt 0 discriminator 2
 2608 039a FB68     		ldr	r3, [r7, #12]
 2609 039c 1B68     		ldr	r3, [r3]
 2610 039e 364A     		ldr	r2, .L104+4
 2611 03a0 9342     		cmp	r3, r2
 2612 03a2 45D0     		beq	.L98
 2613              		.loc 1 752 5 discriminator 4
 2614 03a4 FB68     		ldr	r3, [r7, #12]
 2615 03a6 1B68     		ldr	r3, [r3]
 2616 03a8 344A     		ldr	r2, .L104+8
 2617 03aa 9342     		cmp	r3, r2
 2618 03ac 40D0     		beq	.L98
 2619              		.loc 1 752 5 discriminator 6
 2620 03ae FB68     		ldr	r3, [r7, #12]
 2621 03b0 1B68     		ldr	r3, [r3]
 2622 03b2 334A     		ldr	r2, .L104+12
 2623 03b4 9342     		cmp	r3, r2
 2624 03b6 3BD0     		beq	.L98
 2625              		.loc 1 752 5 discriminator 8
 2626 03b8 FB68     		ldr	r3, [r7, #12]
 2627 03ba 1B68     		ldr	r3, [r3]
 2628 03bc 314A     		ldr	r2, .L104+16
 2629 03be 9342     		cmp	r3, r2
 2630 03c0 36D0     		beq	.L98
 2631              		.loc 1 752 5 discriminator 10
 2632 03c2 FB68     		ldr	r3, [r7, #12]
 2633 03c4 1B68     		ldr	r3, [r3]
 2634 03c6 304A     		ldr	r2, .L104+20
 2635 03c8 9342     		cmp	r3, r2
 2636 03ca 31D0     		beq	.L98
 2637              		.loc 1 752 5 discriminator 12
 2638 03cc FB68     		ldr	r3, [r7, #12]
 2639 03ce 1B68     		ldr	r3, [r3]
 2640 03d0 2E4A     		ldr	r2, .L104+24
 2641 03d2 9342     		cmp	r3, r2
 2642 03d4 2CD0     		beq	.L98
 2643              		.loc 1 752 5 discriminator 14
 2644 03d6 FB68     		ldr	r3, [r7, #12]
 2645 03d8 1B68     		ldr	r3, [r3]
 2646 03da 2D4A     		ldr	r2, .L104+28
 2647 03dc 9342     		cmp	r3, r2
 2648 03de 27D0     		beq	.L98
 2649              		.loc 1 752 5 discriminator 16
 2650 03e0 FB68     		ldr	r3, [r7, #12]
 2651 03e2 1B68     		ldr	r3, [r3]
 2652 03e4 2B4A     		ldr	r2, .L104+32
 2653 03e6 9342     		cmp	r3, r2
 2654 03e8 22D0     		beq	.L98
 2655              		.loc 1 752 5 discriminator 18
 2656 03ea FB68     		ldr	r3, [r7, #12]
 2657 03ec 1B68     		ldr	r3, [r3]
 2658 03ee 2A4A     		ldr	r2, .L104+36
 2659 03f0 9342     		cmp	r3, r2
 2660 03f2 1DD0     		beq	.L98
ARM GAS  /var/folders/g1/j12m_ky910s3_sv7d4yrsdn00000gn/T//ccliMUVd.s 			page 61


 2661              		.loc 1 752 5 discriminator 20
 2662 03f4 FB68     		ldr	r3, [r7, #12]
 2663 03f6 1B68     		ldr	r3, [r3]
 2664 03f8 284A     		ldr	r2, .L104+40
 2665 03fa 9342     		cmp	r3, r2
 2666 03fc 18D0     		beq	.L98
 2667              		.loc 1 752 5 discriminator 22
 2668 03fe FB68     		ldr	r3, [r7, #12]
 2669 0400 1B68     		ldr	r3, [r3]
 2670 0402 274A     		ldr	r2, .L104+44
 2671 0404 9342     		cmp	r3, r2
 2672 0406 13D0     		beq	.L98
 2673              		.loc 1 752 5 discriminator 24
 2674 0408 FB68     		ldr	r3, [r7, #12]
 2675 040a 1B68     		ldr	r3, [r3]
 2676 040c 254A     		ldr	r2, .L104+48
 2677 040e 9342     		cmp	r3, r2
 2678 0410 0ED0     		beq	.L98
 2679              		.loc 1 752 5 discriminator 26
 2680 0412 FB68     		ldr	r3, [r7, #12]
 2681 0414 1B68     		ldr	r3, [r3]
 2682 0416 244A     		ldr	r2, .L104+52
 2683 0418 9342     		cmp	r3, r2
 2684 041a 09D0     		beq	.L98
 2685              		.loc 1 752 5 discriminator 28
 2686 041c FB68     		ldr	r3, [r7, #12]
 2687 041e 1B68     		ldr	r3, [r3]
 2688 0420 224A     		ldr	r2, .L104+56
 2689 0422 9342     		cmp	r3, r2
 2690 0424 04D0     		beq	.L98
 2691              		.loc 1 752 5 discriminator 30
 2692 0426 FB68     		ldr	r3, [r7, #12]
 2693 0428 1B68     		ldr	r3, [r3]
 2694 042a 214A     		ldr	r2, .L104+60
 2695 042c 9342     		cmp	r3, r2
 2696 042e 08D1     		bne	.L99
 2697              	.L98:
 2698              		.loc 1 752 5 discriminator 31
 2699 0430 FB68     		ldr	r3, [r7, #12]
 2700 0432 1B68     		ldr	r3, [r3]
 2701 0434 1A68     		ldr	r2, [r3]
 2702 0436 FB68     		ldr	r3, [r7, #12]
 2703 0438 1B68     		ldr	r3, [r3]
 2704 043a 42F00102 		orr	r2, r2, #1
 2705 043e 1A60     		str	r2, [r3]
 2706              		.loc 1 752 5
 2707 0440 12E0     		b	.L101
 2708              	.L99:
 2709              		.loc 1 752 5 discriminator 32
 2710 0442 FB68     		ldr	r3, [r7, #12]
 2711 0444 1B68     		ldr	r3, [r3]
 2712 0446 1A68     		ldr	r2, [r3]
 2713 0448 FB68     		ldr	r3, [r7, #12]
 2714 044a 1B68     		ldr	r3, [r3]
 2715 044c 42F00102 		orr	r2, r2, #1
 2716 0450 1A60     		str	r2, [r3]
 2717 0452 09E0     		b	.L101
ARM GAS  /var/folders/g1/j12m_ky910s3_sv7d4yrsdn00000gn/T//ccliMUVd.s 			page 62


 2718              	.L84:
 753:Drivers/STM32H7xx_HAL_Driver/Src/stm32h7xx_hal_dma.c ****   }
 754:Drivers/STM32H7xx_HAL_Driver/Src/stm32h7xx_hal_dma.c ****   else
 755:Drivers/STM32H7xx_HAL_Driver/Src/stm32h7xx_hal_dma.c ****   {
 756:Drivers/STM32H7xx_HAL_Driver/Src/stm32h7xx_hal_dma.c ****     /* Set the error code to busy */
 757:Drivers/STM32H7xx_HAL_Driver/Src/stm32h7xx_hal_dma.c ****     hdma->ErrorCode = HAL_DMA_ERROR_BUSY;
 2719              		.loc 1 757 21 is_stmt 1
 2720 0454 FB68     		ldr	r3, [r7, #12]
 2721 0456 4FF40062 		mov	r2, #2048
 2722 045a 5A65     		str	r2, [r3, #84]
 758:Drivers/STM32H7xx_HAL_Driver/Src/stm32h7xx_hal_dma.c **** 
 759:Drivers/STM32H7xx_HAL_Driver/Src/stm32h7xx_hal_dma.c ****     /* Process unlocked */
 760:Drivers/STM32H7xx_HAL_Driver/Src/stm32h7xx_hal_dma.c ****     __HAL_UNLOCK(hdma);
 2723              		.loc 1 760 5
 2724 045c FB68     		ldr	r3, [r7, #12]
 2725 045e 0022     		movs	r2, #0
 2726 0460 83F83420 		strb	r2, [r3, #52]
 761:Drivers/STM32H7xx_HAL_Driver/Src/stm32h7xx_hal_dma.c **** 
 762:Drivers/STM32H7xx_HAL_Driver/Src/stm32h7xx_hal_dma.c ****     /* Return error status */
 763:Drivers/STM32H7xx_HAL_Driver/Src/stm32h7xx_hal_dma.c ****     status = HAL_ERROR;
 2727              		.loc 1 763 12
 2728 0464 0123     		movs	r3, #1
 2729 0466 FB75     		strb	r3, [r7, #23]
 2730              	.L101:
 764:Drivers/STM32H7xx_HAL_Driver/Src/stm32h7xx_hal_dma.c ****   }
 765:Drivers/STM32H7xx_HAL_Driver/Src/stm32h7xx_hal_dma.c **** 
 766:Drivers/STM32H7xx_HAL_Driver/Src/stm32h7xx_hal_dma.c ****   return status;
 2731              		.loc 1 766 10
 2732 0468 FB7D     		ldrb	r3, [r7, #23]	@ zero_extendqisi2
 2733              	.L82:
 767:Drivers/STM32H7xx_HAL_Driver/Src/stm32h7xx_hal_dma.c **** }
 2734              		.loc 1 767 1
 2735 046a 1846     		mov	r0, r3
 2736 046c 1837     		adds	r7, r7, #24
 2737              	.LCFI18:
 2738              		.cfi_def_cfa_offset 8
 2739 046e BD46     		mov	sp, r7
 2740              	.LCFI19:
 2741              		.cfi_def_cfa_register 13
 2742              		@ sp needed
 2743 0470 80BD     		pop	{r7, pc}
 2744              	.L105:
 2745 0472 00BF     		.align	2
 2746              	.L104:
 2747 0474 10000240 		.word	1073872912
 2748 0478 28000240 		.word	1073872936
 2749 047c 40000240 		.word	1073872960
 2750 0480 58000240 		.word	1073872984
 2751 0484 70000240 		.word	1073873008
 2752 0488 88000240 		.word	1073873032
 2753 048c A0000240 		.word	1073873056
 2754 0490 B8000240 		.word	1073873080
 2755 0494 10040240 		.word	1073873936
 2756 0498 28040240 		.word	1073873960
 2757 049c 40040240 		.word	1073873984
 2758 04a0 58040240 		.word	1073874008
 2759 04a4 70040240 		.word	1073874032
ARM GAS  /var/folders/g1/j12m_ky910s3_sv7d4yrsdn00000gn/T//ccliMUVd.s 			page 63


 2760 04a8 88040240 		.word	1073874056
 2761 04ac A0040240 		.word	1073874080
 2762 04b0 B8040240 		.word	1073874104
 2763 04b4 08540258 		.word	1476547592
 2764 04b8 1C540258 		.word	1476547612
 2765 04bc 30540258 		.word	1476547632
 2766 04c0 44540258 		.word	1476547652
 2767 04c4 58540258 		.word	1476547672
 2768 04c8 6C540258 		.word	1476547692
 2769 04cc 80540258 		.word	1476547712
 2770 04d0 94540258 		.word	1476547732
 2771              		.cfi_endproc
 2772              	.LFE147:
 2774              		.section	.text.HAL_DMA_Abort,"ax",%progbits
 2775              		.align	1
 2776              		.global	HAL_DMA_Abort
 2777              		.syntax unified
 2778              		.thumb
 2779              		.thumb_func
 2781              	HAL_DMA_Abort:
 2782              	.LFB148:
 768:Drivers/STM32H7xx_HAL_Driver/Src/stm32h7xx_hal_dma.c **** 
 769:Drivers/STM32H7xx_HAL_Driver/Src/stm32h7xx_hal_dma.c **** /**
 770:Drivers/STM32H7xx_HAL_Driver/Src/stm32h7xx_hal_dma.c ****   * @brief  Aborts the DMA Transfer.
 771:Drivers/STM32H7xx_HAL_Driver/Src/stm32h7xx_hal_dma.c ****   * @param  hdma  : pointer to a DMA_HandleTypeDef structure that contains
 772:Drivers/STM32H7xx_HAL_Driver/Src/stm32h7xx_hal_dma.c ****   *                 the configuration information for the specified DMA Stream.
 773:Drivers/STM32H7xx_HAL_Driver/Src/stm32h7xx_hal_dma.c ****   *
 774:Drivers/STM32H7xx_HAL_Driver/Src/stm32h7xx_hal_dma.c ****   * @note  After disabling a DMA Stream, a check for wait until the DMA Stream is
 775:Drivers/STM32H7xx_HAL_Driver/Src/stm32h7xx_hal_dma.c ****   *        effectively disabled is added. If a Stream is disabled
 776:Drivers/STM32H7xx_HAL_Driver/Src/stm32h7xx_hal_dma.c ****   *        while a data transfer is ongoing, the current data will be transferred
 777:Drivers/STM32H7xx_HAL_Driver/Src/stm32h7xx_hal_dma.c ****   *        and the Stream will be effectively disabled only after the transfer of
 778:Drivers/STM32H7xx_HAL_Driver/Src/stm32h7xx_hal_dma.c ****   *        this single data is finished.
 779:Drivers/STM32H7xx_HAL_Driver/Src/stm32h7xx_hal_dma.c ****   * @retval HAL status
 780:Drivers/STM32H7xx_HAL_Driver/Src/stm32h7xx_hal_dma.c ****   */
 781:Drivers/STM32H7xx_HAL_Driver/Src/stm32h7xx_hal_dma.c **** HAL_StatusTypeDef HAL_DMA_Abort(DMA_HandleTypeDef *hdma)
 782:Drivers/STM32H7xx_HAL_Driver/Src/stm32h7xx_hal_dma.c **** {
 2783              		.loc 1 782 1
 2784              		.cfi_startproc
 2785              		@ args = 0, pretend = 0, frame = 24
 2786              		@ frame_needed = 1, uses_anonymous_args = 0
 2787 0000 80B5     		push	{r7, lr}
 2788              	.LCFI20:
 2789              		.cfi_def_cfa_offset 8
 2790              		.cfi_offset 7, -8
 2791              		.cfi_offset 14, -4
 2792 0002 86B0     		sub	sp, sp, #24
 2793              	.LCFI21:
 2794              		.cfi_def_cfa_offset 32
 2795 0004 00AF     		add	r7, sp, #0
 2796              	.LCFI22:
 2797              		.cfi_def_cfa_register 7
 2798 0006 7860     		str	r0, [r7, #4]
 783:Drivers/STM32H7xx_HAL_Driver/Src/stm32h7xx_hal_dma.c ****   /* calculate DMA base and stream number */
 784:Drivers/STM32H7xx_HAL_Driver/Src/stm32h7xx_hal_dma.c ****   DMA_Base_Registers *regs_dma;
 785:Drivers/STM32H7xx_HAL_Driver/Src/stm32h7xx_hal_dma.c ****   BDMA_Base_Registers *regs_bdma;
 786:Drivers/STM32H7xx_HAL_Driver/Src/stm32h7xx_hal_dma.c ****   const __IO uint32_t *enableRegister;
 787:Drivers/STM32H7xx_HAL_Driver/Src/stm32h7xx_hal_dma.c **** 
ARM GAS  /var/folders/g1/j12m_ky910s3_sv7d4yrsdn00000gn/T//ccliMUVd.s 			page 64


 788:Drivers/STM32H7xx_HAL_Driver/Src/stm32h7xx_hal_dma.c ****   uint32_t tickstart = HAL_GetTick();
 2799              		.loc 1 788 24
 2800 0008 FFF7FEFF 		bl	HAL_GetTick
 2801 000c 3861     		str	r0, [r7, #16]
 789:Drivers/STM32H7xx_HAL_Driver/Src/stm32h7xx_hal_dma.c **** 
 790:Drivers/STM32H7xx_HAL_Driver/Src/stm32h7xx_hal_dma.c ****  /* Check the DMA peripheral handle */
 791:Drivers/STM32H7xx_HAL_Driver/Src/stm32h7xx_hal_dma.c ****   if(hdma == NULL)
 2802              		.loc 1 791 5
 2803 000e 7B68     		ldr	r3, [r7, #4]
 2804 0010 002B     		cmp	r3, #0
 2805 0012 01D1     		bne	.L107
 792:Drivers/STM32H7xx_HAL_Driver/Src/stm32h7xx_hal_dma.c ****   {
 793:Drivers/STM32H7xx_HAL_Driver/Src/stm32h7xx_hal_dma.c ****     return HAL_ERROR;
 2806              		.loc 1 793 12
 2807 0014 0123     		movs	r3, #1
 2808 0016 DCE2     		b	.L108
 2809              	.L107:
 794:Drivers/STM32H7xx_HAL_Driver/Src/stm32h7xx_hal_dma.c ****   }
 795:Drivers/STM32H7xx_HAL_Driver/Src/stm32h7xx_hal_dma.c **** 
 796:Drivers/STM32H7xx_HAL_Driver/Src/stm32h7xx_hal_dma.c ****   /* Check the DMA peripheral state */
 797:Drivers/STM32H7xx_HAL_Driver/Src/stm32h7xx_hal_dma.c ****   if(hdma->State != HAL_DMA_STATE_BUSY)
 2810              		.loc 1 797 10
 2811 0018 7B68     		ldr	r3, [r7, #4]
 2812 001a 93F83530 		ldrb	r3, [r3, #53]
 2813 001e DBB2     		uxtb	r3, r3
 2814              		.loc 1 797 5
 2815 0020 022B     		cmp	r3, #2
 2816 0022 08D0     		beq	.L109
 798:Drivers/STM32H7xx_HAL_Driver/Src/stm32h7xx_hal_dma.c ****   {
 799:Drivers/STM32H7xx_HAL_Driver/Src/stm32h7xx_hal_dma.c ****     hdma->ErrorCode = HAL_DMA_ERROR_NO_XFER;
 2817              		.loc 1 799 21
 2818 0024 7B68     		ldr	r3, [r7, #4]
 2819 0026 8022     		movs	r2, #128
 2820 0028 5A65     		str	r2, [r3, #84]
 800:Drivers/STM32H7xx_HAL_Driver/Src/stm32h7xx_hal_dma.c **** 
 801:Drivers/STM32H7xx_HAL_Driver/Src/stm32h7xx_hal_dma.c ****     /* Process Unlocked */
 802:Drivers/STM32H7xx_HAL_Driver/Src/stm32h7xx_hal_dma.c ****     __HAL_UNLOCK(hdma);
 2821              		.loc 1 802 5
 2822 002a 7B68     		ldr	r3, [r7, #4]
 2823 002c 0022     		movs	r2, #0
 2824 002e 83F83420 		strb	r2, [r3, #52]
 803:Drivers/STM32H7xx_HAL_Driver/Src/stm32h7xx_hal_dma.c **** 
 804:Drivers/STM32H7xx_HAL_Driver/Src/stm32h7xx_hal_dma.c ****     return HAL_ERROR;
 2825              		.loc 1 804 12
 2826 0032 0123     		movs	r3, #1
 2827 0034 CDE2     		b	.L108
 2828              	.L109:
 805:Drivers/STM32H7xx_HAL_Driver/Src/stm32h7xx_hal_dma.c ****   }
 806:Drivers/STM32H7xx_HAL_Driver/Src/stm32h7xx_hal_dma.c ****   else
 807:Drivers/STM32H7xx_HAL_Driver/Src/stm32h7xx_hal_dma.c ****   {
 808:Drivers/STM32H7xx_HAL_Driver/Src/stm32h7xx_hal_dma.c ****     /* Disable all the transfer interrupts */
 809:Drivers/STM32H7xx_HAL_Driver/Src/stm32h7xx_hal_dma.c ****     if(IS_DMA_STREAM_INSTANCE(hdma->Instance) != 0U) /* DMA1 or DMA2 instance */
 2829              		.loc 1 809 8
 2830 0036 7B68     		ldr	r3, [r7, #4]
 2831 0038 1B68     		ldr	r3, [r3]
 2832 003a 764A     		ldr	r2, .L133
 2833 003c 9342     		cmp	r3, r2
ARM GAS  /var/folders/g1/j12m_ky910s3_sv7d4yrsdn00000gn/T//ccliMUVd.s 			page 65


 2834 003e 4AD0     		beq	.L110
 2835              		.loc 1 809 8 is_stmt 0 discriminator 2
 2836 0040 7B68     		ldr	r3, [r7, #4]
 2837 0042 1B68     		ldr	r3, [r3]
 2838 0044 744A     		ldr	r2, .L133+4
 2839 0046 9342     		cmp	r3, r2
 2840 0048 45D0     		beq	.L110
 2841              		.loc 1 809 8 discriminator 4
 2842 004a 7B68     		ldr	r3, [r7, #4]
 2843 004c 1B68     		ldr	r3, [r3]
 2844 004e 734A     		ldr	r2, .L133+8
 2845 0050 9342     		cmp	r3, r2
 2846 0052 40D0     		beq	.L110
 2847              		.loc 1 809 8 discriminator 6
 2848 0054 7B68     		ldr	r3, [r7, #4]
 2849 0056 1B68     		ldr	r3, [r3]
 2850 0058 714A     		ldr	r2, .L133+12
 2851 005a 9342     		cmp	r3, r2
 2852 005c 3BD0     		beq	.L110
 2853              		.loc 1 809 8 discriminator 8
 2854 005e 7B68     		ldr	r3, [r7, #4]
 2855 0060 1B68     		ldr	r3, [r3]
 2856 0062 704A     		ldr	r2, .L133+16
 2857 0064 9342     		cmp	r3, r2
 2858 0066 36D0     		beq	.L110
 2859              		.loc 1 809 8 discriminator 10
 2860 0068 7B68     		ldr	r3, [r7, #4]
 2861 006a 1B68     		ldr	r3, [r3]
 2862 006c 6E4A     		ldr	r2, .L133+20
 2863 006e 9342     		cmp	r3, r2
 2864 0070 31D0     		beq	.L110
 2865              		.loc 1 809 8 discriminator 12
 2866 0072 7B68     		ldr	r3, [r7, #4]
 2867 0074 1B68     		ldr	r3, [r3]
 2868 0076 6D4A     		ldr	r2, .L133+24
 2869 0078 9342     		cmp	r3, r2
 2870 007a 2CD0     		beq	.L110
 2871              		.loc 1 809 8 discriminator 14
 2872 007c 7B68     		ldr	r3, [r7, #4]
 2873 007e 1B68     		ldr	r3, [r3]
 2874 0080 6B4A     		ldr	r2, .L133+28
 2875 0082 9342     		cmp	r3, r2
 2876 0084 27D0     		beq	.L110
 2877              		.loc 1 809 8 discriminator 16
 2878 0086 7B68     		ldr	r3, [r7, #4]
 2879 0088 1B68     		ldr	r3, [r3]
 2880 008a 6A4A     		ldr	r2, .L133+32
 2881 008c 9342     		cmp	r3, r2
 2882 008e 22D0     		beq	.L110
 2883              		.loc 1 809 8 discriminator 18
 2884 0090 7B68     		ldr	r3, [r7, #4]
 2885 0092 1B68     		ldr	r3, [r3]
 2886 0094 684A     		ldr	r2, .L133+36
 2887 0096 9342     		cmp	r3, r2
 2888 0098 1DD0     		beq	.L110
 2889              		.loc 1 809 8 discriminator 20
 2890 009a 7B68     		ldr	r3, [r7, #4]
ARM GAS  /var/folders/g1/j12m_ky910s3_sv7d4yrsdn00000gn/T//ccliMUVd.s 			page 66


 2891 009c 1B68     		ldr	r3, [r3]
 2892 009e 674A     		ldr	r2, .L133+40
 2893 00a0 9342     		cmp	r3, r2
 2894 00a2 18D0     		beq	.L110
 2895              		.loc 1 809 8 discriminator 22
 2896 00a4 7B68     		ldr	r3, [r7, #4]
 2897 00a6 1B68     		ldr	r3, [r3]
 2898 00a8 654A     		ldr	r2, .L133+44
 2899 00aa 9342     		cmp	r3, r2
 2900 00ac 13D0     		beq	.L110
 2901              		.loc 1 809 8 discriminator 24
 2902 00ae 7B68     		ldr	r3, [r7, #4]
 2903 00b0 1B68     		ldr	r3, [r3]
 2904 00b2 644A     		ldr	r2, .L133+48
 2905 00b4 9342     		cmp	r3, r2
 2906 00b6 0ED0     		beq	.L110
 2907              		.loc 1 809 8 discriminator 26
 2908 00b8 7B68     		ldr	r3, [r7, #4]
 2909 00ba 1B68     		ldr	r3, [r3]
 2910 00bc 624A     		ldr	r2, .L133+52
 2911 00be 9342     		cmp	r3, r2
 2912 00c0 09D0     		beq	.L110
 2913              		.loc 1 809 8 discriminator 28
 2914 00c2 7B68     		ldr	r3, [r7, #4]
 2915 00c4 1B68     		ldr	r3, [r3]
 2916 00c6 614A     		ldr	r2, .L133+56
 2917 00c8 9342     		cmp	r3, r2
 2918 00ca 04D0     		beq	.L110
 2919              		.loc 1 809 8 discriminator 30
 2920 00cc 7B68     		ldr	r3, [r7, #4]
 2921 00ce 1B68     		ldr	r3, [r3]
 2922 00d0 5F4A     		ldr	r2, .L133+60
 2923 00d2 9342     		cmp	r3, r2
 2924 00d4 01D1     		bne	.L111
 2925              	.L110:
 2926              		.loc 1 809 8 discriminator 31
 2927 00d6 0123     		movs	r3, #1
 2928              		.loc 1 809 8
 2929 00d8 00E0     		b	.L112
 2930              	.L111:
 2931              		.loc 1 809 8 discriminator 32
 2932 00da 0023     		movs	r3, #0
 2933              	.L112:
 2934              		.loc 1 809 7 is_stmt 1 discriminator 34
 2935 00dc 002B     		cmp	r3, #0
 2936 00de 13D0     		beq	.L113
 810:Drivers/STM32H7xx_HAL_Driver/Src/stm32h7xx_hal_dma.c ****     {
 811:Drivers/STM32H7xx_HAL_Driver/Src/stm32h7xx_hal_dma.c ****        /* Disable DMA All Interrupts  */
 812:Drivers/STM32H7xx_HAL_Driver/Src/stm32h7xx_hal_dma.c ****       ((DMA_Stream_TypeDef   *)hdma->Instance)->CR  &= ~(DMA_IT_TC | DMA_IT_TE | DMA_IT_DME | DMA_I
 2937              		.loc 1 812 36
 2938 00e0 7B68     		ldr	r3, [r7, #4]
 2939 00e2 1B68     		ldr	r3, [r3]
 2940              		.loc 1 812 47
 2941 00e4 1A68     		ldr	r2, [r3]
 2942              		.loc 1 812 36
 2943 00e6 7B68     		ldr	r3, [r7, #4]
 2944 00e8 1B68     		ldr	r3, [r3]
ARM GAS  /var/folders/g1/j12m_ky910s3_sv7d4yrsdn00000gn/T//ccliMUVd.s 			page 67


 2945              		.loc 1 812 53
 2946 00ea 22F01E02 		bic	r2, r2, #30
 2947 00ee 1A60     		str	r2, [r3]
 813:Drivers/STM32H7xx_HAL_Driver/Src/stm32h7xx_hal_dma.c ****       ((DMA_Stream_TypeDef   *)hdma->Instance)->FCR &= ~(DMA_IT_FE);
 2948              		.loc 1 813 36
 2949 00f0 7B68     		ldr	r3, [r7, #4]
 2950 00f2 1B68     		ldr	r3, [r3]
 2951              		.loc 1 813 47
 2952 00f4 5A69     		ldr	r2, [r3, #20]
 2953              		.loc 1 813 36
 2954 00f6 7B68     		ldr	r3, [r7, #4]
 2955 00f8 1B68     		ldr	r3, [r3]
 2956              		.loc 1 813 53
 2957 00fa 22F08002 		bic	r2, r2, #128
 2958 00fe 5A61     		str	r2, [r3, #20]
 814:Drivers/STM32H7xx_HAL_Driver/Src/stm32h7xx_hal_dma.c **** 
 815:Drivers/STM32H7xx_HAL_Driver/Src/stm32h7xx_hal_dma.c ****       enableRegister = (__IO uint32_t *)(&(((DMA_Stream_TypeDef   *)hdma->Instance)->CR));
 2959              		.loc 1 815 73
 2960 0100 7B68     		ldr	r3, [r7, #4]
 2961 0102 1B68     		ldr	r3, [r3]
 2962              		.loc 1 815 22
 2963 0104 7B61     		str	r3, [r7, #20]
 2964 0106 0AE0     		b	.L114
 2965              	.L113:
 816:Drivers/STM32H7xx_HAL_Driver/Src/stm32h7xx_hal_dma.c ****     }
 817:Drivers/STM32H7xx_HAL_Driver/Src/stm32h7xx_hal_dma.c ****     else /* BDMA channel */
 818:Drivers/STM32H7xx_HAL_Driver/Src/stm32h7xx_hal_dma.c ****     {
 819:Drivers/STM32H7xx_HAL_Driver/Src/stm32h7xx_hal_dma.c ****       /* Disable DMA All Interrupts */
 820:Drivers/STM32H7xx_HAL_Driver/Src/stm32h7xx_hal_dma.c ****       ((BDMA_Channel_TypeDef   *)hdma->Instance)->CCR  &= ~(BDMA_CCR_TCIE | BDMA_CCR_HTIE | BDMA_CC
 2966              		.loc 1 820 38
 2967 0108 7B68     		ldr	r3, [r7, #4]
 2968 010a 1B68     		ldr	r3, [r3]
 2969              		.loc 1 820 49
 2970 010c 1A68     		ldr	r2, [r3]
 2971              		.loc 1 820 38
 2972 010e 7B68     		ldr	r3, [r7, #4]
 2973 0110 1B68     		ldr	r3, [r3]
 2974              		.loc 1 820 56
 2975 0112 22F00E02 		bic	r2, r2, #14
 2976 0116 1A60     		str	r2, [r3]
 821:Drivers/STM32H7xx_HAL_Driver/Src/stm32h7xx_hal_dma.c **** 
 822:Drivers/STM32H7xx_HAL_Driver/Src/stm32h7xx_hal_dma.c ****       enableRegister = (__IO uint32_t *)(&(((BDMA_Channel_TypeDef   *)hdma->Instance)->CCR));
 2977              		.loc 1 822 75
 2978 0118 7B68     		ldr	r3, [r7, #4]
 2979 011a 1B68     		ldr	r3, [r3]
 2980              		.loc 1 822 22
 2981 011c 7B61     		str	r3, [r7, #20]
 2982              	.L114:
 823:Drivers/STM32H7xx_HAL_Driver/Src/stm32h7xx_hal_dma.c ****     }
 824:Drivers/STM32H7xx_HAL_Driver/Src/stm32h7xx_hal_dma.c **** 
 825:Drivers/STM32H7xx_HAL_Driver/Src/stm32h7xx_hal_dma.c ****     if(IS_DMA_DMAMUX_ALL_INSTANCE(hdma->Instance) != 0U) /* No DMAMUX available for BDMA1 */
 2983              		.loc 1 825 8
 2984 011e 7B68     		ldr	r3, [r7, #4]
 2985 0120 1B68     		ldr	r3, [r3]
 2986 0122 3C4A     		ldr	r2, .L133
 2987 0124 9342     		cmp	r3, r2
 2988 0126 72D0     		beq	.L115
ARM GAS  /var/folders/g1/j12m_ky910s3_sv7d4yrsdn00000gn/T//ccliMUVd.s 			page 68


 2989              		.loc 1 825 8 is_stmt 0 discriminator 2
 2990 0128 7B68     		ldr	r3, [r7, #4]
 2991 012a 1B68     		ldr	r3, [r3]
 2992 012c 3A4A     		ldr	r2, .L133+4
 2993 012e 9342     		cmp	r3, r2
 2994 0130 6DD0     		beq	.L115
 2995              		.loc 1 825 8 discriminator 4
 2996 0132 7B68     		ldr	r3, [r7, #4]
 2997 0134 1B68     		ldr	r3, [r3]
 2998 0136 394A     		ldr	r2, .L133+8
 2999 0138 9342     		cmp	r3, r2
 3000 013a 68D0     		beq	.L115
 3001              		.loc 1 825 8 discriminator 6
 3002 013c 7B68     		ldr	r3, [r7, #4]
 3003 013e 1B68     		ldr	r3, [r3]
 3004 0140 374A     		ldr	r2, .L133+12
 3005 0142 9342     		cmp	r3, r2
 3006 0144 63D0     		beq	.L115
 3007              		.loc 1 825 8 discriminator 8
 3008 0146 7B68     		ldr	r3, [r7, #4]
 3009 0148 1B68     		ldr	r3, [r3]
 3010 014a 364A     		ldr	r2, .L133+16
 3011 014c 9342     		cmp	r3, r2
 3012 014e 5ED0     		beq	.L115
 3013              		.loc 1 825 8 discriminator 10
 3014 0150 7B68     		ldr	r3, [r7, #4]
 3015 0152 1B68     		ldr	r3, [r3]
 3016 0154 344A     		ldr	r2, .L133+20
 3017 0156 9342     		cmp	r3, r2
 3018 0158 59D0     		beq	.L115
 3019              		.loc 1 825 8 discriminator 12
 3020 015a 7B68     		ldr	r3, [r7, #4]
 3021 015c 1B68     		ldr	r3, [r3]
 3022 015e 334A     		ldr	r2, .L133+24
 3023 0160 9342     		cmp	r3, r2
 3024 0162 54D0     		beq	.L115
 3025              		.loc 1 825 8 discriminator 14
 3026 0164 7B68     		ldr	r3, [r7, #4]
 3027 0166 1B68     		ldr	r3, [r3]
 3028 0168 314A     		ldr	r2, .L133+28
 3029 016a 9342     		cmp	r3, r2
 3030 016c 4FD0     		beq	.L115
 3031              		.loc 1 825 8 discriminator 16
 3032 016e 7B68     		ldr	r3, [r7, #4]
 3033 0170 1B68     		ldr	r3, [r3]
 3034 0172 304A     		ldr	r2, .L133+32
 3035 0174 9342     		cmp	r3, r2
 3036 0176 4AD0     		beq	.L115
 3037              		.loc 1 825 8 discriminator 18
 3038 0178 7B68     		ldr	r3, [r7, #4]
 3039 017a 1B68     		ldr	r3, [r3]
 3040 017c 2E4A     		ldr	r2, .L133+36
 3041 017e 9342     		cmp	r3, r2
 3042 0180 45D0     		beq	.L115
 3043              		.loc 1 825 8 discriminator 20
 3044 0182 7B68     		ldr	r3, [r7, #4]
 3045 0184 1B68     		ldr	r3, [r3]
ARM GAS  /var/folders/g1/j12m_ky910s3_sv7d4yrsdn00000gn/T//ccliMUVd.s 			page 69


 3046 0186 2D4A     		ldr	r2, .L133+40
 3047 0188 9342     		cmp	r3, r2
 3048 018a 40D0     		beq	.L115
 3049              		.loc 1 825 8 discriminator 22
 3050 018c 7B68     		ldr	r3, [r7, #4]
 3051 018e 1B68     		ldr	r3, [r3]
 3052 0190 2B4A     		ldr	r2, .L133+44
 3053 0192 9342     		cmp	r3, r2
 3054 0194 3BD0     		beq	.L115
 3055              		.loc 1 825 8 discriminator 24
 3056 0196 7B68     		ldr	r3, [r7, #4]
 3057 0198 1B68     		ldr	r3, [r3]
 3058 019a 2A4A     		ldr	r2, .L133+48
 3059 019c 9342     		cmp	r3, r2
 3060 019e 36D0     		beq	.L115
 3061              		.loc 1 825 8 discriminator 26
 3062 01a0 7B68     		ldr	r3, [r7, #4]
 3063 01a2 1B68     		ldr	r3, [r3]
 3064 01a4 284A     		ldr	r2, .L133+52
 3065 01a6 9342     		cmp	r3, r2
 3066 01a8 31D0     		beq	.L115
 3067              		.loc 1 825 8 discriminator 28
 3068 01aa 7B68     		ldr	r3, [r7, #4]
 3069 01ac 1B68     		ldr	r3, [r3]
 3070 01ae 274A     		ldr	r2, .L133+56
 3071 01b0 9342     		cmp	r3, r2
 3072 01b2 2CD0     		beq	.L115
 3073              		.loc 1 825 8 discriminator 30
 3074 01b4 7B68     		ldr	r3, [r7, #4]
 3075 01b6 1B68     		ldr	r3, [r3]
 3076 01b8 254A     		ldr	r2, .L133+60
 3077 01ba 9342     		cmp	r3, r2
 3078 01bc 27D0     		beq	.L115
 3079              		.loc 1 825 8 discriminator 32
 3080 01be 7B68     		ldr	r3, [r7, #4]
 3081 01c0 1B68     		ldr	r3, [r3]
 3082 01c2 244A     		ldr	r2, .L133+64
 3083 01c4 9342     		cmp	r3, r2
 3084 01c6 22D0     		beq	.L115
 3085              		.loc 1 825 8 discriminator 34
 3086 01c8 7B68     		ldr	r3, [r7, #4]
 3087 01ca 1B68     		ldr	r3, [r3]
 3088 01cc 224A     		ldr	r2, .L133+68
 3089 01ce 9342     		cmp	r3, r2
 3090 01d0 1DD0     		beq	.L115
 3091              		.loc 1 825 8 discriminator 36
 3092 01d2 7B68     		ldr	r3, [r7, #4]
 3093 01d4 1B68     		ldr	r3, [r3]
 3094 01d6 214A     		ldr	r2, .L133+72
 3095 01d8 9342     		cmp	r3, r2
 3096 01da 18D0     		beq	.L115
 3097              		.loc 1 825 8 discriminator 38
 3098 01dc 7B68     		ldr	r3, [r7, #4]
 3099 01de 1B68     		ldr	r3, [r3]
 3100 01e0 1F4A     		ldr	r2, .L133+76
 3101 01e2 9342     		cmp	r3, r2
 3102 01e4 13D0     		beq	.L115
ARM GAS  /var/folders/g1/j12m_ky910s3_sv7d4yrsdn00000gn/T//ccliMUVd.s 			page 70


 3103              		.loc 1 825 8 discriminator 40
 3104 01e6 7B68     		ldr	r3, [r7, #4]
 3105 01e8 1B68     		ldr	r3, [r3]
 3106 01ea 1E4A     		ldr	r2, .L133+80
 3107 01ec 9342     		cmp	r3, r2
 3108 01ee 0ED0     		beq	.L115
 3109              		.loc 1 825 8 discriminator 42
 3110 01f0 7B68     		ldr	r3, [r7, #4]
 3111 01f2 1B68     		ldr	r3, [r3]
 3112 01f4 1C4A     		ldr	r2, .L133+84
 3113 01f6 9342     		cmp	r3, r2
 3114 01f8 09D0     		beq	.L115
 3115              		.loc 1 825 8 discriminator 44
 3116 01fa 7B68     		ldr	r3, [r7, #4]
 3117 01fc 1B68     		ldr	r3, [r3]
 3118 01fe 1B4A     		ldr	r2, .L133+88
 3119 0200 9342     		cmp	r3, r2
 3120 0202 04D0     		beq	.L115
 3121              		.loc 1 825 8 discriminator 46
 3122 0204 7B68     		ldr	r3, [r7, #4]
 3123 0206 1B68     		ldr	r3, [r3]
 3124 0208 194A     		ldr	r2, .L133+92
 3125 020a 9342     		cmp	r3, r2
 3126 020c 32D1     		bne	.L116
 3127              	.L115:
 3128              		.loc 1 825 8 discriminator 47
 3129 020e 0123     		movs	r3, #1
 3130              		.loc 1 825 8
 3131 0210 31E0     		b	.L117
 3132              	.L134:
 3133 0212 00BF     		.align	2
 3134              	.L133:
 3135 0214 10000240 		.word	1073872912
 3136 0218 28000240 		.word	1073872936
 3137 021c 40000240 		.word	1073872960
 3138 0220 58000240 		.word	1073872984
 3139 0224 70000240 		.word	1073873008
 3140 0228 88000240 		.word	1073873032
 3141 022c A0000240 		.word	1073873056
 3142 0230 B8000240 		.word	1073873080
 3143 0234 10040240 		.word	1073873936
 3144 0238 28040240 		.word	1073873960
 3145 023c 40040240 		.word	1073873984
 3146 0240 58040240 		.word	1073874008
 3147 0244 70040240 		.word	1073874032
 3148 0248 88040240 		.word	1073874056
 3149 024c A0040240 		.word	1073874080
 3150 0250 B8040240 		.word	1073874104
 3151 0254 08540258 		.word	1476547592
 3152 0258 1C540258 		.word	1476547612
 3153 025c 30540258 		.word	1476547632
 3154 0260 44540258 		.word	1476547652
 3155 0264 58540258 		.word	1476547672
 3156 0268 6C540258 		.word	1476547692
 3157 026c 80540258 		.word	1476547712
 3158 0270 94540258 		.word	1476547732
 3159              	.L116:
ARM GAS  /var/folders/g1/j12m_ky910s3_sv7d4yrsdn00000gn/T//ccliMUVd.s 			page 71


 3160              		.loc 1 825 8 discriminator 48
 3161 0274 0023     		movs	r3, #0
 3162              	.L117:
 3163              		.loc 1 825 7 is_stmt 1 discriminator 50
 3164 0276 002B     		cmp	r3, #0
 3165 0278 07D0     		beq	.L118
 826:Drivers/STM32H7xx_HAL_Driver/Src/stm32h7xx_hal_dma.c ****     {
 827:Drivers/STM32H7xx_HAL_Driver/Src/stm32h7xx_hal_dma.c ****       /* disable the DMAMUX sync overrun IT */
 828:Drivers/STM32H7xx_HAL_Driver/Src/stm32h7xx_hal_dma.c ****       hdma->DMAmuxChannel->CCR &= ~DMAMUX_CxCR_SOIE;
 3166              		.loc 1 828 11
 3167 027a 7B68     		ldr	r3, [r7, #4]
 3168 027c 1B6E     		ldr	r3, [r3, #96]
 3169              		.loc 1 828 26
 3170 027e 1A68     		ldr	r2, [r3]
 3171              		.loc 1 828 11
 3172 0280 7B68     		ldr	r3, [r7, #4]
 3173 0282 1B6E     		ldr	r3, [r3, #96]
 3174              		.loc 1 828 32
 3175 0284 22F48072 		bic	r2, r2, #256
 3176 0288 1A60     		str	r2, [r3]
 3177              	.L118:
 829:Drivers/STM32H7xx_HAL_Driver/Src/stm32h7xx_hal_dma.c ****     }
 830:Drivers/STM32H7xx_HAL_Driver/Src/stm32h7xx_hal_dma.c **** 
 831:Drivers/STM32H7xx_HAL_Driver/Src/stm32h7xx_hal_dma.c ****     /* Disable the stream */
 832:Drivers/STM32H7xx_HAL_Driver/Src/stm32h7xx_hal_dma.c ****     __HAL_DMA_DISABLE(hdma);
 3178              		.loc 1 832 5
 3179 028a 7B68     		ldr	r3, [r7, #4]
 3180 028c 1B68     		ldr	r3, [r3]
 3181 028e 6D4A     		ldr	r2, .L135
 3182 0290 9342     		cmp	r3, r2
 3183 0292 4AD0     		beq	.L119
 3184              		.loc 1 832 5 is_stmt 0 discriminator 2
 3185 0294 7B68     		ldr	r3, [r7, #4]
 3186 0296 1B68     		ldr	r3, [r3]
 3187 0298 6B4A     		ldr	r2, .L135+4
 3188 029a 9342     		cmp	r3, r2
 3189 029c 45D0     		beq	.L119
 3190              		.loc 1 832 5 discriminator 4
 3191 029e 7B68     		ldr	r3, [r7, #4]
 3192 02a0 1B68     		ldr	r3, [r3]
 3193 02a2 6A4A     		ldr	r2, .L135+8
 3194 02a4 9342     		cmp	r3, r2
 3195 02a6 40D0     		beq	.L119
 3196              		.loc 1 832 5 discriminator 6
 3197 02a8 7B68     		ldr	r3, [r7, #4]
 3198 02aa 1B68     		ldr	r3, [r3]
 3199 02ac 684A     		ldr	r2, .L135+12
 3200 02ae 9342     		cmp	r3, r2
 3201 02b0 3BD0     		beq	.L119
 3202              		.loc 1 832 5 discriminator 8
 3203 02b2 7B68     		ldr	r3, [r7, #4]
 3204 02b4 1B68     		ldr	r3, [r3]
 3205 02b6 674A     		ldr	r2, .L135+16
 3206 02b8 9342     		cmp	r3, r2
 3207 02ba 36D0     		beq	.L119
 3208              		.loc 1 832 5 discriminator 10
 3209 02bc 7B68     		ldr	r3, [r7, #4]
ARM GAS  /var/folders/g1/j12m_ky910s3_sv7d4yrsdn00000gn/T//ccliMUVd.s 			page 72


 3210 02be 1B68     		ldr	r3, [r3]
 3211 02c0 654A     		ldr	r2, .L135+20
 3212 02c2 9342     		cmp	r3, r2
 3213 02c4 31D0     		beq	.L119
 3214              		.loc 1 832 5 discriminator 12
 3215 02c6 7B68     		ldr	r3, [r7, #4]
 3216 02c8 1B68     		ldr	r3, [r3]
 3217 02ca 644A     		ldr	r2, .L135+24
 3218 02cc 9342     		cmp	r3, r2
 3219 02ce 2CD0     		beq	.L119
 3220              		.loc 1 832 5 discriminator 14
 3221 02d0 7B68     		ldr	r3, [r7, #4]
 3222 02d2 1B68     		ldr	r3, [r3]
 3223 02d4 624A     		ldr	r2, .L135+28
 3224 02d6 9342     		cmp	r3, r2
 3225 02d8 27D0     		beq	.L119
 3226              		.loc 1 832 5 discriminator 16
 3227 02da 7B68     		ldr	r3, [r7, #4]
 3228 02dc 1B68     		ldr	r3, [r3]
 3229 02de 614A     		ldr	r2, .L135+32
 3230 02e0 9342     		cmp	r3, r2
 3231 02e2 22D0     		beq	.L119
 3232              		.loc 1 832 5 discriminator 18
 3233 02e4 7B68     		ldr	r3, [r7, #4]
 3234 02e6 1B68     		ldr	r3, [r3]
 3235 02e8 5F4A     		ldr	r2, .L135+36
 3236 02ea 9342     		cmp	r3, r2
 3237 02ec 1DD0     		beq	.L119
 3238              		.loc 1 832 5 discriminator 20
 3239 02ee 7B68     		ldr	r3, [r7, #4]
 3240 02f0 1B68     		ldr	r3, [r3]
 3241 02f2 5E4A     		ldr	r2, .L135+40
 3242 02f4 9342     		cmp	r3, r2
 3243 02f6 18D0     		beq	.L119
 3244              		.loc 1 832 5 discriminator 22
 3245 02f8 7B68     		ldr	r3, [r7, #4]
 3246 02fa 1B68     		ldr	r3, [r3]
 3247 02fc 5C4A     		ldr	r2, .L135+44
 3248 02fe 9342     		cmp	r3, r2
 3249 0300 13D0     		beq	.L119
 3250              		.loc 1 832 5 discriminator 24
 3251 0302 7B68     		ldr	r3, [r7, #4]
 3252 0304 1B68     		ldr	r3, [r3]
 3253 0306 5B4A     		ldr	r2, .L135+48
 3254 0308 9342     		cmp	r3, r2
 3255 030a 0ED0     		beq	.L119
 3256              		.loc 1 832 5 discriminator 26
 3257 030c 7B68     		ldr	r3, [r7, #4]
 3258 030e 1B68     		ldr	r3, [r3]
 3259 0310 594A     		ldr	r2, .L135+52
 3260 0312 9342     		cmp	r3, r2
 3261 0314 09D0     		beq	.L119
 3262              		.loc 1 832 5 discriminator 28
 3263 0316 7B68     		ldr	r3, [r7, #4]
 3264 0318 1B68     		ldr	r3, [r3]
 3265 031a 584A     		ldr	r2, .L135+56
 3266 031c 9342     		cmp	r3, r2
ARM GAS  /var/folders/g1/j12m_ky910s3_sv7d4yrsdn00000gn/T//ccliMUVd.s 			page 73


 3267 031e 04D0     		beq	.L119
 3268              		.loc 1 832 5 discriminator 30
 3269 0320 7B68     		ldr	r3, [r7, #4]
 3270 0322 1B68     		ldr	r3, [r3]
 3271 0324 564A     		ldr	r2, .L135+60
 3272 0326 9342     		cmp	r3, r2
 3273 0328 08D1     		bne	.L120
 3274              	.L119:
 3275              		.loc 1 832 5 discriminator 31
 3276 032a 7B68     		ldr	r3, [r7, #4]
 3277 032c 1B68     		ldr	r3, [r3]
 3278 032e 1A68     		ldr	r2, [r3]
 3279 0330 7B68     		ldr	r3, [r7, #4]
 3280 0332 1B68     		ldr	r3, [r3]
 3281 0334 22F00102 		bic	r2, r2, #1
 3282 0338 1A60     		str	r2, [r3]
 3283              		.loc 1 832 5
 3284 033a 07E0     		b	.L121
 3285              	.L120:
 3286              		.loc 1 832 5 discriminator 32
 3287 033c 7B68     		ldr	r3, [r7, #4]
 3288 033e 1B68     		ldr	r3, [r3]
 3289 0340 1A68     		ldr	r2, [r3]
 3290 0342 7B68     		ldr	r3, [r7, #4]
 3291 0344 1B68     		ldr	r3, [r3]
 3292 0346 22F00102 		bic	r2, r2, #1
 3293 034a 1A60     		str	r2, [r3]
 3294              	.L121:
 833:Drivers/STM32H7xx_HAL_Driver/Src/stm32h7xx_hal_dma.c **** 
 834:Drivers/STM32H7xx_HAL_Driver/Src/stm32h7xx_hal_dma.c ****     /* Check if the DMA Stream is effectively disabled */
 835:Drivers/STM32H7xx_HAL_Driver/Src/stm32h7xx_hal_dma.c ****     while(((*enableRegister) & DMA_SxCR_EN) != 0U)
 3295              		.loc 1 835 10 is_stmt 1
 3296 034c 13E0     		b	.L122
 3297              	.L123:
 836:Drivers/STM32H7xx_HAL_Driver/Src/stm32h7xx_hal_dma.c ****     {
 837:Drivers/STM32H7xx_HAL_Driver/Src/stm32h7xx_hal_dma.c ****       /* Check for the Timeout */
 838:Drivers/STM32H7xx_HAL_Driver/Src/stm32h7xx_hal_dma.c ****       if((HAL_GetTick() - tickstart ) > HAL_TIMEOUT_DMA_ABORT)
 3298              		.loc 1 838 11
 3299 034e FFF7FEFF 		bl	HAL_GetTick
 3300 0352 0246     		mov	r2, r0
 3301              		.loc 1 838 25 discriminator 1
 3302 0354 3B69     		ldr	r3, [r7, #16]
 3303 0356 D31A     		subs	r3, r2, r3
 3304              		.loc 1 838 9 discriminator 1
 3305 0358 052B     		cmp	r3, #5
 3306 035a 0CD9     		bls	.L122
 839:Drivers/STM32H7xx_HAL_Driver/Src/stm32h7xx_hal_dma.c ****       {
 840:Drivers/STM32H7xx_HAL_Driver/Src/stm32h7xx_hal_dma.c ****         /* Update error code */
 841:Drivers/STM32H7xx_HAL_Driver/Src/stm32h7xx_hal_dma.c ****         hdma->ErrorCode = HAL_DMA_ERROR_TIMEOUT;
 3307              		.loc 1 841 25
 3308 035c 7B68     		ldr	r3, [r7, #4]
 3309 035e 2022     		movs	r2, #32
 3310 0360 5A65     		str	r2, [r3, #84]
 842:Drivers/STM32H7xx_HAL_Driver/Src/stm32h7xx_hal_dma.c **** 
 843:Drivers/STM32H7xx_HAL_Driver/Src/stm32h7xx_hal_dma.c ****         /* Change the DMA state */
 844:Drivers/STM32H7xx_HAL_Driver/Src/stm32h7xx_hal_dma.c ****         hdma->State = HAL_DMA_STATE_ERROR;
 3311              		.loc 1 844 21
ARM GAS  /var/folders/g1/j12m_ky910s3_sv7d4yrsdn00000gn/T//ccliMUVd.s 			page 74


 3312 0362 7B68     		ldr	r3, [r7, #4]
 3313 0364 0322     		movs	r2, #3
 3314 0366 83F83520 		strb	r2, [r3, #53]
 845:Drivers/STM32H7xx_HAL_Driver/Src/stm32h7xx_hal_dma.c **** 
 846:Drivers/STM32H7xx_HAL_Driver/Src/stm32h7xx_hal_dma.c ****         /* Process Unlocked */
 847:Drivers/STM32H7xx_HAL_Driver/Src/stm32h7xx_hal_dma.c ****         __HAL_UNLOCK(hdma);
 3315              		.loc 1 847 9
 3316 036a 7B68     		ldr	r3, [r7, #4]
 3317 036c 0022     		movs	r2, #0
 3318 036e 83F83420 		strb	r2, [r3, #52]
 848:Drivers/STM32H7xx_HAL_Driver/Src/stm32h7xx_hal_dma.c **** 
 849:Drivers/STM32H7xx_HAL_Driver/Src/stm32h7xx_hal_dma.c ****         return HAL_ERROR;
 3319              		.loc 1 849 16
 3320 0372 0123     		movs	r3, #1
 3321 0374 2DE1     		b	.L108
 3322              	.L122:
 835:Drivers/STM32H7xx_HAL_Driver/Src/stm32h7xx_hal_dma.c ****     {
 3323              		.loc 1 835 13
 3324 0376 7B69     		ldr	r3, [r7, #20]
 3325 0378 1B68     		ldr	r3, [r3]
 835:Drivers/STM32H7xx_HAL_Driver/Src/stm32h7xx_hal_dma.c ****     {
 3326              		.loc 1 835 30
 3327 037a 03F00103 		and	r3, r3, #1
 835:Drivers/STM32H7xx_HAL_Driver/Src/stm32h7xx_hal_dma.c ****     {
 3328              		.loc 1 835 45
 3329 037e 002B     		cmp	r3, #0
 3330 0380 E5D1     		bne	.L123
 850:Drivers/STM32H7xx_HAL_Driver/Src/stm32h7xx_hal_dma.c ****       }
 851:Drivers/STM32H7xx_HAL_Driver/Src/stm32h7xx_hal_dma.c ****     }
 852:Drivers/STM32H7xx_HAL_Driver/Src/stm32h7xx_hal_dma.c **** 
 853:Drivers/STM32H7xx_HAL_Driver/Src/stm32h7xx_hal_dma.c ****     /* Clear all interrupt flags at correct offset within the register */
 854:Drivers/STM32H7xx_HAL_Driver/Src/stm32h7xx_hal_dma.c ****     if(IS_DMA_STREAM_INSTANCE(hdma->Instance) != 0U) /* DMA1 or DMA2 instance */
 3331              		.loc 1 854 8
 3332 0382 7B68     		ldr	r3, [r7, #4]
 3333 0384 1B68     		ldr	r3, [r3]
 3334 0386 2F4A     		ldr	r2, .L135
 3335 0388 9342     		cmp	r3, r2
 3336 038a 4AD0     		beq	.L124
 3337              		.loc 1 854 8 is_stmt 0 discriminator 2
 3338 038c 7B68     		ldr	r3, [r7, #4]
 3339 038e 1B68     		ldr	r3, [r3]
 3340 0390 2D4A     		ldr	r2, .L135+4
 3341 0392 9342     		cmp	r3, r2
 3342 0394 45D0     		beq	.L124
 3343              		.loc 1 854 8 discriminator 4
 3344 0396 7B68     		ldr	r3, [r7, #4]
 3345 0398 1B68     		ldr	r3, [r3]
 3346 039a 2C4A     		ldr	r2, .L135+8
 3347 039c 9342     		cmp	r3, r2
 3348 039e 40D0     		beq	.L124
 3349              		.loc 1 854 8 discriminator 6
 3350 03a0 7B68     		ldr	r3, [r7, #4]
 3351 03a2 1B68     		ldr	r3, [r3]
 3352 03a4 2A4A     		ldr	r2, .L135+12
 3353 03a6 9342     		cmp	r3, r2
 3354 03a8 3BD0     		beq	.L124
 3355              		.loc 1 854 8 discriminator 8
ARM GAS  /var/folders/g1/j12m_ky910s3_sv7d4yrsdn00000gn/T//ccliMUVd.s 			page 75


 3356 03aa 7B68     		ldr	r3, [r7, #4]
 3357 03ac 1B68     		ldr	r3, [r3]
 3358 03ae 294A     		ldr	r2, .L135+16
 3359 03b0 9342     		cmp	r3, r2
 3360 03b2 36D0     		beq	.L124
 3361              		.loc 1 854 8 discriminator 10
 3362 03b4 7B68     		ldr	r3, [r7, #4]
 3363 03b6 1B68     		ldr	r3, [r3]
 3364 03b8 274A     		ldr	r2, .L135+20
 3365 03ba 9342     		cmp	r3, r2
 3366 03bc 31D0     		beq	.L124
 3367              		.loc 1 854 8 discriminator 12
 3368 03be 7B68     		ldr	r3, [r7, #4]
 3369 03c0 1B68     		ldr	r3, [r3]
 3370 03c2 264A     		ldr	r2, .L135+24
 3371 03c4 9342     		cmp	r3, r2
 3372 03c6 2CD0     		beq	.L124
 3373              		.loc 1 854 8 discriminator 14
 3374 03c8 7B68     		ldr	r3, [r7, #4]
 3375 03ca 1B68     		ldr	r3, [r3]
 3376 03cc 244A     		ldr	r2, .L135+28
 3377 03ce 9342     		cmp	r3, r2
 3378 03d0 27D0     		beq	.L124
 3379              		.loc 1 854 8 discriminator 16
 3380 03d2 7B68     		ldr	r3, [r7, #4]
 3381 03d4 1B68     		ldr	r3, [r3]
 3382 03d6 234A     		ldr	r2, .L135+32
 3383 03d8 9342     		cmp	r3, r2
 3384 03da 22D0     		beq	.L124
 3385              		.loc 1 854 8 discriminator 18
 3386 03dc 7B68     		ldr	r3, [r7, #4]
 3387 03de 1B68     		ldr	r3, [r3]
 3388 03e0 214A     		ldr	r2, .L135+36
 3389 03e2 9342     		cmp	r3, r2
 3390 03e4 1DD0     		beq	.L124
 3391              		.loc 1 854 8 discriminator 20
 3392 03e6 7B68     		ldr	r3, [r7, #4]
 3393 03e8 1B68     		ldr	r3, [r3]
 3394 03ea 204A     		ldr	r2, .L135+40
 3395 03ec 9342     		cmp	r3, r2
 3396 03ee 18D0     		beq	.L124
 3397              		.loc 1 854 8 discriminator 22
 3398 03f0 7B68     		ldr	r3, [r7, #4]
 3399 03f2 1B68     		ldr	r3, [r3]
 3400 03f4 1E4A     		ldr	r2, .L135+44
 3401 03f6 9342     		cmp	r3, r2
 3402 03f8 13D0     		beq	.L124
 3403              		.loc 1 854 8 discriminator 24
 3404 03fa 7B68     		ldr	r3, [r7, #4]
 3405 03fc 1B68     		ldr	r3, [r3]
 3406 03fe 1D4A     		ldr	r2, .L135+48
 3407 0400 9342     		cmp	r3, r2
 3408 0402 0ED0     		beq	.L124
 3409              		.loc 1 854 8 discriminator 26
 3410 0404 7B68     		ldr	r3, [r7, #4]
 3411 0406 1B68     		ldr	r3, [r3]
 3412 0408 1B4A     		ldr	r2, .L135+52
ARM GAS  /var/folders/g1/j12m_ky910s3_sv7d4yrsdn00000gn/T//ccliMUVd.s 			page 76


 3413 040a 9342     		cmp	r3, r2
 3414 040c 09D0     		beq	.L124
 3415              		.loc 1 854 8 discriminator 28
 3416 040e 7B68     		ldr	r3, [r7, #4]
 3417 0410 1B68     		ldr	r3, [r3]
 3418 0412 1A4A     		ldr	r2, .L135+56
 3419 0414 9342     		cmp	r3, r2
 3420 0416 04D0     		beq	.L124
 3421              		.loc 1 854 8 discriminator 30
 3422 0418 7B68     		ldr	r3, [r7, #4]
 3423 041a 1B68     		ldr	r3, [r3]
 3424 041c 184A     		ldr	r2, .L135+60
 3425 041e 9342     		cmp	r3, r2
 3426 0420 01D1     		bne	.L125
 3427              	.L124:
 3428              		.loc 1 854 8 discriminator 31
 3429 0422 0123     		movs	r3, #1
 3430              		.loc 1 854 8
 3431 0424 00E0     		b	.L126
 3432              	.L125:
 3433              		.loc 1 854 8 discriminator 32
 3434 0426 0023     		movs	r3, #0
 3435              	.L126:
 3436              		.loc 1 854 7 is_stmt 1 discriminator 34
 3437 0428 002B     		cmp	r3, #0
 3438 042a 2BD0     		beq	.L127
 855:Drivers/STM32H7xx_HAL_Driver/Src/stm32h7xx_hal_dma.c ****     {
 856:Drivers/STM32H7xx_HAL_Driver/Src/stm32h7xx_hal_dma.c ****       regs_dma = (DMA_Base_Registers *)hdma->StreamBaseAddress;
 3439              		.loc 1 856 44
 3440 042c 7B68     		ldr	r3, [r7, #4]
 3441 042e 9B6D     		ldr	r3, [r3, #88]
 3442              		.loc 1 856 16
 3443 0430 BB60     		str	r3, [r7, #8]
 857:Drivers/STM32H7xx_HAL_Driver/Src/stm32h7xx_hal_dma.c ****       regs_dma->IFCR = 0x3FUL << (hdma->StreamIndex & 0x1FU);
 3444              		.loc 1 857 39
 3445 0432 7B68     		ldr	r3, [r7, #4]
 3446 0434 DB6D     		ldr	r3, [r3, #92]
 3447              		.loc 1 857 53
 3448 0436 03F01F03 		and	r3, r3, #31
 3449              		.loc 1 857 31
 3450 043a 3F22     		movs	r2, #63
 3451 043c 9A40     		lsls	r2, r2, r3
 3452              		.loc 1 857 22
 3453 043e BB68     		ldr	r3, [r7, #8]
 3454 0440 9A60     		str	r2, [r3, #8]
 3455 0442 2AE0     		b	.L128
 3456              	.L136:
 3457              		.align	2
 3458              	.L135:
 3459 0444 10000240 		.word	1073872912
 3460 0448 28000240 		.word	1073872936
 3461 044c 40000240 		.word	1073872960
 3462 0450 58000240 		.word	1073872984
 3463 0454 70000240 		.word	1073873008
 3464 0458 88000240 		.word	1073873032
 3465 045c A0000240 		.word	1073873056
 3466 0460 B8000240 		.word	1073873080
ARM GAS  /var/folders/g1/j12m_ky910s3_sv7d4yrsdn00000gn/T//ccliMUVd.s 			page 77


 3467 0464 10040240 		.word	1073873936
 3468 0468 28040240 		.word	1073873960
 3469 046c 40040240 		.word	1073873984
 3470 0470 58040240 		.word	1073874008
 3471 0474 70040240 		.word	1073874032
 3472 0478 88040240 		.word	1073874056
 3473 047c A0040240 		.word	1073874080
 3474 0480 B8040240 		.word	1073874104
 3475              	.L127:
 858:Drivers/STM32H7xx_HAL_Driver/Src/stm32h7xx_hal_dma.c ****     }
 859:Drivers/STM32H7xx_HAL_Driver/Src/stm32h7xx_hal_dma.c ****     else /* BDMA channel */
 860:Drivers/STM32H7xx_HAL_Driver/Src/stm32h7xx_hal_dma.c ****     {
 861:Drivers/STM32H7xx_HAL_Driver/Src/stm32h7xx_hal_dma.c ****       regs_bdma = (BDMA_Base_Registers *)hdma->StreamBaseAddress;
 3476              		.loc 1 861 46
 3477 0484 7B68     		ldr	r3, [r7, #4]
 3478 0486 9B6D     		ldr	r3, [r3, #88]
 3479              		.loc 1 861 17
 3480 0488 FB60     		str	r3, [r7, #12]
 862:Drivers/STM32H7xx_HAL_Driver/Src/stm32h7xx_hal_dma.c ****       regs_bdma->IFCR = ((BDMA_IFCR_CGIF0) << (hdma->StreamIndex & 0x1FU));
 3481              		.loc 1 862 52
 3482 048a 7B68     		ldr	r3, [r7, #4]
 3483 048c DB6D     		ldr	r3, [r3, #92]
 3484              		.loc 1 862 66
 3485 048e 03F01F03 		and	r3, r3, #31
 3486              		.loc 1 862 44
 3487 0492 0122     		movs	r2, #1
 3488 0494 9A40     		lsls	r2, r2, r3
 3489              		.loc 1 862 23
 3490 0496 FB68     		ldr	r3, [r7, #12]
 3491 0498 5A60     		str	r2, [r3, #4]
 3492              	.L128:
 863:Drivers/STM32H7xx_HAL_Driver/Src/stm32h7xx_hal_dma.c ****     }
 864:Drivers/STM32H7xx_HAL_Driver/Src/stm32h7xx_hal_dma.c **** 
 865:Drivers/STM32H7xx_HAL_Driver/Src/stm32h7xx_hal_dma.c ****     if(IS_DMA_DMAMUX_ALL_INSTANCE(hdma->Instance) != 0U) /* No DMAMUX available for BDMA1 */
 3493              		.loc 1 865 8
 3494 049a 7B68     		ldr	r3, [r7, #4]
 3495 049c 1B68     		ldr	r3, [r3]
 3496 049e 4F4A     		ldr	r2, .L137
 3497 04a0 9342     		cmp	r3, r2
 3498 04a2 72D0     		beq	.L129
 3499              		.loc 1 865 8 is_stmt 0 discriminator 2
 3500 04a4 7B68     		ldr	r3, [r7, #4]
 3501 04a6 1B68     		ldr	r3, [r3]
 3502 04a8 4D4A     		ldr	r2, .L137+4
 3503 04aa 9342     		cmp	r3, r2
 3504 04ac 6DD0     		beq	.L129
 3505              		.loc 1 865 8 discriminator 4
 3506 04ae 7B68     		ldr	r3, [r7, #4]
 3507 04b0 1B68     		ldr	r3, [r3]
 3508 04b2 4C4A     		ldr	r2, .L137+8
 3509 04b4 9342     		cmp	r3, r2
 3510 04b6 68D0     		beq	.L129
 3511              		.loc 1 865 8 discriminator 6
 3512 04b8 7B68     		ldr	r3, [r7, #4]
 3513 04ba 1B68     		ldr	r3, [r3]
 3514 04bc 4A4A     		ldr	r2, .L137+12
 3515 04be 9342     		cmp	r3, r2
ARM GAS  /var/folders/g1/j12m_ky910s3_sv7d4yrsdn00000gn/T//ccliMUVd.s 			page 78


 3516 04c0 63D0     		beq	.L129
 3517              		.loc 1 865 8 discriminator 8
 3518 04c2 7B68     		ldr	r3, [r7, #4]
 3519 04c4 1B68     		ldr	r3, [r3]
 3520 04c6 494A     		ldr	r2, .L137+16
 3521 04c8 9342     		cmp	r3, r2
 3522 04ca 5ED0     		beq	.L129
 3523              		.loc 1 865 8 discriminator 10
 3524 04cc 7B68     		ldr	r3, [r7, #4]
 3525 04ce 1B68     		ldr	r3, [r3]
 3526 04d0 474A     		ldr	r2, .L137+20
 3527 04d2 9342     		cmp	r3, r2
 3528 04d4 59D0     		beq	.L129
 3529              		.loc 1 865 8 discriminator 12
 3530 04d6 7B68     		ldr	r3, [r7, #4]
 3531 04d8 1B68     		ldr	r3, [r3]
 3532 04da 464A     		ldr	r2, .L137+24
 3533 04dc 9342     		cmp	r3, r2
 3534 04de 54D0     		beq	.L129
 3535              		.loc 1 865 8 discriminator 14
 3536 04e0 7B68     		ldr	r3, [r7, #4]
 3537 04e2 1B68     		ldr	r3, [r3]
 3538 04e4 444A     		ldr	r2, .L137+28
 3539 04e6 9342     		cmp	r3, r2
 3540 04e8 4FD0     		beq	.L129
 3541              		.loc 1 865 8 discriminator 16
 3542 04ea 7B68     		ldr	r3, [r7, #4]
 3543 04ec 1B68     		ldr	r3, [r3]
 3544 04ee 434A     		ldr	r2, .L137+32
 3545 04f0 9342     		cmp	r3, r2
 3546 04f2 4AD0     		beq	.L129
 3547              		.loc 1 865 8 discriminator 18
 3548 04f4 7B68     		ldr	r3, [r7, #4]
 3549 04f6 1B68     		ldr	r3, [r3]
 3550 04f8 414A     		ldr	r2, .L137+36
 3551 04fa 9342     		cmp	r3, r2
 3552 04fc 45D0     		beq	.L129
 3553              		.loc 1 865 8 discriminator 20
 3554 04fe 7B68     		ldr	r3, [r7, #4]
 3555 0500 1B68     		ldr	r3, [r3]
 3556 0502 404A     		ldr	r2, .L137+40
 3557 0504 9342     		cmp	r3, r2
 3558 0506 40D0     		beq	.L129
 3559              		.loc 1 865 8 discriminator 22
 3560 0508 7B68     		ldr	r3, [r7, #4]
 3561 050a 1B68     		ldr	r3, [r3]
 3562 050c 3E4A     		ldr	r2, .L137+44
 3563 050e 9342     		cmp	r3, r2
 3564 0510 3BD0     		beq	.L129
 3565              		.loc 1 865 8 discriminator 24
 3566 0512 7B68     		ldr	r3, [r7, #4]
 3567 0514 1B68     		ldr	r3, [r3]
 3568 0516 3D4A     		ldr	r2, .L137+48
 3569 0518 9342     		cmp	r3, r2
 3570 051a 36D0     		beq	.L129
 3571              		.loc 1 865 8 discriminator 26
 3572 051c 7B68     		ldr	r3, [r7, #4]
ARM GAS  /var/folders/g1/j12m_ky910s3_sv7d4yrsdn00000gn/T//ccliMUVd.s 			page 79


 3573 051e 1B68     		ldr	r3, [r3]
 3574 0520 3B4A     		ldr	r2, .L137+52
 3575 0522 9342     		cmp	r3, r2
 3576 0524 31D0     		beq	.L129
 3577              		.loc 1 865 8 discriminator 28
 3578 0526 7B68     		ldr	r3, [r7, #4]
 3579 0528 1B68     		ldr	r3, [r3]
 3580 052a 3A4A     		ldr	r2, .L137+56
 3581 052c 9342     		cmp	r3, r2
 3582 052e 2CD0     		beq	.L129
 3583              		.loc 1 865 8 discriminator 30
 3584 0530 7B68     		ldr	r3, [r7, #4]
 3585 0532 1B68     		ldr	r3, [r3]
 3586 0534 384A     		ldr	r2, .L137+60
 3587 0536 9342     		cmp	r3, r2
 3588 0538 27D0     		beq	.L129
 3589              		.loc 1 865 8 discriminator 32
 3590 053a 7B68     		ldr	r3, [r7, #4]
 3591 053c 1B68     		ldr	r3, [r3]
 3592 053e 374A     		ldr	r2, .L137+64
 3593 0540 9342     		cmp	r3, r2
 3594 0542 22D0     		beq	.L129
 3595              		.loc 1 865 8 discriminator 34
 3596 0544 7B68     		ldr	r3, [r7, #4]
 3597 0546 1B68     		ldr	r3, [r3]
 3598 0548 354A     		ldr	r2, .L137+68
 3599 054a 9342     		cmp	r3, r2
 3600 054c 1DD0     		beq	.L129
 3601              		.loc 1 865 8 discriminator 36
 3602 054e 7B68     		ldr	r3, [r7, #4]
 3603 0550 1B68     		ldr	r3, [r3]
 3604 0552 344A     		ldr	r2, .L137+72
 3605 0554 9342     		cmp	r3, r2
 3606 0556 18D0     		beq	.L129
 3607              		.loc 1 865 8 discriminator 38
 3608 0558 7B68     		ldr	r3, [r7, #4]
 3609 055a 1B68     		ldr	r3, [r3]
 3610 055c 324A     		ldr	r2, .L137+76
 3611 055e 9342     		cmp	r3, r2
 3612 0560 13D0     		beq	.L129
 3613              		.loc 1 865 8 discriminator 40
 3614 0562 7B68     		ldr	r3, [r7, #4]
 3615 0564 1B68     		ldr	r3, [r3]
 3616 0566 314A     		ldr	r2, .L137+80
 3617 0568 9342     		cmp	r3, r2
 3618 056a 0ED0     		beq	.L129
 3619              		.loc 1 865 8 discriminator 42
 3620 056c 7B68     		ldr	r3, [r7, #4]
 3621 056e 1B68     		ldr	r3, [r3]
 3622 0570 2F4A     		ldr	r2, .L137+84
 3623 0572 9342     		cmp	r3, r2
 3624 0574 09D0     		beq	.L129
 3625              		.loc 1 865 8 discriminator 44
 3626 0576 7B68     		ldr	r3, [r7, #4]
 3627 0578 1B68     		ldr	r3, [r3]
 3628 057a 2E4A     		ldr	r2, .L137+88
 3629 057c 9342     		cmp	r3, r2
ARM GAS  /var/folders/g1/j12m_ky910s3_sv7d4yrsdn00000gn/T//ccliMUVd.s 			page 80


 3630 057e 04D0     		beq	.L129
 3631              		.loc 1 865 8 discriminator 46
 3632 0580 7B68     		ldr	r3, [r7, #4]
 3633 0582 1B68     		ldr	r3, [r3]
 3634 0584 2C4A     		ldr	r2, .L137+92
 3635 0586 9342     		cmp	r3, r2
 3636 0588 01D1     		bne	.L130
 3637              	.L129:
 3638              		.loc 1 865 8 discriminator 47
 3639 058a 0123     		movs	r3, #1
 3640              		.loc 1 865 8
 3641 058c 00E0     		b	.L131
 3642              	.L130:
 3643              		.loc 1 865 8 discriminator 48
 3644 058e 0023     		movs	r3, #0
 3645              	.L131:
 3646              		.loc 1 865 7 is_stmt 1 discriminator 50
 3647 0590 002B     		cmp	r3, #0
 3648 0592 15D0     		beq	.L132
 866:Drivers/STM32H7xx_HAL_Driver/Src/stm32h7xx_hal_dma.c ****     {
 867:Drivers/STM32H7xx_HAL_Driver/Src/stm32h7xx_hal_dma.c ****       /* Clear the DMAMUX synchro overrun flag */
 868:Drivers/STM32H7xx_HAL_Driver/Src/stm32h7xx_hal_dma.c ****       hdma->DMAmuxChannelStatus->CFR = hdma->DMAmuxChannelStatusMask;
 3649              		.loc 1 868 11
 3650 0594 7B68     		ldr	r3, [r7, #4]
 3651 0596 5B6E     		ldr	r3, [r3, #100]
 3652              		.loc 1 868 44
 3653 0598 7A68     		ldr	r2, [r7, #4]
 3654 059a 926E     		ldr	r2, [r2, #104]
 3655              		.loc 1 868 38
 3656 059c 5A60     		str	r2, [r3, #4]
 869:Drivers/STM32H7xx_HAL_Driver/Src/stm32h7xx_hal_dma.c **** 
 870:Drivers/STM32H7xx_HAL_Driver/Src/stm32h7xx_hal_dma.c ****       if(hdma->DMAmuxRequestGen != 0U)
 3657              		.loc 1 870 14
 3658 059e 7B68     		ldr	r3, [r7, #4]
 3659 05a0 DB6E     		ldr	r3, [r3, #108]
 3660              		.loc 1 870 9
 3661 05a2 002B     		cmp	r3, #0
 3662 05a4 0CD0     		beq	.L132
 871:Drivers/STM32H7xx_HAL_Driver/Src/stm32h7xx_hal_dma.c ****       {
 872:Drivers/STM32H7xx_HAL_Driver/Src/stm32h7xx_hal_dma.c ****         /* if using DMAMUX request generator, disable the DMAMUX request generator overrun IT */
 873:Drivers/STM32H7xx_HAL_Driver/Src/stm32h7xx_hal_dma.c ****         /* disable the request gen overrun IT */
 874:Drivers/STM32H7xx_HAL_Driver/Src/stm32h7xx_hal_dma.c ****         hdma->DMAmuxRequestGen->RGCR &= ~DMAMUX_RGxCR_OIE;
 3663              		.loc 1 874 13
 3664 05a6 7B68     		ldr	r3, [r7, #4]
 3665 05a8 DB6E     		ldr	r3, [r3, #108]
 3666              		.loc 1 874 31
 3667 05aa 1A68     		ldr	r2, [r3]
 3668              		.loc 1 874 13
 3669 05ac 7B68     		ldr	r3, [r7, #4]
 3670 05ae DB6E     		ldr	r3, [r3, #108]
 3671              		.loc 1 874 38
 3672 05b0 22F48072 		bic	r2, r2, #256
 3673 05b4 1A60     		str	r2, [r3]
 875:Drivers/STM32H7xx_HAL_Driver/Src/stm32h7xx_hal_dma.c **** 
 876:Drivers/STM32H7xx_HAL_Driver/Src/stm32h7xx_hal_dma.c ****         /* Clear the DMAMUX request generator overrun flag */
 877:Drivers/STM32H7xx_HAL_Driver/Src/stm32h7xx_hal_dma.c ****         hdma->DMAmuxRequestGenStatus->RGCFR = hdma->DMAmuxRequestGenStatusMask;
 3674              		.loc 1 877 13
ARM GAS  /var/folders/g1/j12m_ky910s3_sv7d4yrsdn00000gn/T//ccliMUVd.s 			page 81


 3675 05b6 7B68     		ldr	r3, [r7, #4]
 3676 05b8 1B6F     		ldr	r3, [r3, #112]
 3677              		.loc 1 877 51
 3678 05ba 7A68     		ldr	r2, [r7, #4]
 3679 05bc 526F     		ldr	r2, [r2, #116]
 3680              		.loc 1 877 45
 3681 05be 5A60     		str	r2, [r3, #4]
 3682              	.L132:
 878:Drivers/STM32H7xx_HAL_Driver/Src/stm32h7xx_hal_dma.c ****       }
 879:Drivers/STM32H7xx_HAL_Driver/Src/stm32h7xx_hal_dma.c ****     }
 880:Drivers/STM32H7xx_HAL_Driver/Src/stm32h7xx_hal_dma.c **** 
 881:Drivers/STM32H7xx_HAL_Driver/Src/stm32h7xx_hal_dma.c ****     /* Change the DMA state */
 882:Drivers/STM32H7xx_HAL_Driver/Src/stm32h7xx_hal_dma.c ****     hdma->State = HAL_DMA_STATE_READY;
 3683              		.loc 1 882 17
 3684 05c0 7B68     		ldr	r3, [r7, #4]
 3685 05c2 0122     		movs	r2, #1
 3686 05c4 83F83520 		strb	r2, [r3, #53]
 883:Drivers/STM32H7xx_HAL_Driver/Src/stm32h7xx_hal_dma.c **** 
 884:Drivers/STM32H7xx_HAL_Driver/Src/stm32h7xx_hal_dma.c ****     /* Process Unlocked */
 885:Drivers/STM32H7xx_HAL_Driver/Src/stm32h7xx_hal_dma.c ****     __HAL_UNLOCK(hdma);
 3687              		.loc 1 885 5
 3688 05c8 7B68     		ldr	r3, [r7, #4]
 3689 05ca 0022     		movs	r2, #0
 3690 05cc 83F83420 		strb	r2, [r3, #52]
 886:Drivers/STM32H7xx_HAL_Driver/Src/stm32h7xx_hal_dma.c ****   }
 887:Drivers/STM32H7xx_HAL_Driver/Src/stm32h7xx_hal_dma.c **** 
 888:Drivers/STM32H7xx_HAL_Driver/Src/stm32h7xx_hal_dma.c ****   return HAL_OK;
 3691              		.loc 1 888 10
 3692 05d0 0023     		movs	r3, #0
 3693              	.L108:
 889:Drivers/STM32H7xx_HAL_Driver/Src/stm32h7xx_hal_dma.c **** }
 3694              		.loc 1 889 1
 3695 05d2 1846     		mov	r0, r3
 3696 05d4 1837     		adds	r7, r7, #24
 3697              	.LCFI23:
 3698              		.cfi_def_cfa_offset 8
 3699 05d6 BD46     		mov	sp, r7
 3700              	.LCFI24:
 3701              		.cfi_def_cfa_register 13
 3702              		@ sp needed
 3703 05d8 80BD     		pop	{r7, pc}
 3704              	.L138:
 3705 05da 00BF     		.align	2
 3706              	.L137:
 3707 05dc 10000240 		.word	1073872912
 3708 05e0 28000240 		.word	1073872936
 3709 05e4 40000240 		.word	1073872960
 3710 05e8 58000240 		.word	1073872984
 3711 05ec 70000240 		.word	1073873008
 3712 05f0 88000240 		.word	1073873032
 3713 05f4 A0000240 		.word	1073873056
 3714 05f8 B8000240 		.word	1073873080
 3715 05fc 10040240 		.word	1073873936
 3716 0600 28040240 		.word	1073873960
 3717 0604 40040240 		.word	1073873984
 3718 0608 58040240 		.word	1073874008
 3719 060c 70040240 		.word	1073874032
ARM GAS  /var/folders/g1/j12m_ky910s3_sv7d4yrsdn00000gn/T//ccliMUVd.s 			page 82


 3720 0610 88040240 		.word	1073874056
 3721 0614 A0040240 		.word	1073874080
 3722 0618 B8040240 		.word	1073874104
 3723 061c 08540258 		.word	1476547592
 3724 0620 1C540258 		.word	1476547612
 3725 0624 30540258 		.word	1476547632
 3726 0628 44540258 		.word	1476547652
 3727 062c 58540258 		.word	1476547672
 3728 0630 6C540258 		.word	1476547692
 3729 0634 80540258 		.word	1476547712
 3730 0638 94540258 		.word	1476547732
 3731              		.cfi_endproc
 3732              	.LFE148:
 3734              		.section	.text.HAL_DMA_Abort_IT,"ax",%progbits
 3735              		.align	1
 3736              		.global	HAL_DMA_Abort_IT
 3737              		.syntax unified
 3738              		.thumb
 3739              		.thumb_func
 3741              	HAL_DMA_Abort_IT:
 3742              	.LFB149:
 890:Drivers/STM32H7xx_HAL_Driver/Src/stm32h7xx_hal_dma.c **** 
 891:Drivers/STM32H7xx_HAL_Driver/Src/stm32h7xx_hal_dma.c **** /**
 892:Drivers/STM32H7xx_HAL_Driver/Src/stm32h7xx_hal_dma.c ****   * @brief  Aborts the DMA Transfer in Interrupt mode.
 893:Drivers/STM32H7xx_HAL_Driver/Src/stm32h7xx_hal_dma.c ****   * @param  hdma  : pointer to a DMA_HandleTypeDef structure that contains
 894:Drivers/STM32H7xx_HAL_Driver/Src/stm32h7xx_hal_dma.c ****   *                 the configuration information for the specified DMA Stream.
 895:Drivers/STM32H7xx_HAL_Driver/Src/stm32h7xx_hal_dma.c ****   * @retval HAL status
 896:Drivers/STM32H7xx_HAL_Driver/Src/stm32h7xx_hal_dma.c ****   */
 897:Drivers/STM32H7xx_HAL_Driver/Src/stm32h7xx_hal_dma.c **** HAL_StatusTypeDef HAL_DMA_Abort_IT(DMA_HandleTypeDef *hdma)
 898:Drivers/STM32H7xx_HAL_Driver/Src/stm32h7xx_hal_dma.c **** {
 3743              		.loc 1 898 1
 3744              		.cfi_startproc
 3745              		@ args = 0, pretend = 0, frame = 16
 3746              		@ frame_needed = 1, uses_anonymous_args = 0
 3747 0000 80B5     		push	{r7, lr}
 3748              	.LCFI25:
 3749              		.cfi_def_cfa_offset 8
 3750              		.cfi_offset 7, -8
 3751              		.cfi_offset 14, -4
 3752 0002 84B0     		sub	sp, sp, #16
 3753              	.LCFI26:
 3754              		.cfi_def_cfa_offset 24
 3755 0004 00AF     		add	r7, sp, #0
 3756              	.LCFI27:
 3757              		.cfi_def_cfa_register 7
 3758 0006 7860     		str	r0, [r7, #4]
 899:Drivers/STM32H7xx_HAL_Driver/Src/stm32h7xx_hal_dma.c ****   BDMA_Base_Registers *regs_bdma;
 900:Drivers/STM32H7xx_HAL_Driver/Src/stm32h7xx_hal_dma.c **** 
 901:Drivers/STM32H7xx_HAL_Driver/Src/stm32h7xx_hal_dma.c ****   /* Check the DMA peripheral handle */
 902:Drivers/STM32H7xx_HAL_Driver/Src/stm32h7xx_hal_dma.c ****   if(hdma == NULL)
 3759              		.loc 1 902 5
 3760 0008 7B68     		ldr	r3, [r7, #4]
 3761 000a 002B     		cmp	r3, #0
 3762 000c 01D1     		bne	.L140
 903:Drivers/STM32H7xx_HAL_Driver/Src/stm32h7xx_hal_dma.c ****   {
 904:Drivers/STM32H7xx_HAL_Driver/Src/stm32h7xx_hal_dma.c ****     return HAL_ERROR;
 3763              		.loc 1 904 12
ARM GAS  /var/folders/g1/j12m_ky910s3_sv7d4yrsdn00000gn/T//ccliMUVd.s 			page 83


 3764 000e 0123     		movs	r3, #1
 3765 0010 37E2     		b	.L141
 3766              	.L140:
 905:Drivers/STM32H7xx_HAL_Driver/Src/stm32h7xx_hal_dma.c ****   }
 906:Drivers/STM32H7xx_HAL_Driver/Src/stm32h7xx_hal_dma.c **** 
 907:Drivers/STM32H7xx_HAL_Driver/Src/stm32h7xx_hal_dma.c ****   if(hdma->State != HAL_DMA_STATE_BUSY)
 3767              		.loc 1 907 10
 3768 0012 7B68     		ldr	r3, [r7, #4]
 3769 0014 93F83530 		ldrb	r3, [r3, #53]
 3770 0018 DBB2     		uxtb	r3, r3
 3771              		.loc 1 907 5
 3772 001a 022B     		cmp	r3, #2
 3773 001c 04D0     		beq	.L142
 908:Drivers/STM32H7xx_HAL_Driver/Src/stm32h7xx_hal_dma.c ****   {
 909:Drivers/STM32H7xx_HAL_Driver/Src/stm32h7xx_hal_dma.c ****     hdma->ErrorCode = HAL_DMA_ERROR_NO_XFER;
 3774              		.loc 1 909 21
 3775 001e 7B68     		ldr	r3, [r7, #4]
 3776 0020 8022     		movs	r2, #128
 3777 0022 5A65     		str	r2, [r3, #84]
 910:Drivers/STM32H7xx_HAL_Driver/Src/stm32h7xx_hal_dma.c ****     return HAL_ERROR;
 3778              		.loc 1 910 12
 3779 0024 0123     		movs	r3, #1
 3780 0026 2CE2     		b	.L141
 3781              	.L142:
 911:Drivers/STM32H7xx_HAL_Driver/Src/stm32h7xx_hal_dma.c ****   }
 912:Drivers/STM32H7xx_HAL_Driver/Src/stm32h7xx_hal_dma.c ****   else
 913:Drivers/STM32H7xx_HAL_Driver/Src/stm32h7xx_hal_dma.c ****   {
 914:Drivers/STM32H7xx_HAL_Driver/Src/stm32h7xx_hal_dma.c ****     if(IS_DMA_STREAM_INSTANCE(hdma->Instance) != 0U) /* DMA1 or DMA2 instance */
 3782              		.loc 1 914 8
 3783 0028 7B68     		ldr	r3, [r7, #4]
 3784 002a 1B68     		ldr	r3, [r3]
 3785 002c 5C4A     		ldr	r2, .L158
 3786 002e 9342     		cmp	r3, r2
 3787 0030 4AD0     		beq	.L143
 3788              		.loc 1 914 8 is_stmt 0 discriminator 2
 3789 0032 7B68     		ldr	r3, [r7, #4]
 3790 0034 1B68     		ldr	r3, [r3]
 3791 0036 5B4A     		ldr	r2, .L158+4
 3792 0038 9342     		cmp	r3, r2
 3793 003a 45D0     		beq	.L143
 3794              		.loc 1 914 8 discriminator 4
 3795 003c 7B68     		ldr	r3, [r7, #4]
 3796 003e 1B68     		ldr	r3, [r3]
 3797 0040 594A     		ldr	r2, .L158+8
 3798 0042 9342     		cmp	r3, r2
 3799 0044 40D0     		beq	.L143
 3800              		.loc 1 914 8 discriminator 6
 3801 0046 7B68     		ldr	r3, [r7, #4]
 3802 0048 1B68     		ldr	r3, [r3]
 3803 004a 584A     		ldr	r2, .L158+12
 3804 004c 9342     		cmp	r3, r2
 3805 004e 3BD0     		beq	.L143
 3806              		.loc 1 914 8 discriminator 8
 3807 0050 7B68     		ldr	r3, [r7, #4]
 3808 0052 1B68     		ldr	r3, [r3]
 3809 0054 564A     		ldr	r2, .L158+16
 3810 0056 9342     		cmp	r3, r2
ARM GAS  /var/folders/g1/j12m_ky910s3_sv7d4yrsdn00000gn/T//ccliMUVd.s 			page 84


 3811 0058 36D0     		beq	.L143
 3812              		.loc 1 914 8 discriminator 10
 3813 005a 7B68     		ldr	r3, [r7, #4]
 3814 005c 1B68     		ldr	r3, [r3]
 3815 005e 554A     		ldr	r2, .L158+20
 3816 0060 9342     		cmp	r3, r2
 3817 0062 31D0     		beq	.L143
 3818              		.loc 1 914 8 discriminator 12
 3819 0064 7B68     		ldr	r3, [r7, #4]
 3820 0066 1B68     		ldr	r3, [r3]
 3821 0068 534A     		ldr	r2, .L158+24
 3822 006a 9342     		cmp	r3, r2
 3823 006c 2CD0     		beq	.L143
 3824              		.loc 1 914 8 discriminator 14
 3825 006e 7B68     		ldr	r3, [r7, #4]
 3826 0070 1B68     		ldr	r3, [r3]
 3827 0072 524A     		ldr	r2, .L158+28
 3828 0074 9342     		cmp	r3, r2
 3829 0076 27D0     		beq	.L143
 3830              		.loc 1 914 8 discriminator 16
 3831 0078 7B68     		ldr	r3, [r7, #4]
 3832 007a 1B68     		ldr	r3, [r3]
 3833 007c 504A     		ldr	r2, .L158+32
 3834 007e 9342     		cmp	r3, r2
 3835 0080 22D0     		beq	.L143
 3836              		.loc 1 914 8 discriminator 18
 3837 0082 7B68     		ldr	r3, [r7, #4]
 3838 0084 1B68     		ldr	r3, [r3]
 3839 0086 4F4A     		ldr	r2, .L158+36
 3840 0088 9342     		cmp	r3, r2
 3841 008a 1DD0     		beq	.L143
 3842              		.loc 1 914 8 discriminator 20
 3843 008c 7B68     		ldr	r3, [r7, #4]
 3844 008e 1B68     		ldr	r3, [r3]
 3845 0090 4D4A     		ldr	r2, .L158+40
 3846 0092 9342     		cmp	r3, r2
 3847 0094 18D0     		beq	.L143
 3848              		.loc 1 914 8 discriminator 22
 3849 0096 7B68     		ldr	r3, [r7, #4]
 3850 0098 1B68     		ldr	r3, [r3]
 3851 009a 4C4A     		ldr	r2, .L158+44
 3852 009c 9342     		cmp	r3, r2
 3853 009e 13D0     		beq	.L143
 3854              		.loc 1 914 8 discriminator 24
 3855 00a0 7B68     		ldr	r3, [r7, #4]
 3856 00a2 1B68     		ldr	r3, [r3]
 3857 00a4 4A4A     		ldr	r2, .L158+48
 3858 00a6 9342     		cmp	r3, r2
 3859 00a8 0ED0     		beq	.L143
 3860              		.loc 1 914 8 discriminator 26
 3861 00aa 7B68     		ldr	r3, [r7, #4]
 3862 00ac 1B68     		ldr	r3, [r3]
 3863 00ae 494A     		ldr	r2, .L158+52
 3864 00b0 9342     		cmp	r3, r2
 3865 00b2 09D0     		beq	.L143
 3866              		.loc 1 914 8 discriminator 28
 3867 00b4 7B68     		ldr	r3, [r7, #4]
ARM GAS  /var/folders/g1/j12m_ky910s3_sv7d4yrsdn00000gn/T//ccliMUVd.s 			page 85


 3868 00b6 1B68     		ldr	r3, [r3]
 3869 00b8 474A     		ldr	r2, .L158+56
 3870 00ba 9342     		cmp	r3, r2
 3871 00bc 04D0     		beq	.L143
 3872              		.loc 1 914 8 discriminator 30
 3873 00be 7B68     		ldr	r3, [r7, #4]
 3874 00c0 1B68     		ldr	r3, [r3]
 3875 00c2 464A     		ldr	r2, .L158+60
 3876 00c4 9342     		cmp	r3, r2
 3877 00c6 01D1     		bne	.L144
 3878              	.L143:
 3879              		.loc 1 914 8 discriminator 31
 3880 00c8 0123     		movs	r3, #1
 3881              		.loc 1 914 8
 3882 00ca 00E0     		b	.L145
 3883              	.L144:
 3884              		.loc 1 914 8 discriminator 32
 3885 00cc 0023     		movs	r3, #0
 3886              	.L145:
 3887              		.loc 1 914 7 is_stmt 1 discriminator 34
 3888 00ce 002B     		cmp	r3, #0
 3889 00d0 00F08680 		beq	.L146
 915:Drivers/STM32H7xx_HAL_Driver/Src/stm32h7xx_hal_dma.c ****     {
 916:Drivers/STM32H7xx_HAL_Driver/Src/stm32h7xx_hal_dma.c ****       /* Set Abort State  */
 917:Drivers/STM32H7xx_HAL_Driver/Src/stm32h7xx_hal_dma.c ****       hdma->State = HAL_DMA_STATE_ABORT;
 3890              		.loc 1 917 19
 3891 00d4 7B68     		ldr	r3, [r7, #4]
 3892 00d6 0422     		movs	r2, #4
 3893 00d8 83F83520 		strb	r2, [r3, #53]
 918:Drivers/STM32H7xx_HAL_Driver/Src/stm32h7xx_hal_dma.c **** 
 919:Drivers/STM32H7xx_HAL_Driver/Src/stm32h7xx_hal_dma.c ****       /* Disable the stream */
 920:Drivers/STM32H7xx_HAL_Driver/Src/stm32h7xx_hal_dma.c ****       __HAL_DMA_DISABLE(hdma);
 3894              		.loc 1 920 7
 3895 00dc 7B68     		ldr	r3, [r7, #4]
 3896 00de 1B68     		ldr	r3, [r3]
 3897 00e0 2F4A     		ldr	r2, .L158
 3898 00e2 9342     		cmp	r3, r2
 3899 00e4 4AD0     		beq	.L147
 3900              		.loc 1 920 7 is_stmt 0 discriminator 2
 3901 00e6 7B68     		ldr	r3, [r7, #4]
 3902 00e8 1B68     		ldr	r3, [r3]
 3903 00ea 2E4A     		ldr	r2, .L158+4
 3904 00ec 9342     		cmp	r3, r2
 3905 00ee 45D0     		beq	.L147
 3906              		.loc 1 920 7 discriminator 4
 3907 00f0 7B68     		ldr	r3, [r7, #4]
 3908 00f2 1B68     		ldr	r3, [r3]
 3909 00f4 2C4A     		ldr	r2, .L158+8
 3910 00f6 9342     		cmp	r3, r2
 3911 00f8 40D0     		beq	.L147
 3912              		.loc 1 920 7 discriminator 6
 3913 00fa 7B68     		ldr	r3, [r7, #4]
 3914 00fc 1B68     		ldr	r3, [r3]
 3915 00fe 2B4A     		ldr	r2, .L158+12
 3916 0100 9342     		cmp	r3, r2
 3917 0102 3BD0     		beq	.L147
 3918              		.loc 1 920 7 discriminator 8
ARM GAS  /var/folders/g1/j12m_ky910s3_sv7d4yrsdn00000gn/T//ccliMUVd.s 			page 86


 3919 0104 7B68     		ldr	r3, [r7, #4]
 3920 0106 1B68     		ldr	r3, [r3]
 3921 0108 294A     		ldr	r2, .L158+16
 3922 010a 9342     		cmp	r3, r2
 3923 010c 36D0     		beq	.L147
 3924              		.loc 1 920 7 discriminator 10
 3925 010e 7B68     		ldr	r3, [r7, #4]
 3926 0110 1B68     		ldr	r3, [r3]
 3927 0112 284A     		ldr	r2, .L158+20
 3928 0114 9342     		cmp	r3, r2
 3929 0116 31D0     		beq	.L147
 3930              		.loc 1 920 7 discriminator 12
 3931 0118 7B68     		ldr	r3, [r7, #4]
 3932 011a 1B68     		ldr	r3, [r3]
 3933 011c 264A     		ldr	r2, .L158+24
 3934 011e 9342     		cmp	r3, r2
 3935 0120 2CD0     		beq	.L147
 3936              		.loc 1 920 7 discriminator 14
 3937 0122 7B68     		ldr	r3, [r7, #4]
 3938 0124 1B68     		ldr	r3, [r3]
 3939 0126 254A     		ldr	r2, .L158+28
 3940 0128 9342     		cmp	r3, r2
 3941 012a 27D0     		beq	.L147
 3942              		.loc 1 920 7 discriminator 16
 3943 012c 7B68     		ldr	r3, [r7, #4]
 3944 012e 1B68     		ldr	r3, [r3]
 3945 0130 234A     		ldr	r2, .L158+32
 3946 0132 9342     		cmp	r3, r2
 3947 0134 22D0     		beq	.L147
 3948              		.loc 1 920 7 discriminator 18
 3949 0136 7B68     		ldr	r3, [r7, #4]
 3950 0138 1B68     		ldr	r3, [r3]
 3951 013a 224A     		ldr	r2, .L158+36
 3952 013c 9342     		cmp	r3, r2
 3953 013e 1DD0     		beq	.L147
 3954              		.loc 1 920 7 discriminator 20
 3955 0140 7B68     		ldr	r3, [r7, #4]
 3956 0142 1B68     		ldr	r3, [r3]
 3957 0144 204A     		ldr	r2, .L158+40
 3958 0146 9342     		cmp	r3, r2
 3959 0148 18D0     		beq	.L147
 3960              		.loc 1 920 7 discriminator 22
 3961 014a 7B68     		ldr	r3, [r7, #4]
 3962 014c 1B68     		ldr	r3, [r3]
 3963 014e 1F4A     		ldr	r2, .L158+44
 3964 0150 9342     		cmp	r3, r2
 3965 0152 13D0     		beq	.L147
 3966              		.loc 1 920 7 discriminator 24
 3967 0154 7B68     		ldr	r3, [r7, #4]
 3968 0156 1B68     		ldr	r3, [r3]
 3969 0158 1D4A     		ldr	r2, .L158+48
 3970 015a 9342     		cmp	r3, r2
 3971 015c 0ED0     		beq	.L147
 3972              		.loc 1 920 7 discriminator 26
 3973 015e 7B68     		ldr	r3, [r7, #4]
 3974 0160 1B68     		ldr	r3, [r3]
 3975 0162 1C4A     		ldr	r2, .L158+52
ARM GAS  /var/folders/g1/j12m_ky910s3_sv7d4yrsdn00000gn/T//ccliMUVd.s 			page 87


 3976 0164 9342     		cmp	r3, r2
 3977 0166 09D0     		beq	.L147
 3978              		.loc 1 920 7 discriminator 28
 3979 0168 7B68     		ldr	r3, [r7, #4]
 3980 016a 1B68     		ldr	r3, [r3]
 3981 016c 1A4A     		ldr	r2, .L158+56
 3982 016e 9342     		cmp	r3, r2
 3983 0170 04D0     		beq	.L147
 3984              		.loc 1 920 7 discriminator 30
 3985 0172 7B68     		ldr	r3, [r7, #4]
 3986 0174 1B68     		ldr	r3, [r3]
 3987 0176 194A     		ldr	r2, .L158+60
 3988 0178 9342     		cmp	r3, r2
 3989 017a 08D1     		bne	.L148
 3990              	.L147:
 3991              		.loc 1 920 7 discriminator 31
 3992 017c 7B68     		ldr	r3, [r7, #4]
 3993 017e 1B68     		ldr	r3, [r3]
 3994 0180 1A68     		ldr	r2, [r3]
 3995 0182 7B68     		ldr	r3, [r7, #4]
 3996 0184 1B68     		ldr	r3, [r3]
 3997 0186 22F00102 		bic	r2, r2, #1
 3998 018a 1A60     		str	r2, [r3]
 3999              		.loc 1 920 7
 4000 018c 78E1     		b	.L150
 4001              	.L148:
 4002              		.loc 1 920 7 discriminator 32
 4003 018e 7B68     		ldr	r3, [r7, #4]
 4004 0190 1B68     		ldr	r3, [r3]
 4005 0192 1A68     		ldr	r2, [r3]
 4006 0194 7B68     		ldr	r3, [r7, #4]
 4007 0196 1B68     		ldr	r3, [r3]
 4008 0198 22F00102 		bic	r2, r2, #1
 4009 019c 1A60     		str	r2, [r3]
 4010 019e 6FE1     		b	.L150
 4011              	.L159:
 4012              		.align	2
 4013              	.L158:
 4014 01a0 10000240 		.word	1073872912
 4015 01a4 28000240 		.word	1073872936
 4016 01a8 40000240 		.word	1073872960
 4017 01ac 58000240 		.word	1073872984
 4018 01b0 70000240 		.word	1073873008
 4019 01b4 88000240 		.word	1073873032
 4020 01b8 A0000240 		.word	1073873056
 4021 01bc B8000240 		.word	1073873080
 4022 01c0 10040240 		.word	1073873936
 4023 01c4 28040240 		.word	1073873960
 4024 01c8 40040240 		.word	1073873984
 4025 01cc 58040240 		.word	1073874008
 4026 01d0 70040240 		.word	1073874032
 4027 01d4 88040240 		.word	1073874056
 4028 01d8 A0040240 		.word	1073874080
 4029 01dc B8040240 		.word	1073874104
 4030              	.L146:
 921:Drivers/STM32H7xx_HAL_Driver/Src/stm32h7xx_hal_dma.c ****     }
 922:Drivers/STM32H7xx_HAL_Driver/Src/stm32h7xx_hal_dma.c ****     else /* BDMA channel */
ARM GAS  /var/folders/g1/j12m_ky910s3_sv7d4yrsdn00000gn/T//ccliMUVd.s 			page 88


 923:Drivers/STM32H7xx_HAL_Driver/Src/stm32h7xx_hal_dma.c ****     {
 924:Drivers/STM32H7xx_HAL_Driver/Src/stm32h7xx_hal_dma.c ****       /* Disable DMA All Interrupts  */
 925:Drivers/STM32H7xx_HAL_Driver/Src/stm32h7xx_hal_dma.c ****       ((BDMA_Channel_TypeDef   *)hdma->Instance)->CCR  &= ~(BDMA_CCR_TCIE | BDMA_CCR_HTIE | BDMA_CC
