ARM GAS  /var/folders/g1/j12m_ky910s3_sv7d4yrsdn00000gn/T//ccliMUVd.s 			page 1


   1              		.cpu cortex-m7
   2              		.arch armv7e-m
   3              		.fpu fpv5-d16
   4              		.eabi_attribute 28, 1
   5              		.eabi_attribute 20, 1
   6              		.eabi_attribute 21, 1
   7              		.eabi_attribute 23, 3
   8              		.eabi_attribute 24, 1
   9              		.eabi_attribute 25, 1
  10              		.eabi_attribute 26, 1
  11              		.eabi_attribute 30, 6
  12              		.eabi_attribute 34, 1
  13              		.eabi_attribute 18, 4
  14              		.file	"stm32h7xx_hal_dma.c"
  15              		.text
  16              	.Ltext0:
  17              		.cfi_sections	.debug_frame
  18              		.file 1 "Drivers/STM32H7xx_HAL_Driver/Src/stm32h7xx_hal_dma.c"
  19              		.section	.text.HAL_DMA_Init,"ax",%progbits
  20              		.align	1
  21              		.global	HAL_DMA_Init
  22              		.syntax unified
  23              		.thumb
  24              		.thumb_func
  26              	HAL_DMA_Init:
  27              	.LFB144:
   1:Drivers/STM32H7xx_HAL_Driver/Src/stm32h7xx_hal_dma.c **** /**
   2:Drivers/STM32H7xx_HAL_Driver/Src/stm32h7xx_hal_dma.c ****   ******************************************************************************
   3:Drivers/STM32H7xx_HAL_Driver/Src/stm32h7xx_hal_dma.c ****   * @file    stm32h7xx_hal_dma.c
   4:Drivers/STM32H7xx_HAL_Driver/Src/stm32h7xx_hal_dma.c ****   * @author  MCD Application Team
   5:Drivers/STM32H7xx_HAL_Driver/Src/stm32h7xx_hal_dma.c ****   * @brief   DMA HAL module driver.
   6:Drivers/STM32H7xx_HAL_Driver/Src/stm32h7xx_hal_dma.c ****   *          This file provides firmware functions to manage the following
   7:Drivers/STM32H7xx_HAL_Driver/Src/stm32h7xx_hal_dma.c ****   *          functionalities of the Direct Memory Access (DMA) peripheral:
   8:Drivers/STM32H7xx_HAL_Driver/Src/stm32h7xx_hal_dma.c ****   *           + Initialization and de-initialization functions
   9:Drivers/STM32H7xx_HAL_Driver/Src/stm32h7xx_hal_dma.c ****   *           + IO operation functions
  10:Drivers/STM32H7xx_HAL_Driver/Src/stm32h7xx_hal_dma.c ****   *           + Peripheral State and errors functions
  11:Drivers/STM32H7xx_HAL_Driver/Src/stm32h7xx_hal_dma.c ****   ******************************************************************************
  12:Drivers/STM32H7xx_HAL_Driver/Src/stm32h7xx_hal_dma.c ****   * @attention
  13:Drivers/STM32H7xx_HAL_Driver/Src/stm32h7xx_hal_dma.c ****   *
  14:Drivers/STM32H7xx_HAL_Driver/Src/stm32h7xx_hal_dma.c ****   * Copyright (c) 2017 STMicroelectronics.
  15:Drivers/STM32H7xx_HAL_Driver/Src/stm32h7xx_hal_dma.c ****   * All rights reserved.
  16:Drivers/STM32H7xx_HAL_Driver/Src/stm32h7xx_hal_dma.c ****   *
  17:Drivers/STM32H7xx_HAL_Driver/Src/stm32h7xx_hal_dma.c ****   * This software is licensed under terms that can be found in the LICENSE file
  18:Drivers/STM32H7xx_HAL_Driver/Src/stm32h7xx_hal_dma.c ****   * in the root directory of this software component.
  19:Drivers/STM32H7xx_HAL_Driver/Src/stm32h7xx_hal_dma.c ****   * If no LICENSE file comes with this software, it is provided AS-IS.
  20:Drivers/STM32H7xx_HAL_Driver/Src/stm32h7xx_hal_dma.c ****   *
  21:Drivers/STM32H7xx_HAL_Driver/Src/stm32h7xx_hal_dma.c ****   ******************************************************************************
  22:Drivers/STM32H7xx_HAL_Driver/Src/stm32h7xx_hal_dma.c ****   @verbatim
  23:Drivers/STM32H7xx_HAL_Driver/Src/stm32h7xx_hal_dma.c ****   ==============================================================================
  24:Drivers/STM32H7xx_HAL_Driver/Src/stm32h7xx_hal_dma.c ****                         ##### How to use this driver #####
  25:Drivers/STM32H7xx_HAL_Driver/Src/stm32h7xx_hal_dma.c ****   ==============================================================================
  26:Drivers/STM32H7xx_HAL_Driver/Src/stm32h7xx_hal_dma.c ****   [..]
  27:Drivers/STM32H7xx_HAL_Driver/Src/stm32h7xx_hal_dma.c ****    (#) Enable and configure the peripheral to be connected to the DMA Stream
  28:Drivers/STM32H7xx_HAL_Driver/Src/stm32h7xx_hal_dma.c ****        (except for internal SRAM/FLASH memories: no initialization is
  29:Drivers/STM32H7xx_HAL_Driver/Src/stm32h7xx_hal_dma.c ****        necessary) please refer to Reference manual for connection between peripherals
  30:Drivers/STM32H7xx_HAL_Driver/Src/stm32h7xx_hal_dma.c ****        and DMA requests .
  31:Drivers/STM32H7xx_HAL_Driver/Src/stm32h7xx_hal_dma.c **** 
ARM GAS  /var/folders/g1/j12m_ky910s3_sv7d4yrsdn00000gn/T//ccliMUVd.s 			page 2


  32:Drivers/STM32H7xx_HAL_Driver/Src/stm32h7xx_hal_dma.c ****    (#) For a given Stream, program the required configuration through the following parameters:
  33:Drivers/STM32H7xx_HAL_Driver/Src/stm32h7xx_hal_dma.c ****        Transfer Direction, Source and Destination data formats,
  34:Drivers/STM32H7xx_HAL_Driver/Src/stm32h7xx_hal_dma.c ****        Circular, Normal or peripheral flow control mode, Stream Priority level,
  35:Drivers/STM32H7xx_HAL_Driver/Src/stm32h7xx_hal_dma.c ****        Source and Destination Increment mode, FIFO mode and its Threshold (if needed),
  36:Drivers/STM32H7xx_HAL_Driver/Src/stm32h7xx_hal_dma.c ****        Burst mode for Source and/or Destination (if needed) using HAL_DMA_Init() function.
  37:Drivers/STM32H7xx_HAL_Driver/Src/stm32h7xx_hal_dma.c **** 
  38:Drivers/STM32H7xx_HAL_Driver/Src/stm32h7xx_hal_dma.c ****      *** Polling mode IO operation ***
  39:Drivers/STM32H7xx_HAL_Driver/Src/stm32h7xx_hal_dma.c ****      =================================
  40:Drivers/STM32H7xx_HAL_Driver/Src/stm32h7xx_hal_dma.c ****     [..]
  41:Drivers/STM32H7xx_HAL_Driver/Src/stm32h7xx_hal_dma.c ****           (+) Use HAL_DMA_Start() to start DMA transfer after the configuration of Source
  42:Drivers/STM32H7xx_HAL_Driver/Src/stm32h7xx_hal_dma.c ****               address and destination address and the Length of data to be transferred
  43:Drivers/STM32H7xx_HAL_Driver/Src/stm32h7xx_hal_dma.c ****           (+) Use HAL_DMA_PollForTransfer() to poll for the end of current transfer, in this
  44:Drivers/STM32H7xx_HAL_Driver/Src/stm32h7xx_hal_dma.c ****               case a fixed Timeout can be configured by User depending from his application.
  45:Drivers/STM32H7xx_HAL_Driver/Src/stm32h7xx_hal_dma.c **** 
  46:Drivers/STM32H7xx_HAL_Driver/Src/stm32h7xx_hal_dma.c ****      *** Interrupt mode IO operation ***
  47:Drivers/STM32H7xx_HAL_Driver/Src/stm32h7xx_hal_dma.c ****      ===================================
  48:Drivers/STM32H7xx_HAL_Driver/Src/stm32h7xx_hal_dma.c ****     [..]
  49:Drivers/STM32H7xx_HAL_Driver/Src/stm32h7xx_hal_dma.c ****           (+) Configure the DMA interrupt priority using HAL_NVIC_SetPriority()
  50:Drivers/STM32H7xx_HAL_Driver/Src/stm32h7xx_hal_dma.c ****           (+) Enable the DMA IRQ handler using HAL_NVIC_EnableIRQ()
  51:Drivers/STM32H7xx_HAL_Driver/Src/stm32h7xx_hal_dma.c ****           (+) Use HAL_DMA_Start_IT() to start DMA transfer after the configuration of
  52:Drivers/STM32H7xx_HAL_Driver/Src/stm32h7xx_hal_dma.c ****               Source address and destination address and the Length of data to be transferred. In t
  53:Drivers/STM32H7xx_HAL_Driver/Src/stm32h7xx_hal_dma.c ****               case the DMA interrupt is configured
  54:Drivers/STM32H7xx_HAL_Driver/Src/stm32h7xx_hal_dma.c ****           (+) Use HAL_DMA_IRQHandler() called under DMA_IRQHandler() Interrupt subroutine
  55:Drivers/STM32H7xx_HAL_Driver/Src/stm32h7xx_hal_dma.c ****           (+) At the end of data transfer HAL_DMA_IRQHandler() function is executed and user can
  56:Drivers/STM32H7xx_HAL_Driver/Src/stm32h7xx_hal_dma.c ****               add his own function by customization of function pointer XferCpltCallback and
  57:Drivers/STM32H7xx_HAL_Driver/Src/stm32h7xx_hal_dma.c ****               XferErrorCallback (i.e a member of DMA handle structure).
  58:Drivers/STM32H7xx_HAL_Driver/Src/stm32h7xx_hal_dma.c ****     [..]
  59:Drivers/STM32H7xx_HAL_Driver/Src/stm32h7xx_hal_dma.c ****      (#) Use HAL_DMA_GetState() function to return the DMA state and HAL_DMA_GetError() in case of 
  60:Drivers/STM32H7xx_HAL_Driver/Src/stm32h7xx_hal_dma.c ****          detection.
  61:Drivers/STM32H7xx_HAL_Driver/Src/stm32h7xx_hal_dma.c **** 
  62:Drivers/STM32H7xx_HAL_Driver/Src/stm32h7xx_hal_dma.c ****      (#) Use HAL_DMA_Abort() function to abort the current transfer
  63:Drivers/STM32H7xx_HAL_Driver/Src/stm32h7xx_hal_dma.c **** 
  64:Drivers/STM32H7xx_HAL_Driver/Src/stm32h7xx_hal_dma.c ****      -@-   In Memory-to-Memory transfer mode, Circular mode is not allowed.
  65:Drivers/STM32H7xx_HAL_Driver/Src/stm32h7xx_hal_dma.c **** 
  66:Drivers/STM32H7xx_HAL_Driver/Src/stm32h7xx_hal_dma.c ****      -@-   The FIFO is used mainly to reduce bus usage and to allow data packing/unpacking: it is
  67:Drivers/STM32H7xx_HAL_Driver/Src/stm32h7xx_hal_dma.c ****            possible to set different Data Sizes for the Peripheral and the Memory (ie. you can set
  68:Drivers/STM32H7xx_HAL_Driver/Src/stm32h7xx_hal_dma.c ****            Half-Word data size for the peripheral to access its data register and set Word data siz
  69:Drivers/STM32H7xx_HAL_Driver/Src/stm32h7xx_hal_dma.c ****            for the Memory to gain in access time. Each two half words will be packed and written in
  70:Drivers/STM32H7xx_HAL_Driver/Src/stm32h7xx_hal_dma.c ****            a single access to a Word in the Memory).
  71:Drivers/STM32H7xx_HAL_Driver/Src/stm32h7xx_hal_dma.c **** 
  72:Drivers/STM32H7xx_HAL_Driver/Src/stm32h7xx_hal_dma.c ****      -@-   When FIFO is disabled, it is not allowed to configure different Data Sizes for Source
  73:Drivers/STM32H7xx_HAL_Driver/Src/stm32h7xx_hal_dma.c ****            and Destination. In this case the Peripheral Data Size will be applied to both Source
  74:Drivers/STM32H7xx_HAL_Driver/Src/stm32h7xx_hal_dma.c ****            and Destination.
  75:Drivers/STM32H7xx_HAL_Driver/Src/stm32h7xx_hal_dma.c **** 
  76:Drivers/STM32H7xx_HAL_Driver/Src/stm32h7xx_hal_dma.c ****      *** DMA HAL driver macros list ***
  77:Drivers/STM32H7xx_HAL_Driver/Src/stm32h7xx_hal_dma.c ****      =============================================
  78:Drivers/STM32H7xx_HAL_Driver/Src/stm32h7xx_hal_dma.c ****      [..]
  79:Drivers/STM32H7xx_HAL_Driver/Src/stm32h7xx_hal_dma.c ****        Below the list of most used macros in DMA HAL driver.
  80:Drivers/STM32H7xx_HAL_Driver/Src/stm32h7xx_hal_dma.c **** 
  81:Drivers/STM32H7xx_HAL_Driver/Src/stm32h7xx_hal_dma.c ****       (+) __HAL_DMA_ENABLE: Enable the specified DMA Stream.
  82:Drivers/STM32H7xx_HAL_Driver/Src/stm32h7xx_hal_dma.c ****       (+) __HAL_DMA_DISABLE: Disable the specified DMA Stream.
  83:Drivers/STM32H7xx_HAL_Driver/Src/stm32h7xx_hal_dma.c ****       (+) __HAL_DMA_GET_FS: Return the current DMA Stream FIFO filled level.
  84:Drivers/STM32H7xx_HAL_Driver/Src/stm32h7xx_hal_dma.c ****       (+) __HAL_DMA_ENABLE_IT: Enable the specified DMA Stream interrupts.
  85:Drivers/STM32H7xx_HAL_Driver/Src/stm32h7xx_hal_dma.c ****       (+) __HAL_DMA_DISABLE_IT: Disable the specified DMA Stream interrupts.
  86:Drivers/STM32H7xx_HAL_Driver/Src/stm32h7xx_hal_dma.c ****       (+) __HAL_DMA_GET_IT_SOURCE: Check whether the specified DMA Stream interrupt has occurred or
  87:Drivers/STM32H7xx_HAL_Driver/Src/stm32h7xx_hal_dma.c **** 
  88:Drivers/STM32H7xx_HAL_Driver/Src/stm32h7xx_hal_dma.c ****      [..]
ARM GAS  /var/folders/g1/j12m_ky910s3_sv7d4yrsdn00000gn/T//ccliMUVd.s 			page 3


  89:Drivers/STM32H7xx_HAL_Driver/Src/stm32h7xx_hal_dma.c ****       (@) You can refer to the DMA HAL driver header file for more useful macros.
  90:Drivers/STM32H7xx_HAL_Driver/Src/stm32h7xx_hal_dma.c **** 
  91:Drivers/STM32H7xx_HAL_Driver/Src/stm32h7xx_hal_dma.c ****   @endverbatim
  92:Drivers/STM32H7xx_HAL_Driver/Src/stm32h7xx_hal_dma.c ****   */
  93:Drivers/STM32H7xx_HAL_Driver/Src/stm32h7xx_hal_dma.c **** 
  94:Drivers/STM32H7xx_HAL_Driver/Src/stm32h7xx_hal_dma.c **** /* Includes ------------------------------------------------------------------*/
  95:Drivers/STM32H7xx_HAL_Driver/Src/stm32h7xx_hal_dma.c **** #include "stm32h7xx_hal.h"
  96:Drivers/STM32H7xx_HAL_Driver/Src/stm32h7xx_hal_dma.c **** 
  97:Drivers/STM32H7xx_HAL_Driver/Src/stm32h7xx_hal_dma.c **** /** @addtogroup STM32H7xx_HAL_Driver
  98:Drivers/STM32H7xx_HAL_Driver/Src/stm32h7xx_hal_dma.c ****   * @{
  99:Drivers/STM32H7xx_HAL_Driver/Src/stm32h7xx_hal_dma.c ****   */
 100:Drivers/STM32H7xx_HAL_Driver/Src/stm32h7xx_hal_dma.c **** 
 101:Drivers/STM32H7xx_HAL_Driver/Src/stm32h7xx_hal_dma.c **** /** @defgroup DMA DMA
 102:Drivers/STM32H7xx_HAL_Driver/Src/stm32h7xx_hal_dma.c ****   * @brief DMA HAL module driver
 103:Drivers/STM32H7xx_HAL_Driver/Src/stm32h7xx_hal_dma.c ****   * @{
 104:Drivers/STM32H7xx_HAL_Driver/Src/stm32h7xx_hal_dma.c ****   */
 105:Drivers/STM32H7xx_HAL_Driver/Src/stm32h7xx_hal_dma.c **** 
 106:Drivers/STM32H7xx_HAL_Driver/Src/stm32h7xx_hal_dma.c **** #ifdef HAL_DMA_MODULE_ENABLED
 107:Drivers/STM32H7xx_HAL_Driver/Src/stm32h7xx_hal_dma.c **** 
 108:Drivers/STM32H7xx_HAL_Driver/Src/stm32h7xx_hal_dma.c **** /* Private types -------------------------------------------------------------*/
 109:Drivers/STM32H7xx_HAL_Driver/Src/stm32h7xx_hal_dma.c **** /** @addtogroup DMA_Private_Types
 110:Drivers/STM32H7xx_HAL_Driver/Src/stm32h7xx_hal_dma.c ****   * @{
 111:Drivers/STM32H7xx_HAL_Driver/Src/stm32h7xx_hal_dma.c ****   */
 112:Drivers/STM32H7xx_HAL_Driver/Src/stm32h7xx_hal_dma.c **** typedef struct
 113:Drivers/STM32H7xx_HAL_Driver/Src/stm32h7xx_hal_dma.c **** {
 114:Drivers/STM32H7xx_HAL_Driver/Src/stm32h7xx_hal_dma.c ****   __IO uint32_t ISR;   /*!< DMA interrupt status register */
 115:Drivers/STM32H7xx_HAL_Driver/Src/stm32h7xx_hal_dma.c ****   __IO uint32_t Reserved0;
 116:Drivers/STM32H7xx_HAL_Driver/Src/stm32h7xx_hal_dma.c ****   __IO uint32_t IFCR;  /*!< DMA interrupt flag clear register */
 117:Drivers/STM32H7xx_HAL_Driver/Src/stm32h7xx_hal_dma.c **** } DMA_Base_Registers;
 118:Drivers/STM32H7xx_HAL_Driver/Src/stm32h7xx_hal_dma.c **** 
 119:Drivers/STM32H7xx_HAL_Driver/Src/stm32h7xx_hal_dma.c **** typedef struct
 120:Drivers/STM32H7xx_HAL_Driver/Src/stm32h7xx_hal_dma.c **** {
 121:Drivers/STM32H7xx_HAL_Driver/Src/stm32h7xx_hal_dma.c ****   __IO uint32_t ISR;   /*!< BDMA interrupt status register */
 122:Drivers/STM32H7xx_HAL_Driver/Src/stm32h7xx_hal_dma.c ****   __IO uint32_t IFCR;  /*!< BDMA interrupt flag clear register */
 123:Drivers/STM32H7xx_HAL_Driver/Src/stm32h7xx_hal_dma.c **** } BDMA_Base_Registers;
 124:Drivers/STM32H7xx_HAL_Driver/Src/stm32h7xx_hal_dma.c **** /**
 125:Drivers/STM32H7xx_HAL_Driver/Src/stm32h7xx_hal_dma.c ****   * @}
 126:Drivers/STM32H7xx_HAL_Driver/Src/stm32h7xx_hal_dma.c ****   */
 127:Drivers/STM32H7xx_HAL_Driver/Src/stm32h7xx_hal_dma.c **** 
 128:Drivers/STM32H7xx_HAL_Driver/Src/stm32h7xx_hal_dma.c **** /* Private variables ---------------------------------------------------------*/
 129:Drivers/STM32H7xx_HAL_Driver/Src/stm32h7xx_hal_dma.c **** /* Private constants ---------------------------------------------------------*/
 130:Drivers/STM32H7xx_HAL_Driver/Src/stm32h7xx_hal_dma.c **** /** @addtogroup DMA_Private_Constants
 131:Drivers/STM32H7xx_HAL_Driver/Src/stm32h7xx_hal_dma.c ****  * @{
 132:Drivers/STM32H7xx_HAL_Driver/Src/stm32h7xx_hal_dma.c ****  */
 133:Drivers/STM32H7xx_HAL_Driver/Src/stm32h7xx_hal_dma.c **** #define HAL_TIMEOUT_DMA_ABORT         (5U)  /* 5 ms */
 134:Drivers/STM32H7xx_HAL_Driver/Src/stm32h7xx_hal_dma.c **** 
 135:Drivers/STM32H7xx_HAL_Driver/Src/stm32h7xx_hal_dma.c **** #define BDMA_PERIPH_TO_MEMORY         (0x00000000U)                /*!< Peripheral to memory direct
 136:Drivers/STM32H7xx_HAL_Driver/Src/stm32h7xx_hal_dma.c **** #define BDMA_MEMORY_TO_PERIPH         ((uint32_t)BDMA_CCR_DIR)     /*!< Memory to peripheral direct
 137:Drivers/STM32H7xx_HAL_Driver/Src/stm32h7xx_hal_dma.c **** #define BDMA_MEMORY_TO_MEMORY         ((uint32_t)BDMA_CCR_MEM2MEM) /*!< Memory to memory direction 
 138:Drivers/STM32H7xx_HAL_Driver/Src/stm32h7xx_hal_dma.c **** 
 139:Drivers/STM32H7xx_HAL_Driver/Src/stm32h7xx_hal_dma.c **** /* DMA to BDMA conversion */
 140:Drivers/STM32H7xx_HAL_Driver/Src/stm32h7xx_hal_dma.c **** #define DMA_TO_BDMA_DIRECTION(__DMA_DIRECTION__) (((__DMA_DIRECTION__) == DMA_MEMORY_TO_PERIPH)? BD
 141:Drivers/STM32H7xx_HAL_Driver/Src/stm32h7xx_hal_dma.c ****                                                   ((__DMA_DIRECTION__) == DMA_MEMORY_TO_MEMORY)? BD
 142:Drivers/STM32H7xx_HAL_Driver/Src/stm32h7xx_hal_dma.c ****                                                   BDMA_PERIPH_TO_MEMORY)
 143:Drivers/STM32H7xx_HAL_Driver/Src/stm32h7xx_hal_dma.c **** 
 144:Drivers/STM32H7xx_HAL_Driver/Src/stm32h7xx_hal_dma.c **** #define DMA_TO_BDMA_PERIPHERAL_INC(__DMA_PERIPHERAL_INC__) ((__DMA_PERIPHERAL_INC__) >> 3U)
 145:Drivers/STM32H7xx_HAL_Driver/Src/stm32h7xx_hal_dma.c **** #define DMA_TO_BDMA_MEMORY_INC(__DMA_MEMORY_INC__) ((__DMA_MEMORY_INC__) >> 3U)
ARM GAS  /var/folders/g1/j12m_ky910s3_sv7d4yrsdn00000gn/T//ccliMUVd.s 			page 4


 146:Drivers/STM32H7xx_HAL_Driver/Src/stm32h7xx_hal_dma.c **** 
 147:Drivers/STM32H7xx_HAL_Driver/Src/stm32h7xx_hal_dma.c **** #define DMA_TO_BDMA_PDATA_SIZE(__DMA_PDATA_SIZE__) ((__DMA_PDATA_SIZE__) >> 3U)
 148:Drivers/STM32H7xx_HAL_Driver/Src/stm32h7xx_hal_dma.c **** #define DMA_TO_BDMA_MDATA_SIZE(__DMA_MDATA_SIZE__) ((__DMA_MDATA_SIZE__) >> 3U)
 149:Drivers/STM32H7xx_HAL_Driver/Src/stm32h7xx_hal_dma.c **** 
 150:Drivers/STM32H7xx_HAL_Driver/Src/stm32h7xx_hal_dma.c **** #define DMA_TO_BDMA_MODE(__DMA_MODE__) ((__DMA_MODE__) >> 3U)
 151:Drivers/STM32H7xx_HAL_Driver/Src/stm32h7xx_hal_dma.c **** 
 152:Drivers/STM32H7xx_HAL_Driver/Src/stm32h7xx_hal_dma.c **** #define DMA_TO_BDMA_PRIORITY(__DMA_PRIORITY__) ((__DMA_PRIORITY__) >> 4U)
 153:Drivers/STM32H7xx_HAL_Driver/Src/stm32h7xx_hal_dma.c **** 
 154:Drivers/STM32H7xx_HAL_Driver/Src/stm32h7xx_hal_dma.c **** #if defined(UART9)
 155:Drivers/STM32H7xx_HAL_Driver/Src/stm32h7xx_hal_dma.c **** #define IS_DMA_UART_USART_REQUEST(__REQUEST__) ((((__REQUEST__) >= DMA_REQUEST_USART1_RX)  &&  ((__
 156:Drivers/STM32H7xx_HAL_Driver/Src/stm32h7xx_hal_dma.c ****                                                  (((__REQUEST__) >= DMA_REQUEST_UART4_RX)  &&  ((__
 157:Drivers/STM32H7xx_HAL_Driver/Src/stm32h7xx_hal_dma.c ****                                                  (((__REQUEST__) >= DMA_REQUEST_USART6_RX) &&  ((__
 158:Drivers/STM32H7xx_HAL_Driver/Src/stm32h7xx_hal_dma.c ****                                                  (((__REQUEST__) >= DMA_REQUEST_UART7_RX)  &&  ((__
 159:Drivers/STM32H7xx_HAL_Driver/Src/stm32h7xx_hal_dma.c ****                                                  (((__REQUEST__) >= DMA_REQUEST_UART9_RX)  &&  ((__
 160:Drivers/STM32H7xx_HAL_Driver/Src/stm32h7xx_hal_dma.c **** #else
 161:Drivers/STM32H7xx_HAL_Driver/Src/stm32h7xx_hal_dma.c **** #define IS_DMA_UART_USART_REQUEST(__REQUEST__) ((((__REQUEST__) >= DMA_REQUEST_USART1_RX)  &&  ((__
 162:Drivers/STM32H7xx_HAL_Driver/Src/stm32h7xx_hal_dma.c ****                                                  (((__REQUEST__) >= DMA_REQUEST_UART4_RX)  &&  ((__
 163:Drivers/STM32H7xx_HAL_Driver/Src/stm32h7xx_hal_dma.c ****                                                  (((__REQUEST__) >= DMA_REQUEST_USART6_RX) &&  ((__
 164:Drivers/STM32H7xx_HAL_Driver/Src/stm32h7xx_hal_dma.c ****                                                  (((__REQUEST__) >= DMA_REQUEST_UART7_RX)  &&  ((__
 165:Drivers/STM32H7xx_HAL_Driver/Src/stm32h7xx_hal_dma.c **** 
 166:Drivers/STM32H7xx_HAL_Driver/Src/stm32h7xx_hal_dma.c **** #endif
 167:Drivers/STM32H7xx_HAL_Driver/Src/stm32h7xx_hal_dma.c **** /**
 168:Drivers/STM32H7xx_HAL_Driver/Src/stm32h7xx_hal_dma.c ****   * @}
 169:Drivers/STM32H7xx_HAL_Driver/Src/stm32h7xx_hal_dma.c ****   */
 170:Drivers/STM32H7xx_HAL_Driver/Src/stm32h7xx_hal_dma.c **** /* Private macros ------------------------------------------------------------*/
 171:Drivers/STM32H7xx_HAL_Driver/Src/stm32h7xx_hal_dma.c **** /* Private functions ---------------------------------------------------------*/
 172:Drivers/STM32H7xx_HAL_Driver/Src/stm32h7xx_hal_dma.c **** /** @addtogroup DMA_Private_Functions
 173:Drivers/STM32H7xx_HAL_Driver/Src/stm32h7xx_hal_dma.c ****   * @{
 174:Drivers/STM32H7xx_HAL_Driver/Src/stm32h7xx_hal_dma.c ****   */
 175:Drivers/STM32H7xx_HAL_Driver/Src/stm32h7xx_hal_dma.c **** static void DMA_SetConfig(DMA_HandleTypeDef *hdma, uint32_t SrcAddress, uint32_t DstAddress, uint32
 176:Drivers/STM32H7xx_HAL_Driver/Src/stm32h7xx_hal_dma.c **** static uint32_t DMA_CalcBaseAndBitshift(DMA_HandleTypeDef *hdma);
 177:Drivers/STM32H7xx_HAL_Driver/Src/stm32h7xx_hal_dma.c **** static HAL_StatusTypeDef DMA_CheckFifoParam(const DMA_HandleTypeDef *hdma);
 178:Drivers/STM32H7xx_HAL_Driver/Src/stm32h7xx_hal_dma.c **** static void DMA_CalcDMAMUXChannelBaseAndMask(DMA_HandleTypeDef *hdma);
 179:Drivers/STM32H7xx_HAL_Driver/Src/stm32h7xx_hal_dma.c **** static void DMA_CalcDMAMUXRequestGenBaseAndMask(DMA_HandleTypeDef *hdma);
 180:Drivers/STM32H7xx_HAL_Driver/Src/stm32h7xx_hal_dma.c **** 
 181:Drivers/STM32H7xx_HAL_Driver/Src/stm32h7xx_hal_dma.c **** /**
 182:Drivers/STM32H7xx_HAL_Driver/Src/stm32h7xx_hal_dma.c ****   * @}
 183:Drivers/STM32H7xx_HAL_Driver/Src/stm32h7xx_hal_dma.c ****   */
 184:Drivers/STM32H7xx_HAL_Driver/Src/stm32h7xx_hal_dma.c **** 
 185:Drivers/STM32H7xx_HAL_Driver/Src/stm32h7xx_hal_dma.c **** /* Exported functions ---------------------------------------------------------*/
 186:Drivers/STM32H7xx_HAL_Driver/Src/stm32h7xx_hal_dma.c **** /** @addtogroup DMA_Exported_Functions
 187:Drivers/STM32H7xx_HAL_Driver/Src/stm32h7xx_hal_dma.c ****   * @{
 188:Drivers/STM32H7xx_HAL_Driver/Src/stm32h7xx_hal_dma.c ****   */
 189:Drivers/STM32H7xx_HAL_Driver/Src/stm32h7xx_hal_dma.c **** 
 190:Drivers/STM32H7xx_HAL_Driver/Src/stm32h7xx_hal_dma.c **** /** @addtogroup DMA_Exported_Functions_Group1
 191:Drivers/STM32H7xx_HAL_Driver/Src/stm32h7xx_hal_dma.c ****   *
 192:Drivers/STM32H7xx_HAL_Driver/Src/stm32h7xx_hal_dma.c **** @verbatim
 193:Drivers/STM32H7xx_HAL_Driver/Src/stm32h7xx_hal_dma.c ****  ===============================================================================
 194:Drivers/STM32H7xx_HAL_Driver/Src/stm32h7xx_hal_dma.c ****              ##### Initialization and de-initialization functions  #####
 195:Drivers/STM32H7xx_HAL_Driver/Src/stm32h7xx_hal_dma.c ****  ===============================================================================
 196:Drivers/STM32H7xx_HAL_Driver/Src/stm32h7xx_hal_dma.c ****     [..]
 197:Drivers/STM32H7xx_HAL_Driver/Src/stm32h7xx_hal_dma.c ****     This section provides functions allowing to initialize the DMA Stream source
 198:Drivers/STM32H7xx_HAL_Driver/Src/stm32h7xx_hal_dma.c ****     and destination incrementation and data sizes, transfer direction,
 199:Drivers/STM32H7xx_HAL_Driver/Src/stm32h7xx_hal_dma.c ****     circular/normal mode selection, memory-to-memory mode selection and Stream priority value.
 200:Drivers/STM32H7xx_HAL_Driver/Src/stm32h7xx_hal_dma.c ****     [..]
 201:Drivers/STM32H7xx_HAL_Driver/Src/stm32h7xx_hal_dma.c ****     The HAL_DMA_Init() function follows the DMA configuration procedures as described in
 202:Drivers/STM32H7xx_HAL_Driver/Src/stm32h7xx_hal_dma.c ****     reference manual.
ARM GAS  /var/folders/g1/j12m_ky910s3_sv7d4yrsdn00000gn/T//ccliMUVd.s 			page 5


 203:Drivers/STM32H7xx_HAL_Driver/Src/stm32h7xx_hal_dma.c ****     The HAL_DMA_DeInit function allows to deinitialize the DMA stream.
 204:Drivers/STM32H7xx_HAL_Driver/Src/stm32h7xx_hal_dma.c **** 
 205:Drivers/STM32H7xx_HAL_Driver/Src/stm32h7xx_hal_dma.c **** @endverbatim
 206:Drivers/STM32H7xx_HAL_Driver/Src/stm32h7xx_hal_dma.c ****   * @{
 207:Drivers/STM32H7xx_HAL_Driver/Src/stm32h7xx_hal_dma.c ****   */
 208:Drivers/STM32H7xx_HAL_Driver/Src/stm32h7xx_hal_dma.c **** 
 209:Drivers/STM32H7xx_HAL_Driver/Src/stm32h7xx_hal_dma.c **** /**
 210:Drivers/STM32H7xx_HAL_Driver/Src/stm32h7xx_hal_dma.c ****   * @brief  Initialize the DMA according to the specified
 211:Drivers/STM32H7xx_HAL_Driver/Src/stm32h7xx_hal_dma.c ****   *         parameters in the DMA_InitTypeDef and create the associated handle.
 212:Drivers/STM32H7xx_HAL_Driver/Src/stm32h7xx_hal_dma.c ****   * @param  hdma: Pointer to a DMA_HandleTypeDef structure that contains
 213:Drivers/STM32H7xx_HAL_Driver/Src/stm32h7xx_hal_dma.c ****   *               the configuration information for the specified DMA Stream.
 214:Drivers/STM32H7xx_HAL_Driver/Src/stm32h7xx_hal_dma.c ****   * @retval HAL status
 215:Drivers/STM32H7xx_HAL_Driver/Src/stm32h7xx_hal_dma.c ****   */
 216:Drivers/STM32H7xx_HAL_Driver/Src/stm32h7xx_hal_dma.c **** HAL_StatusTypeDef HAL_DMA_Init(DMA_HandleTypeDef *hdma)
 217:Drivers/STM32H7xx_HAL_Driver/Src/stm32h7xx_hal_dma.c **** {
  28              		.loc 1 217 1
  29              		.cfi_startproc
  30              		@ args = 0, pretend = 0, frame = 24
  31              		@ frame_needed = 1, uses_anonymous_args = 0
  32 0000 80B5     		push	{r7, lr}
  33              	.LCFI0:
  34              		.cfi_def_cfa_offset 8
  35              		.cfi_offset 7, -8
  36              		.cfi_offset 14, -4
  37 0002 86B0     		sub	sp, sp, #24
  38              	.LCFI1:
  39              		.cfi_def_cfa_offset 32
  40 0004 00AF     		add	r7, sp, #0
  41              	.LCFI2:
  42              		.cfi_def_cfa_register 7
  43 0006 7860     		str	r0, [r7, #4]
 218:Drivers/STM32H7xx_HAL_Driver/Src/stm32h7xx_hal_dma.c ****   uint32_t registerValue;
 219:Drivers/STM32H7xx_HAL_Driver/Src/stm32h7xx_hal_dma.c ****   uint32_t tickstart = HAL_GetTick();
  44              		.loc 1 219 24
  45 0008 FFF7FEFF 		bl	HAL_GetTick
  46 000c 3861     		str	r0, [r7, #16]
 220:Drivers/STM32H7xx_HAL_Driver/Src/stm32h7xx_hal_dma.c ****   DMA_Base_Registers *regs_dma;
 221:Drivers/STM32H7xx_HAL_Driver/Src/stm32h7xx_hal_dma.c ****   BDMA_Base_Registers *regs_bdma;
 222:Drivers/STM32H7xx_HAL_Driver/Src/stm32h7xx_hal_dma.c **** 
 223:Drivers/STM32H7xx_HAL_Driver/Src/stm32h7xx_hal_dma.c ****   /* Check the DMA peripheral handle */
 224:Drivers/STM32H7xx_HAL_Driver/Src/stm32h7xx_hal_dma.c ****   if(hdma == NULL)
  47              		.loc 1 224 5
  48 000e 7B68     		ldr	r3, [r7, #4]
  49 0010 002B     		cmp	r3, #0
  50 0012 01D1     		bne	.L2
 225:Drivers/STM32H7xx_HAL_Driver/Src/stm32h7xx_hal_dma.c ****   {
 226:Drivers/STM32H7xx_HAL_Driver/Src/stm32h7xx_hal_dma.c ****     return HAL_ERROR;
  51              		.loc 1 226 12
  52 0014 0123     		movs	r3, #1
  53 0016 16E3     		b	.L3
  54              	.L2:
 227:Drivers/STM32H7xx_HAL_Driver/Src/stm32h7xx_hal_dma.c ****   }
 228:Drivers/STM32H7xx_HAL_Driver/Src/stm32h7xx_hal_dma.c **** 
 229:Drivers/STM32H7xx_HAL_Driver/Src/stm32h7xx_hal_dma.c ****   /* Check the parameters */
 230:Drivers/STM32H7xx_HAL_Driver/Src/stm32h7xx_hal_dma.c ****   assert_param(IS_DMA_ALL_INSTANCE(hdma->Instance));
 231:Drivers/STM32H7xx_HAL_Driver/Src/stm32h7xx_hal_dma.c ****   assert_param(IS_DMA_DIRECTION(hdma->Init.Direction));
 232:Drivers/STM32H7xx_HAL_Driver/Src/stm32h7xx_hal_dma.c ****   assert_param(IS_DMA_PERIPHERAL_INC_STATE(hdma->Init.PeriphInc));
ARM GAS  /var/folders/g1/j12m_ky910s3_sv7d4yrsdn00000gn/T//ccliMUVd.s 			page 6


 233:Drivers/STM32H7xx_HAL_Driver/Src/stm32h7xx_hal_dma.c ****   assert_param(IS_DMA_MEMORY_INC_STATE(hdma->Init.MemInc));
 234:Drivers/STM32H7xx_HAL_Driver/Src/stm32h7xx_hal_dma.c ****   assert_param(IS_DMA_PERIPHERAL_DATA_SIZE(hdma->Init.PeriphDataAlignment));
 235:Drivers/STM32H7xx_HAL_Driver/Src/stm32h7xx_hal_dma.c ****   assert_param(IS_DMA_MEMORY_DATA_SIZE(hdma->Init.MemDataAlignment));
 236:Drivers/STM32H7xx_HAL_Driver/Src/stm32h7xx_hal_dma.c ****   assert_param(IS_DMA_MODE(hdma->Init.Mode));
 237:Drivers/STM32H7xx_HAL_Driver/Src/stm32h7xx_hal_dma.c ****   assert_param(IS_DMA_PRIORITY(hdma->Init.Priority));
 238:Drivers/STM32H7xx_HAL_Driver/Src/stm32h7xx_hal_dma.c **** 
 239:Drivers/STM32H7xx_HAL_Driver/Src/stm32h7xx_hal_dma.c ****   if(IS_DMA_STREAM_INSTANCE(hdma->Instance) != 0U) /* DMA1 or DMA2 instance */
  55              		.loc 1 239 6
  56 0018 7B68     		ldr	r3, [r7, #4]
  57 001a 1B68     		ldr	r3, [r3]
  58 001c 664A     		ldr	r2, .L41
  59 001e 9342     		cmp	r3, r2
  60 0020 4AD0     		beq	.L4
  61              		.loc 1 239 6 is_stmt 0 discriminator 2
  62 0022 7B68     		ldr	r3, [r7, #4]
  63 0024 1B68     		ldr	r3, [r3]
  64 0026 654A     		ldr	r2, .L41+4
  65 0028 9342     		cmp	r3, r2
  66 002a 45D0     		beq	.L4
  67              		.loc 1 239 6 discriminator 4
  68 002c 7B68     		ldr	r3, [r7, #4]
  69 002e 1B68     		ldr	r3, [r3]
  70 0030 634A     		ldr	r2, .L41+8
  71 0032 9342     		cmp	r3, r2
  72 0034 40D0     		beq	.L4
  73              		.loc 1 239 6 discriminator 6
  74 0036 7B68     		ldr	r3, [r7, #4]
  75 0038 1B68     		ldr	r3, [r3]
  76 003a 624A     		ldr	r2, .L41+12
  77 003c 9342     		cmp	r3, r2
  78 003e 3BD0     		beq	.L4
  79              		.loc 1 239 6 discriminator 8
  80 0040 7B68     		ldr	r3, [r7, #4]
  81 0042 1B68     		ldr	r3, [r3]
  82 0044 604A     		ldr	r2, .L41+16
  83 0046 9342     		cmp	r3, r2
  84 0048 36D0     		beq	.L4
  85              		.loc 1 239 6 discriminator 10
  86 004a 7B68     		ldr	r3, [r7, #4]
  87 004c 1B68     		ldr	r3, [r3]
  88 004e 5F4A     		ldr	r2, .L41+20
  89 0050 9342     		cmp	r3, r2
  90 0052 31D0     		beq	.L4
  91              		.loc 1 239 6 discriminator 12
  92 0054 7B68     		ldr	r3, [r7, #4]
  93 0056 1B68     		ldr	r3, [r3]
  94 0058 5D4A     		ldr	r2, .L41+24
  95 005a 9342     		cmp	r3, r2
  96 005c 2CD0     		beq	.L4
  97              		.loc 1 239 6 discriminator 14
  98 005e 7B68     		ldr	r3, [r7, #4]
  99 0060 1B68     		ldr	r3, [r3]
 100 0062 5C4A     		ldr	r2, .L41+28
 101 0064 9342     		cmp	r3, r2
 102 0066 27D0     		beq	.L4
 103              		.loc 1 239 6 discriminator 16
 104 0068 7B68     		ldr	r3, [r7, #4]
ARM GAS  /var/folders/g1/j12m_ky910s3_sv7d4yrsdn00000gn/T//ccliMUVd.s 			page 7


 105 006a 1B68     		ldr	r3, [r3]
 106 006c 5A4A     		ldr	r2, .L41+32
 107 006e 9342     		cmp	r3, r2
 108 0070 22D0     		beq	.L4
 109              		.loc 1 239 6 discriminator 18
 110 0072 7B68     		ldr	r3, [r7, #4]
 111 0074 1B68     		ldr	r3, [r3]
 112 0076 594A     		ldr	r2, .L41+36
 113 0078 9342     		cmp	r3, r2
 114 007a 1DD0     		beq	.L4
 115              		.loc 1 239 6 discriminator 20
 116 007c 7B68     		ldr	r3, [r7, #4]
 117 007e 1B68     		ldr	r3, [r3]
 118 0080 574A     		ldr	r2, .L41+40
 119 0082 9342     		cmp	r3, r2
 120 0084 18D0     		beq	.L4
 121              		.loc 1 239 6 discriminator 22
 122 0086 7B68     		ldr	r3, [r7, #4]
 123 0088 1B68     		ldr	r3, [r3]
 124 008a 564A     		ldr	r2, .L41+44
 125 008c 9342     		cmp	r3, r2
 126 008e 13D0     		beq	.L4
 127              		.loc 1 239 6 discriminator 24
 128 0090 7B68     		ldr	r3, [r7, #4]
 129 0092 1B68     		ldr	r3, [r3]
 130 0094 544A     		ldr	r2, .L41+48
 131 0096 9342     		cmp	r3, r2
 132 0098 0ED0     		beq	.L4
 133              		.loc 1 239 6 discriminator 26
 134 009a 7B68     		ldr	r3, [r7, #4]
 135 009c 1B68     		ldr	r3, [r3]
 136 009e 534A     		ldr	r2, .L41+52
 137 00a0 9342     		cmp	r3, r2
 138 00a2 09D0     		beq	.L4
 139              		.loc 1 239 6 discriminator 28
 140 00a4 7B68     		ldr	r3, [r7, #4]
 141 00a6 1B68     		ldr	r3, [r3]
 142 00a8 514A     		ldr	r2, .L41+56
 143 00aa 9342     		cmp	r3, r2
 144 00ac 04D0     		beq	.L4
 145              		.loc 1 239 6 discriminator 30
 146 00ae 7B68     		ldr	r3, [r7, #4]
 147 00b0 1B68     		ldr	r3, [r3]
 148 00b2 504A     		ldr	r2, .L41+60
 149 00b4 9342     		cmp	r3, r2
 150 00b6 01D1     		bne	.L5
 151              	.L4:
 152              		.loc 1 239 6 discriminator 31
 153 00b8 0123     		movs	r3, #1
 154              		.loc 1 239 6
 155 00ba 00E0     		b	.L6
 156              	.L5:
 157              		.loc 1 239 6 discriminator 32
 158 00bc 0023     		movs	r3, #0
 159              	.L6:
 160              		.loc 1 239 5 is_stmt 1 discriminator 34
 161 00be 002B     		cmp	r3, #0
ARM GAS  /var/folders/g1/j12m_ky910s3_sv7d4yrsdn00000gn/T//ccliMUVd.s 			page 8


 162 00c0 00F03B81 		beq	.L7
 240:Drivers/STM32H7xx_HAL_Driver/Src/stm32h7xx_hal_dma.c ****   {
 241:Drivers/STM32H7xx_HAL_Driver/Src/stm32h7xx_hal_dma.c ****     assert_param(IS_DMA_REQUEST(hdma->Init.Request));
 242:Drivers/STM32H7xx_HAL_Driver/Src/stm32h7xx_hal_dma.c ****     assert_param(IS_DMA_FIFO_MODE_STATE(hdma->Init.FIFOMode));
 243:Drivers/STM32H7xx_HAL_Driver/Src/stm32h7xx_hal_dma.c ****     /* Check the memory burst, peripheral burst and FIFO threshold parameters only
 244:Drivers/STM32H7xx_HAL_Driver/Src/stm32h7xx_hal_dma.c ****        when FIFO mode is enabled */
 245:Drivers/STM32H7xx_HAL_Driver/Src/stm32h7xx_hal_dma.c ****     if(hdma->Init.FIFOMode != DMA_FIFOMODE_DISABLE)
 246:Drivers/STM32H7xx_HAL_Driver/Src/stm32h7xx_hal_dma.c ****     {
 247:Drivers/STM32H7xx_HAL_Driver/Src/stm32h7xx_hal_dma.c ****       assert_param(IS_DMA_FIFO_THRESHOLD(hdma->Init.FIFOThreshold));
 248:Drivers/STM32H7xx_HAL_Driver/Src/stm32h7xx_hal_dma.c ****       assert_param(IS_DMA_MEMORY_BURST(hdma->Init.MemBurst));
 249:Drivers/STM32H7xx_HAL_Driver/Src/stm32h7xx_hal_dma.c ****       assert_param(IS_DMA_PERIPHERAL_BURST(hdma->Init.PeriphBurst));
 250:Drivers/STM32H7xx_HAL_Driver/Src/stm32h7xx_hal_dma.c ****     }
 251:Drivers/STM32H7xx_HAL_Driver/Src/stm32h7xx_hal_dma.c **** 
 252:Drivers/STM32H7xx_HAL_Driver/Src/stm32h7xx_hal_dma.c ****     /* Change DMA peripheral state */
 253:Drivers/STM32H7xx_HAL_Driver/Src/stm32h7xx_hal_dma.c ****     hdma->State = HAL_DMA_STATE_BUSY;
 163              		.loc 1 253 17
 164 00c4 7B68     		ldr	r3, [r7, #4]
 165 00c6 0222     		movs	r2, #2
 166 00c8 83F83520 		strb	r2, [r3, #53]
 254:Drivers/STM32H7xx_HAL_Driver/Src/stm32h7xx_hal_dma.c **** 
 255:Drivers/STM32H7xx_HAL_Driver/Src/stm32h7xx_hal_dma.c ****     /* Allocate lock resource */
 256:Drivers/STM32H7xx_HAL_Driver/Src/stm32h7xx_hal_dma.c ****     __HAL_UNLOCK(hdma);
 167              		.loc 1 256 5
 168 00cc 7B68     		ldr	r3, [r7, #4]
 169 00ce 0022     		movs	r2, #0
 170 00d0 83F83420 		strb	r2, [r3, #52]
 257:Drivers/STM32H7xx_HAL_Driver/Src/stm32h7xx_hal_dma.c **** 
 258:Drivers/STM32H7xx_HAL_Driver/Src/stm32h7xx_hal_dma.c ****     /* Disable the peripheral */
 259:Drivers/STM32H7xx_HAL_Driver/Src/stm32h7xx_hal_dma.c ****     __HAL_DMA_DISABLE(hdma);
 171              		.loc 1 259 5
 172 00d4 7B68     		ldr	r3, [r7, #4]
 173 00d6 1B68     		ldr	r3, [r3]
 174 00d8 374A     		ldr	r2, .L41
 175 00da 9342     		cmp	r3, r2
 176 00dc 4AD0     		beq	.L8
 177              		.loc 1 259 5 is_stmt 0 discriminator 2
 178 00de 7B68     		ldr	r3, [r7, #4]
 179 00e0 1B68     		ldr	r3, [r3]
 180 00e2 364A     		ldr	r2, .L41+4
 181 00e4 9342     		cmp	r3, r2
 182 00e6 45D0     		beq	.L8
 183              		.loc 1 259 5 discriminator 4
 184 00e8 7B68     		ldr	r3, [r7, #4]
 185 00ea 1B68     		ldr	r3, [r3]
 186 00ec 344A     		ldr	r2, .L41+8
 187 00ee 9342     		cmp	r3, r2
 188 00f0 40D0     		beq	.L8
 189              		.loc 1 259 5 discriminator 6
 190 00f2 7B68     		ldr	r3, [r7, #4]
 191 00f4 1B68     		ldr	r3, [r3]
 192 00f6 334A     		ldr	r2, .L41+12
 193 00f8 9342     		cmp	r3, r2
 194 00fa 3BD0     		beq	.L8
 195              		.loc 1 259 5 discriminator 8
 196 00fc 7B68     		ldr	r3, [r7, #4]
 197 00fe 1B68     		ldr	r3, [r3]
 198 0100 314A     		ldr	r2, .L41+16
ARM GAS  /var/folders/g1/j12m_ky910s3_sv7d4yrsdn00000gn/T//ccliMUVd.s 			page 9


 199 0102 9342     		cmp	r3, r2
 200 0104 36D0     		beq	.L8
 201              		.loc 1 259 5 discriminator 10
 202 0106 7B68     		ldr	r3, [r7, #4]
 203 0108 1B68     		ldr	r3, [r3]
 204 010a 304A     		ldr	r2, .L41+20
 205 010c 9342     		cmp	r3, r2
 206 010e 31D0     		beq	.L8
 207              		.loc 1 259 5 discriminator 12
 208 0110 7B68     		ldr	r3, [r7, #4]
 209 0112 1B68     		ldr	r3, [r3]
 210 0114 2E4A     		ldr	r2, .L41+24
 211 0116 9342     		cmp	r3, r2
 212 0118 2CD0     		beq	.L8
 213              		.loc 1 259 5 discriminator 14
 214 011a 7B68     		ldr	r3, [r7, #4]
 215 011c 1B68     		ldr	r3, [r3]
 216 011e 2D4A     		ldr	r2, .L41+28
 217 0120 9342     		cmp	r3, r2
 218 0122 27D0     		beq	.L8
 219              		.loc 1 259 5 discriminator 16
 220 0124 7B68     		ldr	r3, [r7, #4]
 221 0126 1B68     		ldr	r3, [r3]
 222 0128 2B4A     		ldr	r2, .L41+32
 223 012a 9342     		cmp	r3, r2
 224 012c 22D0     		beq	.L8
 225              		.loc 1 259 5 discriminator 18
 226 012e 7B68     		ldr	r3, [r7, #4]
 227 0130 1B68     		ldr	r3, [r3]
 228 0132 2A4A     		ldr	r2, .L41+36
 229 0134 9342     		cmp	r3, r2
 230 0136 1DD0     		beq	.L8
 231              		.loc 1 259 5 discriminator 20
 232 0138 7B68     		ldr	r3, [r7, #4]
 233 013a 1B68     		ldr	r3, [r3]
 234 013c 284A     		ldr	r2, .L41+40
 235 013e 9342     		cmp	r3, r2
 236 0140 18D0     		beq	.L8
 237              		.loc 1 259 5 discriminator 22
 238 0142 7B68     		ldr	r3, [r7, #4]
 239 0144 1B68     		ldr	r3, [r3]
 240 0146 274A     		ldr	r2, .L41+44
 241 0148 9342     		cmp	r3, r2
 242 014a 13D0     		beq	.L8
 243              		.loc 1 259 5 discriminator 24
 244 014c 7B68     		ldr	r3, [r7, #4]
 245 014e 1B68     		ldr	r3, [r3]
 246 0150 254A     		ldr	r2, .L41+48
 247 0152 9342     		cmp	r3, r2
 248 0154 0ED0     		beq	.L8
 249              		.loc 1 259 5 discriminator 26
 250 0156 7B68     		ldr	r3, [r7, #4]
 251 0158 1B68     		ldr	r3, [r3]
 252 015a 244A     		ldr	r2, .L41+52
 253 015c 9342     		cmp	r3, r2
 254 015e 09D0     		beq	.L8
 255              		.loc 1 259 5 discriminator 28
ARM GAS  /var/folders/g1/j12m_ky910s3_sv7d4yrsdn00000gn/T//ccliMUVd.s 			page 10


 256 0160 7B68     		ldr	r3, [r7, #4]
 257 0162 1B68     		ldr	r3, [r3]
 258 0164 224A     		ldr	r2, .L41+56
 259 0166 9342     		cmp	r3, r2
 260 0168 04D0     		beq	.L8
 261              		.loc 1 259 5 discriminator 30
 262 016a 7B68     		ldr	r3, [r7, #4]
 263 016c 1B68     		ldr	r3, [r3]
 264 016e 214A     		ldr	r2, .L41+60
 265 0170 9342     		cmp	r3, r2
 266 0172 08D1     		bne	.L9
 267              	.L8:
 268              		.loc 1 259 5 discriminator 31
 269 0174 7B68     		ldr	r3, [r7, #4]
 270 0176 1B68     		ldr	r3, [r3]
 271 0178 1A68     		ldr	r2, [r3]
 272 017a 7B68     		ldr	r3, [r7, #4]
 273 017c 1B68     		ldr	r3, [r3]
 274 017e 22F00102 		bic	r2, r2, #1
 275 0182 1A60     		str	r2, [r3]
 276              		.loc 1 259 5
 277 0184 07E0     		b	.L10
 278              	.L9:
 279              		.loc 1 259 5 discriminator 32
 280 0186 7B68     		ldr	r3, [r7, #4]
 281 0188 1B68     		ldr	r3, [r3]
 282 018a 1A68     		ldr	r2, [r3]
 283 018c 7B68     		ldr	r3, [r7, #4]
 284 018e 1B68     		ldr	r3, [r3]
 285 0190 22F00102 		bic	r2, r2, #1
 286 0194 1A60     		str	r2, [r3]
 287              	.L10:
 260:Drivers/STM32H7xx_HAL_Driver/Src/stm32h7xx_hal_dma.c **** 
 261:Drivers/STM32H7xx_HAL_Driver/Src/stm32h7xx_hal_dma.c ****     /* Check if the DMA Stream is effectively disabled */
 262:Drivers/STM32H7xx_HAL_Driver/Src/stm32h7xx_hal_dma.c ****     while((((DMA_Stream_TypeDef   *)hdma->Instance)->CR & DMA_SxCR_EN) != 0U)
 288              		.loc 1 262 10 is_stmt 1
 289 0196 2FE0     		b	.L11
 290              	.L12:
 263:Drivers/STM32H7xx_HAL_Driver/Src/stm32h7xx_hal_dma.c ****     {
 264:Drivers/STM32H7xx_HAL_Driver/Src/stm32h7xx_hal_dma.c ****       /* Check for the Timeout */
 265:Drivers/STM32H7xx_HAL_Driver/Src/stm32h7xx_hal_dma.c ****       if((HAL_GetTick() - tickstart ) > HAL_TIMEOUT_DMA_ABORT)
 291              		.loc 1 265 11
 292 0198 FFF7FEFF 		bl	HAL_GetTick
 293 019c 0246     		mov	r2, r0
 294              		.loc 1 265 25 discriminator 1
 295 019e 3B69     		ldr	r3, [r7, #16]
 296 01a0 D31A     		subs	r3, r2, r3
 297              		.loc 1 265 9 discriminator 1
 298 01a2 052B     		cmp	r3, #5
 299 01a4 28D9     		bls	.L11
 266:Drivers/STM32H7xx_HAL_Driver/Src/stm32h7xx_hal_dma.c ****       {
 267:Drivers/STM32H7xx_HAL_Driver/Src/stm32h7xx_hal_dma.c ****         /* Update error code */
 268:Drivers/STM32H7xx_HAL_Driver/Src/stm32h7xx_hal_dma.c ****         hdma->ErrorCode = HAL_DMA_ERROR_TIMEOUT;
 300              		.loc 1 268 25
 301 01a6 7B68     		ldr	r3, [r7, #4]
 302 01a8 2022     		movs	r2, #32
 303 01aa 5A65     		str	r2, [r3, #84]
ARM GAS  /var/folders/g1/j12m_ky910s3_sv7d4yrsdn00000gn/T//ccliMUVd.s 			page 11


 269:Drivers/STM32H7xx_HAL_Driver/Src/stm32h7xx_hal_dma.c **** 
 270:Drivers/STM32H7xx_HAL_Driver/Src/stm32h7xx_hal_dma.c ****         /* Change the DMA state */
 271:Drivers/STM32H7xx_HAL_Driver/Src/stm32h7xx_hal_dma.c ****         hdma->State = HAL_DMA_STATE_ERROR;
 304              		.loc 1 271 21
 305 01ac 7B68     		ldr	r3, [r7, #4]
 306 01ae 0322     		movs	r2, #3
 307 01b0 83F83520 		strb	r2, [r3, #53]
 272:Drivers/STM32H7xx_HAL_Driver/Src/stm32h7xx_hal_dma.c **** 
 273:Drivers/STM32H7xx_HAL_Driver/Src/stm32h7xx_hal_dma.c ****         return HAL_ERROR;
 308              		.loc 1 273 16
 309 01b4 0123     		movs	r3, #1
 310 01b6 46E2     		b	.L3
 311              	.L42:
 312              		.align	2
 313              	.L41:
 314 01b8 10000240 		.word	1073872912
 315 01bc 28000240 		.word	1073872936
 316 01c0 40000240 		.word	1073872960
 317 01c4 58000240 		.word	1073872984
 318 01c8 70000240 		.word	1073873008
 319 01cc 88000240 		.word	1073873032
 320 01d0 A0000240 		.word	1073873056
 321 01d4 B8000240 		.word	1073873080
 322 01d8 10040240 		.word	1073873936
 323 01dc 28040240 		.word	1073873960
 324 01e0 40040240 		.word	1073873984
 325 01e4 58040240 		.word	1073874008
 326 01e8 70040240 		.word	1073874032
 327 01ec 88040240 		.word	1073874056
 328 01f0 A0040240 		.word	1073874080
 329 01f4 B8040240 		.word	1073874104
 330              	.L11:
 262:Drivers/STM32H7xx_HAL_Driver/Src/stm32h7xx_hal_dma.c ****     {
 331              		.loc 1 262 41
 332 01f8 7B68     		ldr	r3, [r7, #4]
 333 01fa 1B68     		ldr	r3, [r3]
 262:Drivers/STM32H7xx_HAL_Driver/Src/stm32h7xx_hal_dma.c ****     {
 334              		.loc 1 262 52
 335 01fc 1B68     		ldr	r3, [r3]
 262:Drivers/STM32H7xx_HAL_Driver/Src/stm32h7xx_hal_dma.c ****     {
 336              		.loc 1 262 57
 337 01fe 03F00103 		and	r3, r3, #1
 262:Drivers/STM32H7xx_HAL_Driver/Src/stm32h7xx_hal_dma.c ****     {
 338              		.loc 1 262 72
 339 0202 002B     		cmp	r3, #0
 340 0204 C8D1     		bne	.L12
 274:Drivers/STM32H7xx_HAL_Driver/Src/stm32h7xx_hal_dma.c ****       }
 275:Drivers/STM32H7xx_HAL_Driver/Src/stm32h7xx_hal_dma.c ****     }
 276:Drivers/STM32H7xx_HAL_Driver/Src/stm32h7xx_hal_dma.c **** 
 277:Drivers/STM32H7xx_HAL_Driver/Src/stm32h7xx_hal_dma.c ****     /* Get the CR register value */
 278:Drivers/STM32H7xx_HAL_Driver/Src/stm32h7xx_hal_dma.c ****     registerValue = ((DMA_Stream_TypeDef   *)hdma->Instance)->CR;
 341              		.loc 1 278 50
 342 0206 7B68     		ldr	r3, [r7, #4]
 343 0208 1B68     		ldr	r3, [r3]
 344              		.loc 1 278 19
 345 020a 1B68     		ldr	r3, [r3]
 346 020c 7B61     		str	r3, [r7, #20]
ARM GAS  /var/folders/g1/j12m_ky910s3_sv7d4yrsdn00000gn/T//ccliMUVd.s 			page 12


 279:Drivers/STM32H7xx_HAL_Driver/Src/stm32h7xx_hal_dma.c **** 
 280:Drivers/STM32H7xx_HAL_Driver/Src/stm32h7xx_hal_dma.c ****     /* Clear CHSEL, MBURST, PBURST, PL, MSIZE, PSIZE, MINC, PINC, CIRC, DIR, CT and DBM bits */
 281:Drivers/STM32H7xx_HAL_Driver/Src/stm32h7xx_hal_dma.c ****     registerValue &= ((uint32_t)~(DMA_SxCR_MBURST | DMA_SxCR_PBURST | \
 347              		.loc 1 281 19
 348 020e 7A69     		ldr	r2, [r7, #20]
 349 0210 834B     		ldr	r3, .L43
 350 0212 1340     		ands	r3, r3, r2
 351 0214 7B61     		str	r3, [r7, #20]
 282:Drivers/STM32H7xx_HAL_Driver/Src/stm32h7xx_hal_dma.c ****                         DMA_SxCR_PL    | DMA_SxCR_MSIZE  | DMA_SxCR_PSIZE  | \
 283:Drivers/STM32H7xx_HAL_Driver/Src/stm32h7xx_hal_dma.c ****                         DMA_SxCR_MINC  | DMA_SxCR_PINC   | DMA_SxCR_CIRC   | \
 284:Drivers/STM32H7xx_HAL_Driver/Src/stm32h7xx_hal_dma.c ****                         DMA_SxCR_DIR   | DMA_SxCR_CT     | DMA_SxCR_DBM));
 285:Drivers/STM32H7xx_HAL_Driver/Src/stm32h7xx_hal_dma.c **** 
 286:Drivers/STM32H7xx_HAL_Driver/Src/stm32h7xx_hal_dma.c ****     /* Prepare the DMA Stream configuration */
 287:Drivers/STM32H7xx_HAL_Driver/Src/stm32h7xx_hal_dma.c ****     registerValue |=  hdma->Init.Direction           |
 352              		.loc 1 287 33
 353 0216 7B68     		ldr	r3, [r7, #4]
 354 0218 9A68     		ldr	r2, [r3, #8]
 288:Drivers/STM32H7xx_HAL_Driver/Src/stm32h7xx_hal_dma.c ****             hdma->Init.PeriphInc           | hdma->Init.MemInc           |
 355              		.loc 1 288 23
 356 021a 7B68     		ldr	r3, [r7, #4]
 357 021c DB68     		ldr	r3, [r3, #12]
 287:Drivers/STM32H7xx_HAL_Driver/Src/stm32h7xx_hal_dma.c ****             hdma->Init.PeriphInc           | hdma->Init.MemInc           |
 358              		.loc 1 287 54
 359 021e 1A43     		orrs	r2, r2, r3
 360              		.loc 1 288 56
 361 0220 7B68     		ldr	r3, [r7, #4]
 362 0222 1B69     		ldr	r3, [r3, #16]
 363              		.loc 1 288 44
 364 0224 1A43     		orrs	r2, r2, r3
 289:Drivers/STM32H7xx_HAL_Driver/Src/stm32h7xx_hal_dma.c ****             hdma->Init.PeriphDataAlignment | hdma->Init.MemDataAlignment |
 365              		.loc 1 289 23
 366 0226 7B68     		ldr	r3, [r7, #4]
 367 0228 5B69     		ldr	r3, [r3, #20]
 288:Drivers/STM32H7xx_HAL_Driver/Src/stm32h7xx_hal_dma.c ****             hdma->Init.PeriphInc           | hdma->Init.MemInc           |
 368              		.loc 1 288 74
 369 022a 1A43     		orrs	r2, r2, r3
 370              		.loc 1 289 56
 371 022c 7B68     		ldr	r3, [r7, #4]
 372 022e 9B69     		ldr	r3, [r3, #24]
 373              		.loc 1 289 44
 374 0230 1A43     		orrs	r2, r2, r3
 290:Drivers/STM32H7xx_HAL_Driver/Src/stm32h7xx_hal_dma.c ****             hdma->Init.Mode                | hdma->Init.Priority;
 375              		.loc 1 290 23
 376 0232 7B68     		ldr	r3, [r7, #4]
 377 0234 DB69     		ldr	r3, [r3, #28]
 289:Drivers/STM32H7xx_HAL_Driver/Src/stm32h7xx_hal_dma.c ****             hdma->Init.PeriphDataAlignment | hdma->Init.MemDataAlignment |
 378              		.loc 1 289 74
 379 0236 1A43     		orrs	r2, r2, r3
 380              		.loc 1 290 56
 381 0238 7B68     		ldr	r3, [r7, #4]
 382 023a 1B6A     		ldr	r3, [r3, #32]
 383              		.loc 1 290 44
 384 023c 1343     		orrs	r3, r3, r2
 287:Drivers/STM32H7xx_HAL_Driver/Src/stm32h7xx_hal_dma.c ****             hdma->Init.PeriphInc           | hdma->Init.MemInc           |
 385              		.loc 1 287 19
 386 023e 7A69     		ldr	r2, [r7, #20]
 387 0240 1343     		orrs	r3, r3, r2
ARM GAS  /var/folders/g1/j12m_ky910s3_sv7d4yrsdn00000gn/T//ccliMUVd.s 			page 13


 388 0242 7B61     		str	r3, [r7, #20]
 291:Drivers/STM32H7xx_HAL_Driver/Src/stm32h7xx_hal_dma.c **** 
 292:Drivers/STM32H7xx_HAL_Driver/Src/stm32h7xx_hal_dma.c ****     /* the Memory burst and peripheral burst are not used when the FIFO is disabled */
 293:Drivers/STM32H7xx_HAL_Driver/Src/stm32h7xx_hal_dma.c ****     if(hdma->Init.FIFOMode == DMA_FIFOMODE_ENABLE)
 389              		.loc 1 293 18
 390 0244 7B68     		ldr	r3, [r7, #4]
 391 0246 5B6A     		ldr	r3, [r3, #36]
 392              		.loc 1 293 7
 393 0248 042B     		cmp	r3, #4
 394 024a 07D1     		bne	.L13
 294:Drivers/STM32H7xx_HAL_Driver/Src/stm32h7xx_hal_dma.c ****     {
 295:Drivers/STM32H7xx_HAL_Driver/Src/stm32h7xx_hal_dma.c ****       /* Get memory burst and peripheral burst */
 296:Drivers/STM32H7xx_HAL_Driver/Src/stm32h7xx_hal_dma.c ****       registerValue |=  hdma->Init.MemBurst | hdma->Init.PeriphBurst;
 395              		.loc 1 296 35
 396 024c 7B68     		ldr	r3, [r7, #4]
 397 024e DA6A     		ldr	r2, [r3, #44]
 398              		.loc 1 296 57
 399 0250 7B68     		ldr	r3, [r7, #4]
 400 0252 1B6B     		ldr	r3, [r3, #48]
 401              		.loc 1 296 45
 402 0254 1343     		orrs	r3, r3, r2
 403              		.loc 1 296 21
 404 0256 7A69     		ldr	r2, [r7, #20]
 405 0258 1343     		orrs	r3, r3, r2
 406 025a 7B61     		str	r3, [r7, #20]
 407              	.L13:
 297:Drivers/STM32H7xx_HAL_Driver/Src/stm32h7xx_hal_dma.c ****     }
 298:Drivers/STM32H7xx_HAL_Driver/Src/stm32h7xx_hal_dma.c **** 
 299:Drivers/STM32H7xx_HAL_Driver/Src/stm32h7xx_hal_dma.c ****     /* Work around for Errata 2.22: UART/USART- DMA transfer lock: DMA stream could be
 300:Drivers/STM32H7xx_HAL_Driver/Src/stm32h7xx_hal_dma.c ****                                     lock when transferring data to/from USART/UART */
 301:Drivers/STM32H7xx_HAL_Driver/Src/stm32h7xx_hal_dma.c **** #if (STM32H7_DEV_ID == 0x450UL)
 302:Drivers/STM32H7xx_HAL_Driver/Src/stm32h7xx_hal_dma.c ****     if((DBGMCU->IDCODE & 0xFFFF0000U) >= 0x20000000U)
 408              		.loc 1 302 15
 409 025c 714B     		ldr	r3, .L43+4
 410 025e 1A68     		ldr	r2, [r3]
 411              		.loc 1 302 24
 412 0260 714B     		ldr	r3, .L43+8
 413 0262 1340     		ands	r3, r3, r2
 414              		.loc 1 302 7
 415 0264 B3F1005F 		cmp	r3, #536870912
 416 0268 28D3     		bcc	.L14
 303:Drivers/STM32H7xx_HAL_Driver/Src/stm32h7xx_hal_dma.c ****     {
 304:Drivers/STM32H7xx_HAL_Driver/Src/stm32h7xx_hal_dma.c **** #endif /* STM32H7_DEV_ID == 0x450UL */
 305:Drivers/STM32H7xx_HAL_Driver/Src/stm32h7xx_hal_dma.c ****       if(IS_DMA_UART_USART_REQUEST(hdma->Init.Request) != 0U)
 417              		.loc 1 305 10
 418 026a 7B68     		ldr	r3, [r7, #4]
 419 026c 5B68     		ldr	r3, [r3, #4]
 420 026e 282B     		cmp	r3, #40
 421 0270 03D9     		bls	.L15
 422              		.loc 1 305 10 is_stmt 0 discriminator 1
 423 0272 7B68     		ldr	r3, [r7, #4]
 424 0274 5B68     		ldr	r3, [r3, #4]
 425 0276 2E2B     		cmp	r3, #46
 426 0278 17D9     		bls	.L16
 427              	.L15:
 428              		.loc 1 305 10 discriminator 4
 429 027a 7B68     		ldr	r3, [r7, #4]
ARM GAS  /var/folders/g1/j12m_ky910s3_sv7d4yrsdn00000gn/T//ccliMUVd.s 			page 14


 430 027c 5B68     		ldr	r3, [r3, #4]
 431 027e 3E2B     		cmp	r3, #62
 432 0280 03D9     		bls	.L17
 433              		.loc 1 305 10 discriminator 5
 434 0282 7B68     		ldr	r3, [r7, #4]
 435 0284 5B68     		ldr	r3, [r3, #4]
 436 0286 422B     		cmp	r3, #66
 437 0288 0FD9     		bls	.L16
 438              	.L17:
 439              		.loc 1 305 10 discriminator 8
 440 028a 7B68     		ldr	r3, [r7, #4]
 441 028c 5B68     		ldr	r3, [r3, #4]
 442 028e 462B     		cmp	r3, #70
 443 0290 03D9     		bls	.L18
 444              		.loc 1 305 10 discriminator 9
 445 0292 7B68     		ldr	r3, [r7, #4]
 446 0294 5B68     		ldr	r3, [r3, #4]
 447 0296 482B     		cmp	r3, #72
 448 0298 07D9     		bls	.L16
 449              	.L18:
 450              		.loc 1 305 10 discriminator 12
 451 029a 7B68     		ldr	r3, [r7, #4]
 452 029c 5B68     		ldr	r3, [r3, #4]
 453 029e 4E2B     		cmp	r3, #78
 454 02a0 05D9     		bls	.L19
 455              		.loc 1 305 10 discriminator 13
 456 02a2 7B68     		ldr	r3, [r7, #4]
 457 02a4 5B68     		ldr	r3, [r3, #4]
 458 02a6 522B     		cmp	r3, #82
 459 02a8 01D8     		bhi	.L19
 460              	.L16:
 461              		.loc 1 305 10 discriminator 15
 462 02aa 0123     		movs	r3, #1
 463              		.loc 1 305 10
 464 02ac 00E0     		b	.L20
 465              	.L19:
 466              		.loc 1 305 10 discriminator 16
 467 02ae 0023     		movs	r3, #0
 468              	.L20:
 469              		.loc 1 305 9 is_stmt 1 discriminator 18
 470 02b0 002B     		cmp	r3, #0
 471 02b2 03D0     		beq	.L14
 306:Drivers/STM32H7xx_HAL_Driver/Src/stm32h7xx_hal_dma.c ****       {
 307:Drivers/STM32H7xx_HAL_Driver/Src/stm32h7xx_hal_dma.c ****         registerValue |= DMA_SxCR_TRBUFF;
 472              		.loc 1 307 23
 473 02b4 7B69     		ldr	r3, [r7, #20]
 474 02b6 43F48013 		orr	r3, r3, #1048576
 475 02ba 7B61     		str	r3, [r7, #20]
 476              	.L14:
 308:Drivers/STM32H7xx_HAL_Driver/Src/stm32h7xx_hal_dma.c ****       }
 309:Drivers/STM32H7xx_HAL_Driver/Src/stm32h7xx_hal_dma.c **** #if (STM32H7_DEV_ID == 0x450UL)
 310:Drivers/STM32H7xx_HAL_Driver/Src/stm32h7xx_hal_dma.c ****     }
 311:Drivers/STM32H7xx_HAL_Driver/Src/stm32h7xx_hal_dma.c **** #endif /* STM32H7_DEV_ID == 0x450UL */
 312:Drivers/STM32H7xx_HAL_Driver/Src/stm32h7xx_hal_dma.c **** 
 313:Drivers/STM32H7xx_HAL_Driver/Src/stm32h7xx_hal_dma.c ****     /* Write to DMA Stream CR register */
 314:Drivers/STM32H7xx_HAL_Driver/Src/stm32h7xx_hal_dma.c ****     ((DMA_Stream_TypeDef   *)hdma->Instance)->CR = registerValue;
 477              		.loc 1 314 34
ARM GAS  /var/folders/g1/j12m_ky910s3_sv7d4yrsdn00000gn/T//ccliMUVd.s 			page 15


 478 02bc 7B68     		ldr	r3, [r7, #4]
 479 02be 1B68     		ldr	r3, [r3]
 480              		.loc 1 314 50
 481 02c0 7A69     		ldr	r2, [r7, #20]
 482 02c2 1A60     		str	r2, [r3]
 315:Drivers/STM32H7xx_HAL_Driver/Src/stm32h7xx_hal_dma.c **** 
 316:Drivers/STM32H7xx_HAL_Driver/Src/stm32h7xx_hal_dma.c ****     /* Get the FCR register value */
 317:Drivers/STM32H7xx_HAL_Driver/Src/stm32h7xx_hal_dma.c ****     registerValue = ((DMA_Stream_TypeDef   *)hdma->Instance)->FCR;
 483              		.loc 1 317 50
 484 02c4 7B68     		ldr	r3, [r7, #4]
 485 02c6 1B68     		ldr	r3, [r3]
 486              		.loc 1 317 19
 487 02c8 5B69     		ldr	r3, [r3, #20]
 488 02ca 7B61     		str	r3, [r7, #20]
 318:Drivers/STM32H7xx_HAL_Driver/Src/stm32h7xx_hal_dma.c **** 
 319:Drivers/STM32H7xx_HAL_Driver/Src/stm32h7xx_hal_dma.c ****     /* Clear Direct mode and FIFO threshold bits */
 320:Drivers/STM32H7xx_HAL_Driver/Src/stm32h7xx_hal_dma.c ****     registerValue &= (uint32_t)~(DMA_SxFCR_DMDIS | DMA_SxFCR_FTH);
 489              		.loc 1 320 19
 490 02cc 7B69     		ldr	r3, [r7, #20]
 491 02ce 23F00703 		bic	r3, r3, #7
 492 02d2 7B61     		str	r3, [r7, #20]
 321:Drivers/STM32H7xx_HAL_Driver/Src/stm32h7xx_hal_dma.c **** 
 322:Drivers/STM32H7xx_HAL_Driver/Src/stm32h7xx_hal_dma.c ****     /* Prepare the DMA Stream FIFO configuration */
 323:Drivers/STM32H7xx_HAL_Driver/Src/stm32h7xx_hal_dma.c ****     registerValue |= hdma->Init.FIFOMode;
 493              		.loc 1 323 32
 494 02d4 7B68     		ldr	r3, [r7, #4]
 495 02d6 5B6A     		ldr	r3, [r3, #36]
 496              		.loc 1 323 19
 497 02d8 7A69     		ldr	r2, [r7, #20]
 498 02da 1343     		orrs	r3, r3, r2
 499 02dc 7B61     		str	r3, [r7, #20]
 324:Drivers/STM32H7xx_HAL_Driver/Src/stm32h7xx_hal_dma.c **** 
 325:Drivers/STM32H7xx_HAL_Driver/Src/stm32h7xx_hal_dma.c ****     /* the FIFO threshold is not used when the FIFO mode is disabled */
 326:Drivers/STM32H7xx_HAL_Driver/Src/stm32h7xx_hal_dma.c ****     if(hdma->Init.FIFOMode == DMA_FIFOMODE_ENABLE)
 500              		.loc 1 326 18
 501 02de 7B68     		ldr	r3, [r7, #4]
 502 02e0 5B6A     		ldr	r3, [r3, #36]
 503              		.loc 1 326 7
 504 02e2 042B     		cmp	r3, #4
 505 02e4 17D1     		bne	.L21
 327:Drivers/STM32H7xx_HAL_Driver/Src/stm32h7xx_hal_dma.c ****     {
 328:Drivers/STM32H7xx_HAL_Driver/Src/stm32h7xx_hal_dma.c ****       /* Get the FIFO threshold */
 329:Drivers/STM32H7xx_HAL_Driver/Src/stm32h7xx_hal_dma.c ****       registerValue |= hdma->Init.FIFOThreshold;
 506              		.loc 1 329 34
 507 02e6 7B68     		ldr	r3, [r7, #4]
 508 02e8 9B6A     		ldr	r3, [r3, #40]
 509              		.loc 1 329 21
 510 02ea 7A69     		ldr	r2, [r7, #20]
 511 02ec 1343     		orrs	r3, r3, r2
 512 02ee 7B61     		str	r3, [r7, #20]
 330:Drivers/STM32H7xx_HAL_Driver/Src/stm32h7xx_hal_dma.c **** 
 331:Drivers/STM32H7xx_HAL_Driver/Src/stm32h7xx_hal_dma.c ****       /* Check compatibility between FIFO threshold level and size of the memory burst */
 332:Drivers/STM32H7xx_HAL_Driver/Src/stm32h7xx_hal_dma.c ****       /* for INCR4, INCR8, INCR16 */
 333:Drivers/STM32H7xx_HAL_Driver/Src/stm32h7xx_hal_dma.c ****       if(hdma->Init.MemBurst != DMA_MBURST_SINGLE)
 513              		.loc 1 333 20
 514 02f0 7B68     		ldr	r3, [r7, #4]
 515 02f2 DB6A     		ldr	r3, [r3, #44]
ARM GAS  /var/folders/g1/j12m_ky910s3_sv7d4yrsdn00000gn/T//ccliMUVd.s 			page 16


 516              		.loc 1 333 9
 517 02f4 002B     		cmp	r3, #0
 518 02f6 0ED0     		beq	.L21
 334:Drivers/STM32H7xx_HAL_Driver/Src/stm32h7xx_hal_dma.c ****       {
 335:Drivers/STM32H7xx_HAL_Driver/Src/stm32h7xx_hal_dma.c ****         if (DMA_CheckFifoParam(hdma) != HAL_OK)
 519              		.loc 1 335 13
 520 02f8 7868     		ldr	r0, [r7, #4]
 521 02fa FFF7FEFF 		bl	DMA_CheckFifoParam
 522 02fe 0346     		mov	r3, r0
 523              		.loc 1 335 12 discriminator 1
 524 0300 002B     		cmp	r3, #0
 525 0302 08D0     		beq	.L21
 336:Drivers/STM32H7xx_HAL_Driver/Src/stm32h7xx_hal_dma.c ****         {
 337:Drivers/STM32H7xx_HAL_Driver/Src/stm32h7xx_hal_dma.c ****           /* Update error code */
 338:Drivers/STM32H7xx_HAL_Driver/Src/stm32h7xx_hal_dma.c ****           hdma->ErrorCode = HAL_DMA_ERROR_PARAM;
 526              		.loc 1 338 27
 527 0304 7B68     		ldr	r3, [r7, #4]
 528 0306 4022     		movs	r2, #64
 529 0308 5A65     		str	r2, [r3, #84]
 339:Drivers/STM32H7xx_HAL_Driver/Src/stm32h7xx_hal_dma.c **** 
 340:Drivers/STM32H7xx_HAL_Driver/Src/stm32h7xx_hal_dma.c ****           /* Change the DMA state */
 341:Drivers/STM32H7xx_HAL_Driver/Src/stm32h7xx_hal_dma.c ****           hdma->State = HAL_DMA_STATE_READY;
 530              		.loc 1 341 23
 531 030a 7B68     		ldr	r3, [r7, #4]
 532 030c 0122     		movs	r2, #1
 533 030e 83F83520 		strb	r2, [r3, #53]
 342:Drivers/STM32H7xx_HAL_Driver/Src/stm32h7xx_hal_dma.c **** 
 343:Drivers/STM32H7xx_HAL_Driver/Src/stm32h7xx_hal_dma.c ****           return HAL_ERROR;
 534              		.loc 1 343 18
 535 0312 0123     		movs	r3, #1
 536 0314 97E1     		b	.L3
 537              	.L21:
 344:Drivers/STM32H7xx_HAL_Driver/Src/stm32h7xx_hal_dma.c ****         }
 345:Drivers/STM32H7xx_HAL_Driver/Src/stm32h7xx_hal_dma.c ****       }
 346:Drivers/STM32H7xx_HAL_Driver/Src/stm32h7xx_hal_dma.c ****     }
 347:Drivers/STM32H7xx_HAL_Driver/Src/stm32h7xx_hal_dma.c **** 
 348:Drivers/STM32H7xx_HAL_Driver/Src/stm32h7xx_hal_dma.c ****     /* Write to DMA Stream FCR */
 349:Drivers/STM32H7xx_HAL_Driver/Src/stm32h7xx_hal_dma.c ****     ((DMA_Stream_TypeDef   *)hdma->Instance)->FCR = registerValue;
 538              		.loc 1 349 34
 539 0316 7B68     		ldr	r3, [r7, #4]
 540 0318 1B68     		ldr	r3, [r3]
 541              		.loc 1 349 51
 542 031a 7A69     		ldr	r2, [r7, #20]
 543 031c 5A61     		str	r2, [r3, #20]
 350:Drivers/STM32H7xx_HAL_Driver/Src/stm32h7xx_hal_dma.c **** 
 351:Drivers/STM32H7xx_HAL_Driver/Src/stm32h7xx_hal_dma.c ****     /* Initialize StreamBaseAddress and StreamIndex parameters to be used to calculate
 352:Drivers/STM32H7xx_HAL_Driver/Src/stm32h7xx_hal_dma.c ****        DMA steam Base Address needed by HAL_DMA_IRQHandler() and HAL_DMA_PollForTransfer() */
 353:Drivers/STM32H7xx_HAL_Driver/Src/stm32h7xx_hal_dma.c ****     regs_dma = (DMA_Base_Registers *)DMA_CalcBaseAndBitshift(hdma);
 544              		.loc 1 353 38
 545 031e 7868     		ldr	r0, [r7, #4]
 546 0320 FFF7FEFF 		bl	DMA_CalcBaseAndBitshift
 547 0324 0346     		mov	r3, r0
 548              		.loc 1 353 14 discriminator 1
 549 0326 BB60     		str	r3, [r7, #8]
 354:Drivers/STM32H7xx_HAL_Driver/Src/stm32h7xx_hal_dma.c **** 
 355:Drivers/STM32H7xx_HAL_Driver/Src/stm32h7xx_hal_dma.c ****     /* Clear all interrupt flags */
 356:Drivers/STM32H7xx_HAL_Driver/Src/stm32h7xx_hal_dma.c ****     regs_dma->IFCR = 0x3FUL << (hdma->StreamIndex & 0x1FU);
ARM GAS  /var/folders/g1/j12m_ky910s3_sv7d4yrsdn00000gn/T//ccliMUVd.s 			page 17


 550              		.loc 1 356 37
 551 0328 7B68     		ldr	r3, [r7, #4]
 552 032a DB6D     		ldr	r3, [r3, #92]
 553              		.loc 1 356 51
 554 032c 03F01F03 		and	r3, r3, #31
 555              		.loc 1 356 29
 556 0330 3F22     		movs	r2, #63
 557 0332 9A40     		lsls	r2, r2, r3
 558              		.loc 1 356 20
 559 0334 BB68     		ldr	r3, [r7, #8]
 560 0336 9A60     		str	r2, [r3, #8]
 561 0338 CDE0     		b	.L22
 562              	.L7:
 357:Drivers/STM32H7xx_HAL_Driver/Src/stm32h7xx_hal_dma.c ****   }
 358:Drivers/STM32H7xx_HAL_Driver/Src/stm32h7xx_hal_dma.c ****   else if(IS_BDMA_CHANNEL_INSTANCE(hdma->Instance) != 0U) /* BDMA instance(s) */
 563              		.loc 1 358 11
 564 033a 7B68     		ldr	r3, [r7, #4]
 565 033c 1B68     		ldr	r3, [r3]
 566 033e 3B4A     		ldr	r2, .L43+12
 567 0340 9342     		cmp	r3, r2
 568 0342 22D0     		beq	.L23
 569              		.loc 1 358 11 is_stmt 0 discriminator 2
 570 0344 7B68     		ldr	r3, [r7, #4]
 571 0346 1B68     		ldr	r3, [r3]
 572 0348 394A     		ldr	r2, .L43+16
 573 034a 9342     		cmp	r3, r2
 574 034c 1DD0     		beq	.L23
 575              		.loc 1 358 11 discriminator 4
 576 034e 7B68     		ldr	r3, [r7, #4]
 577 0350 1B68     		ldr	r3, [r3]
 578 0352 384A     		ldr	r2, .L43+20
 579 0354 9342     		cmp	r3, r2
 580 0356 18D0     		beq	.L23
 581              		.loc 1 358 11 discriminator 6
 582 0358 7B68     		ldr	r3, [r7, #4]
 583 035a 1B68     		ldr	r3, [r3]
 584 035c 364A     		ldr	r2, .L43+24
 585 035e 9342     		cmp	r3, r2
 586 0360 13D0     		beq	.L23
 587              		.loc 1 358 11 discriminator 8
 588 0362 7B68     		ldr	r3, [r7, #4]
 589 0364 1B68     		ldr	r3, [r3]
 590 0366 354A     		ldr	r2, .L43+28
 591 0368 9342     		cmp	r3, r2
 592 036a 0ED0     		beq	.L23
 593              		.loc 1 358 11 discriminator 10
 594 036c 7B68     		ldr	r3, [r7, #4]
 595 036e 1B68     		ldr	r3, [r3]
 596 0370 334A     		ldr	r2, .L43+32
 597 0372 9342     		cmp	r3, r2
 598 0374 09D0     		beq	.L23
 599              		.loc 1 358 11 discriminator 12
 600 0376 7B68     		ldr	r3, [r7, #4]
 601 0378 1B68     		ldr	r3, [r3]
 602 037a 324A     		ldr	r2, .L43+36
 603 037c 9342     		cmp	r3, r2
 604 037e 04D0     		beq	.L23
ARM GAS  /var/folders/g1/j12m_ky910s3_sv7d4yrsdn00000gn/T//ccliMUVd.s 			page 18


 605              		.loc 1 358 11 discriminator 14
 606 0380 7B68     		ldr	r3, [r7, #4]
 607 0382 1B68     		ldr	r3, [r3]
 608 0384 304A     		ldr	r2, .L43+40
 609 0386 9342     		cmp	r3, r2
 610 0388 01D1     		bne	.L24
 611              	.L23:
 612              		.loc 1 358 11 discriminator 15
 613 038a 0123     		movs	r3, #1
 614              		.loc 1 358 11
 615 038c 00E0     		b	.L25
 616              	.L24:
 617              		.loc 1 358 11 discriminator 16
 618 038e 0023     		movs	r3, #0
 619              	.L25:
 620              		.loc 1 358 10 is_stmt 1 discriminator 18
 621 0390 002B     		cmp	r3, #0
 622 0392 00F09780 		beq	.L26
 359:Drivers/STM32H7xx_HAL_Driver/Src/stm32h7xx_hal_dma.c ****   {
 360:Drivers/STM32H7xx_HAL_Driver/Src/stm32h7xx_hal_dma.c ****     if(IS_BDMA_CHANNEL_DMAMUX_INSTANCE(hdma->Instance) != 0U)
 623              		.loc 1 360 8
 624 0396 7B68     		ldr	r3, [r7, #4]
 625 0398 1B68     		ldr	r3, [r3]
 626 039a 244A     		ldr	r2, .L43+12
 627 039c 9342     		cmp	r3, r2
 628 039e 21D0     		beq	.L40
 629              		.loc 1 360 8 is_stmt 0 discriminator 2
 630 03a0 7B68     		ldr	r3, [r7, #4]
 631 03a2 1B68     		ldr	r3, [r3]
 632 03a4 224A     		ldr	r2, .L43+16
 633 03a6 9342     		cmp	r3, r2
 634 03a8 1CD0     		beq	.L40
 635              		.loc 1 360 8 discriminator 4
 636 03aa 7B68     		ldr	r3, [r7, #4]
 637 03ac 1B68     		ldr	r3, [r3]
 638 03ae 214A     		ldr	r2, .L43+20
 639 03b0 9342     		cmp	r3, r2
 640 03b2 17D0     		beq	.L40
 641              		.loc 1 360 8 discriminator 6
 642 03b4 7B68     		ldr	r3, [r7, #4]
 643 03b6 1B68     		ldr	r3, [r3]
 644 03b8 1F4A     		ldr	r2, .L43+24
 645 03ba 9342     		cmp	r3, r2
 646 03bc 12D0     		beq	.L40
 647              		.loc 1 360 8 discriminator 8
 648 03be 7B68     		ldr	r3, [r7, #4]
 649 03c0 1B68     		ldr	r3, [r3]
 650 03c2 1E4A     		ldr	r2, .L43+28
 651 03c4 9342     		cmp	r3, r2
 652 03c6 0DD0     		beq	.L40
 653              		.loc 1 360 8 discriminator 10
 654 03c8 7B68     		ldr	r3, [r7, #4]
 655 03ca 1B68     		ldr	r3, [r3]
 656 03cc 1C4A     		ldr	r2, .L43+32
 657 03ce 9342     		cmp	r3, r2
 658 03d0 08D0     		beq	.L40
 659              		.loc 1 360 8 discriminator 12
ARM GAS  /var/folders/g1/j12m_ky910s3_sv7d4yrsdn00000gn/T//ccliMUVd.s 			page 19


 660 03d2 7B68     		ldr	r3, [r7, #4]
 661 03d4 1B68     		ldr	r3, [r3]
 662 03d6 1B4A     		ldr	r2, .L43+36
 663 03d8 9342     		cmp	r3, r2
 664 03da 03D0     		beq	.L40
 665              		.loc 1 360 8 discriminator 14
 666 03dc 7B68     		ldr	r3, [r7, #4]
 667 03de 1B68     		ldr	r3, [r3]
 668 03e0 194A     		ldr	r2, .L43+40
 669 03e2 9342     		cmp	r3, r2
 670              	.L40:
 361:Drivers/STM32H7xx_HAL_Driver/Src/stm32h7xx_hal_dma.c ****     {
 362:Drivers/STM32H7xx_HAL_Driver/Src/stm32h7xx_hal_dma.c ****       /* Check the request parameter */
 363:Drivers/STM32H7xx_HAL_Driver/Src/stm32h7xx_hal_dma.c ****       assert_param(IS_BDMA_REQUEST(hdma->Init.Request));
 364:Drivers/STM32H7xx_HAL_Driver/Src/stm32h7xx_hal_dma.c ****     }
 365:Drivers/STM32H7xx_HAL_Driver/Src/stm32h7xx_hal_dma.c **** 
 366:Drivers/STM32H7xx_HAL_Driver/Src/stm32h7xx_hal_dma.c ****     /* Change DMA peripheral state */
 367:Drivers/STM32H7xx_HAL_Driver/Src/stm32h7xx_hal_dma.c ****     hdma->State = HAL_DMA_STATE_BUSY;
 671              		.loc 1 367 17 is_stmt 1
 672 03e4 7B68     		ldr	r3, [r7, #4]
 673 03e6 0222     		movs	r2, #2
 674 03e8 83F83520 		strb	r2, [r3, #53]
 368:Drivers/STM32H7xx_HAL_Driver/Src/stm32h7xx_hal_dma.c **** 
 369:Drivers/STM32H7xx_HAL_Driver/Src/stm32h7xx_hal_dma.c ****     /* Allocate lock resource */
 370:Drivers/STM32H7xx_HAL_Driver/Src/stm32h7xx_hal_dma.c ****     __HAL_UNLOCK(hdma);
 675              		.loc 1 370 5
 676 03ec 7B68     		ldr	r3, [r7, #4]
 677 03ee 0022     		movs	r2, #0
 678 03f0 83F83420 		strb	r2, [r3, #52]
 371:Drivers/STM32H7xx_HAL_Driver/Src/stm32h7xx_hal_dma.c **** 
 372:Drivers/STM32H7xx_HAL_Driver/Src/stm32h7xx_hal_dma.c ****     /* Get the CR register value */
 373:Drivers/STM32H7xx_HAL_Driver/Src/stm32h7xx_hal_dma.c ****     registerValue = ((BDMA_Channel_TypeDef *)hdma->Instance)->CCR;
 679              		.loc 1 373 50
 680 03f4 7B68     		ldr	r3, [r7, #4]
 681 03f6 1B68     		ldr	r3, [r3]
 682              		.loc 1 373 19
 683 03f8 1B68     		ldr	r3, [r3]
 684 03fa 7B61     		str	r3, [r7, #20]
 374:Drivers/STM32H7xx_HAL_Driver/Src/stm32h7xx_hal_dma.c **** 
 375:Drivers/STM32H7xx_HAL_Driver/Src/stm32h7xx_hal_dma.c ****     /* Clear PL, MSIZE, PSIZE, MINC, PINC, CIRC, DIR, MEM2MEM, DBM and CT bits */
 376:Drivers/STM32H7xx_HAL_Driver/Src/stm32h7xx_hal_dma.c ****     registerValue &= ((uint32_t)~(BDMA_CCR_PL    | BDMA_CCR_MSIZE   | BDMA_CCR_PSIZE  | \
 685              		.loc 1 376 19
 686 03fc 7A69     		ldr	r2, [r7, #20]
 687 03fe 134B     		ldr	r3, .L43+44
 688 0400 1340     		ands	r3, r3, r2
 689 0402 7B61     		str	r3, [r7, #20]
 377:Drivers/STM32H7xx_HAL_Driver/Src/stm32h7xx_hal_dma.c ****                                   BDMA_CCR_MINC  | BDMA_CCR_PINC    | BDMA_CCR_CIRC   | \
 378:Drivers/STM32H7xx_HAL_Driver/Src/stm32h7xx_hal_dma.c ****                                   BDMA_CCR_DIR   | BDMA_CCR_MEM2MEM | BDMA_CCR_DBM    | \
 379:Drivers/STM32H7xx_HAL_Driver/Src/stm32h7xx_hal_dma.c ****                                   BDMA_CCR_CT));
 380:Drivers/STM32H7xx_HAL_Driver/Src/stm32h7xx_hal_dma.c **** 
 381:Drivers/STM32H7xx_HAL_Driver/Src/stm32h7xx_hal_dma.c ****     /* Prepare the DMA Channel configuration */
 382:Drivers/STM32H7xx_HAL_Driver/Src/stm32h7xx_hal_dma.c ****     registerValue |=  DMA_TO_BDMA_DIRECTION(hdma->Init.Direction)            |
 690              		.loc 1 382 23
 691 0404 7B68     		ldr	r3, [r7, #4]
 692 0406 9B68     		ldr	r3, [r3, #8]
 693 0408 402B     		cmp	r3, #64
 694 040a 21D0     		beq	.L30
ARM GAS  /var/folders/g1/j12m_ky910s3_sv7d4yrsdn00000gn/T//ccliMUVd.s 			page 20


 695              		.loc 1 382 23 is_stmt 0 discriminator 1
 696 040c 7B68     		ldr	r3, [r7, #4]
 697 040e 9B68     		ldr	r3, [r3, #8]
 698 0410 802B     		cmp	r3, #128
 699 0412 02D1     		bne	.L31
 700              		.loc 1 382 23 discriminator 3
 701 0414 4FF48043 		mov	r3, #16384
 702 0418 1BE0     		b	.L33
 703              	.L31:
 704              		.loc 1 382 23 discriminator 4
 705 041a 0023     		movs	r3, #0
 706 041c 19E0     		b	.L33
 707              	.L44:
 708 041e 00BF     		.align	2
 709              	.L43:
 710 0420 3F8010FE 		.word	-32473025
 711 0424 0010005C 		.word	1543507968
 712 0428 0000FFFF 		.word	-65536
 713 042c 08540258 		.word	1476547592
 714 0430 1C540258 		.word	1476547612
 715 0434 30540258 		.word	1476547632
 716 0438 44540258 		.word	1476547652
 717 043c 58540258 		.word	1476547672
 718 0440 6C540258 		.word	1476547692
 719 0444 80540258 		.word	1476547712
 720 0448 94540258 		.word	1476547732
 721 044c 0F00FEFF 		.word	-131057
 722              	.L30:
 723              		.loc 1 382 23 discriminator 2
 724 0450 1023     		movs	r3, #16
 725              	.L33:
 383:Drivers/STM32H7xx_HAL_Driver/Src/stm32h7xx_hal_dma.c ****                       DMA_TO_BDMA_PERIPHERAL_INC(hdma->Init.PeriphInc)       |
 726              		.loc 1 383 23 is_stmt 1
 727 0452 7A68     		ldr	r2, [r7, #4]
 728 0454 D268     		ldr	r2, [r2, #12]
 729 0456 D208     		lsrs	r2, r2, #3
 382:Drivers/STM32H7xx_HAL_Driver/Src/stm32h7xx_hal_dma.c ****                       DMA_TO_BDMA_PERIPHERAL_INC(hdma->Init.PeriphInc)       |
 730              		.loc 1 382 78
 731 0458 1A43     		orrs	r2, r2, r3
 384:Drivers/STM32H7xx_HAL_Driver/Src/stm32h7xx_hal_dma.c ****                       DMA_TO_BDMA_MEMORY_INC(hdma->Init.MemInc)              |
 732              		.loc 1 384 23
 733 045a 7B68     		ldr	r3, [r7, #4]
 734 045c 1B69     		ldr	r3, [r3, #16]
 735 045e DB08     		lsrs	r3, r3, #3
 383:Drivers/STM32H7xx_HAL_Driver/Src/stm32h7xx_hal_dma.c ****                       DMA_TO_BDMA_PERIPHERAL_INC(hdma->Init.PeriphInc)       |
 736              		.loc 1 383 78
 737 0460 1A43     		orrs	r2, r2, r3
 385:Drivers/STM32H7xx_HAL_Driver/Src/stm32h7xx_hal_dma.c ****                       DMA_TO_BDMA_PDATA_SIZE(hdma->Init.PeriphDataAlignment) |
 738              		.loc 1 385 23
 739 0462 7B68     		ldr	r3, [r7, #4]
 740 0464 5B69     		ldr	r3, [r3, #20]
 741 0466 DB08     		lsrs	r3, r3, #3
 384:Drivers/STM32H7xx_HAL_Driver/Src/stm32h7xx_hal_dma.c ****                       DMA_TO_BDMA_MEMORY_INC(hdma->Init.MemInc)              |
 742              		.loc 1 384 78
 743 0468 1A43     		orrs	r2, r2, r3
 386:Drivers/STM32H7xx_HAL_Driver/Src/stm32h7xx_hal_dma.c ****                       DMA_TO_BDMA_MDATA_SIZE(hdma->Init.MemDataAlignment)    |
 744              		.loc 1 386 23
ARM GAS  /var/folders/g1/j12m_ky910s3_sv7d4yrsdn00000gn/T//ccliMUVd.s 			page 21


 745 046a 7B68     		ldr	r3, [r7, #4]
 746 046c 9B69     		ldr	r3, [r3, #24]
 747 046e DB08     		lsrs	r3, r3, #3
 385:Drivers/STM32H7xx_HAL_Driver/Src/stm32h7xx_hal_dma.c ****                       DMA_TO_BDMA_PDATA_SIZE(hdma->Init.PeriphDataAlignment) |
 748              		.loc 1 385 78
 749 0470 1A43     		orrs	r2, r2, r3
 387:Drivers/STM32H7xx_HAL_Driver/Src/stm32h7xx_hal_dma.c ****                       DMA_TO_BDMA_MODE(hdma->Init.Mode)                      |
 750              		.loc 1 387 23
 751 0472 7B68     		ldr	r3, [r7, #4]
 752 0474 DB69     		ldr	r3, [r3, #28]
 753 0476 DB08     		lsrs	r3, r3, #3
 386:Drivers/STM32H7xx_HAL_Driver/Src/stm32h7xx_hal_dma.c ****                       DMA_TO_BDMA_MDATA_SIZE(hdma->Init.MemDataAlignment)    |
 754              		.loc 1 386 78
 755 0478 1A43     		orrs	r2, r2, r3
 388:Drivers/STM32H7xx_HAL_Driver/Src/stm32h7xx_hal_dma.c ****                       DMA_TO_BDMA_PRIORITY(hdma->Init.Priority);
 756              		.loc 1 388 23
 757 047a 7B68     		ldr	r3, [r7, #4]
 758 047c 1B6A     		ldr	r3, [r3, #32]
 759 047e 1B09     		lsrs	r3, r3, #4
 387:Drivers/STM32H7xx_HAL_Driver/Src/stm32h7xx_hal_dma.c ****                       DMA_TO_BDMA_MODE(hdma->Init.Mode)                      |
 760              		.loc 1 387 78
 761 0480 1343     		orrs	r3, r3, r2
 382:Drivers/STM32H7xx_HAL_Driver/Src/stm32h7xx_hal_dma.c ****                       DMA_TO_BDMA_PERIPHERAL_INC(hdma->Init.PeriphInc)       |
 762              		.loc 1 382 19
 763 0482 7A69     		ldr	r2, [r7, #20]
 764 0484 1343     		orrs	r3, r3, r2
 765 0486 7B61     		str	r3, [r7, #20]
 389:Drivers/STM32H7xx_HAL_Driver/Src/stm32h7xx_hal_dma.c **** 
 390:Drivers/STM32H7xx_HAL_Driver/Src/stm32h7xx_hal_dma.c ****     /* Write to DMA Channel CR register */
 391:Drivers/STM32H7xx_HAL_Driver/Src/stm32h7xx_hal_dma.c ****     ((BDMA_Channel_TypeDef *)hdma->Instance)->CCR = registerValue;
 766              		.loc 1 391 34
 767 0488 7B68     		ldr	r3, [r7, #4]
 768 048a 1B68     		ldr	r3, [r3]
 769              		.loc 1 391 51
 770 048c 7A69     		ldr	r2, [r7, #20]
 771 048e 1A60     		str	r2, [r3]
 392:Drivers/STM32H7xx_HAL_Driver/Src/stm32h7xx_hal_dma.c **** 
 393:Drivers/STM32H7xx_HAL_Driver/Src/stm32h7xx_hal_dma.c ****     /* calculation of the channel index */
 394:Drivers/STM32H7xx_HAL_Driver/Src/stm32h7xx_hal_dma.c ****     hdma->StreamIndex = (((uint32_t)((uint32_t*)hdma->Instance) - (uint32_t)BDMA_Channel0) / ((uint
 772              		.loc 1 394 53
 773 0490 7B68     		ldr	r3, [r7, #4]
 774 0492 1B68     		ldr	r3, [r3]
 775              		.loc 1 394 27
 776 0494 1A46     		mov	r2, r3
 777              		.loc 1 394 65
 778 0496 6E4B     		ldr	r3, .L45
 779 0498 1344     		add	r3, r3, r2
 780              		.loc 1 394 92
 781 049a 6E4A     		ldr	r2, .L45+4
 782 049c A2FB0323 		umull	r2, r3, r2, r3
 783 04a0 1B09     		lsrs	r3, r3, #4
 784              		.loc 1 394 147
 785 04a2 9A00     		lsls	r2, r3, #2
 786              		.loc 1 394 23
 787 04a4 7B68     		ldr	r3, [r7, #4]
 788 04a6 DA65     		str	r2, [r3, #92]
 395:Drivers/STM32H7xx_HAL_Driver/Src/stm32h7xx_hal_dma.c **** 
ARM GAS  /var/folders/g1/j12m_ky910s3_sv7d4yrsdn00000gn/T//ccliMUVd.s 			page 22


 396:Drivers/STM32H7xx_HAL_Driver/Src/stm32h7xx_hal_dma.c ****     /* Initialize StreamBaseAddress and StreamIndex parameters to be used to calculate
 397:Drivers/STM32H7xx_HAL_Driver/Src/stm32h7xx_hal_dma.c ****     DMA steam Base Address needed by HAL_DMA_IRQHandler() and HAL_DMA_PollForTransfer() */
 398:Drivers/STM32H7xx_HAL_Driver/Src/stm32h7xx_hal_dma.c ****     regs_bdma = (BDMA_Base_Registers *)DMA_CalcBaseAndBitshift(hdma);
 789              		.loc 1 398 40
 790 04a8 7868     		ldr	r0, [r7, #4]
 791 04aa FFF7FEFF 		bl	DMA_CalcBaseAndBitshift
 792 04ae 0346     		mov	r3, r0
 793              		.loc 1 398 15 discriminator 1
 794 04b0 FB60     		str	r3, [r7, #12]
 399:Drivers/STM32H7xx_HAL_Driver/Src/stm32h7xx_hal_dma.c **** 
 400:Drivers/STM32H7xx_HAL_Driver/Src/stm32h7xx_hal_dma.c ****     /* Clear all interrupt flags */
 401:Drivers/STM32H7xx_HAL_Driver/Src/stm32h7xx_hal_dma.c ****     regs_bdma->IFCR = ((BDMA_IFCR_CGIF0) << (hdma->StreamIndex & 0x1FU));
 795              		.loc 1 401 50
 796 04b2 7B68     		ldr	r3, [r7, #4]
 797 04b4 DB6D     		ldr	r3, [r3, #92]
 798              		.loc 1 401 64
 799 04b6 03F01F03 		and	r3, r3, #31
 800              		.loc 1 401 42
 801 04ba 0122     		movs	r2, #1
 802 04bc 9A40     		lsls	r2, r2, r3
 803              		.loc 1 401 21
 804 04be FB68     		ldr	r3, [r7, #12]
 805 04c0 5A60     		str	r2, [r3, #4]
 806 04c2 08E0     		b	.L22
 807              	.L26:
 402:Drivers/STM32H7xx_HAL_Driver/Src/stm32h7xx_hal_dma.c ****   }
 403:Drivers/STM32H7xx_HAL_Driver/Src/stm32h7xx_hal_dma.c ****   else
 404:Drivers/STM32H7xx_HAL_Driver/Src/stm32h7xx_hal_dma.c ****   {
 405:Drivers/STM32H7xx_HAL_Driver/Src/stm32h7xx_hal_dma.c ****     hdma->ErrorCode = HAL_DMA_ERROR_PARAM;
 808              		.loc 1 405 21
 809 04c4 7B68     		ldr	r3, [r7, #4]
 810 04c6 4022     		movs	r2, #64
 811 04c8 5A65     		str	r2, [r3, #84]
 406:Drivers/STM32H7xx_HAL_Driver/Src/stm32h7xx_hal_dma.c ****     hdma->State     = HAL_DMA_STATE_ERROR;
 812              		.loc 1 406 21
 813 04ca 7B68     		ldr	r3, [r7, #4]
 814 04cc 0322     		movs	r2, #3
 815 04ce 83F83520 		strb	r2, [r3, #53]
 407:Drivers/STM32H7xx_HAL_Driver/Src/stm32h7xx_hal_dma.c **** 
 408:Drivers/STM32H7xx_HAL_Driver/Src/stm32h7xx_hal_dma.c ****     return HAL_ERROR;
 816              		.loc 1 408 12
 817 04d2 0123     		movs	r3, #1
 818 04d4 B7E0     		b	.L3
 819              	.L22:
 409:Drivers/STM32H7xx_HAL_Driver/Src/stm32h7xx_hal_dma.c ****   }
 410:Drivers/STM32H7xx_HAL_Driver/Src/stm32h7xx_hal_dma.c **** 
 411:Drivers/STM32H7xx_HAL_Driver/Src/stm32h7xx_hal_dma.c ****   if(IS_DMA_DMAMUX_ALL_INSTANCE(hdma->Instance) != 0U) /* No DMAMUX available for BDMA1 */
 820              		.loc 1 411 6
 821 04d6 7B68     		ldr	r3, [r7, #4]
 822 04d8 1B68     		ldr	r3, [r3]
 823 04da 5F4A     		ldr	r2, .L45+8
 824 04dc 9342     		cmp	r3, r2
 825 04de 72D0     		beq	.L34
 826              		.loc 1 411 6 is_stmt 0 discriminator 2
 827 04e0 7B68     		ldr	r3, [r7, #4]
 828 04e2 1B68     		ldr	r3, [r3]
 829 04e4 5D4A     		ldr	r2, .L45+12
ARM GAS  /var/folders/g1/j12m_ky910s3_sv7d4yrsdn00000gn/T//ccliMUVd.s 			page 23


 830 04e6 9342     		cmp	r3, r2
 831 04e8 6DD0     		beq	.L34
 832              		.loc 1 411 6 discriminator 4
 833 04ea 7B68     		ldr	r3, [r7, #4]
 834 04ec 1B68     		ldr	r3, [r3]
 835 04ee 5C4A     		ldr	r2, .L45+16
 836 04f0 9342     		cmp	r3, r2
 837 04f2 68D0     		beq	.L34
 838              		.loc 1 411 6 discriminator 6
 839 04f4 7B68     		ldr	r3, [r7, #4]
 840 04f6 1B68     		ldr	r3, [r3]
 841 04f8 5A4A     		ldr	r2, .L45+20
 842 04fa 9342     		cmp	r3, r2
 843 04fc 63D0     		beq	.L34
 844              		.loc 1 411 6 discriminator 8
 845 04fe 7B68     		ldr	r3, [r7, #4]
 846 0500 1B68     		ldr	r3, [r3]
 847 0502 594A     		ldr	r2, .L45+24
 848 0504 9342     		cmp	r3, r2
 849 0506 5ED0     		beq	.L34
 850              		.loc 1 411 6 discriminator 10
 851 0508 7B68     		ldr	r3, [r7, #4]
 852 050a 1B68     		ldr	r3, [r3]
 853 050c 574A     		ldr	r2, .L45+28
 854 050e 9342     		cmp	r3, r2
 855 0510 59D0     		beq	.L34
 856              		.loc 1 411 6 discriminator 12
 857 0512 7B68     		ldr	r3, [r7, #4]
 858 0514 1B68     		ldr	r3, [r3]
 859 0516 564A     		ldr	r2, .L45+32
 860 0518 9342     		cmp	r3, r2
 861 051a 54D0     		beq	.L34
 862              		.loc 1 411 6 discriminator 14
 863 051c 7B68     		ldr	r3, [r7, #4]
 864 051e 1B68     		ldr	r3, [r3]
 865 0520 544A     		ldr	r2, .L45+36
 866 0522 9342     		cmp	r3, r2
 867 0524 4FD0     		beq	.L34
 868              		.loc 1 411 6 discriminator 16
 869 0526 7B68     		ldr	r3, [r7, #4]
 870 0528 1B68     		ldr	r3, [r3]
 871 052a 534A     		ldr	r2, .L45+40
 872 052c 9342     		cmp	r3, r2
 873 052e 4AD0     		beq	.L34
 874              		.loc 1 411 6 discriminator 18
 875 0530 7B68     		ldr	r3, [r7, #4]
 876 0532 1B68     		ldr	r3, [r3]
 877 0534 514A     		ldr	r2, .L45+44
 878 0536 9342     		cmp	r3, r2
 879 0538 45D0     		beq	.L34
 880              		.loc 1 411 6 discriminator 20
 881 053a 7B68     		ldr	r3, [r7, #4]
 882 053c 1B68     		ldr	r3, [r3]
 883 053e 504A     		ldr	r2, .L45+48
 884 0540 9342     		cmp	r3, r2
 885 0542 40D0     		beq	.L34
 886              		.loc 1 411 6 discriminator 22
ARM GAS  /var/folders/g1/j12m_ky910s3_sv7d4yrsdn00000gn/T//ccliMUVd.s 			page 24


 887 0544 7B68     		ldr	r3, [r7, #4]
 888 0546 1B68     		ldr	r3, [r3]
 889 0548 4E4A     		ldr	r2, .L45+52
 890 054a 9342     		cmp	r3, r2
 891 054c 3BD0     		beq	.L34
 892              		.loc 1 411 6 discriminator 24
 893 054e 7B68     		ldr	r3, [r7, #4]
 894 0550 1B68     		ldr	r3, [r3]
 895 0552 4D4A     		ldr	r2, .L45+56
 896 0554 9342     		cmp	r3, r2
 897 0556 36D0     		beq	.L34
 898              		.loc 1 411 6 discriminator 26
 899 0558 7B68     		ldr	r3, [r7, #4]
 900 055a 1B68     		ldr	r3, [r3]
 901 055c 4B4A     		ldr	r2, .L45+60
 902 055e 9342     		cmp	r3, r2
 903 0560 31D0     		beq	.L34
 904              		.loc 1 411 6 discriminator 28
 905 0562 7B68     		ldr	r3, [r7, #4]
 906 0564 1B68     		ldr	r3, [r3]
 907 0566 4A4A     		ldr	r2, .L45+64
 908 0568 9342     		cmp	r3, r2
 909 056a 2CD0     		beq	.L34
 910              		.loc 1 411 6 discriminator 30
 911 056c 7B68     		ldr	r3, [r7, #4]
 912 056e 1B68     		ldr	r3, [r3]
 913 0570 484A     		ldr	r2, .L45+68
 914 0572 9342     		cmp	r3, r2
 915 0574 27D0     		beq	.L34
 916              		.loc 1 411 6 discriminator 32
 917 0576 7B68     		ldr	r3, [r7, #4]
 918 0578 1B68     		ldr	r3, [r3]
 919 057a 474A     		ldr	r2, .L45+72
 920 057c 9342     		cmp	r3, r2
 921 057e 22D0     		beq	.L34
 922              		.loc 1 411 6 discriminator 34
 923 0580 7B68     		ldr	r3, [r7, #4]
 924 0582 1B68     		ldr	r3, [r3]
 925 0584 454A     		ldr	r2, .L45+76
 926 0586 9342     		cmp	r3, r2
 927 0588 1DD0     		beq	.L34
 928              		.loc 1 411 6 discriminator 36
 929 058a 7B68     		ldr	r3, [r7, #4]
 930 058c 1B68     		ldr	r3, [r3]
 931 058e 444A     		ldr	r2, .L45+80
 932 0590 9342     		cmp	r3, r2
 933 0592 18D0     		beq	.L34
 934              		.loc 1 411 6 discriminator 38
 935 0594 7B68     		ldr	r3, [r7, #4]
 936 0596 1B68     		ldr	r3, [r3]
 937 0598 424A     		ldr	r2, .L45+84
 938 059a 9342     		cmp	r3, r2
 939 059c 13D0     		beq	.L34
 940              		.loc 1 411 6 discriminator 40
 941 059e 7B68     		ldr	r3, [r7, #4]
 942 05a0 1B68     		ldr	r3, [r3]
 943 05a2 414A     		ldr	r2, .L45+88
ARM GAS  /var/folders/g1/j12m_ky910s3_sv7d4yrsdn00000gn/T//ccliMUVd.s 			page 25


 944 05a4 9342     		cmp	r3, r2
 945 05a6 0ED0     		beq	.L34
 946              		.loc 1 411 6 discriminator 42
 947 05a8 7B68     		ldr	r3, [r7, #4]
 948 05aa 1B68     		ldr	r3, [r3]
 949 05ac 3F4A     		ldr	r2, .L45+92
 950 05ae 9342     		cmp	r3, r2
 951 05b0 09D0     		beq	.L34
 952              		.loc 1 411 6 discriminator 44
 953 05b2 7B68     		ldr	r3, [r7, #4]
 954 05b4 1B68     		ldr	r3, [r3]
 955 05b6 3E4A     		ldr	r2, .L45+96
 956 05b8 9342     		cmp	r3, r2
 957 05ba 04D0     		beq	.L34
 958              		.loc 1 411 6 discriminator 46
 959 05bc 7B68     		ldr	r3, [r7, #4]
 960 05be 1B68     		ldr	r3, [r3]
 961 05c0 3C4A     		ldr	r2, .L45+100
 962 05c2 9342     		cmp	r3, r2
 963 05c4 01D1     		bne	.L35
 964              	.L34:
 965              		.loc 1 411 6 discriminator 47
 966 05c6 0123     		movs	r3, #1
 967              		.loc 1 411 6
 968 05c8 00E0     		b	.L36
 969              	.L35:
 970              		.loc 1 411 6 discriminator 48
 971 05ca 0023     		movs	r3, #0
 972              	.L36:
 973              		.loc 1 411 5 is_stmt 1 discriminator 50
 974 05cc 002B     		cmp	r3, #0
 975 05ce 32D0     		beq	.L37
 412:Drivers/STM32H7xx_HAL_Driver/Src/stm32h7xx_hal_dma.c ****   {
 413:Drivers/STM32H7xx_HAL_Driver/Src/stm32h7xx_hal_dma.c ****     /* Initialize parameters for DMAMUX channel :
 414:Drivers/STM32H7xx_HAL_Driver/Src/stm32h7xx_hal_dma.c ****     DMAmuxChannel, DMAmuxChannelStatus and DMAmuxChannelStatusMask
 415:Drivers/STM32H7xx_HAL_Driver/Src/stm32h7xx_hal_dma.c ****     */
 416:Drivers/STM32H7xx_HAL_Driver/Src/stm32h7xx_hal_dma.c ****     DMA_CalcDMAMUXChannelBaseAndMask(hdma);
 976              		.loc 1 416 5
 977 05d0 7868     		ldr	r0, [r7, #4]
 978 05d2 FFF7FEFF 		bl	DMA_CalcDMAMUXChannelBaseAndMask
 417:Drivers/STM32H7xx_HAL_Driver/Src/stm32h7xx_hal_dma.c **** 
 418:Drivers/STM32H7xx_HAL_Driver/Src/stm32h7xx_hal_dma.c ****     if(hdma->Init.Direction == DMA_MEMORY_TO_MEMORY)
 979              		.loc 1 418 18
 980 05d6 7B68     		ldr	r3, [r7, #4]
 981 05d8 9B68     		ldr	r3, [r3, #8]
 982              		.loc 1 418 7
 983 05da 802B     		cmp	r3, #128
 984 05dc 02D1     		bne	.L38
 419:Drivers/STM32H7xx_HAL_Driver/Src/stm32h7xx_hal_dma.c ****     {
 420:Drivers/STM32H7xx_HAL_Driver/Src/stm32h7xx_hal_dma.c ****       /* if memory to memory force the request to 0*/
 421:Drivers/STM32H7xx_HAL_Driver/Src/stm32h7xx_hal_dma.c ****       hdma->Init.Request = DMA_REQUEST_MEM2MEM;
 985              		.loc 1 421 26
 986 05de 7B68     		ldr	r3, [r7, #4]
 987 05e0 0022     		movs	r2, #0
 988 05e2 5A60     		str	r2, [r3, #4]
 989              	.L38:
 422:Drivers/STM32H7xx_HAL_Driver/Src/stm32h7xx_hal_dma.c ****     }
ARM GAS  /var/folders/g1/j12m_ky910s3_sv7d4yrsdn00000gn/T//ccliMUVd.s 			page 26


 423:Drivers/STM32H7xx_HAL_Driver/Src/stm32h7xx_hal_dma.c **** 
 424:Drivers/STM32H7xx_HAL_Driver/Src/stm32h7xx_hal_dma.c ****     /* Set peripheral request  to DMAMUX channel */
 425:Drivers/STM32H7xx_HAL_Driver/Src/stm32h7xx_hal_dma.c ****     hdma->DMAmuxChannel->CCR = (hdma->Init.Request & DMAMUX_CxCR_DMAREQ_ID);
 990              		.loc 1 425 43
 991 05e4 7B68     		ldr	r3, [r7, #4]
 992 05e6 5A68     		ldr	r2, [r3, #4]
 993              		.loc 1 425 9
 994 05e8 7B68     		ldr	r3, [r7, #4]
 995 05ea 1B6E     		ldr	r3, [r3, #96]
 996              		.loc 1 425 52
 997 05ec D2B2     		uxtb	r2, r2
 998              		.loc 1 425 30
 999 05ee 1A60     		str	r2, [r3]
 426:Drivers/STM32H7xx_HAL_Driver/Src/stm32h7xx_hal_dma.c **** 
 427:Drivers/STM32H7xx_HAL_Driver/Src/stm32h7xx_hal_dma.c ****     /* Clear the DMAMUX synchro overrun flag */
 428:Drivers/STM32H7xx_HAL_Driver/Src/stm32h7xx_hal_dma.c ****     hdma->DMAmuxChannelStatus->CFR = hdma->DMAmuxChannelStatusMask;
 1000              		.loc 1 428 9
 1001 05f0 7B68     		ldr	r3, [r7, #4]
 1002 05f2 5B6E     		ldr	r3, [r3, #100]
 1003              		.loc 1 428 42
 1004 05f4 7A68     		ldr	r2, [r7, #4]
 1005 05f6 926E     		ldr	r2, [r2, #104]
 1006              		.loc 1 428 36
 1007 05f8 5A60     		str	r2, [r3, #4]
 429:Drivers/STM32H7xx_HAL_Driver/Src/stm32h7xx_hal_dma.c **** 
 430:Drivers/STM32H7xx_HAL_Driver/Src/stm32h7xx_hal_dma.c ****     /* Initialize parameters for DMAMUX request generator :
 431:Drivers/STM32H7xx_HAL_Driver/Src/stm32h7xx_hal_dma.c ****     if the DMA request is DMA_REQUEST_GENERATOR0 to DMA_REQUEST_GENERATOR7
 432:Drivers/STM32H7xx_HAL_Driver/Src/stm32h7xx_hal_dma.c ****     */
 433:Drivers/STM32H7xx_HAL_Driver/Src/stm32h7xx_hal_dma.c ****     if((hdma->Init.Request >= DMA_REQUEST_GENERATOR0) && (hdma->Init.Request <= DMA_REQUEST_GENERAT
 1008              		.loc 1 433 19
 1009 05fa 7B68     		ldr	r3, [r7, #4]
 1010 05fc 5B68     		ldr	r3, [r3, #4]
 1011              		.loc 1 433 7
 1012 05fe 002B     		cmp	r3, #0
 1013 0600 10D0     		beq	.L39
 1014              		.loc 1 433 69 discriminator 1
 1015 0602 7B68     		ldr	r3, [r7, #4]
 1016 0604 5B68     		ldr	r3, [r3, #4]
 1017              		.loc 1 433 55 discriminator 1
 1018 0606 082B     		cmp	r3, #8
 1019 0608 0CD8     		bhi	.L39
 434:Drivers/STM32H7xx_HAL_Driver/Src/stm32h7xx_hal_dma.c ****     {
 435:Drivers/STM32H7xx_HAL_Driver/Src/stm32h7xx_hal_dma.c ****       /* Initialize parameters for DMAMUX request generator :
 436:Drivers/STM32H7xx_HAL_Driver/Src/stm32h7xx_hal_dma.c ****       DMAmuxRequestGen, DMAmuxRequestGenStatus and DMAmuxRequestGenStatusMask */
 437:Drivers/STM32H7xx_HAL_Driver/Src/stm32h7xx_hal_dma.c ****       DMA_CalcDMAMUXRequestGenBaseAndMask(hdma);
 1020              		.loc 1 437 7
 1021 060a 7868     		ldr	r0, [r7, #4]
 1022 060c FFF7FEFF 		bl	DMA_CalcDMAMUXRequestGenBaseAndMask
 438:Drivers/STM32H7xx_HAL_Driver/Src/stm32h7xx_hal_dma.c **** 
 439:Drivers/STM32H7xx_HAL_Driver/Src/stm32h7xx_hal_dma.c ****       /* Reset the DMAMUX request generator register */
 440:Drivers/STM32H7xx_HAL_Driver/Src/stm32h7xx_hal_dma.c ****       hdma->DMAmuxRequestGen->RGCR = 0U;
 1023              		.loc 1 440 11
 1024 0610 7B68     		ldr	r3, [r7, #4]
 1025 0612 DB6E     		ldr	r3, [r3, #108]
 1026              		.loc 1 440 36
 1027 0614 0022     		movs	r2, #0
 1028 0616 1A60     		str	r2, [r3]
ARM GAS  /var/folders/g1/j12m_ky910s3_sv7d4yrsdn00000gn/T//ccliMUVd.s 			page 27


 441:Drivers/STM32H7xx_HAL_Driver/Src/stm32h7xx_hal_dma.c **** 
 442:Drivers/STM32H7xx_HAL_Driver/Src/stm32h7xx_hal_dma.c ****       /* Clear the DMAMUX request generator overrun flag */
 443:Drivers/STM32H7xx_HAL_Driver/Src/stm32h7xx_hal_dma.c ****       hdma->DMAmuxRequestGenStatus->RGCFR = hdma->DMAmuxRequestGenStatusMask;
 1029              		.loc 1 443 11
 1030 0618 7B68     		ldr	r3, [r7, #4]
 1031 061a 1B6F     		ldr	r3, [r3, #112]
 1032              		.loc 1 443 49
 1033 061c 7A68     		ldr	r2, [r7, #4]
 1034 061e 526F     		ldr	r2, [r2, #116]
 1035              		.loc 1 443 43
 1036 0620 5A60     		str	r2, [r3, #4]
 1037 0622 08E0     		b	.L37
 1038              	.L39:
 444:Drivers/STM32H7xx_HAL_Driver/Src/stm32h7xx_hal_dma.c ****     }
 445:Drivers/STM32H7xx_HAL_Driver/Src/stm32h7xx_hal_dma.c ****     else
 446:Drivers/STM32H7xx_HAL_Driver/Src/stm32h7xx_hal_dma.c ****     {
 447:Drivers/STM32H7xx_HAL_Driver/Src/stm32h7xx_hal_dma.c ****       hdma->DMAmuxRequestGen = 0U;
 1039              		.loc 1 447 30
 1040 0624 7B68     		ldr	r3, [r7, #4]
 1041 0626 0022     		movs	r2, #0
 1042 0628 DA66     		str	r2, [r3, #108]
 448:Drivers/STM32H7xx_HAL_Driver/Src/stm32h7xx_hal_dma.c ****       hdma->DMAmuxRequestGenStatus = 0U;
 1043              		.loc 1 448 36
 1044 062a 7B68     		ldr	r3, [r7, #4]
 1045 062c 0022     		movs	r2, #0
 1046 062e 1A67     		str	r2, [r3, #112]
 449:Drivers/STM32H7xx_HAL_Driver/Src/stm32h7xx_hal_dma.c ****       hdma->DMAmuxRequestGenStatusMask = 0U;
 1047              		.loc 1 449 40
 1048 0630 7B68     		ldr	r3, [r7, #4]
 1049 0632 0022     		movs	r2, #0
 1050 0634 5A67     		str	r2, [r3, #116]
 1051              	.L37:
 450:Drivers/STM32H7xx_HAL_Driver/Src/stm32h7xx_hal_dma.c ****     }
 451:Drivers/STM32H7xx_HAL_Driver/Src/stm32h7xx_hal_dma.c ****   }
 452:Drivers/STM32H7xx_HAL_Driver/Src/stm32h7xx_hal_dma.c **** 
 453:Drivers/STM32H7xx_HAL_Driver/Src/stm32h7xx_hal_dma.c ****   /* Initialize the error code */
 454:Drivers/STM32H7xx_HAL_Driver/Src/stm32h7xx_hal_dma.c ****   hdma->ErrorCode = HAL_DMA_ERROR_NONE;
 1052              		.loc 1 454 19
 1053 0636 7B68     		ldr	r3, [r7, #4]
 1054 0638 0022     		movs	r2, #0
 1055 063a 5A65     		str	r2, [r3, #84]
 455:Drivers/STM32H7xx_HAL_Driver/Src/stm32h7xx_hal_dma.c **** 
 456:Drivers/STM32H7xx_HAL_Driver/Src/stm32h7xx_hal_dma.c ****   /* Initialize the DMA state */
 457:Drivers/STM32H7xx_HAL_Driver/Src/stm32h7xx_hal_dma.c ****   hdma->State = HAL_DMA_STATE_READY;
 1056              		.loc 1 457 15
 1057 063c 7B68     		ldr	r3, [r7, #4]
 1058 063e 0122     		movs	r2, #1
 1059 0640 83F83520 		strb	r2, [r3, #53]
 458:Drivers/STM32H7xx_HAL_Driver/Src/stm32h7xx_hal_dma.c **** 
 459:Drivers/STM32H7xx_HAL_Driver/Src/stm32h7xx_hal_dma.c ****   return HAL_OK;
 1060              		.loc 1 459 10
 1061 0644 0023     		movs	r3, #0
 1062              	.L3:
 460:Drivers/STM32H7xx_HAL_Driver/Src/stm32h7xx_hal_dma.c **** }
 1063              		.loc 1 460 1
 1064 0646 1846     		mov	r0, r3
 1065 0648 1837     		adds	r7, r7, #24
ARM GAS  /var/folders/g1/j12m_ky910s3_sv7d4yrsdn00000gn/T//ccliMUVd.s 			page 28


 1066              	.LCFI3:
 1067              		.cfi_def_cfa_offset 8
 1068 064a BD46     		mov	sp, r7
 1069              	.LCFI4:
 1070              		.cfi_def_cfa_register 13
 1071              		@ sp needed
 1072 064c 80BD     		pop	{r7, pc}
 1073              	.L46:
 1074 064e 00BF     		.align	2
 1075              	.L45:
 1076 0650 F8ABFDA7 		.word	-1476547592
 1077 0654 CDCCCCCC 		.word	-858993459
 1078 0658 10000240 		.word	1073872912
 1079 065c 28000240 		.word	1073872936
 1080 0660 40000240 		.word	1073872960
 1081 0664 58000240 		.word	1073872984
 1082 0668 70000240 		.word	1073873008
 1083 066c 88000240 		.word	1073873032
 1084 0670 A0000240 		.word	1073873056
 1085 0674 B8000240 		.word	1073873080
 1086 0678 10040240 		.word	1073873936
 1087 067c 28040240 		.word	1073873960
 1088 0680 40040240 		.word	1073873984
 1089 0684 58040240 		.word	1073874008
 1090 0688 70040240 		.word	1073874032
 1091 068c 88040240 		.word	1073874056
 1092 0690 A0040240 		.word	1073874080
 1093 0694 B8040240 		.word	1073874104
 1094 0698 08540258 		.word	1476547592
 1095 069c 1C540258 		.word	1476547612
 1096 06a0 30540258 		.word	1476547632
 1097 06a4 44540258 		.word	1476547652
 1098 06a8 58540258 		.word	1476547672
 1099 06ac 6C540258 		.word	1476547692
 1100 06b0 80540258 		.word	1476547712
 1101 06b4 94540258 		.word	1476547732
 1102              		.cfi_endproc
 1103              	.LFE144:
 1105              		.section	.text.HAL_DMA_DeInit,"ax",%progbits
 1106              		.align	1
 1107              		.global	HAL_DMA_DeInit
 1108              		.syntax unified
 1109              		.thumb
 1110              		.thumb_func
 1112              	HAL_DMA_DeInit:
 1113              	.LFB145:
 461:Drivers/STM32H7xx_HAL_Driver/Src/stm32h7xx_hal_dma.c **** 
 462:Drivers/STM32H7xx_HAL_Driver/Src/stm32h7xx_hal_dma.c **** /**
 463:Drivers/STM32H7xx_HAL_Driver/Src/stm32h7xx_hal_dma.c ****   * @brief  DeInitializes the DMA peripheral
 464:Drivers/STM32H7xx_HAL_Driver/Src/stm32h7xx_hal_dma.c ****   * @param  hdma: pointer to a DMA_HandleTypeDef structure that contains
 465:Drivers/STM32H7xx_HAL_Driver/Src/stm32h7xx_hal_dma.c ****   *               the configuration information for the specified DMA Stream.
 466:Drivers/STM32H7xx_HAL_Driver/Src/stm32h7xx_hal_dma.c ****   * @retval HAL status
 467:Drivers/STM32H7xx_HAL_Driver/Src/stm32h7xx_hal_dma.c ****   */
 468:Drivers/STM32H7xx_HAL_Driver/Src/stm32h7xx_hal_dma.c **** HAL_StatusTypeDef HAL_DMA_DeInit(DMA_HandleTypeDef *hdma)
 469:Drivers/STM32H7xx_HAL_Driver/Src/stm32h7xx_hal_dma.c **** {
 1114              		.loc 1 469 1
 1115              		.cfi_startproc
ARM GAS  /var/folders/g1/j12m_ky910s3_sv7d4yrsdn00000gn/T//ccliMUVd.s 			page 29


 1116              		@ args = 0, pretend = 0, frame = 16
 1117              		@ frame_needed = 1, uses_anonymous_args = 0
 1118 0000 80B5     		push	{r7, lr}
 1119              	.LCFI5:
 1120              		.cfi_def_cfa_offset 8
 1121              		.cfi_offset 7, -8
 1122              		.cfi_offset 14, -4
 1123 0002 84B0     		sub	sp, sp, #16
 1124              	.LCFI6:
 1125              		.cfi_def_cfa_offset 24
 1126 0004 00AF     		add	r7, sp, #0
 1127              	.LCFI7:
 1128              		.cfi_def_cfa_register 7
 1129 0006 7860     		str	r0, [r7, #4]
 470:Drivers/STM32H7xx_HAL_Driver/Src/stm32h7xx_hal_dma.c ****   DMA_Base_Registers *regs_dma;
 471:Drivers/STM32H7xx_HAL_Driver/Src/stm32h7xx_hal_dma.c ****   BDMA_Base_Registers *regs_bdma;
 472:Drivers/STM32H7xx_HAL_Driver/Src/stm32h7xx_hal_dma.c **** 
 473:Drivers/STM32H7xx_HAL_Driver/Src/stm32h7xx_hal_dma.c ****   /* Check the DMA peripheral handle */
 474:Drivers/STM32H7xx_HAL_Driver/Src/stm32h7xx_hal_dma.c ****   if(hdma == NULL)
 1130              		.loc 1 474 5
 1131 0008 7B68     		ldr	r3, [r7, #4]
 1132 000a 002B     		cmp	r3, #0
 1133 000c 01D1     		bne	.L48
 475:Drivers/STM32H7xx_HAL_Driver/Src/stm32h7xx_hal_dma.c ****   {
 476:Drivers/STM32H7xx_HAL_Driver/Src/stm32h7xx_hal_dma.c ****     return HAL_ERROR;
 1134              		.loc 1 476 12
 1135 000e 0123     		movs	r3, #1
 1136 0010 A8E1     		b	.L49
 1137              	.L48:
 477:Drivers/STM32H7xx_HAL_Driver/Src/stm32h7xx_hal_dma.c ****   }
 478:Drivers/STM32H7xx_HAL_Driver/Src/stm32h7xx_hal_dma.c **** 
 479:Drivers/STM32H7xx_HAL_Driver/Src/stm32h7xx_hal_dma.c ****   /* Disable the selected DMA Streamx */
 480:Drivers/STM32H7xx_HAL_Driver/Src/stm32h7xx_hal_dma.c ****   __HAL_DMA_DISABLE(hdma);
 1138              		.loc 1 480 3
 1139 0012 7B68     		ldr	r3, [r7, #4]
 1140 0014 1B68     		ldr	r3, [r3]
 1141 0016 824A     		ldr	r2, .L64
 1142 0018 9342     		cmp	r3, r2
 1143 001a 4AD0     		beq	.L50
 1144              		.loc 1 480 3 is_stmt 0 discriminator 2
 1145 001c 7B68     		ldr	r3, [r7, #4]
 1146 001e 1B68     		ldr	r3, [r3]
 1147 0020 804A     		ldr	r2, .L64+4
 1148 0022 9342     		cmp	r3, r2
 1149 0024 45D0     		beq	.L50
 1150              		.loc 1 480 3 discriminator 4
 1151 0026 7B68     		ldr	r3, [r7, #4]
 1152 0028 1B68     		ldr	r3, [r3]
 1153 002a 7F4A     		ldr	r2, .L64+8
 1154 002c 9342     		cmp	r3, r2
 1155 002e 40D0     		beq	.L50
 1156              		.loc 1 480 3 discriminator 6
 1157 0030 7B68     		ldr	r3, [r7, #4]
 1158 0032 1B68     		ldr	r3, [r3]
 1159 0034 7D4A     		ldr	r2, .L64+12
 1160 0036 9342     		cmp	r3, r2
 1161 0038 3BD0     		beq	.L50
ARM GAS  /var/folders/g1/j12m_ky910s3_sv7d4yrsdn00000gn/T//ccliMUVd.s 			page 30


 1162              		.loc 1 480 3 discriminator 8
 1163 003a 7B68     		ldr	r3, [r7, #4]
 1164 003c 1B68     		ldr	r3, [r3]
 1165 003e 7C4A     		ldr	r2, .L64+16
 1166 0040 9342     		cmp	r3, r2
 1167 0042 36D0     		beq	.L50
 1168              		.loc 1 480 3 discriminator 10
 1169 0044 7B68     		ldr	r3, [r7, #4]
 1170 0046 1B68     		ldr	r3, [r3]
 1171 0048 7A4A     		ldr	r2, .L64+20
 1172 004a 9342     		cmp	r3, r2
 1173 004c 31D0     		beq	.L50
 1174              		.loc 1 480 3 discriminator 12
 1175 004e 7B68     		ldr	r3, [r7, #4]
 1176 0050 1B68     		ldr	r3, [r3]
 1177 0052 794A     		ldr	r2, .L64+24
 1178 0054 9342     		cmp	r3, r2
 1179 0056 2CD0     		beq	.L50
 1180              		.loc 1 480 3 discriminator 14
 1181 0058 7B68     		ldr	r3, [r7, #4]
 1182 005a 1B68     		ldr	r3, [r3]
 1183 005c 774A     		ldr	r2, .L64+28
 1184 005e 9342     		cmp	r3, r2
 1185 0060 27D0     		beq	.L50
 1186              		.loc 1 480 3 discriminator 16
 1187 0062 7B68     		ldr	r3, [r7, #4]
 1188 0064 1B68     		ldr	r3, [r3]
 1189 0066 764A     		ldr	r2, .L64+32
 1190 0068 9342     		cmp	r3, r2
 1191 006a 22D0     		beq	.L50
 1192              		.loc 1 480 3 discriminator 18
 1193 006c 7B68     		ldr	r3, [r7, #4]
 1194 006e 1B68     		ldr	r3, [r3]
 1195 0070 744A     		ldr	r2, .L64+36
 1196 0072 9342     		cmp	r3, r2
 1197 0074 1DD0     		beq	.L50
 1198              		.loc 1 480 3 discriminator 20
 1199 0076 7B68     		ldr	r3, [r7, #4]
 1200 0078 1B68     		ldr	r3, [r3]
 1201 007a 734A     		ldr	r2, .L64+40
 1202 007c 9342     		cmp	r3, r2
 1203 007e 18D0     		beq	.L50
 1204              		.loc 1 480 3 discriminator 22
 1205 0080 7B68     		ldr	r3, [r7, #4]
 1206 0082 1B68     		ldr	r3, [r3]
 1207 0084 714A     		ldr	r2, .L64+44
 1208 0086 9342     		cmp	r3, r2
 1209 0088 13D0     		beq	.L50
 1210              		.loc 1 480 3 discriminator 24
 1211 008a 7B68     		ldr	r3, [r7, #4]
 1212 008c 1B68     		ldr	r3, [r3]
 1213 008e 704A     		ldr	r2, .L64+48
 1214 0090 9342     		cmp	r3, r2
 1215 0092 0ED0     		beq	.L50
 1216              		.loc 1 480 3 discriminator 26
 1217 0094 7B68     		ldr	r3, [r7, #4]
 1218 0096 1B68     		ldr	r3, [r3]
ARM GAS  /var/folders/g1/j12m_ky910s3_sv7d4yrsdn00000gn/T//ccliMUVd.s 			page 31


 1219 0098 6E4A     		ldr	r2, .L64+52
 1220 009a 9342     		cmp	r3, r2
 1221 009c 09D0     		beq	.L50
 1222              		.loc 1 480 3 discriminator 28
 1223 009e 7B68     		ldr	r3, [r7, #4]
 1224 00a0 1B68     		ldr	r3, [r3]
 1225 00a2 6D4A     		ldr	r2, .L64+56
 1226 00a4 9342     		cmp	r3, r2
 1227 00a6 04D0     		beq	.L50
 1228              		.loc 1 480 3 discriminator 30
 1229 00a8 7B68     		ldr	r3, [r7, #4]
 1230 00aa 1B68     		ldr	r3, [r3]
 1231 00ac 6B4A     		ldr	r2, .L64+60
 1232 00ae 9342     		cmp	r3, r2
 1233 00b0 08D1     		bne	.L51
 1234              	.L50:
 1235              		.loc 1 480 3 discriminator 31
 1236 00b2 7B68     		ldr	r3, [r7, #4]
 1237 00b4 1B68     		ldr	r3, [r3]
 1238 00b6 1A68     		ldr	r2, [r3]
 1239 00b8 7B68     		ldr	r3, [r7, #4]
 1240 00ba 1B68     		ldr	r3, [r3]
 1241 00bc 22F00102 		bic	r2, r2, #1
 1242 00c0 1A60     		str	r2, [r3]
 1243              		.loc 1 480 3
 1244 00c2 07E0     		b	.L52
 1245              	.L51:
 1246              		.loc 1 480 3 discriminator 32
 1247 00c4 7B68     		ldr	r3, [r7, #4]
 1248 00c6 1B68     		ldr	r3, [r3]
 1249 00c8 1A68     		ldr	r2, [r3]
 1250 00ca 7B68     		ldr	r3, [r7, #4]
 1251 00cc 1B68     		ldr	r3, [r3]
 1252 00ce 22F00102 		bic	r2, r2, #1
 1253 00d2 1A60     		str	r2, [r3]
 1254              	.L52:
 481:Drivers/STM32H7xx_HAL_Driver/Src/stm32h7xx_hal_dma.c **** 
 482:Drivers/STM32H7xx_HAL_Driver/Src/stm32h7xx_hal_dma.c ****   if(IS_DMA_STREAM_INSTANCE(hdma->Instance) != 0U) /* DMA1 or DMA2 instance */
 1255              		.loc 1 482 6 is_stmt 1
 1256 00d4 7B68     		ldr	r3, [r7, #4]
 1257 00d6 1B68     		ldr	r3, [r3]
 1258 00d8 514A     		ldr	r2, .L64
 1259 00da 9342     		cmp	r3, r2
 1260 00dc 4AD0     		beq	.L53
 1261              		.loc 1 482 6 is_stmt 0 discriminator 2
 1262 00de 7B68     		ldr	r3, [r7, #4]
 1263 00e0 1B68     		ldr	r3, [r3]
 1264 00e2 504A     		ldr	r2, .L64+4
 1265 00e4 9342     		cmp	r3, r2
 1266 00e6 45D0     		beq	.L53
 1267              		.loc 1 482 6 discriminator 4
 1268 00e8 7B68     		ldr	r3, [r7, #4]
 1269 00ea 1B68     		ldr	r3, [r3]
 1270 00ec 4E4A     		ldr	r2, .L64+8
 1271 00ee 9342     		cmp	r3, r2
 1272 00f0 40D0     		beq	.L53
 1273              		.loc 1 482 6 discriminator 6
ARM GAS  /var/folders/g1/j12m_ky910s3_sv7d4yrsdn00000gn/T//ccliMUVd.s 			page 32


 1274 00f2 7B68     		ldr	r3, [r7, #4]
 1275 00f4 1B68     		ldr	r3, [r3]
 1276 00f6 4D4A     		ldr	r2, .L64+12
 1277 00f8 9342     		cmp	r3, r2
 1278 00fa 3BD0     		beq	.L53
 1279              		.loc 1 482 6 discriminator 8
 1280 00fc 7B68     		ldr	r3, [r7, #4]
 1281 00fe 1B68     		ldr	r3, [r3]
 1282 0100 4B4A     		ldr	r2, .L64+16
 1283 0102 9342     		cmp	r3, r2
 1284 0104 36D0     		beq	.L53
 1285              		.loc 1 482 6 discriminator 10
 1286 0106 7B68     		ldr	r3, [r7, #4]
 1287 0108 1B68     		ldr	r3, [r3]
 1288 010a 4A4A     		ldr	r2, .L64+20
 1289 010c 9342     		cmp	r3, r2
 1290 010e 31D0     		beq	.L53
 1291              		.loc 1 482 6 discriminator 12
 1292 0110 7B68     		ldr	r3, [r7, #4]
 1293 0112 1B68     		ldr	r3, [r3]
 1294 0114 484A     		ldr	r2, .L64+24
 1295 0116 9342     		cmp	r3, r2
 1296 0118 2CD0     		beq	.L53
 1297              		.loc 1 482 6 discriminator 14
 1298 011a 7B68     		ldr	r3, [r7, #4]
 1299 011c 1B68     		ldr	r3, [r3]
 1300 011e 474A     		ldr	r2, .L64+28
 1301 0120 9342     		cmp	r3, r2
 1302 0122 27D0     		beq	.L53
 1303              		.loc 1 482 6 discriminator 16
 1304 0124 7B68     		ldr	r3, [r7, #4]
 1305 0126 1B68     		ldr	r3, [r3]
 1306 0128 454A     		ldr	r2, .L64+32
 1307 012a 9342     		cmp	r3, r2
 1308 012c 22D0     		beq	.L53
 1309              		.loc 1 482 6 discriminator 18
 1310 012e 7B68     		ldr	r3, [r7, #4]
 1311 0130 1B68     		ldr	r3, [r3]
 1312 0132 444A     		ldr	r2, .L64+36
 1313 0134 9342     		cmp	r3, r2
 1314 0136 1DD0     		beq	.L53
 1315              		.loc 1 482 6 discriminator 20
 1316 0138 7B68     		ldr	r3, [r7, #4]
 1317 013a 1B68     		ldr	r3, [r3]
 1318 013c 424A     		ldr	r2, .L64+40
 1319 013e 9342     		cmp	r3, r2
 1320 0140 18D0     		beq	.L53
 1321              		.loc 1 482 6 discriminator 22
 1322 0142 7B68     		ldr	r3, [r7, #4]
 1323 0144 1B68     		ldr	r3, [r3]
 1324 0146 414A     		ldr	r2, .L64+44
 1325 0148 9342     		cmp	r3, r2
 1326 014a 13D0     		beq	.L53
 1327              		.loc 1 482 6 discriminator 24
 1328 014c 7B68     		ldr	r3, [r7, #4]
 1329 014e 1B68     		ldr	r3, [r3]
 1330 0150 3F4A     		ldr	r2, .L64+48
ARM GAS  /var/folders/g1/j12m_ky910s3_sv7d4yrsdn00000gn/T//ccliMUVd.s 			page 33


 1331 0152 9342     		cmp	r3, r2
 1332 0154 0ED0     		beq	.L53
 1333              		.loc 1 482 6 discriminator 26
 1334 0156 7B68     		ldr	r3, [r7, #4]
 1335 0158 1B68     		ldr	r3, [r3]
 1336 015a 3E4A     		ldr	r2, .L64+52
 1337 015c 9342     		cmp	r3, r2
 1338 015e 09D0     		beq	.L53
 1339              		.loc 1 482 6 discriminator 28
 1340 0160 7B68     		ldr	r3, [r7, #4]
 1341 0162 1B68     		ldr	r3, [r3]
 1342 0164 3C4A     		ldr	r2, .L64+56
 1343 0166 9342     		cmp	r3, r2
 1344 0168 04D0     		beq	.L53
 1345              		.loc 1 482 6 discriminator 30
 1346 016a 7B68     		ldr	r3, [r7, #4]
 1347 016c 1B68     		ldr	r3, [r3]
 1348 016e 3B4A     		ldr	r2, .L64+60
 1349 0170 9342     		cmp	r3, r2
 1350 0172 01D1     		bne	.L54
 1351              	.L53:
 1352              		.loc 1 482 6 discriminator 31
 1353 0174 0123     		movs	r3, #1
 1354              		.loc 1 482 6
 1355 0176 00E0     		b	.L55
 1356              	.L54:
 1357              		.loc 1 482 6 discriminator 32
 1358 0178 0023     		movs	r3, #0
 1359              	.L55:
 1360              		.loc 1 482 5 is_stmt 1 discriminator 34
 1361 017a 002B     		cmp	r3, #0
 1362 017c 25D0     		beq	.L56
 483:Drivers/STM32H7xx_HAL_Driver/Src/stm32h7xx_hal_dma.c ****   {
 484:Drivers/STM32H7xx_HAL_Driver/Src/stm32h7xx_hal_dma.c ****     /* Reset DMA Streamx control register */
 485:Drivers/STM32H7xx_HAL_Driver/Src/stm32h7xx_hal_dma.c ****     ((DMA_Stream_TypeDef   *)hdma->Instance)->CR   = 0U;
 1363              		.loc 1 485 34
 1364 017e 7B68     		ldr	r3, [r7, #4]
 1365 0180 1B68     		ldr	r3, [r3]
 1366              		.loc 1 485 52
 1367 0182 0022     		movs	r2, #0
 1368 0184 1A60     		str	r2, [r3]
 486:Drivers/STM32H7xx_HAL_Driver/Src/stm32h7xx_hal_dma.c **** 
 487:Drivers/STM32H7xx_HAL_Driver/Src/stm32h7xx_hal_dma.c ****     /* Reset DMA Streamx number of data to transfer register */
 488:Drivers/STM32H7xx_HAL_Driver/Src/stm32h7xx_hal_dma.c ****     ((DMA_Stream_TypeDef   *)hdma->Instance)->NDTR = 0U;
 1369              		.loc 1 488 34
 1370 0186 7B68     		ldr	r3, [r7, #4]
 1371 0188 1B68     		ldr	r3, [r3]
 1372              		.loc 1 488 52
 1373 018a 0022     		movs	r2, #0
 1374 018c 5A60     		str	r2, [r3, #4]
 489:Drivers/STM32H7xx_HAL_Driver/Src/stm32h7xx_hal_dma.c **** 
 490:Drivers/STM32H7xx_HAL_Driver/Src/stm32h7xx_hal_dma.c ****     /* Reset DMA Streamx peripheral address register */
 491:Drivers/STM32H7xx_HAL_Driver/Src/stm32h7xx_hal_dma.c ****     ((DMA_Stream_TypeDef   *)hdma->Instance)->PAR  = 0U;
 1375              		.loc 1 491 34
 1376 018e 7B68     		ldr	r3, [r7, #4]
 1377 0190 1B68     		ldr	r3, [r3]
 1378              		.loc 1 491 52
ARM GAS  /var/folders/g1/j12m_ky910s3_sv7d4yrsdn00000gn/T//ccliMUVd.s 			page 34


 1379 0192 0022     		movs	r2, #0
 1380 0194 9A60     		str	r2, [r3, #8]
 492:Drivers/STM32H7xx_HAL_Driver/Src/stm32h7xx_hal_dma.c **** 
 493:Drivers/STM32H7xx_HAL_Driver/Src/stm32h7xx_hal_dma.c ****     /* Reset DMA Streamx memory 0 address register */
 494:Drivers/STM32H7xx_HAL_Driver/Src/stm32h7xx_hal_dma.c ****     ((DMA_Stream_TypeDef   *)hdma->Instance)->M0AR = 0U;
 1381              		.loc 1 494 34
 1382 0196 7B68     		ldr	r3, [r7, #4]
 1383 0198 1B68     		ldr	r3, [r3]
 1384              		.loc 1 494 52
 1385 019a 0022     		movs	r2, #0
 1386 019c DA60     		str	r2, [r3, #12]
 495:Drivers/STM32H7xx_HAL_Driver/Src/stm32h7xx_hal_dma.c **** 
 496:Drivers/STM32H7xx_HAL_Driver/Src/stm32h7xx_hal_dma.c ****     /* Reset DMA Streamx memory 1 address register */
 497:Drivers/STM32H7xx_HAL_Driver/Src/stm32h7xx_hal_dma.c ****     ((DMA_Stream_TypeDef   *)hdma->Instance)->M1AR = 0U;
 1387              		.loc 1 497 34
 1388 019e 7B68     		ldr	r3, [r7, #4]
 1389 01a0 1B68     		ldr	r3, [r3]
 1390              		.loc 1 497 52
 1391 01a2 0022     		movs	r2, #0
 1392 01a4 1A61     		str	r2, [r3, #16]
 498:Drivers/STM32H7xx_HAL_Driver/Src/stm32h7xx_hal_dma.c **** 
 499:Drivers/STM32H7xx_HAL_Driver/Src/stm32h7xx_hal_dma.c ****     /* Reset DMA Streamx FIFO control register */
 500:Drivers/STM32H7xx_HAL_Driver/Src/stm32h7xx_hal_dma.c ****     ((DMA_Stream_TypeDef   *)hdma->Instance)->FCR  = (uint32_t)0x00000021U;
 1393              		.loc 1 500 34
 1394 01a6 7B68     		ldr	r3, [r7, #4]
 1395 01a8 1B68     		ldr	r3, [r3]
 1396              		.loc 1 500 52
 1397 01aa 2122     		movs	r2, #33
 1398 01ac 5A61     		str	r2, [r3, #20]
 501:Drivers/STM32H7xx_HAL_Driver/Src/stm32h7xx_hal_dma.c **** 
 502:Drivers/STM32H7xx_HAL_Driver/Src/stm32h7xx_hal_dma.c ****     /* Get DMA steam Base Address */
 503:Drivers/STM32H7xx_HAL_Driver/Src/stm32h7xx_hal_dma.c ****     regs_dma = (DMA_Base_Registers *)DMA_CalcBaseAndBitshift(hdma);
 1399              		.loc 1 503 38
 1400 01ae 7868     		ldr	r0, [r7, #4]
 1401 01b0 FFF7FEFF 		bl	DMA_CalcBaseAndBitshift
 1402 01b4 0346     		mov	r3, r0
 1403              		.loc 1 503 14 discriminator 1
 1404 01b6 BB60     		str	r3, [r7, #8]
 504:Drivers/STM32H7xx_HAL_Driver/Src/stm32h7xx_hal_dma.c **** 
 505:Drivers/STM32H7xx_HAL_Driver/Src/stm32h7xx_hal_dma.c ****     /* Clear all interrupt flags at correct offset within the register */
 506:Drivers/STM32H7xx_HAL_Driver/Src/stm32h7xx_hal_dma.c ****     regs_dma->IFCR = 0x3FUL << (hdma->StreamIndex & 0x1FU);
 1405              		.loc 1 506 37
 1406 01b8 7B68     		ldr	r3, [r7, #4]
 1407 01ba DB6D     		ldr	r3, [r3, #92]
 1408              		.loc 1 506 51
 1409 01bc 03F01F03 		and	r3, r3, #31
 1410              		.loc 1 506 29
 1411 01c0 3F22     		movs	r2, #63
 1412 01c2 9A40     		lsls	r2, r2, r3
 1413              		.loc 1 506 20
 1414 01c4 BB68     		ldr	r3, [r7, #8]
 1415 01c6 9A60     		str	r2, [r3, #8]
 1416 01c8 81E0     		b	.L57
 1417              	.L56:
 507:Drivers/STM32H7xx_HAL_Driver/Src/stm32h7xx_hal_dma.c ****   }
 508:Drivers/STM32H7xx_HAL_Driver/Src/stm32h7xx_hal_dma.c ****   else if(IS_BDMA_CHANNEL_INSTANCE(hdma->Instance) != 0U) /* BDMA instance(s) */
 1418              		.loc 1 508 11
ARM GAS  /var/folders/g1/j12m_ky910s3_sv7d4yrsdn00000gn/T//ccliMUVd.s 			page 35


 1419 01ca 7B68     		ldr	r3, [r7, #4]
 1420 01cc 1B68     		ldr	r3, [r3]
 1421 01ce 244A     		ldr	r2, .L64+64
 1422 01d0 9342     		cmp	r3, r2
 1423 01d2 22D0     		beq	.L58
 1424              		.loc 1 508 11 is_stmt 0 discriminator 2
 1425 01d4 7B68     		ldr	r3, [r7, #4]
 1426 01d6 1B68     		ldr	r3, [r3]
 1427 01d8 224A     		ldr	r2, .L64+68
 1428 01da 9342     		cmp	r3, r2
 1429 01dc 1DD0     		beq	.L58
 1430              		.loc 1 508 11 discriminator 4
 1431 01de 7B68     		ldr	r3, [r7, #4]
 1432 01e0 1B68     		ldr	r3, [r3]
 1433 01e2 214A     		ldr	r2, .L64+72
 1434 01e4 9342     		cmp	r3, r2
 1435 01e6 18D0     		beq	.L58
 1436              		.loc 1 508 11 discriminator 6
 1437 01e8 7B68     		ldr	r3, [r7, #4]
 1438 01ea 1B68     		ldr	r3, [r3]
 1439 01ec 1F4A     		ldr	r2, .L64+76
 1440 01ee 9342     		cmp	r3, r2
 1441 01f0 13D0     		beq	.L58
 1442              		.loc 1 508 11 discriminator 8
 1443 01f2 7B68     		ldr	r3, [r7, #4]
 1444 01f4 1B68     		ldr	r3, [r3]
 1445 01f6 1E4A     		ldr	r2, .L64+80
 1446 01f8 9342     		cmp	r3, r2
 1447 01fa 0ED0     		beq	.L58
 1448              		.loc 1 508 11 discriminator 10
 1449 01fc 7B68     		ldr	r3, [r7, #4]
 1450 01fe 1B68     		ldr	r3, [r3]
 1451 0200 1C4A     		ldr	r2, .L64+84
 1452 0202 9342     		cmp	r3, r2
 1453 0204 09D0     		beq	.L58
 1454              		.loc 1 508 11 discriminator 12
 1455 0206 7B68     		ldr	r3, [r7, #4]
 1456 0208 1B68     		ldr	r3, [r3]
 1457 020a 1B4A     		ldr	r2, .L64+88
 1458 020c 9342     		cmp	r3, r2
 1459 020e 04D0     		beq	.L58
 1460              		.loc 1 508 11 discriminator 14
 1461 0210 7B68     		ldr	r3, [r7, #4]
 1462 0212 1B68     		ldr	r3, [r3]
 1463 0214 194A     		ldr	r2, .L64+92
 1464 0216 9342     		cmp	r3, r2
 1465 0218 32D1     		bne	.L59
 1466              	.L58:
 1467              		.loc 1 508 11 discriminator 15
 1468 021a 0123     		movs	r3, #1
 1469              		.loc 1 508 11
 1470 021c 31E0     		b	.L60
 1471              	.L65:
 1472 021e 00BF     		.align	2
 1473              	.L64:
 1474 0220 10000240 		.word	1073872912
 1475 0224 28000240 		.word	1073872936
ARM GAS  /var/folders/g1/j12m_ky910s3_sv7d4yrsdn00000gn/T//ccliMUVd.s 			page 36


 1476 0228 40000240 		.word	1073872960
 1477 022c 58000240 		.word	1073872984
 1478 0230 70000240 		.word	1073873008
 1479 0234 88000240 		.word	1073873032
 1480 0238 A0000240 		.word	1073873056
 1481 023c B8000240 		.word	1073873080
 1482 0240 10040240 		.word	1073873936
 1483 0244 28040240 		.word	1073873960
 1484 0248 40040240 		.word	1073873984
 1485 024c 58040240 		.word	1073874008
 1486 0250 70040240 		.word	1073874032
 1487 0254 88040240 		.word	1073874056
 1488 0258 A0040240 		.word	1073874080
 1489 025c B8040240 		.word	1073874104
 1490 0260 08540258 		.word	1476547592
 1491 0264 1C540258 		.word	1476547612
 1492 0268 30540258 		.word	1476547632
 1493 026c 44540258 		.word	1476547652
 1494 0270 58540258 		.word	1476547672
 1495 0274 6C540258 		.word	1476547692
 1496 0278 80540258 		.word	1476547712
 1497 027c 94540258 		.word	1476547732
 1498              	.L59:
 1499              		.loc 1 508 11 discriminator 16
 1500 0280 0023     		movs	r3, #0
 1501              	.L60:
 1502              		.loc 1 508 10 is_stmt 1 discriminator 18
 1503 0282 002B     		cmp	r3, #0
 1504 0284 21D0     		beq	.L61
 509:Drivers/STM32H7xx_HAL_Driver/Src/stm32h7xx_hal_dma.c ****   {
 510:Drivers/STM32H7xx_HAL_Driver/Src/stm32h7xx_hal_dma.c ****     /* Reset DMA Channel control register */
 511:Drivers/STM32H7xx_HAL_Driver/Src/stm32h7xx_hal_dma.c ****     ((BDMA_Channel_TypeDef *)hdma->Instance)->CCR  = 0U;
 1505              		.loc 1 511 34
 1506 0286 7B68     		ldr	r3, [r7, #4]
 1507 0288 1B68     		ldr	r3, [r3]
 1508              		.loc 1 511 52
 1509 028a 0022     		movs	r2, #0
 1510 028c 1A60     		str	r2, [r3]
 512:Drivers/STM32H7xx_HAL_Driver/Src/stm32h7xx_hal_dma.c **** 
 513:Drivers/STM32H7xx_HAL_Driver/Src/stm32h7xx_hal_dma.c ****     /* Reset DMA Channel Number of Data to Transfer register */
 514:Drivers/STM32H7xx_HAL_Driver/Src/stm32h7xx_hal_dma.c ****     ((BDMA_Channel_TypeDef *)hdma->Instance)->CNDTR = 0U;
 1511              		.loc 1 514 34
 1512 028e 7B68     		ldr	r3, [r7, #4]
 1513 0290 1B68     		ldr	r3, [r3]
 1514              		.loc 1 514 53
 1515 0292 0022     		movs	r2, #0
 1516 0294 5A60     		str	r2, [r3, #4]
 515:Drivers/STM32H7xx_HAL_Driver/Src/stm32h7xx_hal_dma.c **** 
 516:Drivers/STM32H7xx_HAL_Driver/Src/stm32h7xx_hal_dma.c ****     /* Reset DMA Channel peripheral address register */
 517:Drivers/STM32H7xx_HAL_Driver/Src/stm32h7xx_hal_dma.c ****     ((BDMA_Channel_TypeDef *)hdma->Instance)->CPAR  = 0U;
 1517              		.loc 1 517 34
 1518 0296 7B68     		ldr	r3, [r7, #4]
 1519 0298 1B68     		ldr	r3, [r3]
 1520              		.loc 1 517 53
 1521 029a 0022     		movs	r2, #0
 1522 029c 9A60     		str	r2, [r3, #8]
 518:Drivers/STM32H7xx_HAL_Driver/Src/stm32h7xx_hal_dma.c **** 
ARM GAS  /var/folders/g1/j12m_ky910s3_sv7d4yrsdn00000gn/T//ccliMUVd.s 			page 37


 519:Drivers/STM32H7xx_HAL_Driver/Src/stm32h7xx_hal_dma.c ****     /* Reset DMA Channel memory 0 address register */
 520:Drivers/STM32H7xx_HAL_Driver/Src/stm32h7xx_hal_dma.c ****     ((BDMA_Channel_TypeDef *)hdma->Instance)->CM0AR = 0U;
 1523              		.loc 1 520 34
 1524 029e 7B68     		ldr	r3, [r7, #4]
 1525 02a0 1B68     		ldr	r3, [r3]
 1526              		.loc 1 520 53
 1527 02a2 0022     		movs	r2, #0
 1528 02a4 DA60     		str	r2, [r3, #12]
 521:Drivers/STM32H7xx_HAL_Driver/Src/stm32h7xx_hal_dma.c **** 
 522:Drivers/STM32H7xx_HAL_Driver/Src/stm32h7xx_hal_dma.c ****     /* Reset DMA Channel memory 1 address register */
 523:Drivers/STM32H7xx_HAL_Driver/Src/stm32h7xx_hal_dma.c ****     ((BDMA_Channel_TypeDef *)hdma->Instance)->CM1AR = 0U;
 1529              		.loc 1 523 34
 1530 02a6 7B68     		ldr	r3, [r7, #4]
 1531 02a8 1B68     		ldr	r3, [r3]
 1532              		.loc 1 523 53
 1533 02aa 0022     		movs	r2, #0
 1534 02ac 1A61     		str	r2, [r3, #16]
 524:Drivers/STM32H7xx_HAL_Driver/Src/stm32h7xx_hal_dma.c **** 
 525:Drivers/STM32H7xx_HAL_Driver/Src/stm32h7xx_hal_dma.c ****     /* Get DMA steam Base Address */
 526:Drivers/STM32H7xx_HAL_Driver/Src/stm32h7xx_hal_dma.c ****     regs_bdma = (BDMA_Base_Registers *)DMA_CalcBaseAndBitshift(hdma);
 1535              		.loc 1 526 40
 1536 02ae 7868     		ldr	r0, [r7, #4]
 1537 02b0 FFF7FEFF 		bl	DMA_CalcBaseAndBitshift
 1538 02b4 0346     		mov	r3, r0
 1539              		.loc 1 526 15 discriminator 1
 1540 02b6 FB60     		str	r3, [r7, #12]
 527:Drivers/STM32H7xx_HAL_Driver/Src/stm32h7xx_hal_dma.c **** 
 528:Drivers/STM32H7xx_HAL_Driver/Src/stm32h7xx_hal_dma.c ****     /* Clear all interrupt flags at correct offset within the register */
 529:Drivers/STM32H7xx_HAL_Driver/Src/stm32h7xx_hal_dma.c ****     regs_bdma->IFCR = ((BDMA_IFCR_CGIF0) << (hdma->StreamIndex & 0x1FU));
 1541              		.loc 1 529 50
 1542 02b8 7B68     		ldr	r3, [r7, #4]
 1543 02ba DB6D     		ldr	r3, [r3, #92]
 1544              		.loc 1 529 64
 1545 02bc 03F01F03 		and	r3, r3, #31
 1546              		.loc 1 529 42
 1547 02c0 0122     		movs	r2, #1
 1548 02c2 9A40     		lsls	r2, r2, r3
 1549              		.loc 1 529 21
 1550 02c4 FB68     		ldr	r3, [r7, #12]
 1551 02c6 5A60     		str	r2, [r3, #4]
 1552 02c8 01E0     		b	.L57
 1553              	.L61:
 530:Drivers/STM32H7xx_HAL_Driver/Src/stm32h7xx_hal_dma.c ****   }
 531:Drivers/STM32H7xx_HAL_Driver/Src/stm32h7xx_hal_dma.c ****   else
 532:Drivers/STM32H7xx_HAL_Driver/Src/stm32h7xx_hal_dma.c ****   {
 533:Drivers/STM32H7xx_HAL_Driver/Src/stm32h7xx_hal_dma.c ****     /* Return error status */
 534:Drivers/STM32H7xx_HAL_Driver/Src/stm32h7xx_hal_dma.c ****     return HAL_ERROR;
 1554              		.loc 1 534 12
 1555 02ca 0123     		movs	r3, #1
 1556 02cc 4AE0     		b	.L49
 1557              	.L57:
 535:Drivers/STM32H7xx_HAL_Driver/Src/stm32h7xx_hal_dma.c ****   }
 536:Drivers/STM32H7xx_HAL_Driver/Src/stm32h7xx_hal_dma.c **** 
 537:Drivers/STM32H7xx_HAL_Driver/Src/stm32h7xx_hal_dma.c **** #if defined (BDMA1) /* No DMAMUX available for BDMA1 available on  STM32H7Ax/Bx devices only */
 538:Drivers/STM32H7xx_HAL_Driver/Src/stm32h7xx_hal_dma.c ****   if(IS_DMA_DMAMUX_ALL_INSTANCE(hdma->Instance) != 0U) /* No DMAMUX available for BDMA1 */
 539:Drivers/STM32H7xx_HAL_Driver/Src/stm32h7xx_hal_dma.c **** #endif /* BDMA1 */
 540:Drivers/STM32H7xx_HAL_Driver/Src/stm32h7xx_hal_dma.c ****   {
ARM GAS  /var/folders/g1/j12m_ky910s3_sv7d4yrsdn00000gn/T//ccliMUVd.s 			page 38


 541:Drivers/STM32H7xx_HAL_Driver/Src/stm32h7xx_hal_dma.c ****     /* Initialize parameters for DMAMUX channel :
 542:Drivers/STM32H7xx_HAL_Driver/Src/stm32h7xx_hal_dma.c ****     DMAmuxChannel, DMAmuxChannelStatus and DMAmuxChannelStatusMask */
 543:Drivers/STM32H7xx_HAL_Driver/Src/stm32h7xx_hal_dma.c ****     DMA_CalcDMAMUXChannelBaseAndMask(hdma);
 1558              		.loc 1 543 5
 1559 02ce 7868     		ldr	r0, [r7, #4]
 1560 02d0 FFF7FEFF 		bl	DMA_CalcDMAMUXChannelBaseAndMask
 544:Drivers/STM32H7xx_HAL_Driver/Src/stm32h7xx_hal_dma.c **** 
 545:Drivers/STM32H7xx_HAL_Driver/Src/stm32h7xx_hal_dma.c ****     if(hdma->DMAmuxChannel != 0U)
 1561              		.loc 1 545 12
 1562 02d4 7B68     		ldr	r3, [r7, #4]
 1563 02d6 1B6E     		ldr	r3, [r3, #96]
 1564              		.loc 1 545 7
 1565 02d8 002B     		cmp	r3, #0
 1566 02da 08D0     		beq	.L62
 546:Drivers/STM32H7xx_HAL_Driver/Src/stm32h7xx_hal_dma.c ****     {
 547:Drivers/STM32H7xx_HAL_Driver/Src/stm32h7xx_hal_dma.c ****       /* Resett he DMAMUX channel that corresponds to the DMA stream */
 548:Drivers/STM32H7xx_HAL_Driver/Src/stm32h7xx_hal_dma.c ****       hdma->DMAmuxChannel->CCR = 0U;
 1567              		.loc 1 548 11
 1568 02dc 7B68     		ldr	r3, [r7, #4]
 1569 02de 1B6E     		ldr	r3, [r3, #96]
 1570              		.loc 1 548 32
 1571 02e0 0022     		movs	r2, #0
 1572 02e2 1A60     		str	r2, [r3]
 549:Drivers/STM32H7xx_HAL_Driver/Src/stm32h7xx_hal_dma.c **** 
 550:Drivers/STM32H7xx_HAL_Driver/Src/stm32h7xx_hal_dma.c ****       /* Clear the DMAMUX synchro overrun flag */
 551:Drivers/STM32H7xx_HAL_Driver/Src/stm32h7xx_hal_dma.c ****       hdma->DMAmuxChannelStatus->CFR = hdma->DMAmuxChannelStatusMask;
 1573              		.loc 1 551 11
 1574 02e4 7B68     		ldr	r3, [r7, #4]
 1575 02e6 5B6E     		ldr	r3, [r3, #100]
 1576              		.loc 1 551 44
 1577 02e8 7A68     		ldr	r2, [r7, #4]
 1578 02ea 926E     		ldr	r2, [r2, #104]
 1579              		.loc 1 551 38
 1580 02ec 5A60     		str	r2, [r3, #4]
 1581              	.L62:
 552:Drivers/STM32H7xx_HAL_Driver/Src/stm32h7xx_hal_dma.c ****     }
 553:Drivers/STM32H7xx_HAL_Driver/Src/stm32h7xx_hal_dma.c **** 
 554:Drivers/STM32H7xx_HAL_Driver/Src/stm32h7xx_hal_dma.c ****     if((hdma->Init.Request >= DMA_REQUEST_GENERATOR0) && (hdma->Init.Request <= DMA_REQUEST_GENERAT
 1582              		.loc 1 554 19
 1583 02ee 7B68     		ldr	r3, [r7, #4]
 1584 02f0 5B68     		ldr	r3, [r3, #4]
 1585              		.loc 1 554 7
 1586 02f2 002B     		cmp	r3, #0
 1587 02f4 0FD0     		beq	.L63
 1588              		.loc 1 554 69 discriminator 1
 1589 02f6 7B68     		ldr	r3, [r7, #4]
 1590 02f8 5B68     		ldr	r3, [r3, #4]
 1591              		.loc 1 554 55 discriminator 1
 1592 02fa 082B     		cmp	r3, #8
 1593 02fc 0BD8     		bhi	.L63
 555:Drivers/STM32H7xx_HAL_Driver/Src/stm32h7xx_hal_dma.c ****     {
 556:Drivers/STM32H7xx_HAL_Driver/Src/stm32h7xx_hal_dma.c ****       /* Initialize parameters for DMAMUX request generator :
 557:Drivers/STM32H7xx_HAL_Driver/Src/stm32h7xx_hal_dma.c ****       DMAmuxRequestGen, DMAmuxRequestGenStatus and DMAmuxRequestGenStatusMask */
 558:Drivers/STM32H7xx_HAL_Driver/Src/stm32h7xx_hal_dma.c ****       DMA_CalcDMAMUXRequestGenBaseAndMask(hdma);
 1594              		.loc 1 558 7
 1595 02fe 7868     		ldr	r0, [r7, #4]
 1596 0300 FFF7FEFF 		bl	DMA_CalcDMAMUXRequestGenBaseAndMask
ARM GAS  /var/folders/g1/j12m_ky910s3_sv7d4yrsdn00000gn/T//ccliMUVd.s 			page 39


 559:Drivers/STM32H7xx_HAL_Driver/Src/stm32h7xx_hal_dma.c **** 
 560:Drivers/STM32H7xx_HAL_Driver/Src/stm32h7xx_hal_dma.c ****       /* Reset the DMAMUX request generator register */
 561:Drivers/STM32H7xx_HAL_Driver/Src/stm32h7xx_hal_dma.c ****       hdma->DMAmuxRequestGen->RGCR = 0U;
 1597              		.loc 1 561 11
 1598 0304 7B68     		ldr	r3, [r7, #4]
 1599 0306 DB6E     		ldr	r3, [r3, #108]
 1600              		.loc 1 561 36
 1601 0308 0022     		movs	r2, #0
 1602 030a 1A60     		str	r2, [r3]
 562:Drivers/STM32H7xx_HAL_Driver/Src/stm32h7xx_hal_dma.c **** 
 563:Drivers/STM32H7xx_HAL_Driver/Src/stm32h7xx_hal_dma.c ****       /* Clear the DMAMUX request generator overrun flag */
 564:Drivers/STM32H7xx_HAL_Driver/Src/stm32h7xx_hal_dma.c ****       hdma->DMAmuxRequestGenStatus->RGCFR = hdma->DMAmuxRequestGenStatusMask;
 1603              		.loc 1 564 11
 1604 030c 7B68     		ldr	r3, [r7, #4]
 1605 030e 1B6F     		ldr	r3, [r3, #112]
 1606              		.loc 1 564 49
 1607 0310 7A68     		ldr	r2, [r7, #4]
 1608 0312 526F     		ldr	r2, [r2, #116]
 1609              		.loc 1 564 43
 1610 0314 5A60     		str	r2, [r3, #4]
 1611              	.L63:
 565:Drivers/STM32H7xx_HAL_Driver/Src/stm32h7xx_hal_dma.c ****     }
 566:Drivers/STM32H7xx_HAL_Driver/Src/stm32h7xx_hal_dma.c **** 
 567:Drivers/STM32H7xx_HAL_Driver/Src/stm32h7xx_hal_dma.c ****     hdma->DMAmuxRequestGen = 0U;
 1612              		.loc 1 567 28
 1613 0316 7B68     		ldr	r3, [r7, #4]
 1614 0318 0022     		movs	r2, #0
 1615 031a DA66     		str	r2, [r3, #108]
 568:Drivers/STM32H7xx_HAL_Driver/Src/stm32h7xx_hal_dma.c ****     hdma->DMAmuxRequestGenStatus = 0U;
 1616              		.loc 1 568 34
 1617 031c 7B68     		ldr	r3, [r7, #4]
 1618 031e 0022     		movs	r2, #0
 1619 0320 1A67     		str	r2, [r3, #112]
 569:Drivers/STM32H7xx_HAL_Driver/Src/stm32h7xx_hal_dma.c ****     hdma->DMAmuxRequestGenStatusMask = 0U;
 1620              		.loc 1 569 38
 1621 0322 7B68     		ldr	r3, [r7, #4]
 1622 0324 0022     		movs	r2, #0
 1623 0326 5A67     		str	r2, [r3, #116]
 570:Drivers/STM32H7xx_HAL_Driver/Src/stm32h7xx_hal_dma.c ****   }
 571:Drivers/STM32H7xx_HAL_Driver/Src/stm32h7xx_hal_dma.c **** 
 572:Drivers/STM32H7xx_HAL_Driver/Src/stm32h7xx_hal_dma.c **** 
 573:Drivers/STM32H7xx_HAL_Driver/Src/stm32h7xx_hal_dma.c ****   /* Clean callbacks */
 574:Drivers/STM32H7xx_HAL_Driver/Src/stm32h7xx_hal_dma.c ****   hdma->XferCpltCallback       = NULL;
 1624              		.loc 1 574 32
 1625 0328 7B68     		ldr	r3, [r7, #4]
 1626 032a 0022     		movs	r2, #0
 1627 032c DA63     		str	r2, [r3, #60]
 575:Drivers/STM32H7xx_HAL_Driver/Src/stm32h7xx_hal_dma.c ****   hdma->XferHalfCpltCallback   = NULL;
 1628              		.loc 1 575 32
 1629 032e 7B68     		ldr	r3, [r7, #4]
 1630 0330 0022     		movs	r2, #0
 1631 0332 1A64     		str	r2, [r3, #64]
 576:Drivers/STM32H7xx_HAL_Driver/Src/stm32h7xx_hal_dma.c ****   hdma->XferM1CpltCallback     = NULL;
 1632              		.loc 1 576 32
 1633 0334 7B68     		ldr	r3, [r7, #4]
 1634 0336 0022     		movs	r2, #0
 1635 0338 5A64     		str	r2, [r3, #68]
ARM GAS  /var/folders/g1/j12m_ky910s3_sv7d4yrsdn00000gn/T//ccliMUVd.s 			page 40


 577:Drivers/STM32H7xx_HAL_Driver/Src/stm32h7xx_hal_dma.c ****   hdma->XferM1HalfCpltCallback = NULL;
 1636              		.loc 1 577 32
 1637 033a 7B68     		ldr	r3, [r7, #4]
 1638 033c 0022     		movs	r2, #0
 1639 033e 9A64     		str	r2, [r3, #72]
 578:Drivers/STM32H7xx_HAL_Driver/Src/stm32h7xx_hal_dma.c ****   hdma->XferErrorCallback      = NULL;
 1640              		.loc 1 578 32
 1641 0340 7B68     		ldr	r3, [r7, #4]
 1642 0342 0022     		movs	r2, #0
 1643 0344 DA64     		str	r2, [r3, #76]
 579:Drivers/STM32H7xx_HAL_Driver/Src/stm32h7xx_hal_dma.c ****   hdma->XferAbortCallback      = NULL;
 1644              		.loc 1 579 32
 1645 0346 7B68     		ldr	r3, [r7, #4]
 1646 0348 0022     		movs	r2, #0
 1647 034a 1A65     		str	r2, [r3, #80]
 580:Drivers/STM32H7xx_HAL_Driver/Src/stm32h7xx_hal_dma.c **** 
 581:Drivers/STM32H7xx_HAL_Driver/Src/stm32h7xx_hal_dma.c ****   /* Initialize the error code */
 582:Drivers/STM32H7xx_HAL_Driver/Src/stm32h7xx_hal_dma.c ****   hdma->ErrorCode = HAL_DMA_ERROR_NONE;
 1648              		.loc 1 582 19
 1649 034c 7B68     		ldr	r3, [r7, #4]
 1650 034e 0022     		movs	r2, #0
 1651 0350 5A65     		str	r2, [r3, #84]
 583:Drivers/STM32H7xx_HAL_Driver/Src/stm32h7xx_hal_dma.c **** 
 584:Drivers/STM32H7xx_HAL_Driver/Src/stm32h7xx_hal_dma.c ****   /* Initialize the DMA state */
 585:Drivers/STM32H7xx_HAL_Driver/Src/stm32h7xx_hal_dma.c ****   hdma->State = HAL_DMA_STATE_RESET;
 1652              		.loc 1 585 15
 1653 0352 7B68     		ldr	r3, [r7, #4]
 1654 0354 0022     		movs	r2, #0
 1655 0356 83F83520 		strb	r2, [r3, #53]
 586:Drivers/STM32H7xx_HAL_Driver/Src/stm32h7xx_hal_dma.c **** 
 587:Drivers/STM32H7xx_HAL_Driver/Src/stm32h7xx_hal_dma.c ****   /* Release Lock */
 588:Drivers/STM32H7xx_HAL_Driver/Src/stm32h7xx_hal_dma.c ****   __HAL_UNLOCK(hdma);
 1656              		.loc 1 588 3
 1657 035a 7B68     		ldr	r3, [r7, #4]
 1658 035c 0022     		movs	r2, #0
 1659 035e 83F83420 		strb	r2, [r3, #52]
 589:Drivers/STM32H7xx_HAL_Driver/Src/stm32h7xx_hal_dma.c **** 
 590:Drivers/STM32H7xx_HAL_Driver/Src/stm32h7xx_hal_dma.c ****   return HAL_OK;
 1660              		.loc 1 590 10
 1661 0362 0023     		movs	r3, #0
 1662              	.L49:
 591:Drivers/STM32H7xx_HAL_Driver/Src/stm32h7xx_hal_dma.c **** }
 1663              		.loc 1 591 1
 1664 0364 1846     		mov	r0, r3
 1665 0366 1037     		adds	r7, r7, #16
 1666              	.LCFI8:
 1667              		.cfi_def_cfa_offset 8
 1668 0368 BD46     		mov	sp, r7
 1669              	.LCFI9:
 1670              		.cfi_def_cfa_register 13
 1671              		@ sp needed
 1672 036a 80BD     		pop	{r7, pc}
 1673              		.cfi_endproc
 1674              	.LFE145:
 1676              		.section	.text.HAL_DMA_Start,"ax",%progbits
 1677              		.align	1
 1678              		.global	HAL_DMA_Start
ARM GAS  /var/folders/g1/j12m_ky910s3_sv7d4yrsdn00000gn/T//ccliMUVd.s 			page 41


 1679              		.syntax unified
 1680              		.thumb
 1681              		.thumb_func
 1683              	HAL_DMA_Start:
 1684              	.LFB146:
 592:Drivers/STM32H7xx_HAL_Driver/Src/stm32h7xx_hal_dma.c **** 
 593:Drivers/STM32H7xx_HAL_Driver/Src/stm32h7xx_hal_dma.c **** /**
 594:Drivers/STM32H7xx_HAL_Driver/Src/stm32h7xx_hal_dma.c ****   * @}
 595:Drivers/STM32H7xx_HAL_Driver/Src/stm32h7xx_hal_dma.c ****   */
 596:Drivers/STM32H7xx_HAL_Driver/Src/stm32h7xx_hal_dma.c **** 
 597:Drivers/STM32H7xx_HAL_Driver/Src/stm32h7xx_hal_dma.c **** /** @addtogroup DMA_Exported_Functions_Group2
 598:Drivers/STM32H7xx_HAL_Driver/Src/stm32h7xx_hal_dma.c ****   *
 599:Drivers/STM32H7xx_HAL_Driver/Src/stm32h7xx_hal_dma.c **** @verbatim
 600:Drivers/STM32H7xx_HAL_Driver/Src/stm32h7xx_hal_dma.c ****  ===============================================================================
 601:Drivers/STM32H7xx_HAL_Driver/Src/stm32h7xx_hal_dma.c ****                       #####  IO operation functions  #####
 602:Drivers/STM32H7xx_HAL_Driver/Src/stm32h7xx_hal_dma.c ****  ===============================================================================
 603:Drivers/STM32H7xx_HAL_Driver/Src/stm32h7xx_hal_dma.c ****     [..]  This section provides functions allowing to:
 604:Drivers/STM32H7xx_HAL_Driver/Src/stm32h7xx_hal_dma.c ****       (+) Configure the source, destination address and data length and Start DMA transfer
 605:Drivers/STM32H7xx_HAL_Driver/Src/stm32h7xx_hal_dma.c ****       (+) Configure the source, destination address and data length and
 606:Drivers/STM32H7xx_HAL_Driver/Src/stm32h7xx_hal_dma.c ****           Start DMA transfer with interrupt
 607:Drivers/STM32H7xx_HAL_Driver/Src/stm32h7xx_hal_dma.c ****       (+) Register and Unregister DMA callbacks
 608:Drivers/STM32H7xx_HAL_Driver/Src/stm32h7xx_hal_dma.c ****       (+) Abort DMA transfer
 609:Drivers/STM32H7xx_HAL_Driver/Src/stm32h7xx_hal_dma.c ****       (+) Poll for transfer complete
 610:Drivers/STM32H7xx_HAL_Driver/Src/stm32h7xx_hal_dma.c ****       (+) Handle DMA interrupt request
 611:Drivers/STM32H7xx_HAL_Driver/Src/stm32h7xx_hal_dma.c **** 
 612:Drivers/STM32H7xx_HAL_Driver/Src/stm32h7xx_hal_dma.c **** @endverbatim
 613:Drivers/STM32H7xx_HAL_Driver/Src/stm32h7xx_hal_dma.c ****   * @{
 614:Drivers/STM32H7xx_HAL_Driver/Src/stm32h7xx_hal_dma.c ****   */
 615:Drivers/STM32H7xx_HAL_Driver/Src/stm32h7xx_hal_dma.c **** 
 616:Drivers/STM32H7xx_HAL_Driver/Src/stm32h7xx_hal_dma.c **** /**
 617:Drivers/STM32H7xx_HAL_Driver/Src/stm32h7xx_hal_dma.c ****   * @brief  Starts the DMA Transfer.
 618:Drivers/STM32H7xx_HAL_Driver/Src/stm32h7xx_hal_dma.c ****   * @param  hdma      : pointer to a DMA_HandleTypeDef structure that contains
 619:Drivers/STM32H7xx_HAL_Driver/Src/stm32h7xx_hal_dma.c ****   *                     the configuration information for the specified DMA Stream.
 620:Drivers/STM32H7xx_HAL_Driver/Src/stm32h7xx_hal_dma.c ****   * @param  SrcAddress: The source memory Buffer address
 621:Drivers/STM32H7xx_HAL_Driver/Src/stm32h7xx_hal_dma.c ****   * @param  DstAddress: The destination memory Buffer address
 622:Drivers/STM32H7xx_HAL_Driver/Src/stm32h7xx_hal_dma.c ****   * @param  DataLength: The length of data to be transferred from source to destination
 623:Drivers/STM32H7xx_HAL_Driver/Src/stm32h7xx_hal_dma.c ****   * @retval HAL status
 624:Drivers/STM32H7xx_HAL_Driver/Src/stm32h7xx_hal_dma.c ****   */
 625:Drivers/STM32H7xx_HAL_Driver/Src/stm32h7xx_hal_dma.c **** HAL_StatusTypeDef HAL_DMA_Start(DMA_HandleTypeDef *hdma, uint32_t SrcAddress, uint32_t DstAddress, 
 626:Drivers/STM32H7xx_HAL_Driver/Src/stm32h7xx_hal_dma.c **** {
 1685              		.loc 1 626 1
 1686              		.cfi_startproc
 1687              		@ args = 0, pretend = 0, frame = 24
 1688              		@ frame_needed = 1, uses_anonymous_args = 0
 1689 0000 80B5     		push	{r7, lr}
 1690              	.LCFI10:
 1691              		.cfi_def_cfa_offset 8
 1692              		.cfi_offset 7, -8
 1693              		.cfi_offset 14, -4
 1694 0002 86B0     		sub	sp, sp, #24
 1695              	.LCFI11:
 1696              		.cfi_def_cfa_offset 32
 1697 0004 00AF     		add	r7, sp, #0
 1698              	.LCFI12:
 1699              		.cfi_def_cfa_register 7
 1700 0006 F860     		str	r0, [r7, #12]
 1701 0008 B960     		str	r1, [r7, #8]
ARM GAS  /var/folders/g1/j12m_ky910s3_sv7d4yrsdn00000gn/T//ccliMUVd.s 			page 42


 1702 000a 7A60     		str	r2, [r7, #4]
 1703 000c 3B60     		str	r3, [r7]
 627:Drivers/STM32H7xx_HAL_Driver/Src/stm32h7xx_hal_dma.c ****   HAL_StatusTypeDef status = HAL_OK;
 1704              		.loc 1 627 21
 1705 000e 0023     		movs	r3, #0
 1706 0010 FB75     		strb	r3, [r7, #23]
 628:Drivers/STM32H7xx_HAL_Driver/Src/stm32h7xx_hal_dma.c **** 
 629:Drivers/STM32H7xx_HAL_Driver/Src/stm32h7xx_hal_dma.c ****   /* Check the parameters */
 630:Drivers/STM32H7xx_HAL_Driver/Src/stm32h7xx_hal_dma.c ****   assert_param(IS_DMA_BUFFER_SIZE(DataLength));
 631:Drivers/STM32H7xx_HAL_Driver/Src/stm32h7xx_hal_dma.c **** 
 632:Drivers/STM32H7xx_HAL_Driver/Src/stm32h7xx_hal_dma.c ****   /* Check the DMA peripheral handle */
 633:Drivers/STM32H7xx_HAL_Driver/Src/stm32h7xx_hal_dma.c ****   if(hdma == NULL)
 1707              		.loc 1 633 5
 1708 0012 FB68     		ldr	r3, [r7, #12]
 1709 0014 002B     		cmp	r3, #0
 1710 0016 01D1     		bne	.L67
 634:Drivers/STM32H7xx_HAL_Driver/Src/stm32h7xx_hal_dma.c ****   {
 635:Drivers/STM32H7xx_HAL_Driver/Src/stm32h7xx_hal_dma.c ****     return HAL_ERROR;
 1711              		.loc 1 635 12
 1712 0018 0123     		movs	r3, #1
 1713 001a ECE0     		b	.L68
 1714              	.L67:
 636:Drivers/STM32H7xx_HAL_Driver/Src/stm32h7xx_hal_dma.c ****   }
 637:Drivers/STM32H7xx_HAL_Driver/Src/stm32h7xx_hal_dma.c **** 
 638:Drivers/STM32H7xx_HAL_Driver/Src/stm32h7xx_hal_dma.c ****   /* Process locked */
 639:Drivers/STM32H7xx_HAL_Driver/Src/stm32h7xx_hal_dma.c ****   __HAL_LOCK(hdma);
 1715              		.loc 1 639 3
 1716 001c FB68     		ldr	r3, [r7, #12]
 1717 001e 93F83430 		ldrb	r3, [r3, #52]	@ zero_extendqisi2
 1718 0022 012B     		cmp	r3, #1
 1719 0024 01D1     		bne	.L69
 1720              		.loc 1 639 3 is_stmt 0 discriminator 1
 1721 0026 0223     		movs	r3, #2
 1722              		.loc 1 639 3
 1723 0028 E5E0     		b	.L68
 1724              	.L69:
 1725              		.loc 1 639 3 discriminator 2
 1726 002a FB68     		ldr	r3, [r7, #12]
 1727 002c 0122     		movs	r2, #1
 1728 002e 83F83420 		strb	r2, [r3, #52]
 640:Drivers/STM32H7xx_HAL_Driver/Src/stm32h7xx_hal_dma.c **** 
 641:Drivers/STM32H7xx_HAL_Driver/Src/stm32h7xx_hal_dma.c ****   if(HAL_DMA_STATE_READY == hdma->State)
 1729              		.loc 1 641 33 is_stmt 1
 1730 0032 FB68     		ldr	r3, [r7, #12]
 1731 0034 93F83530 		ldrb	r3, [r3, #53]
 1732 0038 DBB2     		uxtb	r3, r3
 1733              		.loc 1 641 5
 1734 003a 012B     		cmp	r3, #1
 1735 003c 40F0D080 		bne	.L70
 642:Drivers/STM32H7xx_HAL_Driver/Src/stm32h7xx_hal_dma.c ****   {
 643:Drivers/STM32H7xx_HAL_Driver/Src/stm32h7xx_hal_dma.c ****     /* Change DMA peripheral state */
 644:Drivers/STM32H7xx_HAL_Driver/Src/stm32h7xx_hal_dma.c ****     hdma->State = HAL_DMA_STATE_BUSY;
 1736              		.loc 1 644 17
 1737 0040 FB68     		ldr	r3, [r7, #12]
 1738 0042 0222     		movs	r2, #2
 1739 0044 83F83520 		strb	r2, [r3, #53]
 645:Drivers/STM32H7xx_HAL_Driver/Src/stm32h7xx_hal_dma.c **** 
ARM GAS  /var/folders/g1/j12m_ky910s3_sv7d4yrsdn00000gn/T//ccliMUVd.s 			page 43


 646:Drivers/STM32H7xx_HAL_Driver/Src/stm32h7xx_hal_dma.c ****     /* Initialize the error code */
 647:Drivers/STM32H7xx_HAL_Driver/Src/stm32h7xx_hal_dma.c ****     hdma->ErrorCode = HAL_DMA_ERROR_NONE;
 1740              		.loc 1 647 21
 1741 0048 FB68     		ldr	r3, [r7, #12]
 1742 004a 0022     		movs	r2, #0
 1743 004c 5A65     		str	r2, [r3, #84]
 648:Drivers/STM32H7xx_HAL_Driver/Src/stm32h7xx_hal_dma.c **** 
 649:Drivers/STM32H7xx_HAL_Driver/Src/stm32h7xx_hal_dma.c ****     /* Disable the peripheral */
 650:Drivers/STM32H7xx_HAL_Driver/Src/stm32h7xx_hal_dma.c ****     __HAL_DMA_DISABLE(hdma);
 1744              		.loc 1 650 5
 1745 004e FB68     		ldr	r3, [r7, #12]
 1746 0050 1B68     		ldr	r3, [r3]
 1747 0052 6B4A     		ldr	r2, .L78
 1748 0054 9342     		cmp	r3, r2
 1749 0056 4AD0     		beq	.L71
 1750              		.loc 1 650 5 is_stmt 0 discriminator 2
 1751 0058 FB68     		ldr	r3, [r7, #12]
 1752 005a 1B68     		ldr	r3, [r3]
 1753 005c 694A     		ldr	r2, .L78+4
 1754 005e 9342     		cmp	r3, r2
 1755 0060 45D0     		beq	.L71
 1756              		.loc 1 650 5 discriminator 4
 1757 0062 FB68     		ldr	r3, [r7, #12]
 1758 0064 1B68     		ldr	r3, [r3]
 1759 0066 684A     		ldr	r2, .L78+8
 1760 0068 9342     		cmp	r3, r2
 1761 006a 40D0     		beq	.L71
 1762              		.loc 1 650 5 discriminator 6
 1763 006c FB68     		ldr	r3, [r7, #12]
 1764 006e 1B68     		ldr	r3, [r3]
 1765 0070 664A     		ldr	r2, .L78+12
 1766 0072 9342     		cmp	r3, r2
 1767 0074 3BD0     		beq	.L71
 1768              		.loc 1 650 5 discriminator 8
 1769 0076 FB68     		ldr	r3, [r7, #12]
 1770 0078 1B68     		ldr	r3, [r3]
 1771 007a 654A     		ldr	r2, .L78+16
 1772 007c 9342     		cmp	r3, r2
 1773 007e 36D0     		beq	.L71
 1774              		.loc 1 650 5 discriminator 10
 1775 0080 FB68     		ldr	r3, [r7, #12]
 1776 0082 1B68     		ldr	r3, [r3]
 1777 0084 634A     		ldr	r2, .L78+20
 1778 0086 9342     		cmp	r3, r2
 1779 0088 31D0     		beq	.L71
 1780              		.loc 1 650 5 discriminator 12
 1781 008a FB68     		ldr	r3, [r7, #12]
 1782 008c 1B68     		ldr	r3, [r3]
 1783 008e 624A     		ldr	r2, .L78+24
 1784 0090 9342     		cmp	r3, r2
 1785 0092 2CD0     		beq	.L71
 1786              		.loc 1 650 5 discriminator 14
 1787 0094 FB68     		ldr	r3, [r7, #12]
 1788 0096 1B68     		ldr	r3, [r3]
 1789 0098 604A     		ldr	r2, .L78+28
 1790 009a 9342     		cmp	r3, r2
 1791 009c 27D0     		beq	.L71
ARM GAS  /var/folders/g1/j12m_ky910s3_sv7d4yrsdn00000gn/T//ccliMUVd.s 			page 44


 1792              		.loc 1 650 5 discriminator 16
 1793 009e FB68     		ldr	r3, [r7, #12]
 1794 00a0 1B68     		ldr	r3, [r3]
 1795 00a2 5F4A     		ldr	r2, .L78+32
 1796 00a4 9342     		cmp	r3, r2
 1797 00a6 22D0     		beq	.L71
 1798              		.loc 1 650 5 discriminator 18
 1799 00a8 FB68     		ldr	r3, [r7, #12]
 1800 00aa 1B68     		ldr	r3, [r3]
 1801 00ac 5D4A     		ldr	r2, .L78+36
 1802 00ae 9342     		cmp	r3, r2
 1803 00b0 1DD0     		beq	.L71
 1804              		.loc 1 650 5 discriminator 20
 1805 00b2 FB68     		ldr	r3, [r7, #12]
 1806 00b4 1B68     		ldr	r3, [r3]
 1807 00b6 5C4A     		ldr	r2, .L78+40
 1808 00b8 9342     		cmp	r3, r2
 1809 00ba 18D0     		beq	.L71
 1810              		.loc 1 650 5 discriminator 22
 1811 00bc FB68     		ldr	r3, [r7, #12]
 1812 00be 1B68     		ldr	r3, [r3]
 1813 00c0 5A4A     		ldr	r2, .L78+44
 1814 00c2 9342     		cmp	r3, r2
 1815 00c4 13D0     		beq	.L71
 1816              		.loc 1 650 5 discriminator 24
 1817 00c6 FB68     		ldr	r3, [r7, #12]
 1818 00c8 1B68     		ldr	r3, [r3]
 1819 00ca 594A     		ldr	r2, .L78+48
 1820 00cc 9342     		cmp	r3, r2
 1821 00ce 0ED0     		beq	.L71
 1822              		.loc 1 650 5 discriminator 26
 1823 00d0 FB68     		ldr	r3, [r7, #12]
 1824 00d2 1B68     		ldr	r3, [r3]
 1825 00d4 574A     		ldr	r2, .L78+52
 1826 00d6 9342     		cmp	r3, r2
 1827 00d8 09D0     		beq	.L71
 1828              		.loc 1 650 5 discriminator 28
 1829 00da FB68     		ldr	r3, [r7, #12]
 1830 00dc 1B68     		ldr	r3, [r3]
 1831 00de 564A     		ldr	r2, .L78+56
 1832 00e0 9342     		cmp	r3, r2
 1833 00e2 04D0     		beq	.L71
 1834              		.loc 1 650 5 discriminator 30
 1835 00e4 FB68     		ldr	r3, [r7, #12]
 1836 00e6 1B68     		ldr	r3, [r3]
 1837 00e8 544A     		ldr	r2, .L78+60
 1838 00ea 9342     		cmp	r3, r2
 1839 00ec 08D1     		bne	.L72
 1840              	.L71:
 1841              		.loc 1 650 5 discriminator 31
 1842 00ee FB68     		ldr	r3, [r7, #12]
 1843 00f0 1B68     		ldr	r3, [r3]
 1844 00f2 1A68     		ldr	r2, [r3]
 1845 00f4 FB68     		ldr	r3, [r7, #12]
 1846 00f6 1B68     		ldr	r3, [r3]
 1847 00f8 22F00102 		bic	r2, r2, #1
 1848 00fc 1A60     		str	r2, [r3]
ARM GAS  /var/folders/g1/j12m_ky910s3_sv7d4yrsdn00000gn/T//ccliMUVd.s 			page 45


 1849              		.loc 1 650 5
 1850 00fe 07E0     		b	.L73
 1851              	.L72:
 1852              		.loc 1 650 5 discriminator 32
 1853 0100 FB68     		ldr	r3, [r7, #12]
 1854 0102 1B68     		ldr	r3, [r3]
 1855 0104 1A68     		ldr	r2, [r3]
 1856 0106 FB68     		ldr	r3, [r7, #12]
 1857 0108 1B68     		ldr	r3, [r3]
 1858 010a 22F00102 		bic	r2, r2, #1
 1859 010e 1A60     		str	r2, [r3]
 1860              	.L73:
 651:Drivers/STM32H7xx_HAL_Driver/Src/stm32h7xx_hal_dma.c **** 
 652:Drivers/STM32H7xx_HAL_Driver/Src/stm32h7xx_hal_dma.c ****     /* Configure the source, destination address and the data length */
 653:Drivers/STM32H7xx_HAL_Driver/Src/stm32h7xx_hal_dma.c ****     DMA_SetConfig(hdma, SrcAddress, DstAddress, DataLength);
 1861              		.loc 1 653 5 is_stmt 1
 1862 0110 3B68     		ldr	r3, [r7]
 1863 0112 7A68     		ldr	r2, [r7, #4]
 1864 0114 B968     		ldr	r1, [r7, #8]
 1865 0116 F868     		ldr	r0, [r7, #12]
 1866 0118 FFF7FEFF 		bl	DMA_SetConfig
 654:Drivers/STM32H7xx_HAL_Driver/Src/stm32h7xx_hal_dma.c **** 
 655:Drivers/STM32H7xx_HAL_Driver/Src/stm32h7xx_hal_dma.c ****     /* Enable the Peripheral */
 656:Drivers/STM32H7xx_HAL_Driver/Src/stm32h7xx_hal_dma.c ****     __HAL_DMA_ENABLE(hdma);
 1867              		.loc 1 656 5
 1868 011c FB68     		ldr	r3, [r7, #12]
 1869 011e 1B68     		ldr	r3, [r3]
 1870 0120 374A     		ldr	r2, .L78
 1871 0122 9342     		cmp	r3, r2
 1872 0124 4AD0     		beq	.L74
 1873              		.loc 1 656 5 is_stmt 0 discriminator 2
 1874 0126 FB68     		ldr	r3, [r7, #12]
 1875 0128 1B68     		ldr	r3, [r3]
 1876 012a 364A     		ldr	r2, .L78+4
 1877 012c 9342     		cmp	r3, r2
 1878 012e 45D0     		beq	.L74
 1879              		.loc 1 656 5 discriminator 4
 1880 0130 FB68     		ldr	r3, [r7, #12]
 1881 0132 1B68     		ldr	r3, [r3]
 1882 0134 344A     		ldr	r2, .L78+8
 1883 0136 9342     		cmp	r3, r2
 1884 0138 40D0     		beq	.L74
 1885              		.loc 1 656 5 discriminator 6
 1886 013a FB68     		ldr	r3, [r7, #12]
 1887 013c 1B68     		ldr	r3, [r3]
 1888 013e 334A     		ldr	r2, .L78+12
 1889 0140 9342     		cmp	r3, r2
 1890 0142 3BD0     		beq	.L74
 1891              		.loc 1 656 5 discriminator 8
 1892 0144 FB68     		ldr	r3, [r7, #12]
 1893 0146 1B68     		ldr	r3, [r3]
 1894 0148 314A     		ldr	r2, .L78+16
 1895 014a 9342     		cmp	r3, r2
 1896 014c 36D0     		beq	.L74
 1897              		.loc 1 656 5 discriminator 10
 1898 014e FB68     		ldr	r3, [r7, #12]
 1899 0150 1B68     		ldr	r3, [r3]
ARM GAS  /var/folders/g1/j12m_ky910s3_sv7d4yrsdn00000gn/T//ccliMUVd.s 			page 46


 1900 0152 304A     		ldr	r2, .L78+20
 1901 0154 9342     		cmp	r3, r2
 1902 0156 31D0     		beq	.L74
 1903              		.loc 1 656 5 discriminator 12
 1904 0158 FB68     		ldr	r3, [r7, #12]
 1905 015a 1B68     		ldr	r3, [r3]
 1906 015c 2E4A     		ldr	r2, .L78+24
 1907 015e 9342     		cmp	r3, r2
 1908 0160 2CD0     		beq	.L74
 1909              		.loc 1 656 5 discriminator 14
 1910 0162 FB68     		ldr	r3, [r7, #12]
 1911 0164 1B68     		ldr	r3, [r3]
 1912 0166 2D4A     		ldr	r2, .L78+28
 1913 0168 9342     		cmp	r3, r2
 1914 016a 27D0     		beq	.L74
 1915              		.loc 1 656 5 discriminator 16
 1916 016c FB68     		ldr	r3, [r7, #12]
 1917 016e 1B68     		ldr	r3, [r3]
 1918 0170 2B4A     		ldr	r2, .L78+32
 1919 0172 9342     		cmp	r3, r2
 1920 0174 22D0     		beq	.L74
 1921              		.loc 1 656 5 discriminator 18
 1922 0176 FB68     		ldr	r3, [r7, #12]
 1923 0178 1B68     		ldr	r3, [r3]
 1924 017a 2A4A     		ldr	r2, .L78+36
 1925 017c 9342     		cmp	r3, r2
 1926 017e 1DD0     		beq	.L74
 1927              		.loc 1 656 5 discriminator 20
 1928 0180 FB68     		ldr	r3, [r7, #12]
 1929 0182 1B68     		ldr	r3, [r3]
 1930 0184 284A     		ldr	r2, .L78+40
 1931 0186 9342     		cmp	r3, r2
 1932 0188 18D0     		beq	.L74
 1933              		.loc 1 656 5 discriminator 22
 1934 018a FB68     		ldr	r3, [r7, #12]
 1935 018c 1B68     		ldr	r3, [r3]
 1936 018e 274A     		ldr	r2, .L78+44
 1937 0190 9342     		cmp	r3, r2
 1938 0192 13D0     		beq	.L74
 1939              		.loc 1 656 5 discriminator 24
 1940 0194 FB68     		ldr	r3, [r7, #12]
 1941 0196 1B68     		ldr	r3, [r3]
 1942 0198 254A     		ldr	r2, .L78+48
 1943 019a 9342     		cmp	r3, r2
 1944 019c 0ED0     		beq	.L74
 1945              		.loc 1 656 5 discriminator 26
 1946 019e FB68     		ldr	r3, [r7, #12]
 1947 01a0 1B68     		ldr	r3, [r3]
 1948 01a2 244A     		ldr	r2, .L78+52
 1949 01a4 9342     		cmp	r3, r2
 1950 01a6 09D0     		beq	.L74
 1951              		.loc 1 656 5 discriminator 28
 1952 01a8 FB68     		ldr	r3, [r7, #12]
 1953 01aa 1B68     		ldr	r3, [r3]
 1954 01ac 224A     		ldr	r2, .L78+56
 1955 01ae 9342     		cmp	r3, r2
 1956 01b0 04D0     		beq	.L74
ARM GAS  /var/folders/g1/j12m_ky910s3_sv7d4yrsdn00000gn/T//ccliMUVd.s 			page 47


 1957              		.loc 1 656 5 discriminator 30
 1958 01b2 FB68     		ldr	r3, [r7, #12]
 1959 01b4 1B68     		ldr	r3, [r3]
 1960 01b6 214A     		ldr	r2, .L78+60
 1961 01b8 9342     		cmp	r3, r2
 1962 01ba 08D1     		bne	.L75
 1963              	.L74:
 1964              		.loc 1 656 5 discriminator 31
 1965 01bc FB68     		ldr	r3, [r7, #12]
 1966 01be 1B68     		ldr	r3, [r3]
 1967 01c0 1A68     		ldr	r2, [r3]
 1968 01c2 FB68     		ldr	r3, [r7, #12]
 1969 01c4 1B68     		ldr	r3, [r3]
 1970 01c6 42F00102 		orr	r2, r2, #1
 1971 01ca 1A60     		str	r2, [r3]
 1972              		.loc 1 656 5
 1973 01cc 12E0     		b	.L77
 1974              	.L75:
 1975              		.loc 1 656 5 discriminator 32
 1976 01ce FB68     		ldr	r3, [r7, #12]
 1977 01d0 1B68     		ldr	r3, [r3]
 1978 01d2 1A68     		ldr	r2, [r3]
 1979 01d4 FB68     		ldr	r3, [r7, #12]
 1980 01d6 1B68     		ldr	r3, [r3]
 1981 01d8 42F00102 		orr	r2, r2, #1
 1982 01dc 1A60     		str	r2, [r3]
 1983 01de 09E0     		b	.L77
 1984              	.L70:
 657:Drivers/STM32H7xx_HAL_Driver/Src/stm32h7xx_hal_dma.c ****   }
 658:Drivers/STM32H7xx_HAL_Driver/Src/stm32h7xx_hal_dma.c ****   else
 659:Drivers/STM32H7xx_HAL_Driver/Src/stm32h7xx_hal_dma.c ****   {
 660:Drivers/STM32H7xx_HAL_Driver/Src/stm32h7xx_hal_dma.c ****     /* Set the error code to busy */
 661:Drivers/STM32H7xx_HAL_Driver/Src/stm32h7xx_hal_dma.c ****     hdma->ErrorCode = HAL_DMA_ERROR_BUSY;
 1985              		.loc 1 661 21 is_stmt 1
 1986 01e0 FB68     		ldr	r3, [r7, #12]
 1987 01e2 4FF40062 		mov	r2, #2048
 1988 01e6 5A65     		str	r2, [r3, #84]
 662:Drivers/STM32H7xx_HAL_Driver/Src/stm32h7xx_hal_dma.c **** 
 663:Drivers/STM32H7xx_HAL_Driver/Src/stm32h7xx_hal_dma.c ****     /* Process unlocked */
 664:Drivers/STM32H7xx_HAL_Driver/Src/stm32h7xx_hal_dma.c ****     __HAL_UNLOCK(hdma);
 1989              		.loc 1 664 5
 1990 01e8 FB68     		ldr	r3, [r7, #12]
 1991 01ea 0022     		movs	r2, #0
 1992 01ec 83F83420 		strb	r2, [r3, #52]
 665:Drivers/STM32H7xx_HAL_Driver/Src/stm32h7xx_hal_dma.c **** 
 666:Drivers/STM32H7xx_HAL_Driver/Src/stm32h7xx_hal_dma.c ****     /* Return error status */
 667:Drivers/STM32H7xx_HAL_Driver/Src/stm32h7xx_hal_dma.c ****     status = HAL_ERROR;
 1993              		.loc 1 667 12
 1994 01f0 0123     		movs	r3, #1
 1995 01f2 FB75     		strb	r3, [r7, #23]
 1996              	.L77:
 668:Drivers/STM32H7xx_HAL_Driver/Src/stm32h7xx_hal_dma.c ****   }
 669:Drivers/STM32H7xx_HAL_Driver/Src/stm32h7xx_hal_dma.c ****   return status;
 1997              		.loc 1 669 10
 1998 01f4 FB7D     		ldrb	r3, [r7, #23]	@ zero_extendqisi2
 1999              	.L68:
 670:Drivers/STM32H7xx_HAL_Driver/Src/stm32h7xx_hal_dma.c **** }
ARM GAS  /var/folders/g1/j12m_ky910s3_sv7d4yrsdn00000gn/T//ccliMUVd.s 			page 48


 2000              		.loc 1 670 1
 2001 01f6 1846     		mov	r0, r3
 2002 01f8 1837     		adds	r7, r7, #24
 2003              	.LCFI13:
 2004              		.cfi_def_cfa_offset 8
 2005 01fa BD46     		mov	sp, r7
 2006              	.LCFI14:
 2007              		.cfi_def_cfa_register 13
 2008              		@ sp needed
 2009 01fc 80BD     		pop	{r7, pc}
 2010              	.L79:
 2011 01fe 00BF     		.align	2
 2012              	.L78:
 2013 0200 10000240 		.word	1073872912
 2014 0204 28000240 		.word	1073872936
 2015 0208 40000240 		.word	1073872960
 2016 020c 58000240 		.word	1073872984
 2017 0210 70000240 		.word	1073873008
 2018 0214 88000240 		.word	1073873032
 2019 0218 A0000240 		.word	1073873056
 2020 021c B8000240 		.word	1073873080
 2021 0220 10040240 		.word	1073873936
 2022 0224 28040240 		.word	1073873960
 2023 0228 40040240 		.word	1073873984
 2024 022c 58040240 		.word	1073874008
 2025 0230 70040240 		.word	1073874032
 2026 0234 88040240 		.word	1073874056
 2027 0238 A0040240 		.word	1073874080
 2028 023c B8040240 		.word	1073874104
 2029              		.cfi_endproc
 2030              	.LFE146:
 2032              		.section	.text.HAL_DMA_Start_IT,"ax",%progbits
 2033              		.align	1
 2034              		.global	HAL_DMA_Start_IT
 2035              		.syntax unified
 2036              		.thumb
 2037              		.thumb_func
 2039              	HAL_DMA_Start_IT:
 2040              	.LFB147:
 671:Drivers/STM32H7xx_HAL_Driver/Src/stm32h7xx_hal_dma.c **** 
 672:Drivers/STM32H7xx_HAL_Driver/Src/stm32h7xx_hal_dma.c **** /**
 673:Drivers/STM32H7xx_HAL_Driver/Src/stm32h7xx_hal_dma.c ****   * @brief  Start the DMA Transfer with interrupt enabled.
 674:Drivers/STM32H7xx_HAL_Driver/Src/stm32h7xx_hal_dma.c ****   * @param  hdma:       pointer to a DMA_HandleTypeDef structure that contains
 675:Drivers/STM32H7xx_HAL_Driver/Src/stm32h7xx_hal_dma.c ****   *                     the configuration information for the specified DMA Stream.
 676:Drivers/STM32H7xx_HAL_Driver/Src/stm32h7xx_hal_dma.c ****   * @param  SrcAddress: The source memory Buffer address
 677:Drivers/STM32H7xx_HAL_Driver/Src/stm32h7xx_hal_dma.c ****   * @param  DstAddress: The destination memory Buffer address
 678:Drivers/STM32H7xx_HAL_Driver/Src/stm32h7xx_hal_dma.c ****   * @param  DataLength: The length of data to be transferred from source to destination
 679:Drivers/STM32H7xx_HAL_Driver/Src/stm32h7xx_hal_dma.c ****   * @retval HAL status
 680:Drivers/STM32H7xx_HAL_Driver/Src/stm32h7xx_hal_dma.c ****   */
 681:Drivers/STM32H7xx_HAL_Driver/Src/stm32h7xx_hal_dma.c **** HAL_StatusTypeDef HAL_DMA_Start_IT(DMA_HandleTypeDef *hdma, uint32_t SrcAddress, uint32_t DstAddres
 682:Drivers/STM32H7xx_HAL_Driver/Src/stm32h7xx_hal_dma.c **** {
 2041              		.loc 1 682 1
 2042              		.cfi_startproc
 2043              		@ args = 0, pretend = 0, frame = 24
 2044              		@ frame_needed = 1, uses_anonymous_args = 0
 2045 0000 80B5     		push	{r7, lr}
 2046              	.LCFI15:
ARM GAS  /var/folders/g1/j12m_ky910s3_sv7d4yrsdn00000gn/T//ccliMUVd.s 			page 49


 2047              		.cfi_def_cfa_offset 8
 2048              		.cfi_offset 7, -8
 2049              		.cfi_offset 14, -4
 2050 0002 86B0     		sub	sp, sp, #24
 2051              	.LCFI16:
 2052              		.cfi_def_cfa_offset 32
 2053 0004 00AF     		add	r7, sp, #0
 2054              	.LCFI17:
 2055              		.cfi_def_cfa_register 7
 2056 0006 F860     		str	r0, [r7, #12]
 2057 0008 B960     		str	r1, [r7, #8]
 2058 000a 7A60     		str	r2, [r7, #4]
 2059 000c 3B60     		str	r3, [r7]
 683:Drivers/STM32H7xx_HAL_Driver/Src/stm32h7xx_hal_dma.c ****   HAL_StatusTypeDef status = HAL_OK;
 2060              		.loc 1 683 21
 2061 000e 0023     		movs	r3, #0
 2062 0010 FB75     		strb	r3, [r7, #23]
 684:Drivers/STM32H7xx_HAL_Driver/Src/stm32h7xx_hal_dma.c **** 
 685:Drivers/STM32H7xx_HAL_Driver/Src/stm32h7xx_hal_dma.c ****   /* Check the parameters */
 686:Drivers/STM32H7xx_HAL_Driver/Src/stm32h7xx_hal_dma.c ****   assert_param(IS_DMA_BUFFER_SIZE(DataLength));
 687:Drivers/STM32H7xx_HAL_Driver/Src/stm32h7xx_hal_dma.c **** 
 688:Drivers/STM32H7xx_HAL_Driver/Src/stm32h7xx_hal_dma.c ****   /* Check the DMA peripheral handle */
 689:Drivers/STM32H7xx_HAL_Driver/Src/stm32h7xx_hal_dma.c ****   if(hdma == NULL)
 2063              		.loc 1 689 5
 2064 0012 FB68     		ldr	r3, [r7, #12]
 2065 0014 002B     		cmp	r3, #0
 2066 0016 01D1     		bne	.L81
 690:Drivers/STM32H7xx_HAL_Driver/Src/stm32h7xx_hal_dma.c ****   {
 691:Drivers/STM32H7xx_HAL_Driver/Src/stm32h7xx_hal_dma.c ****     return HAL_ERROR;
 2067              		.loc 1 691 12
 2068 0018 0123     		movs	r3, #1
 2069 001a 26E2     		b	.L82
 2070              	.L81:
 692:Drivers/STM32H7xx_HAL_Driver/Src/stm32h7xx_hal_dma.c ****   }
 693:Drivers/STM32H7xx_HAL_Driver/Src/stm32h7xx_hal_dma.c **** 
 694:Drivers/STM32H7xx_HAL_Driver/Src/stm32h7xx_hal_dma.c ****   /* Process locked */
 695:Drivers/STM32H7xx_HAL_Driver/Src/stm32h7xx_hal_dma.c ****   __HAL_LOCK(hdma);
 2071              		.loc 1 695 3
 2072 001c FB68     		ldr	r3, [r7, #12]
 2073 001e 93F83430 		ldrb	r3, [r3, #52]	@ zero_extendqisi2
 2074 0022 012B     		cmp	r3, #1
 2075 0024 01D1     		bne	.L83
 2076              		.loc 1 695 3 is_stmt 0 discriminator 1
 2077 0026 0223     		movs	r3, #2
 2078              		.loc 1 695 3
 2079 0028 1FE2     		b	.L82
 2080              	.L83:
 2081              		.loc 1 695 3 discriminator 2
 2082 002a FB68     		ldr	r3, [r7, #12]
 2083 002c 0122     		movs	r2, #1
 2084 002e 83F83420 		strb	r2, [r3, #52]
 696:Drivers/STM32H7xx_HAL_Driver/Src/stm32h7xx_hal_dma.c **** 
 697:Drivers/STM32H7xx_HAL_Driver/Src/stm32h7xx_hal_dma.c ****   if(HAL_DMA_STATE_READY == hdma->State)
 2085              		.loc 1 697 33 is_stmt 1
 2086 0032 FB68     		ldr	r3, [r7, #12]
 2087 0034 93F83530 		ldrb	r3, [r3, #53]
 2088 0038 DBB2     		uxtb	r3, r3
ARM GAS  /var/folders/g1/j12m_ky910s3_sv7d4yrsdn00000gn/T//ccliMUVd.s 			page 50


 2089              		.loc 1 697 5
 2090 003a 012B     		cmp	r3, #1
 2091 003c 40F00A82 		bne	.L84
 698:Drivers/STM32H7xx_HAL_Driver/Src/stm32h7xx_hal_dma.c ****   {
 699:Drivers/STM32H7xx_HAL_Driver/Src/stm32h7xx_hal_dma.c ****     /* Change DMA peripheral state */
 700:Drivers/STM32H7xx_HAL_Driver/Src/stm32h7xx_hal_dma.c ****     hdma->State = HAL_DMA_STATE_BUSY;
 2092              		.loc 1 700 17
 2093 0040 FB68     		ldr	r3, [r7, #12]
 2094 0042 0222     		movs	r2, #2
 2095 0044 83F83520 		strb	r2, [r3, #53]
 701:Drivers/STM32H7xx_HAL_Driver/Src/stm32h7xx_hal_dma.c **** 
 702:Drivers/STM32H7xx_HAL_Driver/Src/stm32h7xx_hal_dma.c ****     /* Initialize the error code */
 703:Drivers/STM32H7xx_HAL_Driver/Src/stm32h7xx_hal_dma.c ****     hdma->ErrorCode = HAL_DMA_ERROR_NONE;
 2096              		.loc 1 703 21
 2097 0048 FB68     		ldr	r3, [r7, #12]
 2098 004a 0022     		movs	r2, #0
 2099 004c 5A65     		str	r2, [r3, #84]
 704:Drivers/STM32H7xx_HAL_Driver/Src/stm32h7xx_hal_dma.c **** 
 705:Drivers/STM32H7xx_HAL_Driver/Src/stm32h7xx_hal_dma.c ****     /* Disable the peripheral */
 706:Drivers/STM32H7xx_HAL_Driver/Src/stm32h7xx_hal_dma.c ****     __HAL_DMA_DISABLE(hdma);
 2100              		.loc 1 706 5
 2101 004e FB68     		ldr	r3, [r7, #12]
 2102 0050 1B68     		ldr	r3, [r3]
 2103 0052 684A     		ldr	r2, .L102
 2104 0054 9342     		cmp	r3, r2
 2105 0056 4AD0     		beq	.L85
 2106              		.loc 1 706 5 is_stmt 0 discriminator 2
 2107 0058 FB68     		ldr	r3, [r7, #12]
 2108 005a 1B68     		ldr	r3, [r3]
 2109 005c 664A     		ldr	r2, .L102+4
 2110 005e 9342     		cmp	r3, r2
 2111 0060 45D0     		beq	.L85
 2112              		.loc 1 706 5 discriminator 4
 2113 0062 FB68     		ldr	r3, [r7, #12]
 2114 0064 1B68     		ldr	r3, [r3]
 2115 0066 654A     		ldr	r2, .L102+8
 2116 0068 9342     		cmp	r3, r2
 2117 006a 40D0     		beq	.L85
 2118              		.loc 1 706 5 discriminator 6
 2119 006c FB68     		ldr	r3, [r7, #12]
 2120 006e 1B68     		ldr	r3, [r3]
 2121 0070 634A     		ldr	r2, .L102+12
 2122 0072 9342     		cmp	r3, r2
 2123 0074 3BD0     		beq	.L85
 2124              		.loc 1 706 5 discriminator 8
 2125 0076 FB68     		ldr	r3, [r7, #12]
 2126 0078 1B68     		ldr	r3, [r3]
 2127 007a 624A     		ldr	r2, .L102+16
 2128 007c 9342     		cmp	r3, r2
 2129 007e 36D0     		beq	.L85
 2130              		.loc 1 706 5 discriminator 10
 2131 0080 FB68     		ldr	r3, [r7, #12]
 2132 0082 1B68     		ldr	r3, [r3]
 2133 0084 604A     		ldr	r2, .L102+20
 2134 0086 9342     		cmp	r3, r2
 2135 0088 31D0     		beq	.L85
 2136              		.loc 1 706 5 discriminator 12
ARM GAS  /var/folders/g1/j12m_ky910s3_sv7d4yrsdn00000gn/T//ccliMUVd.s 			page 51


 2137 008a FB68     		ldr	r3, [r7, #12]
 2138 008c 1B68     		ldr	r3, [r3]
 2139 008e 5F4A     		ldr	r2, .L102+24
 2140 0090 9342     		cmp	r3, r2
 2141 0092 2CD0     		beq	.L85
 2142              		.loc 1 706 5 discriminator 14
 2143 0094 FB68     		ldr	r3, [r7, #12]
 2144 0096 1B68     		ldr	r3, [r3]
 2145 0098 5D4A     		ldr	r2, .L102+28
 2146 009a 9342     		cmp	r3, r2
 2147 009c 27D0     		beq	.L85
 2148              		.loc 1 706 5 discriminator 16
 2149 009e FB68     		ldr	r3, [r7, #12]
 2150 00a0 1B68     		ldr	r3, [r3]
 2151 00a2 5C4A     		ldr	r2, .L102+32
 2152 00a4 9342     		cmp	r3, r2
 2153 00a6 22D0     		beq	.L85
 2154              		.loc 1 706 5 discriminator 18
 2155 00a8 FB68     		ldr	r3, [r7, #12]
 2156 00aa 1B68     		ldr	r3, [r3]
 2157 00ac 5A4A     		ldr	r2, .L102+36
 2158 00ae 9342     		cmp	r3, r2
 2159 00b0 1DD0     		beq	.L85
 2160              		.loc 1 706 5 discriminator 20
 2161 00b2 FB68     		ldr	r3, [r7, #12]
 2162 00b4 1B68     		ldr	r3, [r3]
 2163 00b6 594A     		ldr	r2, .L102+40
 2164 00b8 9342     		cmp	r3, r2
 2165 00ba 18D0     		beq	.L85
 2166              		.loc 1 706 5 discriminator 22
 2167 00bc FB68     		ldr	r3, [r7, #12]
 2168 00be 1B68     		ldr	r3, [r3]
 2169 00c0 574A     		ldr	r2, .L102+44
 2170 00c2 9342     		cmp	r3, r2
 2171 00c4 13D0     		beq	.L85
 2172              		.loc 1 706 5 discriminator 24
 2173 00c6 FB68     		ldr	r3, [r7, #12]
 2174 00c8 1B68     		ldr	r3, [r3]
 2175 00ca 564A     		ldr	r2, .L102+48
 2176 00cc 9342     		cmp	r3, r2
 2177 00ce 0ED0     		beq	.L85
 2178              		.loc 1 706 5 discriminator 26
 2179 00d0 FB68     		ldr	r3, [r7, #12]
 2180 00d2 1B68     		ldr	r3, [r3]
 2181 00d4 544A     		ldr	r2, .L102+52
 2182 00d6 9342     		cmp	r3, r2
 2183 00d8 09D0     		beq	.L85
 2184              		.loc 1 706 5 discriminator 28
 2185 00da FB68     		ldr	r3, [r7, #12]
 2186 00dc 1B68     		ldr	r3, [r3]
 2187 00de 534A     		ldr	r2, .L102+56
 2188 00e0 9342     		cmp	r3, r2
 2189 00e2 04D0     		beq	.L85
 2190              		.loc 1 706 5 discriminator 30
 2191 00e4 FB68     		ldr	r3, [r7, #12]
 2192 00e6 1B68     		ldr	r3, [r3]
 2193 00e8 514A     		ldr	r2, .L102+60
ARM GAS  /var/folders/g1/j12m_ky910s3_sv7d4yrsdn00000gn/T//ccliMUVd.s 			page 52


 2194 00ea 9342     		cmp	r3, r2
 2195 00ec 08D1     		bne	.L86
 2196              	.L85:
 2197              		.loc 1 706 5 discriminator 31
 2198 00ee FB68     		ldr	r3, [r7, #12]
 2199 00f0 1B68     		ldr	r3, [r3]
 2200 00f2 1A68     		ldr	r2, [r3]
 2201 00f4 FB68     		ldr	r3, [r7, #12]
 2202 00f6 1B68     		ldr	r3, [r3]
 2203 00f8 22F00102 		bic	r2, r2, #1
 2204 00fc 1A60     		str	r2, [r3]
 2205              		.loc 1 706 5
 2206 00fe 07E0     		b	.L87
 2207              	.L86:
 2208              		.loc 1 706 5 discriminator 32
 2209 0100 FB68     		ldr	r3, [r7, #12]
 2210 0102 1B68     		ldr	r3, [r3]
 2211 0104 1A68     		ldr	r2, [r3]
 2212 0106 FB68     		ldr	r3, [r7, #12]
 2213 0108 1B68     		ldr	r3, [r3]
 2214 010a 22F00102 		bic	r2, r2, #1
 2215 010e 1A60     		str	r2, [r3]
 2216              	.L87:
 707:Drivers/STM32H7xx_HAL_Driver/Src/stm32h7xx_hal_dma.c **** 
 708:Drivers/STM32H7xx_HAL_Driver/Src/stm32h7xx_hal_dma.c ****     /* Configure the source, destination address and the data length */
 709:Drivers/STM32H7xx_HAL_Driver/Src/stm32h7xx_hal_dma.c ****     DMA_SetConfig(hdma, SrcAddress, DstAddress, DataLength);
 2217              		.loc 1 709 5 is_stmt 1
 2218 0110 3B68     		ldr	r3, [r7]
 2219 0112 7A68     		ldr	r2, [r7, #4]
 2220 0114 B968     		ldr	r1, [r7, #8]
 2221 0116 F868     		ldr	r0, [r7, #12]
 2222 0118 FFF7FEFF 		bl	DMA_SetConfig
 710:Drivers/STM32H7xx_HAL_Driver/Src/stm32h7xx_hal_dma.c **** 
 711:Drivers/STM32H7xx_HAL_Driver/Src/stm32h7xx_hal_dma.c ****     if(IS_DMA_STREAM_INSTANCE(hdma->Instance) != 0U) /* DMA1 or DMA2 instance */
 2223              		.loc 1 711 8
 2224 011c FB68     		ldr	r3, [r7, #12]
 2225 011e 1B68     		ldr	r3, [r3]
 2226 0120 344A     		ldr	r2, .L102
 2227 0122 9342     		cmp	r3, r2
 2228 0124 4AD0     		beq	.L88
 2229              		.loc 1 711 8 is_stmt 0 discriminator 2
 2230 0126 FB68     		ldr	r3, [r7, #12]
 2231 0128 1B68     		ldr	r3, [r3]
 2232 012a 334A     		ldr	r2, .L102+4
 2233 012c 9342     		cmp	r3, r2
 2234 012e 45D0     		beq	.L88
 2235              		.loc 1 711 8 discriminator 4
 2236 0130 FB68     		ldr	r3, [r7, #12]
 2237 0132 1B68     		ldr	r3, [r3]
 2238 0134 314A     		ldr	r2, .L102+8
 2239 0136 9342     		cmp	r3, r2
 2240 0138 40D0     		beq	.L88
 2241              		.loc 1 711 8 discriminator 6
 2242 013a FB68     		ldr	r3, [r7, #12]
 2243 013c 1B68     		ldr	r3, [r3]
 2244 013e 304A     		ldr	r2, .L102+12
 2245 0140 9342     		cmp	r3, r2
ARM GAS  /var/folders/g1/j12m_ky910s3_sv7d4yrsdn00000gn/T//ccliMUVd.s 			page 53


 2246 0142 3BD0     		beq	.L88
 2247              		.loc 1 711 8 discriminator 8
 2248 0144 FB68     		ldr	r3, [r7, #12]
 2249 0146 1B68     		ldr	r3, [r3]
 2250 0148 2E4A     		ldr	r2, .L102+16
 2251 014a 9342     		cmp	r3, r2
 2252 014c 36D0     		beq	.L88
 2253              		.loc 1 711 8 discriminator 10
 2254 014e FB68     		ldr	r3, [r7, #12]
 2255 0150 1B68     		ldr	r3, [r3]
 2256 0152 2D4A     		ldr	r2, .L102+20
 2257 0154 9342     		cmp	r3, r2
 2258 0156 31D0     		beq	.L88
 2259              		.loc 1 711 8 discriminator 12
 2260 0158 FB68     		ldr	r3, [r7, #12]
 2261 015a 1B68     		ldr	r3, [r3]
 2262 015c 2B4A     		ldr	r2, .L102+24
 2263 015e 9342     		cmp	r3, r2
 2264 0160 2CD0     		beq	.L88
 2265              		.loc 1 711 8 discriminator 14
 2266 0162 FB68     		ldr	r3, [r7, #12]
 2267 0164 1B68     		ldr	r3, [r3]
 2268 0166 2A4A     		ldr	r2, .L102+28
 2269 0168 9342     		cmp	r3, r2
 2270 016a 27D0     		beq	.L88
 2271              		.loc 1 711 8 discriminator 16
 2272 016c FB68     		ldr	r3, [r7, #12]
 2273 016e 1B68     		ldr	r3, [r3]
 2274 0170 284A     		ldr	r2, .L102+32
 2275 0172 9342     		cmp	r3, r2
 2276 0174 22D0     		beq	.L88
 2277              		.loc 1 711 8 discriminator 18
 2278 0176 FB68     		ldr	r3, [r7, #12]
 2279 0178 1B68     		ldr	r3, [r3]
 2280 017a 274A     		ldr	r2, .L102+36
 2281 017c 9342     		cmp	r3, r2
 2282 017e 1DD0     		beq	.L88
 2283              		.loc 1 711 8 discriminator 20
 2284 0180 FB68     		ldr	r3, [r7, #12]
 2285 0182 1B68     		ldr	r3, [r3]
 2286 0184 254A     		ldr	r2, .L102+40
 2287 0186 9342     		cmp	r3, r2
 2288 0188 18D0     		beq	.L88
 2289              		.loc 1 711 8 discriminator 22
 2290 018a FB68     		ldr	r3, [r7, #12]
 2291 018c 1B68     		ldr	r3, [r3]
 2292 018e 244A     		ldr	r2, .L102+44
 2293 0190 9342     		cmp	r3, r2
 2294 0192 13D0     		beq	.L88
 2295              		.loc 1 711 8 discriminator 24
 2296 0194 FB68     		ldr	r3, [r7, #12]
 2297 0196 1B68     		ldr	r3, [r3]
 2298 0198 224A     		ldr	r2, .L102+48
 2299 019a 9342     		cmp	r3, r2
 2300 019c 0ED0     		beq	.L88
 2301              		.loc 1 711 8 discriminator 26
 2302 019e FB68     		ldr	r3, [r7, #12]
ARM GAS  /var/folders/g1/j12m_ky910s3_sv7d4yrsdn00000gn/T//ccliMUVd.s 			page 54


 2303 01a0 1B68     		ldr	r3, [r3]
 2304 01a2 214A     		ldr	r2, .L102+52
 2305 01a4 9342     		cmp	r3, r2
 2306 01a6 09D0     		beq	.L88
 2307              		.loc 1 711 8 discriminator 28
 2308 01a8 FB68     		ldr	r3, [r7, #12]
 2309 01aa 1B68     		ldr	r3, [r3]
 2310 01ac 1F4A     		ldr	r2, .L102+56
 2311 01ae 9342     		cmp	r3, r2
 2312 01b0 04D0     		beq	.L88
 2313              		.loc 1 711 8 discriminator 30
 2314 01b2 FB68     		ldr	r3, [r7, #12]
 2315 01b4 1B68     		ldr	r3, [r3]
 2316 01b6 1E4A     		ldr	r2, .L102+60
 2317 01b8 9342     		cmp	r3, r2
 2318 01ba 01D1     		bne	.L89
 2319              	.L88:
 2320              		.loc 1 711 8 discriminator 31
 2321 01bc 0123     		movs	r3, #1
 2322              		.loc 1 711 8
 2323 01be 00E0     		b	.L90
 2324              	.L89:
 2325              		.loc 1 711 8 discriminator 32
 2326 01c0 0023     		movs	r3, #0
 2327              	.L90:
 2328              		.loc 1 711 7 is_stmt 1 discriminator 34
 2329 01c2 002B     		cmp	r3, #0
 2330 01c4 36D0     		beq	.L91
 712:Drivers/STM32H7xx_HAL_Driver/Src/stm32h7xx_hal_dma.c ****     {
 713:Drivers/STM32H7xx_HAL_Driver/Src/stm32h7xx_hal_dma.c ****       /* Enable Common interrupts*/
 714:Drivers/STM32H7xx_HAL_Driver/Src/stm32h7xx_hal_dma.c ****       MODIFY_REG(((DMA_Stream_TypeDef   *)hdma->Instance)->CR, (DMA_IT_TC | DMA_IT_TE | DMA_IT_DME 
 2331              		.loc 1 714 7
 2332 01c6 FB68     		ldr	r3, [r7, #12]
 2333 01c8 1B68     		ldr	r3, [r3]
 2334 01ca 1B68     		ldr	r3, [r3]
 2335 01cc 23F01E02 		bic	r2, r3, #30
 2336 01d0 FB68     		ldr	r3, [r7, #12]
 2337 01d2 1B68     		ldr	r3, [r3]
 2338 01d4 42F01602 		orr	r2, r2, #22
 2339 01d8 1A60     		str	r2, [r3]
 715:Drivers/STM32H7xx_HAL_Driver/Src/stm32h7xx_hal_dma.c **** 
 716:Drivers/STM32H7xx_HAL_Driver/Src/stm32h7xx_hal_dma.c ****       if(hdma->XferHalfCpltCallback != NULL)
 2340              		.loc 1 716 14
 2341 01da FB68     		ldr	r3, [r7, #12]
 2342 01dc 1B6C     		ldr	r3, [r3, #64]
 2343              		.loc 1 716 9
 2344 01de 002B     		cmp	r3, #0
 2345 01e0 3ED0     		beq	.L92
 717:Drivers/STM32H7xx_HAL_Driver/Src/stm32h7xx_hal_dma.c ****       {
 718:Drivers/STM32H7xx_HAL_Driver/Src/stm32h7xx_hal_dma.c ****         /* Enable Half Transfer IT if corresponding Callback is set */
 719:Drivers/STM32H7xx_HAL_Driver/Src/stm32h7xx_hal_dma.c ****         ((DMA_Stream_TypeDef   *)hdma->Instance)->CR  |= DMA_IT_HT;
 2346              		.loc 1 719 38
 2347 01e2 FB68     		ldr	r3, [r7, #12]
 2348 01e4 1B68     		ldr	r3, [r3]
 2349              		.loc 1 719 49
 2350 01e6 1A68     		ldr	r2, [r3]
 2351              		.loc 1 719 38
ARM GAS  /var/folders/g1/j12m_ky910s3_sv7d4yrsdn00000gn/T//ccliMUVd.s 			page 55


 2352 01e8 FB68     		ldr	r3, [r7, #12]
 2353 01ea 1B68     		ldr	r3, [r3]
 2354              		.loc 1 719 55
 2355 01ec 42F00802 		orr	r2, r2, #8
 2356 01f0 1A60     		str	r2, [r3]
 2357 01f2 35E0     		b	.L92
 2358              	.L103:
 2359              		.align	2
 2360              	.L102:
 2361 01f4 10000240 		.word	1073872912
 2362 01f8 28000240 		.word	1073872936
 2363 01fc 40000240 		.word	1073872960
 2364 0200 58000240 		.word	1073872984
 2365 0204 70000240 		.word	1073873008
 2366 0208 88000240 		.word	1073873032
 2367 020c A0000240 		.word	1073873056
 2368 0210 B8000240 		.word	1073873080
 2369 0214 10040240 		.word	1073873936
 2370 0218 28040240 		.word	1073873960
 2371 021c 40040240 		.word	1073873984
 2372 0220 58040240 		.word	1073874008
 2373 0224 70040240 		.word	1073874032
 2374 0228 88040240 		.word	1073874056
 2375 022c A0040240 		.word	1073874080
 2376 0230 B8040240 		.word	1073874104
 2377              	.L91:
 720:Drivers/STM32H7xx_HAL_Driver/Src/stm32h7xx_hal_dma.c ****       }
 721:Drivers/STM32H7xx_HAL_Driver/Src/stm32h7xx_hal_dma.c ****     }
 722:Drivers/STM32H7xx_HAL_Driver/Src/stm32h7xx_hal_dma.c ****     else /* BDMA channel */
 723:Drivers/STM32H7xx_HAL_Driver/Src/stm32h7xx_hal_dma.c ****     {
 724:Drivers/STM32H7xx_HAL_Driver/Src/stm32h7xx_hal_dma.c ****       /* Enable Common interrupts */
 725:Drivers/STM32H7xx_HAL_Driver/Src/stm32h7xx_hal_dma.c ****       MODIFY_REG(((BDMA_Channel_TypeDef   *)hdma->Instance)->CCR, (BDMA_CCR_TCIE | BDMA_CCR_HTIE | 
 2378              		.loc 1 725 7
 2379 0234 FB68     		ldr	r3, [r7, #12]
 2380 0236 1B68     		ldr	r3, [r3]
 2381 0238 1B68     		ldr	r3, [r3]
 2382 023a 23F00E02 		bic	r2, r3, #14
 2383 023e FB68     		ldr	r3, [r7, #12]
 2384 0240 1B68     		ldr	r3, [r3]
 2385 0242 42F00A02 		orr	r2, r2, #10
 2386 0246 1A60     		str	r2, [r3]
 726:Drivers/STM32H7xx_HAL_Driver/Src/stm32h7xx_hal_dma.c **** 
 727:Drivers/STM32H7xx_HAL_Driver/Src/stm32h7xx_hal_dma.c ****       if(hdma->XferHalfCpltCallback != NULL)
 2387              		.loc 1 727 14
 2388 0248 FB68     		ldr	r3, [r7, #12]
 2389 024a 1B6C     		ldr	r3, [r3, #64]
 2390              		.loc 1 727 9
 2391 024c 002B     		cmp	r3, #0
 2392 024e 07D0     		beq	.L92
 728:Drivers/STM32H7xx_HAL_Driver/Src/stm32h7xx_hal_dma.c ****       {
 729:Drivers/STM32H7xx_HAL_Driver/Src/stm32h7xx_hal_dma.c ****         /*Enable Half Transfer IT if corresponding Callback is set */
 730:Drivers/STM32H7xx_HAL_Driver/Src/stm32h7xx_hal_dma.c ****         ((BDMA_Channel_TypeDef   *)hdma->Instance)->CCR  |= BDMA_CCR_HTIE;
 2393              		.loc 1 730 40
 2394 0250 FB68     		ldr	r3, [r7, #12]
 2395 0252 1B68     		ldr	r3, [r3]
 2396              		.loc 1 730 51
 2397 0254 1A68     		ldr	r2, [r3]
ARM GAS  /var/folders/g1/j12m_ky910s3_sv7d4yrsdn00000gn/T//ccliMUVd.s 			page 56


 2398              		.loc 1 730 40
 2399 0256 FB68     		ldr	r3, [r7, #12]
 2400 0258 1B68     		ldr	r3, [r3]
 2401              		.loc 1 730 58
 2402 025a 42F00402 		orr	r2, r2, #4
 2403 025e 1A60     		str	r2, [r3]
 2404              	.L92:
 731:Drivers/STM32H7xx_HAL_Driver/Src/stm32h7xx_hal_dma.c ****       }
 732:Drivers/STM32H7xx_HAL_Driver/Src/stm32h7xx_hal_dma.c ****     }
 733:Drivers/STM32H7xx_HAL_Driver/Src/stm32h7xx_hal_dma.c **** 
 734:Drivers/STM32H7xx_HAL_Driver/Src/stm32h7xx_hal_dma.c ****     if(IS_DMA_DMAMUX_ALL_INSTANCE(hdma->Instance) != 0U) /* No DMAMUX available for BDMA1 */
 2405              		.loc 1 734 8
 2406 0260 FB68     		ldr	r3, [r7, #12]
 2407 0262 1B68     		ldr	r3, [r3]
 2408 0264 834A     		ldr	r2, .L104
 2409 0266 9342     		cmp	r3, r2
 2410 0268 72D0     		beq	.L93
 2411              		.loc 1 734 8 is_stmt 0 discriminator 2
 2412 026a FB68     		ldr	r3, [r7, #12]
 2413 026c 1B68     		ldr	r3, [r3]
 2414 026e 824A     		ldr	r2, .L104+4
 2415 0270 9342     		cmp	r3, r2
 2416 0272 6DD0     		beq	.L93
 2417              		.loc 1 734 8 discriminator 4
 2418 0274 FB68     		ldr	r3, [r7, #12]
 2419 0276 1B68     		ldr	r3, [r3]
 2420 0278 804A     		ldr	r2, .L104+8
 2421 027a 9342     		cmp	r3, r2
 2422 027c 68D0     		beq	.L93
 2423              		.loc 1 734 8 discriminator 6
 2424 027e FB68     		ldr	r3, [r7, #12]
 2425 0280 1B68     		ldr	r3, [r3]
 2426 0282 7F4A     		ldr	r2, .L104+12
 2427 0284 9342     		cmp	r3, r2
 2428 0286 63D0     		beq	.L93
 2429              		.loc 1 734 8 discriminator 8
 2430 0288 FB68     		ldr	r3, [r7, #12]
 2431 028a 1B68     		ldr	r3, [r3]
 2432 028c 7D4A     		ldr	r2, .L104+16
 2433 028e 9342     		cmp	r3, r2
 2434 0290 5ED0     		beq	.L93
 2435              		.loc 1 734 8 discriminator 10
 2436 0292 FB68     		ldr	r3, [r7, #12]
 2437 0294 1B68     		ldr	r3, [r3]
 2438 0296 7C4A     		ldr	r2, .L104+20
 2439 0298 9342     		cmp	r3, r2
 2440 029a 59D0     		beq	.L93
 2441              		.loc 1 734 8 discriminator 12
 2442 029c FB68     		ldr	r3, [r7, #12]
 2443 029e 1B68     		ldr	r3, [r3]
 2444 02a0 7A4A     		ldr	r2, .L104+24
 2445 02a2 9342     		cmp	r3, r2
 2446 02a4 54D0     		beq	.L93
 2447              		.loc 1 734 8 discriminator 14
 2448 02a6 FB68     		ldr	r3, [r7, #12]
 2449 02a8 1B68     		ldr	r3, [r3]
 2450 02aa 794A     		ldr	r2, .L104+28
ARM GAS  /var/folders/g1/j12m_ky910s3_sv7d4yrsdn00000gn/T//ccliMUVd.s 			page 57


 2451 02ac 9342     		cmp	r3, r2
 2452 02ae 4FD0     		beq	.L93
 2453              		.loc 1 734 8 discriminator 16
 2454 02b0 FB68     		ldr	r3, [r7, #12]
 2455 02b2 1B68     		ldr	r3, [r3]
 2456 02b4 774A     		ldr	r2, .L104+32
 2457 02b6 9342     		cmp	r3, r2
 2458 02b8 4AD0     		beq	.L93
 2459              		.loc 1 734 8 discriminator 18
 2460 02ba FB68     		ldr	r3, [r7, #12]
 2461 02bc 1B68     		ldr	r3, [r3]
 2462 02be 764A     		ldr	r2, .L104+36
 2463 02c0 9342     		cmp	r3, r2
 2464 02c2 45D0     		beq	.L93
 2465              		.loc 1 734 8 discriminator 20
 2466 02c4 FB68     		ldr	r3, [r7, #12]
 2467 02c6 1B68     		ldr	r3, [r3]
 2468 02c8 744A     		ldr	r2, .L104+40
 2469 02ca 9342     		cmp	r3, r2
 2470 02cc 40D0     		beq	.L93
 2471              		.loc 1 734 8 discriminator 22
 2472 02ce FB68     		ldr	r3, [r7, #12]
 2473 02d0 1B68     		ldr	r3, [r3]
 2474 02d2 734A     		ldr	r2, .L104+44
 2475 02d4 9342     		cmp	r3, r2
 2476 02d6 3BD0     		beq	.L93
 2477              		.loc 1 734 8 discriminator 24
 2478 02d8 FB68     		ldr	r3, [r7, #12]
 2479 02da 1B68     		ldr	r3, [r3]
 2480 02dc 714A     		ldr	r2, .L104+48
 2481 02de 9342     		cmp	r3, r2
 2482 02e0 36D0     		beq	.L93
 2483              		.loc 1 734 8 discriminator 26
 2484 02e2 FB68     		ldr	r3, [r7, #12]
 2485 02e4 1B68     		ldr	r3, [r3]
 2486 02e6 704A     		ldr	r2, .L104+52
 2487 02e8 9342     		cmp	r3, r2
 2488 02ea 31D0     		beq	.L93
 2489              		.loc 1 734 8 discriminator 28
 2490 02ec FB68     		ldr	r3, [r7, #12]
 2491 02ee 1B68     		ldr	r3, [r3]
 2492 02f0 6E4A     		ldr	r2, .L104+56
 2493 02f2 9342     		cmp	r3, r2
 2494 02f4 2CD0     		beq	.L93
 2495              		.loc 1 734 8 discriminator 30
 2496 02f6 FB68     		ldr	r3, [r7, #12]
 2497 02f8 1B68     		ldr	r3, [r3]
 2498 02fa 6D4A     		ldr	r2, .L104+60
 2499 02fc 9342     		cmp	r3, r2
 2500 02fe 27D0     		beq	.L93
 2501              		.loc 1 734 8 discriminator 32
 2502 0300 FB68     		ldr	r3, [r7, #12]
 2503 0302 1B68     		ldr	r3, [r3]
 2504 0304 6B4A     		ldr	r2, .L104+64
 2505 0306 9342     		cmp	r3, r2
 2506 0308 22D0     		beq	.L93
 2507              		.loc 1 734 8 discriminator 34
ARM GAS  /var/folders/g1/j12m_ky910s3_sv7d4yrsdn00000gn/T//ccliMUVd.s 			page 58


 2508 030a FB68     		ldr	r3, [r7, #12]
 2509 030c 1B68     		ldr	r3, [r3]
 2510 030e 6A4A     		ldr	r2, .L104+68
 2511 0310 9342     		cmp	r3, r2
 2512 0312 1DD0     		beq	.L93
 2513              		.loc 1 734 8 discriminator 36
 2514 0314 FB68     		ldr	r3, [r7, #12]
 2515 0316 1B68     		ldr	r3, [r3]
 2516 0318 684A     		ldr	r2, .L104+72
 2517 031a 9342     		cmp	r3, r2
 2518 031c 18D0     		beq	.L93
 2519              		.loc 1 734 8 discriminator 38
 2520 031e FB68     		ldr	r3, [r7, #12]
 2521 0320 1B68     		ldr	r3, [r3]
 2522 0322 674A     		ldr	r2, .L104+76
 2523 0324 9342     		cmp	r3, r2
 2524 0326 13D0     		beq	.L93
 2525              		.loc 1 734 8 discriminator 40
 2526 0328 FB68     		ldr	r3, [r7, #12]
 2527 032a 1B68     		ldr	r3, [r3]
 2528 032c 654A     		ldr	r2, .L104+80
 2529 032e 9342     		cmp	r3, r2
 2530 0330 0ED0     		beq	.L93
 2531              		.loc 1 734 8 discriminator 42
 2532 0332 FB68     		ldr	r3, [r7, #12]
 2533 0334 1B68     		ldr	r3, [r3]
 2534 0336 644A     		ldr	r2, .L104+84
 2535 0338 9342     		cmp	r3, r2
 2536 033a 09D0     		beq	.L93
 2537              		.loc 1 734 8 discriminator 44
 2538 033c FB68     		ldr	r3, [r7, #12]
 2539 033e 1B68     		ldr	r3, [r3]
 2540 0340 624A     		ldr	r2, .L104+88
 2541 0342 9342     		cmp	r3, r2
 2542 0344 04D0     		beq	.L93
 2543              		.loc 1 734 8 discriminator 46
 2544 0346 FB68     		ldr	r3, [r7, #12]
 2545 0348 1B68     		ldr	r3, [r3]
 2546 034a 614A     		ldr	r2, .L104+92
 2547 034c 9342     		cmp	r3, r2
 2548 034e 01D1     		bne	.L94
 2549              	.L93:
 2550              		.loc 1 734 8 discriminator 47
 2551 0350 0123     		movs	r3, #1
 2552              		.loc 1 734 8
 2553 0352 00E0     		b	.L95
 2554              	.L94:
 2555              		.loc 1 734 8 discriminator 48
 2556 0354 0023     		movs	r3, #0
 2557              	.L95:
 2558              		.loc 1 734 7 is_stmt 1 discriminator 50
 2559 0356 002B     		cmp	r3, #0
 2560 0358 1AD0     		beq	.L96
 735:Drivers/STM32H7xx_HAL_Driver/Src/stm32h7xx_hal_dma.c ****     {
 736:Drivers/STM32H7xx_HAL_Driver/Src/stm32h7xx_hal_dma.c ****       /* Check if DMAMUX Synchronization is enabled */
 737:Drivers/STM32H7xx_HAL_Driver/Src/stm32h7xx_hal_dma.c ****       if((hdma->DMAmuxChannel->CCR & DMAMUX_CxCR_SE) != 0U)
 2561              		.loc 1 737 15
ARM GAS  /var/folders/g1/j12m_ky910s3_sv7d4yrsdn00000gn/T//ccliMUVd.s 			page 59


 2562 035a FB68     		ldr	r3, [r7, #12]
 2563 035c 1B6E     		ldr	r3, [r3, #96]
 2564              		.loc 1 737 30
 2565 035e 1B68     		ldr	r3, [r3]
 2566              		.loc 1 737 36
 2567 0360 03F48033 		and	r3, r3, #65536
 2568              		.loc 1 737 9
 2569 0364 002B     		cmp	r3, #0
 2570 0366 07D0     		beq	.L97
 738:Drivers/STM32H7xx_HAL_Driver/Src/stm32h7xx_hal_dma.c ****       {
 739:Drivers/STM32H7xx_HAL_Driver/Src/stm32h7xx_hal_dma.c ****         /* Enable DMAMUX sync overrun IT*/
 740:Drivers/STM32H7xx_HAL_Driver/Src/stm32h7xx_hal_dma.c ****         hdma->DMAmuxChannel->CCR |= DMAMUX_CxCR_SOIE;
 2571              		.loc 1 740 13
 2572 0368 FB68     		ldr	r3, [r7, #12]
 2573 036a 1B6E     		ldr	r3, [r3, #96]
 2574              		.loc 1 740 28
 2575 036c 1A68     		ldr	r2, [r3]
 2576              		.loc 1 740 13
 2577 036e FB68     		ldr	r3, [r7, #12]
 2578 0370 1B6E     		ldr	r3, [r3, #96]
 2579              		.loc 1 740 34
 2580 0372 42F48072 		orr	r2, r2, #256
 2581 0376 1A60     		str	r2, [r3]
 2582              	.L97:
 741:Drivers/STM32H7xx_HAL_Driver/Src/stm32h7xx_hal_dma.c ****       }
 742:Drivers/STM32H7xx_HAL_Driver/Src/stm32h7xx_hal_dma.c **** 
 743:Drivers/STM32H7xx_HAL_Driver/Src/stm32h7xx_hal_dma.c ****       if(hdma->DMAmuxRequestGen != 0U)
 2583              		.loc 1 743 14
 2584 0378 FB68     		ldr	r3, [r7, #12]
 2585 037a DB6E     		ldr	r3, [r3, #108]
 2586              		.loc 1 743 9
 2587 037c 002B     		cmp	r3, #0
 2588 037e 07D0     		beq	.L96
 744:Drivers/STM32H7xx_HAL_Driver/Src/stm32h7xx_hal_dma.c ****       {
 745:Drivers/STM32H7xx_HAL_Driver/Src/stm32h7xx_hal_dma.c ****         /* if using DMAMUX request generator, enable the DMAMUX request generator overrun IT*/
 746:Drivers/STM32H7xx_HAL_Driver/Src/stm32h7xx_hal_dma.c ****         /* enable the request gen overrun IT */
 747:Drivers/STM32H7xx_HAL_Driver/Src/stm32h7xx_hal_dma.c ****         hdma->DMAmuxRequestGen->RGCR |= DMAMUX_RGxCR_OIE;
 2589              		.loc 1 747 13
 2590 0380 FB68     		ldr	r3, [r7, #12]
 2591 0382 DB6E     		ldr	r3, [r3, #108]
 2592              		.loc 1 747 31
 2593 0384 1A68     		ldr	r2, [r3]
 2594              		.loc 1 747 13
 2595 0386 FB68     		ldr	r3, [r7, #12]
 2596 0388 DB6E     		ldr	r3, [r3, #108]
 2597              		.loc 1 747 38
 2598 038a 42F48072 		orr	r2, r2, #256
 2599 038e 1A60     		str	r2, [r3]
 2600              	.L96:
 748:Drivers/STM32H7xx_HAL_Driver/Src/stm32h7xx_hal_dma.c ****       }
 749:Drivers/STM32H7xx_HAL_Driver/Src/stm32h7xx_hal_dma.c ****     }
 750:Drivers/STM32H7xx_HAL_Driver/Src/stm32h7xx_hal_dma.c **** 
 751:Drivers/STM32H7xx_HAL_Driver/Src/stm32h7xx_hal_dma.c ****     /* Enable the Peripheral */
 752:Drivers/STM32H7xx_HAL_Driver/Src/stm32h7xx_hal_dma.c ****     __HAL_DMA_ENABLE(hdma);
 2601              		.loc 1 752 5
 2602 0390 FB68     		ldr	r3, [r7, #12]
 2603 0392 1B68     		ldr	r3, [r3]
ARM GAS  /var/folders/g1/j12m_ky910s3_sv7d4yrsdn00000gn/T//ccliMUVd.s 			page 60


 2604 0394 374A     		ldr	r2, .L104
 2605 0396 9342     		cmp	r3, r2
 2606 0398 4AD0     		beq	.L98
 2607              		.loc 1 752 5 is_stmt 0 discriminator 2
 2608 039a FB68     		ldr	r3, [r7, #12]
 2609 039c 1B68     		ldr	r3, [r3]
 2610 039e 364A     		ldr	r2, .L104+4
 2611 03a0 9342     		cmp	r3, r2
 2612 03a2 45D0     		beq	.L98
 2613              		.loc 1 752 5 discriminator 4
 2614 03a4 FB68     		ldr	r3, [r7, #12]
 2615 03a6 1B68     		ldr	r3, [r3]
 2616 03a8 344A     		ldr	r2, .L104+8
 2617 03aa 9342     		cmp	r3, r2
 2618 03ac 40D0     		beq	.L98
 2619              		.loc 1 752 5 discriminator 6
 2620 03ae FB68     		ldr	r3, [r7, #12]
 2621 03b0 1B68     		ldr	r3, [r3]
 2622 03b2 334A     		ldr	r2, .L104+12
 2623 03b4 9342     		cmp	r3, r2
 2624 03b6 3BD0     		beq	.L98
 2625              		.loc 1 752 5 discriminator 8
 2626 03b8 FB68     		ldr	r3, [r7, #12]
 2627 03ba 1B68     		ldr	r3, [r3]
 2628 03bc 314A     		ldr	r2, .L104+16
 2629 03be 9342     		cmp	r3, r2
 2630 03c0 36D0     		beq	.L98
 2631              		.loc 1 752 5 discriminator 10
 2632 03c2 FB68     		ldr	r3, [r7, #12]
 2633 03c4 1B68     		ldr	r3, [r3]
 2634 03c6 304A     		ldr	r2, .L104+20
 2635 03c8 9342     		cmp	r3, r2
 2636 03ca 31D0     		beq	.L98
 2637              		.loc 1 752 5 discriminator 12
 2638 03cc FB68     		ldr	r3, [r7, #12]
 2639 03ce 1B68     		ldr	r3, [r3]
 2640 03d0 2E4A     		ldr	r2, .L104+24
 2641 03d2 9342     		cmp	r3, r2
 2642 03d4 2CD0     		beq	.L98
 2643              		.loc 1 752 5 discriminator 14
 2644 03d6 FB68     		ldr	r3, [r7, #12]
 2645 03d8 1B68     		ldr	r3, [r3]
 2646 03da 2D4A     		ldr	r2, .L104+28
 2647 03dc 9342     		cmp	r3, r2
 2648 03de 27D0     		beq	.L98
 2649              		.loc 1 752 5 discriminator 16
 2650 03e0 FB68     		ldr	r3, [r7, #12]
 2651 03e2 1B68     		ldr	r3, [r3]
 2652 03e4 2B4A     		ldr	r2, .L104+32
 2653 03e6 9342     		cmp	r3, r2
 2654 03e8 22D0     		beq	.L98
 2655              		.loc 1 752 5 discriminator 18
 2656 03ea FB68     		ldr	r3, [r7, #12]
 2657 03ec 1B68     		ldr	r3, [r3]
 2658 03ee 2A4A     		ldr	r2, .L104+36
 2659 03f0 9342     		cmp	r3, r2
 2660 03f2 1DD0     		beq	.L98
ARM GAS  /var/folders/g1/j12m_ky910s3_sv7d4yrsdn00000gn/T//ccliMUVd.s 			page 61


 2661              		.loc 1 752 5 discriminator 20
 2662 03f4 FB68     		ldr	r3, [r7, #12]
 2663 03f6 1B68     		ldr	r3, [r3]
 2664 03f8 284A     		ldr	r2, .L104+40
 2665 03fa 9342     		cmp	r3, r2
 2666 03fc 18D0     		beq	.L98
 2667              		.loc 1 752 5 discriminator 22
 2668 03fe FB68     		ldr	r3, [r7, #12]
 2669 0400 1B68     		ldr	r3, [r3]
 2670 0402 274A     		ldr	r2, .L104+44
 2671 0404 9342     		cmp	r3, r2
 2672 0406 13D0     		beq	.L98
 2673              		.loc 1 752 5 discriminator 24
 2674 0408 FB68     		ldr	r3, [r7, #12]
 2675 040a 1B68     		ldr	r3, [r3]
 2676 040c 254A     		ldr	r2, .L104+48
 2677 040e 9342     		cmp	r3, r2
 2678 0410 0ED0     		beq	.L98
 2679              		.loc 1 752 5 discriminator 26
 2680 0412 FB68     		ldr	r3, [r7, #12]
 2681 0414 1B68     		ldr	r3, [r3]
 2682 0416 244A     		ldr	r2, .L104+52
 2683 0418 9342     		cmp	r3, r2
 2684 041a 09D0     		beq	.L98
 2685              		.loc 1 752 5 discriminator 28
 2686 041c FB68     		ldr	r3, [r7, #12]
 2687 041e 1B68     		ldr	r3, [r3]
 2688 0420 224A     		ldr	r2, .L104+56
 2689 0422 9342     		cmp	r3, r2
 2690 0424 04D0     		beq	.L98
 2691              		.loc 1 752 5 discriminator 30
 2692 0426 FB68     		ldr	r3, [r7, #12]
 2693 0428 1B68     		ldr	r3, [r3]
 2694 042a 214A     		ldr	r2, .L104+60
 2695 042c 9342     		cmp	r3, r2
 2696 042e 08D1     		bne	.L99
 2697              	.L98:
 2698              		.loc 1 752 5 discriminator 31
 2699 0430 FB68     		ldr	r3, [r7, #12]
 2700 0432 1B68     		ldr	r3, [r3]
 2701 0434 1A68     		ldr	r2, [r3]
 2702 0436 FB68     		ldr	r3, [r7, #12]
 2703 0438 1B68     		ldr	r3, [r3]
 2704 043a 42F00102 		orr	r2, r2, #1
 2705 043e 1A60     		str	r2, [r3]
 2706              		.loc 1 752 5
 2707 0440 12E0     		b	.L101
 2708              	.L99:
 2709              		.loc 1 752 5 discriminator 32
 2710 0442 FB68     		ldr	r3, [r7, #12]
 2711 0444 1B68     		ldr	r3, [r3]
 2712 0446 1A68     		ldr	r2, [r3]
 2713 0448 FB68     		ldr	r3, [r7, #12]
 2714 044a 1B68     		ldr	r3, [r3]
 2715 044c 42F00102 		orr	r2, r2, #1
 2716 0450 1A60     		str	r2, [r3]
 2717 0452 09E0     		b	.L101
ARM GAS  /var/folders/g1/j12m_ky910s3_sv7d4yrsdn00000gn/T//ccliMUVd.s 			page 62


 2718              	.L84:
 753:Drivers/STM32H7xx_HAL_Driver/Src/stm32h7xx_hal_dma.c ****   }
 754:Drivers/STM32H7xx_HAL_Driver/Src/stm32h7xx_hal_dma.c ****   else
 755:Drivers/STM32H7xx_HAL_Driver/Src/stm32h7xx_hal_dma.c ****   {
 756:Drivers/STM32H7xx_HAL_Driver/Src/stm32h7xx_hal_dma.c ****     /* Set the error code to busy */
 757:Drivers/STM32H7xx_HAL_Driver/Src/stm32h7xx_hal_dma.c ****     hdma->ErrorCode = HAL_DMA_ERROR_BUSY;
 2719              		.loc 1 757 21 is_stmt 1
 2720 0454 FB68     		ldr	r3, [r7, #12]
 2721 0456 4FF40062 		mov	r2, #2048
 2722 045a 5A65     		str	r2, [r3, #84]
 758:Drivers/STM32H7xx_HAL_Driver/Src/stm32h7xx_hal_dma.c **** 
 759:Drivers/STM32H7xx_HAL_Driver/Src/stm32h7xx_hal_dma.c ****     /* Process unlocked */
 760:Drivers/STM32H7xx_HAL_Driver/Src/stm32h7xx_hal_dma.c ****     __HAL_UNLOCK(hdma);
 2723              		.loc 1 760 5
 2724 045c FB68     		ldr	r3, [r7, #12]
 2725 045e 0022     		movs	r2, #0
 2726 0460 83F83420 		strb	r2, [r3, #52]
 761:Drivers/STM32H7xx_HAL_Driver/Src/stm32h7xx_hal_dma.c **** 
 762:Drivers/STM32H7xx_HAL_Driver/Src/stm32h7xx_hal_dma.c ****     /* Return error status */
 763:Drivers/STM32H7xx_HAL_Driver/Src/stm32h7xx_hal_dma.c ****     status = HAL_ERROR;
 2727              		.loc 1 763 12
 2728 0464 0123     		movs	r3, #1
 2729 0466 FB75     		strb	r3, [r7, #23]
 2730              	.L101:
 764:Drivers/STM32H7xx_HAL_Driver/Src/stm32h7xx_hal_dma.c ****   }
 765:Drivers/STM32H7xx_HAL_Driver/Src/stm32h7xx_hal_dma.c **** 
 766:Drivers/STM32H7xx_HAL_Driver/Src/stm32h7xx_hal_dma.c ****   return status;
 2731              		.loc 1 766 10
 2732 0468 FB7D     		ldrb	r3, [r7, #23]	@ zero_extendqisi2
 2733              	.L82:
 767:Drivers/STM32H7xx_HAL_Driver/Src/stm32h7xx_hal_dma.c **** }
 2734              		.loc 1 767 1
 2735 046a 1846     		mov	r0, r3
 2736 046c 1837     		adds	r7, r7, #24
 2737              	.LCFI18:
 2738              		.cfi_def_cfa_offset 8
 2739 046e BD46     		mov	sp, r7
 2740              	.LCFI19:
 2741              		.cfi_def_cfa_register 13
 2742              		@ sp needed
 2743 0470 80BD     		pop	{r7, pc}
 2744              	.L105:
 2745 0472 00BF     		.align	2
 2746              	.L104:
 2747 0474 10000240 		.word	1073872912
 2748 0478 28000240 		.word	1073872936
 2749 047c 40000240 		.word	1073872960
 2750 0480 58000240 		.word	1073872984
 2751 0484 70000240 		.word	1073873008
 2752 0488 88000240 		.word	1073873032
 2753 048c A0000240 		.word	1073873056
 2754 0490 B8000240 		.word	1073873080
 2755 0494 10040240 		.word	1073873936
 2756 0498 28040240 		.word	1073873960
 2757 049c 40040240 		.word	1073873984
 2758 04a0 58040240 		.word	1073874008
 2759 04a4 70040240 		.word	1073874032
ARM GAS  /var/folders/g1/j12m_ky910s3_sv7d4yrsdn00000gn/T//ccliMUVd.s 			page 63


 2760 04a8 88040240 		.word	1073874056
 2761 04ac A0040240 		.word	1073874080
 2762 04b0 B8040240 		.word	1073874104
 2763 04b4 08540258 		.word	1476547592
 2764 04b8 1C540258 		.word	1476547612
 2765 04bc 30540258 		.word	1476547632
 2766 04c0 44540258 		.word	1476547652
 2767 04c4 58540258 		.word	1476547672
 2768 04c8 6C540258 		.word	1476547692
 2769 04cc 80540258 		.word	1476547712
 2770 04d0 94540258 		.word	1476547732
 2771              		.cfi_endproc
 2772              	.LFE147:
 2774              		.section	.text.HAL_DMA_Abort,"ax",%progbits
 2775              		.align	1
 2776              		.global	HAL_DMA_Abort
 2777              		.syntax unified
 2778              		.thumb
 2779              		.thumb_func
 2781              	HAL_DMA_Abort:
 2782              	.LFB148:
 768:Drivers/STM32H7xx_HAL_Driver/Src/stm32h7xx_hal_dma.c **** 
 769:Drivers/STM32H7xx_HAL_Driver/Src/stm32h7xx_hal_dma.c **** /**
 770:Drivers/STM32H7xx_HAL_Driver/Src/stm32h7xx_hal_dma.c ****   * @brief  Aborts the DMA Transfer.
 771:Drivers/STM32H7xx_HAL_Driver/Src/stm32h7xx_hal_dma.c ****   * @param  hdma  : pointer to a DMA_HandleTypeDef structure that contains
 772:Drivers/STM32H7xx_HAL_Driver/Src/stm32h7xx_hal_dma.c ****   *                 the configuration information for the specified DMA Stream.
 773:Drivers/STM32H7xx_HAL_Driver/Src/stm32h7xx_hal_dma.c ****   *
 774:Drivers/STM32H7xx_HAL_Driver/Src/stm32h7xx_hal_dma.c ****   * @note  After disabling a DMA Stream, a check for wait until the DMA Stream is
 775:Drivers/STM32H7xx_HAL_Driver/Src/stm32h7xx_hal_dma.c ****   *        effectively disabled is added. If a Stream is disabled
 776:Drivers/STM32H7xx_HAL_Driver/Src/stm32h7xx_hal_dma.c ****   *        while a data transfer is ongoing, the current data will be transferred
 777:Drivers/STM32H7xx_HAL_Driver/Src/stm32h7xx_hal_dma.c ****   *        and the Stream will be effectively disabled only after the transfer of
 778:Drivers/STM32H7xx_HAL_Driver/Src/stm32h7xx_hal_dma.c ****   *        this single data is finished.
 779:Drivers/STM32H7xx_HAL_Driver/Src/stm32h7xx_hal_dma.c ****   * @retval HAL status
 780:Drivers/STM32H7xx_HAL_Driver/Src/stm32h7xx_hal_dma.c ****   */
 781:Drivers/STM32H7xx_HAL_Driver/Src/stm32h7xx_hal_dma.c **** HAL_StatusTypeDef HAL_DMA_Abort(DMA_HandleTypeDef *hdma)
 782:Drivers/STM32H7xx_HAL_Driver/Src/stm32h7xx_hal_dma.c **** {
 2783              		.loc 1 782 1
 2784              		.cfi_startproc
 2785              		@ args = 0, pretend = 0, frame = 24
 2786              		@ frame_needed = 1, uses_anonymous_args = 0
 2787 0000 80B5     		push	{r7, lr}
 2788              	.LCFI20:
 2789              		.cfi_def_cfa_offset 8
 2790              		.cfi_offset 7, -8
 2791              		.cfi_offset 14, -4
 2792 0002 86B0     		sub	sp, sp, #24
 2793              	.LCFI21:
 2794              		.cfi_def_cfa_offset 32
 2795 0004 00AF     		add	r7, sp, #0
 2796              	.LCFI22:
 2797              		.cfi_def_cfa_register 7
 2798 0006 7860     		str	r0, [r7, #4]
 783:Drivers/STM32H7xx_HAL_Driver/Src/stm32h7xx_hal_dma.c ****   /* calculate DMA base and stream number */
 784:Drivers/STM32H7xx_HAL_Driver/Src/stm32h7xx_hal_dma.c ****   DMA_Base_Registers *regs_dma;
 785:Drivers/STM32H7xx_HAL_Driver/Src/stm32h7xx_hal_dma.c ****   BDMA_Base_Registers *regs_bdma;
 786:Drivers/STM32H7xx_HAL_Driver/Src/stm32h7xx_hal_dma.c ****   const __IO uint32_t *enableRegister;
 787:Drivers/STM32H7xx_HAL_Driver/Src/stm32h7xx_hal_dma.c **** 
ARM GAS  /var/folders/g1/j12m_ky910s3_sv7d4yrsdn00000gn/T//ccliMUVd.s 			page 64


 788:Drivers/STM32H7xx_HAL_Driver/Src/stm32h7xx_hal_dma.c ****   uint32_t tickstart = HAL_GetTick();
 2799              		.loc 1 788 24
 2800 0008 FFF7FEFF 		bl	HAL_GetTick
 2801 000c 3861     		str	r0, [r7, #16]
 789:Drivers/STM32H7xx_HAL_Driver/Src/stm32h7xx_hal_dma.c **** 
 790:Drivers/STM32H7xx_HAL_Driver/Src/stm32h7xx_hal_dma.c ****  /* Check the DMA peripheral handle */
 791:Drivers/STM32H7xx_HAL_Driver/Src/stm32h7xx_hal_dma.c ****   if(hdma == NULL)
 2802              		.loc 1 791 5
 2803 000e 7B68     		ldr	r3, [r7, #4]
 2804 0010 002B     		cmp	r3, #0
 2805 0012 01D1     		bne	.L107
 792:Drivers/STM32H7xx_HAL_Driver/Src/stm32h7xx_hal_dma.c ****   {
 793:Drivers/STM32H7xx_HAL_Driver/Src/stm32h7xx_hal_dma.c ****     return HAL_ERROR;
 2806              		.loc 1 793 12
 2807 0014 0123     		movs	r3, #1
 2808 0016 DCE2     		b	.L108
 2809              	.L107:
 794:Drivers/STM32H7xx_HAL_Driver/Src/stm32h7xx_hal_dma.c ****   }
 795:Drivers/STM32H7xx_HAL_Driver/Src/stm32h7xx_hal_dma.c **** 
 796:Drivers/STM32H7xx_HAL_Driver/Src/stm32h7xx_hal_dma.c ****   /* Check the DMA peripheral state */
 797:Drivers/STM32H7xx_HAL_Driver/Src/stm32h7xx_hal_dma.c ****   if(hdma->State != HAL_DMA_STATE_BUSY)
 2810              		.loc 1 797 10
 2811 0018 7B68     		ldr	r3, [r7, #4]
 2812 001a 93F83530 		ldrb	r3, [r3, #53]
 2813 001e DBB2     		uxtb	r3, r3
 2814              		.loc 1 797 5
 2815 0020 022B     		cmp	r3, #2
 2816 0022 08D0     		beq	.L109
 798:Drivers/STM32H7xx_HAL_Driver/Src/stm32h7xx_hal_dma.c ****   {
 799:Drivers/STM32H7xx_HAL_Driver/Src/stm32h7xx_hal_dma.c ****     hdma->ErrorCode = HAL_DMA_ERROR_NO_XFER;
 2817              		.loc 1 799 21
 2818 0024 7B68     		ldr	r3, [r7, #4]
 2819 0026 8022     		movs	r2, #128
 2820 0028 5A65     		str	r2, [r3, #84]
 800:Drivers/STM32H7xx_HAL_Driver/Src/stm32h7xx_hal_dma.c **** 
 801:Drivers/STM32H7xx_HAL_Driver/Src/stm32h7xx_hal_dma.c ****     /* Process Unlocked */
 802:Drivers/STM32H7xx_HAL_Driver/Src/stm32h7xx_hal_dma.c ****     __HAL_UNLOCK(hdma);
 2821              		.loc 1 802 5
 2822 002a 7B68     		ldr	r3, [r7, #4]
 2823 002c 0022     		movs	r2, #0
 2824 002e 83F83420 		strb	r2, [r3, #52]
 803:Drivers/STM32H7xx_HAL_Driver/Src/stm32h7xx_hal_dma.c **** 
 804:Drivers/STM32H7xx_HAL_Driver/Src/stm32h7xx_hal_dma.c ****     return HAL_ERROR;
 2825              		.loc 1 804 12
 2826 0032 0123     		movs	r3, #1
 2827 0034 CDE2     		b	.L108
 2828              	.L109:
 805:Drivers/STM32H7xx_HAL_Driver/Src/stm32h7xx_hal_dma.c ****   }
 806:Drivers/STM32H7xx_HAL_Driver/Src/stm32h7xx_hal_dma.c ****   else
 807:Drivers/STM32H7xx_HAL_Driver/Src/stm32h7xx_hal_dma.c ****   {
 808:Drivers/STM32H7xx_HAL_Driver/Src/stm32h7xx_hal_dma.c ****     /* Disable all the transfer interrupts */
 809:Drivers/STM32H7xx_HAL_Driver/Src/stm32h7xx_hal_dma.c ****     if(IS_DMA_STREAM_INSTANCE(hdma->Instance) != 0U) /* DMA1 or DMA2 instance */
 2829              		.loc 1 809 8
 2830 0036 7B68     		ldr	r3, [r7, #4]
 2831 0038 1B68     		ldr	r3, [r3]
 2832 003a 764A     		ldr	r2, .L133
 2833 003c 9342     		cmp	r3, r2
ARM GAS  /var/folders/g1/j12m_ky910s3_sv7d4yrsdn00000gn/T//ccliMUVd.s 			page 65


 2834 003e 4AD0     		beq	.L110
 2835              		.loc 1 809 8 is_stmt 0 discriminator 2
 2836 0040 7B68     		ldr	r3, [r7, #4]
 2837 0042 1B68     		ldr	r3, [r3]
 2838 0044 744A     		ldr	r2, .L133+4
 2839 0046 9342     		cmp	r3, r2
 2840 0048 45D0     		beq	.L110
 2841              		.loc 1 809 8 discriminator 4
 2842 004a 7B68     		ldr	r3, [r7, #4]
 2843 004c 1B68     		ldr	r3, [r3]
 2844 004e 734A     		ldr	r2, .L133+8
 2845 0050 9342     		cmp	r3, r2
 2846 0052 40D0     		beq	.L110
 2847              		.loc 1 809 8 discriminator 6
 2848 0054 7B68     		ldr	r3, [r7, #4]
 2849 0056 1B68     		ldr	r3, [r3]
 2850 0058 714A     		ldr	r2, .L133+12
 2851 005a 9342     		cmp	r3, r2
 2852 005c 3BD0     		beq	.L110
 2853              		.loc 1 809 8 discriminator 8
 2854 005e 7B68     		ldr	r3, [r7, #4]
 2855 0060 1B68     		ldr	r3, [r3]
 2856 0062 704A     		ldr	r2, .L133+16
 2857 0064 9342     		cmp	r3, r2
 2858 0066 36D0     		beq	.L110
 2859              		.loc 1 809 8 discriminator 10
 2860 0068 7B68     		ldr	r3, [r7, #4]
 2861 006a 1B68     		ldr	r3, [r3]
 2862 006c 6E4A     		ldr	r2, .L133+20
 2863 006e 9342     		cmp	r3, r2
 2864 0070 31D0     		beq	.L110
 2865              		.loc 1 809 8 discriminator 12
 2866 0072 7B68     		ldr	r3, [r7, #4]
 2867 0074 1B68     		ldr	r3, [r3]
 2868 0076 6D4A     		ldr	r2, .L133+24
 2869 0078 9342     		cmp	r3, r2
 2870 007a 2CD0     		beq	.L110
 2871              		.loc 1 809 8 discriminator 14
 2872 007c 7B68     		ldr	r3, [r7, #4]
 2873 007e 1B68     		ldr	r3, [r3]
 2874 0080 6B4A     		ldr	r2, .L133+28
 2875 0082 9342     		cmp	r3, r2
 2876 0084 27D0     		beq	.L110
 2877              		.loc 1 809 8 discriminator 16
 2878 0086 7B68     		ldr	r3, [r7, #4]
 2879 0088 1B68     		ldr	r3, [r3]
 2880 008a 6A4A     		ldr	r2, .L133+32
 2881 008c 9342     		cmp	r3, r2
 2882 008e 22D0     		beq	.L110
 2883              		.loc 1 809 8 discriminator 18
 2884 0090 7B68     		ldr	r3, [r7, #4]
 2885 0092 1B68     		ldr	r3, [r3]
 2886 0094 684A     		ldr	r2, .L133+36
 2887 0096 9342     		cmp	r3, r2
 2888 0098 1DD0     		beq	.L110
 2889              		.loc 1 809 8 discriminator 20
 2890 009a 7B68     		ldr	r3, [r7, #4]
ARM GAS  /var/folders/g1/j12m_ky910s3_sv7d4yrsdn00000gn/T//ccliMUVd.s 			page 66


 2891 009c 1B68     		ldr	r3, [r3]
 2892 009e 674A     		ldr	r2, .L133+40
 2893 00a0 9342     		cmp	r3, r2
 2894 00a2 18D0     		beq	.L110
 2895              		.loc 1 809 8 discriminator 22
 2896 00a4 7B68     		ldr	r3, [r7, #4]
 2897 00a6 1B68     		ldr	r3, [r3]
 2898 00a8 654A     		ldr	r2, .L133+44
 2899 00aa 9342     		cmp	r3, r2
 2900 00ac 13D0     		beq	.L110
 2901              		.loc 1 809 8 discriminator 24
 2902 00ae 7B68     		ldr	r3, [r7, #4]
 2903 00b0 1B68     		ldr	r3, [r3]
 2904 00b2 644A     		ldr	r2, .L133+48
 2905 00b4 9342     		cmp	r3, r2
 2906 00b6 0ED0     		beq	.L110
 2907              		.loc 1 809 8 discriminator 26
 2908 00b8 7B68     		ldr	r3, [r7, #4]
 2909 00ba 1B68     		ldr	r3, [r3]
 2910 00bc 624A     		ldr	r2, .L133+52
 2911 00be 9342     		cmp	r3, r2
 2912 00c0 09D0     		beq	.L110
 2913              		.loc 1 809 8 discriminator 28
 2914 00c2 7B68     		ldr	r3, [r7, #4]
 2915 00c4 1B68     		ldr	r3, [r3]
 2916 00c6 614A     		ldr	r2, .L133+56
 2917 00c8 9342     		cmp	r3, r2
 2918 00ca 04D0     		beq	.L110
 2919              		.loc 1 809 8 discriminator 30
 2920 00cc 7B68     		ldr	r3, [r7, #4]
 2921 00ce 1B68     		ldr	r3, [r3]
 2922 00d0 5F4A     		ldr	r2, .L133+60
 2923 00d2 9342     		cmp	r3, r2
 2924 00d4 01D1     		bne	.L111
 2925              	.L110:
 2926              		.loc 1 809 8 discriminator 31
 2927 00d6 0123     		movs	r3, #1
 2928              		.loc 1 809 8
 2929 00d8 00E0     		b	.L112
 2930              	.L111:
 2931              		.loc 1 809 8 discriminator 32
 2932 00da 0023     		movs	r3, #0
 2933              	.L112:
 2934              		.loc 1 809 7 is_stmt 1 discriminator 34
 2935 00dc 002B     		cmp	r3, #0
 2936 00de 13D0     		beq	.L113
 810:Drivers/STM32H7xx_HAL_Driver/Src/stm32h7xx_hal_dma.c ****     {
 811:Drivers/STM32H7xx_HAL_Driver/Src/stm32h7xx_hal_dma.c ****        /* Disable DMA All Interrupts  */
 812:Drivers/STM32H7xx_HAL_Driver/Src/stm32h7xx_hal_dma.c ****       ((DMA_Stream_TypeDef   *)hdma->Instance)->CR  &= ~(DMA_IT_TC | DMA_IT_TE | DMA_IT_DME | DMA_I
 2937              		.loc 1 812 36
 2938 00e0 7B68     		ldr	r3, [r7, #4]
 2939 00e2 1B68     		ldr	r3, [r3]
 2940              		.loc 1 812 47
 2941 00e4 1A68     		ldr	r2, [r3]
 2942              		.loc 1 812 36
 2943 00e6 7B68     		ldr	r3, [r7, #4]
 2944 00e8 1B68     		ldr	r3, [r3]
ARM GAS  /var/folders/g1/j12m_ky910s3_sv7d4yrsdn00000gn/T//ccliMUVd.s 			page 67


 2945              		.loc 1 812 53
 2946 00ea 22F01E02 		bic	r2, r2, #30
 2947 00ee 1A60     		str	r2, [r3]
 813:Drivers/STM32H7xx_HAL_Driver/Src/stm32h7xx_hal_dma.c ****       ((DMA_Stream_TypeDef   *)hdma->Instance)->FCR &= ~(DMA_IT_FE);
 2948              		.loc 1 813 36
 2949 00f0 7B68     		ldr	r3, [r7, #4]
 2950 00f2 1B68     		ldr	r3, [r3]
 2951              		.loc 1 813 47
 2952 00f4 5A69     		ldr	r2, [r3, #20]
 2953              		.loc 1 813 36
 2954 00f6 7B68     		ldr	r3, [r7, #4]
 2955 00f8 1B68     		ldr	r3, [r3]
 2956              		.loc 1 813 53
 2957 00fa 22F08002 		bic	r2, r2, #128
 2958 00fe 5A61     		str	r2, [r3, #20]
 814:Drivers/STM32H7xx_HAL_Driver/Src/stm32h7xx_hal_dma.c **** 
 815:Drivers/STM32H7xx_HAL_Driver/Src/stm32h7xx_hal_dma.c ****       enableRegister = (__IO uint32_t *)(&(((DMA_Stream_TypeDef   *)hdma->Instance)->CR));
 2959              		.loc 1 815 73
 2960 0100 7B68     		ldr	r3, [r7, #4]
 2961 0102 1B68     		ldr	r3, [r3]
 2962              		.loc 1 815 22
 2963 0104 7B61     		str	r3, [r7, #20]
 2964 0106 0AE0     		b	.L114
 2965              	.L113:
 816:Drivers/STM32H7xx_HAL_Driver/Src/stm32h7xx_hal_dma.c ****     }
 817:Drivers/STM32H7xx_HAL_Driver/Src/stm32h7xx_hal_dma.c ****     else /* BDMA channel */
 818:Drivers/STM32H7xx_HAL_Driver/Src/stm32h7xx_hal_dma.c ****     {
 819:Drivers/STM32H7xx_HAL_Driver/Src/stm32h7xx_hal_dma.c ****       /* Disable DMA All Interrupts */
 820:Drivers/STM32H7xx_HAL_Driver/Src/stm32h7xx_hal_dma.c ****       ((BDMA_Channel_TypeDef   *)hdma->Instance)->CCR  &= ~(BDMA_CCR_TCIE | BDMA_CCR_HTIE | BDMA_CC
 2966              		.loc 1 820 38
 2967 0108 7B68     		ldr	r3, [r7, #4]
 2968 010a 1B68     		ldr	r3, [r3]
 2969              		.loc 1 820 49
 2970 010c 1A68     		ldr	r2, [r3]
 2971              		.loc 1 820 38
 2972 010e 7B68     		ldr	r3, [r7, #4]
 2973 0110 1B68     		ldr	r3, [r3]
 2974              		.loc 1 820 56
 2975 0112 22F00E02 		bic	r2, r2, #14
 2976 0116 1A60     		str	r2, [r3]
 821:Drivers/STM32H7xx_HAL_Driver/Src/stm32h7xx_hal_dma.c **** 
 822:Drivers/STM32H7xx_HAL_Driver/Src/stm32h7xx_hal_dma.c ****       enableRegister = (__IO uint32_t *)(&(((BDMA_Channel_TypeDef   *)hdma->Instance)->CCR));
 2977              		.loc 1 822 75
 2978 0118 7B68     		ldr	r3, [r7, #4]
 2979 011a 1B68     		ldr	r3, [r3]
 2980              		.loc 1 822 22
 2981 011c 7B61     		str	r3, [r7, #20]
 2982              	.L114:
 823:Drivers/STM32H7xx_HAL_Driver/Src/stm32h7xx_hal_dma.c ****     }
 824:Drivers/STM32H7xx_HAL_Driver/Src/stm32h7xx_hal_dma.c **** 
 825:Drivers/STM32H7xx_HAL_Driver/Src/stm32h7xx_hal_dma.c ****     if(IS_DMA_DMAMUX_ALL_INSTANCE(hdma->Instance) != 0U) /* No DMAMUX available for BDMA1 */
 2983              		.loc 1 825 8
 2984 011e 7B68     		ldr	r3, [r7, #4]
 2985 0120 1B68     		ldr	r3, [r3]
 2986 0122 3C4A     		ldr	r2, .L133
 2987 0124 9342     		cmp	r3, r2
 2988 0126 72D0     		beq	.L115
ARM GAS  /var/folders/g1/j12m_ky910s3_sv7d4yrsdn00000gn/T//ccliMUVd.s 			page 68


 2989              		.loc 1 825 8 is_stmt 0 discriminator 2
 2990 0128 7B68     		ldr	r3, [r7, #4]
 2991 012a 1B68     		ldr	r3, [r3]
 2992 012c 3A4A     		ldr	r2, .L133+4
 2993 012e 9342     		cmp	r3, r2
 2994 0130 6DD0     		beq	.L115
 2995              		.loc 1 825 8 discriminator 4
 2996 0132 7B68     		ldr	r3, [r7, #4]
 2997 0134 1B68     		ldr	r3, [r3]
 2998 0136 394A     		ldr	r2, .L133+8
 2999 0138 9342     		cmp	r3, r2
 3000 013a 68D0     		beq	.L115
 3001              		.loc 1 825 8 discriminator 6
 3002 013c 7B68     		ldr	r3, [r7, #4]
 3003 013e 1B68     		ldr	r3, [r3]
 3004 0140 374A     		ldr	r2, .L133+12
 3005 0142 9342     		cmp	r3, r2
 3006 0144 63D0     		beq	.L115
 3007              		.loc 1 825 8 discriminator 8
 3008 0146 7B68     		ldr	r3, [r7, #4]
 3009 0148 1B68     		ldr	r3, [r3]
 3010 014a 364A     		ldr	r2, .L133+16
 3011 014c 9342     		cmp	r3, r2
 3012 014e 5ED0     		beq	.L115
 3013              		.loc 1 825 8 discriminator 10
 3014 0150 7B68     		ldr	r3, [r7, #4]
 3015 0152 1B68     		ldr	r3, [r3]
 3016 0154 344A     		ldr	r2, .L133+20
 3017 0156 9342     		cmp	r3, r2
 3018 0158 59D0     		beq	.L115
 3019              		.loc 1 825 8 discriminator 12
 3020 015a 7B68     		ldr	r3, [r7, #4]
 3021 015c 1B68     		ldr	r3, [r3]
 3022 015e 334A     		ldr	r2, .L133+24
 3023 0160 9342     		cmp	r3, r2
 3024 0162 54D0     		beq	.L115
 3025              		.loc 1 825 8 discriminator 14
 3026 0164 7B68     		ldr	r3, [r7, #4]
 3027 0166 1B68     		ldr	r3, [r3]
 3028 0168 314A     		ldr	r2, .L133+28
 3029 016a 9342     		cmp	r3, r2
 3030 016c 4FD0     		beq	.L115
 3031              		.loc 1 825 8 discriminator 16
 3032 016e 7B68     		ldr	r3, [r7, #4]
 3033 0170 1B68     		ldr	r3, [r3]
 3034 0172 304A     		ldr	r2, .L133+32
 3035 0174 9342     		cmp	r3, r2
 3036 0176 4AD0     		beq	.L115
 3037              		.loc 1 825 8 discriminator 18
 3038 0178 7B68     		ldr	r3, [r7, #4]
 3039 017a 1B68     		ldr	r3, [r3]
 3040 017c 2E4A     		ldr	r2, .L133+36
 3041 017e 9342     		cmp	r3, r2
 3042 0180 45D0     		beq	.L115
 3043              		.loc 1 825 8 discriminator 20
 3044 0182 7B68     		ldr	r3, [r7, #4]
 3045 0184 1B68     		ldr	r3, [r3]
ARM GAS  /var/folders/g1/j12m_ky910s3_sv7d4yrsdn00000gn/T//ccliMUVd.s 			page 69


 3046 0186 2D4A     		ldr	r2, .L133+40
 3047 0188 9342     		cmp	r3, r2
 3048 018a 40D0     		beq	.L115
 3049              		.loc 1 825 8 discriminator 22
 3050 018c 7B68     		ldr	r3, [r7, #4]
 3051 018e 1B68     		ldr	r3, [r3]
 3052 0190 2B4A     		ldr	r2, .L133+44
 3053 0192 9342     		cmp	r3, r2
 3054 0194 3BD0     		beq	.L115
 3055              		.loc 1 825 8 discriminator 24
 3056 0196 7B68     		ldr	r3, [r7, #4]
 3057 0198 1B68     		ldr	r3, [r3]
 3058 019a 2A4A     		ldr	r2, .L133+48
 3059 019c 9342     		cmp	r3, r2
 3060 019e 36D0     		beq	.L115
 3061              		.loc 1 825 8 discriminator 26
 3062 01a0 7B68     		ldr	r3, [r7, #4]
 3063 01a2 1B68     		ldr	r3, [r3]
 3064 01a4 284A     		ldr	r2, .L133+52
 3065 01a6 9342     		cmp	r3, r2
 3066 01a8 31D0     		beq	.L115
 3067              		.loc 1 825 8 discriminator 28
 3068 01aa 7B68     		ldr	r3, [r7, #4]
 3069 01ac 1B68     		ldr	r3, [r3]
 3070 01ae 274A     		ldr	r2, .L133+56
 3071 01b0 9342     		cmp	r3, r2
 3072 01b2 2CD0     		beq	.L115
 3073              		.loc 1 825 8 discriminator 30
 3074 01b4 7B68     		ldr	r3, [r7, #4]
 3075 01b6 1B68     		ldr	r3, [r3]
 3076 01b8 254A     		ldr	r2, .L133+60
 3077 01ba 9342     		cmp	r3, r2
 3078 01bc 27D0     		beq	.L115
 3079              		.loc 1 825 8 discriminator 32
 3080 01be 7B68     		ldr	r3, [r7, #4]
 3081 01c0 1B68     		ldr	r3, [r3]
 3082 01c2 244A     		ldr	r2, .L133+64
 3083 01c4 9342     		cmp	r3, r2
 3084 01c6 22D0     		beq	.L115
 3085              		.loc 1 825 8 discriminator 34
 3086 01c8 7B68     		ldr	r3, [r7, #4]
 3087 01ca 1B68     		ldr	r3, [r3]
 3088 01cc 224A     		ldr	r2, .L133+68
 3089 01ce 9342     		cmp	r3, r2
 3090 01d0 1DD0     		beq	.L115
 3091              		.loc 1 825 8 discriminator 36
 3092 01d2 7B68     		ldr	r3, [r7, #4]
 3093 01d4 1B68     		ldr	r3, [r3]
 3094 01d6 214A     		ldr	r2, .L133+72
 3095 01d8 9342     		cmp	r3, r2
 3096 01da 18D0     		beq	.L115
 3097              		.loc 1 825 8 discriminator 38
 3098 01dc 7B68     		ldr	r3, [r7, #4]
 3099 01de 1B68     		ldr	r3, [r3]
 3100 01e0 1F4A     		ldr	r2, .L133+76
 3101 01e2 9342     		cmp	r3, r2
 3102 01e4 13D0     		beq	.L115
ARM GAS  /var/folders/g1/j12m_ky910s3_sv7d4yrsdn00000gn/T//ccliMUVd.s 			page 70


 3103              		.loc 1 825 8 discriminator 40
 3104 01e6 7B68     		ldr	r3, [r7, #4]
 3105 01e8 1B68     		ldr	r3, [r3]
 3106 01ea 1E4A     		ldr	r2, .L133+80
 3107 01ec 9342     		cmp	r3, r2
 3108 01ee 0ED0     		beq	.L115
 3109              		.loc 1 825 8 discriminator 42
 3110 01f0 7B68     		ldr	r3, [r7, #4]
 3111 01f2 1B68     		ldr	r3, [r3]
 3112 01f4 1C4A     		ldr	r2, .L133+84
 3113 01f6 9342     		cmp	r3, r2
 3114 01f8 09D0     		beq	.L115
 3115              		.loc 1 825 8 discriminator 44
 3116 01fa 7B68     		ldr	r3, [r7, #4]
 3117 01fc 1B68     		ldr	r3, [r3]
 3118 01fe 1B4A     		ldr	r2, .L133+88
 3119 0200 9342     		cmp	r3, r2
 3120 0202 04D0     		beq	.L115
 3121              		.loc 1 825 8 discriminator 46
 3122 0204 7B68     		ldr	r3, [r7, #4]
 3123 0206 1B68     		ldr	r3, [r3]
 3124 0208 194A     		ldr	r2, .L133+92
 3125 020a 9342     		cmp	r3, r2
 3126 020c 32D1     		bne	.L116
 3127              	.L115:
 3128              		.loc 1 825 8 discriminator 47
 3129 020e 0123     		movs	r3, #1
 3130              		.loc 1 825 8
 3131 0210 31E0     		b	.L117
 3132              	.L134:
 3133 0212 00BF     		.align	2
 3134              	.L133:
 3135 0214 10000240 		.word	1073872912
 3136 0218 28000240 		.word	1073872936
 3137 021c 40000240 		.word	1073872960
 3138 0220 58000240 		.word	1073872984
 3139 0224 70000240 		.word	1073873008
 3140 0228 88000240 		.word	1073873032
 3141 022c A0000240 		.word	1073873056
 3142 0230 B8000240 		.word	1073873080
 3143 0234 10040240 		.word	1073873936
 3144 0238 28040240 		.word	1073873960
 3145 023c 40040240 		.word	1073873984
 3146 0240 58040240 		.word	1073874008
 3147 0244 70040240 		.word	1073874032
 3148 0248 88040240 		.word	1073874056
 3149 024c A0040240 		.word	1073874080
 3150 0250 B8040240 		.word	1073874104
 3151 0254 08540258 		.word	1476547592
 3152 0258 1C540258 		.word	1476547612
 3153 025c 30540258 		.word	1476547632
 3154 0260 44540258 		.word	1476547652
 3155 0264 58540258 		.word	1476547672
 3156 0268 6C540258 		.word	1476547692
 3157 026c 80540258 		.word	1476547712
 3158 0270 94540258 		.word	1476547732
 3159              	.L116:
ARM GAS  /var/folders/g1/j12m_ky910s3_sv7d4yrsdn00000gn/T//ccliMUVd.s 			page 71


 3160              		.loc 1 825 8 discriminator 48
 3161 0274 0023     		movs	r3, #0
 3162              	.L117:
 3163              		.loc 1 825 7 is_stmt 1 discriminator 50
 3164 0276 002B     		cmp	r3, #0
 3165 0278 07D0     		beq	.L118
 826:Drivers/STM32H7xx_HAL_Driver/Src/stm32h7xx_hal_dma.c ****     {
 827:Drivers/STM32H7xx_HAL_Driver/Src/stm32h7xx_hal_dma.c ****       /* disable the DMAMUX sync overrun IT */
 828:Drivers/STM32H7xx_HAL_Driver/Src/stm32h7xx_hal_dma.c ****       hdma->DMAmuxChannel->CCR &= ~DMAMUX_CxCR_SOIE;
 3166              		.loc 1 828 11
 3167 027a 7B68     		ldr	r3, [r7, #4]
 3168 027c 1B6E     		ldr	r3, [r3, #96]
 3169              		.loc 1 828 26
 3170 027e 1A68     		ldr	r2, [r3]
 3171              		.loc 1 828 11
 3172 0280 7B68     		ldr	r3, [r7, #4]
 3173 0282 1B6E     		ldr	r3, [r3, #96]
 3174              		.loc 1 828 32
 3175 0284 22F48072 		bic	r2, r2, #256
 3176 0288 1A60     		str	r2, [r3]
 3177              	.L118:
 829:Drivers/STM32H7xx_HAL_Driver/Src/stm32h7xx_hal_dma.c ****     }
 830:Drivers/STM32H7xx_HAL_Driver/Src/stm32h7xx_hal_dma.c **** 
 831:Drivers/STM32H7xx_HAL_Driver/Src/stm32h7xx_hal_dma.c ****     /* Disable the stream */
 832:Drivers/STM32H7xx_HAL_Driver/Src/stm32h7xx_hal_dma.c ****     __HAL_DMA_DISABLE(hdma);
 3178              		.loc 1 832 5
 3179 028a 7B68     		ldr	r3, [r7, #4]
 3180 028c 1B68     		ldr	r3, [r3]
 3181 028e 6D4A     		ldr	r2, .L135
 3182 0290 9342     		cmp	r3, r2
 3183 0292 4AD0     		beq	.L119
 3184              		.loc 1 832 5 is_stmt 0 discriminator 2
 3185 0294 7B68     		ldr	r3, [r7, #4]
 3186 0296 1B68     		ldr	r3, [r3]
 3187 0298 6B4A     		ldr	r2, .L135+4
 3188 029a 9342     		cmp	r3, r2
 3189 029c 45D0     		beq	.L119
 3190              		.loc 1 832 5 discriminator 4
 3191 029e 7B68     		ldr	r3, [r7, #4]
 3192 02a0 1B68     		ldr	r3, [r3]
 3193 02a2 6A4A     		ldr	r2, .L135+8
 3194 02a4 9342     		cmp	r3, r2
 3195 02a6 40D0     		beq	.L119
 3196              		.loc 1 832 5 discriminator 6
 3197 02a8 7B68     		ldr	r3, [r7, #4]
 3198 02aa 1B68     		ldr	r3, [r3]
 3199 02ac 684A     		ldr	r2, .L135+12
 3200 02ae 9342     		cmp	r3, r2
 3201 02b0 3BD0     		beq	.L119
 3202              		.loc 1 832 5 discriminator 8
 3203 02b2 7B68     		ldr	r3, [r7, #4]
 3204 02b4 1B68     		ldr	r3, [r3]
 3205 02b6 674A     		ldr	r2, .L135+16
 3206 02b8 9342     		cmp	r3, r2
 3207 02ba 36D0     		beq	.L119
 3208              		.loc 1 832 5 discriminator 10
 3209 02bc 7B68     		ldr	r3, [r7, #4]
ARM GAS  /var/folders/g1/j12m_ky910s3_sv7d4yrsdn00000gn/T//ccliMUVd.s 			page 72


 3210 02be 1B68     		ldr	r3, [r3]
 3211 02c0 654A     		ldr	r2, .L135+20
 3212 02c2 9342     		cmp	r3, r2
 3213 02c4 31D0     		beq	.L119
 3214              		.loc 1 832 5 discriminator 12
 3215 02c6 7B68     		ldr	r3, [r7, #4]
 3216 02c8 1B68     		ldr	r3, [r3]
 3217 02ca 644A     		ldr	r2, .L135+24
 3218 02cc 9342     		cmp	r3, r2
 3219 02ce 2CD0     		beq	.L119
 3220              		.loc 1 832 5 discriminator 14
 3221 02d0 7B68     		ldr	r3, [r7, #4]
 3222 02d2 1B68     		ldr	r3, [r3]
 3223 02d4 624A     		ldr	r2, .L135+28
 3224 02d6 9342     		cmp	r3, r2
 3225 02d8 27D0     		beq	.L119
 3226              		.loc 1 832 5 discriminator 16
 3227 02da 7B68     		ldr	r3, [r7, #4]
 3228 02dc 1B68     		ldr	r3, [r3]
 3229 02de 614A     		ldr	r2, .L135+32
 3230 02e0 9342     		cmp	r3, r2
 3231 02e2 22D0     		beq	.L119
 3232              		.loc 1 832 5 discriminator 18
 3233 02e4 7B68     		ldr	r3, [r7, #4]
 3234 02e6 1B68     		ldr	r3, [r3]
 3235 02e8 5F4A     		ldr	r2, .L135+36
 3236 02ea 9342     		cmp	r3, r2
 3237 02ec 1DD0     		beq	.L119
 3238              		.loc 1 832 5 discriminator 20
 3239 02ee 7B68     		ldr	r3, [r7, #4]
 3240 02f0 1B68     		ldr	r3, [r3]
 3241 02f2 5E4A     		ldr	r2, .L135+40
 3242 02f4 9342     		cmp	r3, r2
 3243 02f6 18D0     		beq	.L119
 3244              		.loc 1 832 5 discriminator 22
 3245 02f8 7B68     		ldr	r3, [r7, #4]
 3246 02fa 1B68     		ldr	r3, [r3]
 3247 02fc 5C4A     		ldr	r2, .L135+44
 3248 02fe 9342     		cmp	r3, r2
 3249 0300 13D0     		beq	.L119
 3250              		.loc 1 832 5 discriminator 24
 3251 0302 7B68     		ldr	r3, [r7, #4]
 3252 0304 1B68     		ldr	r3, [r3]
 3253 0306 5B4A     		ldr	r2, .L135+48
 3254 0308 9342     		cmp	r3, r2
 3255 030a 0ED0     		beq	.L119
 3256              		.loc 1 832 5 discriminator 26
 3257 030c 7B68     		ldr	r3, [r7, #4]
 3258 030e 1B68     		ldr	r3, [r3]
 3259 0310 594A     		ldr	r2, .L135+52
 3260 0312 9342     		cmp	r3, r2
 3261 0314 09D0     		beq	.L119
 3262              		.loc 1 832 5 discriminator 28
 3263 0316 7B68     		ldr	r3, [r7, #4]
 3264 0318 1B68     		ldr	r3, [r3]
 3265 031a 584A     		ldr	r2, .L135+56
 3266 031c 9342     		cmp	r3, r2
ARM GAS  /var/folders/g1/j12m_ky910s3_sv7d4yrsdn00000gn/T//ccliMUVd.s 			page 73


 3267 031e 04D0     		beq	.L119
 3268              		.loc 1 832 5 discriminator 30
 3269 0320 7B68     		ldr	r3, [r7, #4]
 3270 0322 1B68     		ldr	r3, [r3]
 3271 0324 564A     		ldr	r2, .L135+60
 3272 0326 9342     		cmp	r3, r2
 3273 0328 08D1     		bne	.L120
 3274              	.L119:
 3275              		.loc 1 832 5 discriminator 31
 3276 032a 7B68     		ldr	r3, [r7, #4]
 3277 032c 1B68     		ldr	r3, [r3]
 3278 032e 1A68     		ldr	r2, [r3]
 3279 0330 7B68     		ldr	r3, [r7, #4]
 3280 0332 1B68     		ldr	r3, [r3]
 3281 0334 22F00102 		bic	r2, r2, #1
 3282 0338 1A60     		str	r2, [r3]
 3283              		.loc 1 832 5
 3284 033a 07E0     		b	.L121
 3285              	.L120:
 3286              		.loc 1 832 5 discriminator 32
 3287 033c 7B68     		ldr	r3, [r7, #4]
 3288 033e 1B68     		ldr	r3, [r3]
 3289 0340 1A68     		ldr	r2, [r3]
 3290 0342 7B68     		ldr	r3, [r7, #4]
 3291 0344 1B68     		ldr	r3, [r3]
 3292 0346 22F00102 		bic	r2, r2, #1
 3293 034a 1A60     		str	r2, [r3]
 3294              	.L121:
 833:Drivers/STM32H7xx_HAL_Driver/Src/stm32h7xx_hal_dma.c **** 
 834:Drivers/STM32H7xx_HAL_Driver/Src/stm32h7xx_hal_dma.c ****     /* Check if the DMA Stream is effectively disabled */
 835:Drivers/STM32H7xx_HAL_Driver/Src/stm32h7xx_hal_dma.c ****     while(((*enableRegister) & DMA_SxCR_EN) != 0U)
 3295              		.loc 1 835 10 is_stmt 1
 3296 034c 13E0     		b	.L122
 3297              	.L123:
 836:Drivers/STM32H7xx_HAL_Driver/Src/stm32h7xx_hal_dma.c ****     {
 837:Drivers/STM32H7xx_HAL_Driver/Src/stm32h7xx_hal_dma.c ****       /* Check for the Timeout */
 838:Drivers/STM32H7xx_HAL_Driver/Src/stm32h7xx_hal_dma.c ****       if((HAL_GetTick() - tickstart ) > HAL_TIMEOUT_DMA_ABORT)
 3298              		.loc 1 838 11
 3299 034e FFF7FEFF 		bl	HAL_GetTick
 3300 0352 0246     		mov	r2, r0
 3301              		.loc 1 838 25 discriminator 1
 3302 0354 3B69     		ldr	r3, [r7, #16]
 3303 0356 D31A     		subs	r3, r2, r3
 3304              		.loc 1 838 9 discriminator 1
 3305 0358 052B     		cmp	r3, #5
 3306 035a 0CD9     		bls	.L122
 839:Drivers/STM32H7xx_HAL_Driver/Src/stm32h7xx_hal_dma.c ****       {
 840:Drivers/STM32H7xx_HAL_Driver/Src/stm32h7xx_hal_dma.c ****         /* Update error code */
 841:Drivers/STM32H7xx_HAL_Driver/Src/stm32h7xx_hal_dma.c ****         hdma->ErrorCode = HAL_DMA_ERROR_TIMEOUT;
 3307              		.loc 1 841 25
 3308 035c 7B68     		ldr	r3, [r7, #4]
 3309 035e 2022     		movs	r2, #32
 3310 0360 5A65     		str	r2, [r3, #84]
 842:Drivers/STM32H7xx_HAL_Driver/Src/stm32h7xx_hal_dma.c **** 
 843:Drivers/STM32H7xx_HAL_Driver/Src/stm32h7xx_hal_dma.c ****         /* Change the DMA state */
 844:Drivers/STM32H7xx_HAL_Driver/Src/stm32h7xx_hal_dma.c ****         hdma->State = HAL_DMA_STATE_ERROR;
 3311              		.loc 1 844 21
ARM GAS  /var/folders/g1/j12m_ky910s3_sv7d4yrsdn00000gn/T//ccliMUVd.s 			page 74


 3312 0362 7B68     		ldr	r3, [r7, #4]
 3313 0364 0322     		movs	r2, #3
 3314 0366 83F83520 		strb	r2, [r3, #53]
 845:Drivers/STM32H7xx_HAL_Driver/Src/stm32h7xx_hal_dma.c **** 
 846:Drivers/STM32H7xx_HAL_Driver/Src/stm32h7xx_hal_dma.c ****         /* Process Unlocked */
 847:Drivers/STM32H7xx_HAL_Driver/Src/stm32h7xx_hal_dma.c ****         __HAL_UNLOCK(hdma);
 3315              		.loc 1 847 9
 3316 036a 7B68     		ldr	r3, [r7, #4]
 3317 036c 0022     		movs	r2, #0
 3318 036e 83F83420 		strb	r2, [r3, #52]
 848:Drivers/STM32H7xx_HAL_Driver/Src/stm32h7xx_hal_dma.c **** 
 849:Drivers/STM32H7xx_HAL_Driver/Src/stm32h7xx_hal_dma.c ****         return HAL_ERROR;
 3319              		.loc 1 849 16
 3320 0372 0123     		movs	r3, #1
 3321 0374 2DE1     		b	.L108
 3322              	.L122:
 835:Drivers/STM32H7xx_HAL_Driver/Src/stm32h7xx_hal_dma.c ****     {
 3323              		.loc 1 835 13
 3324 0376 7B69     		ldr	r3, [r7, #20]
 3325 0378 1B68     		ldr	r3, [r3]
 835:Drivers/STM32H7xx_HAL_Driver/Src/stm32h7xx_hal_dma.c ****     {
 3326              		.loc 1 835 30
 3327 037a 03F00103 		and	r3, r3, #1
 835:Drivers/STM32H7xx_HAL_Driver/Src/stm32h7xx_hal_dma.c ****     {
 3328              		.loc 1 835 45
 3329 037e 002B     		cmp	r3, #0
 3330 0380 E5D1     		bne	.L123
 850:Drivers/STM32H7xx_HAL_Driver/Src/stm32h7xx_hal_dma.c ****       }
 851:Drivers/STM32H7xx_HAL_Driver/Src/stm32h7xx_hal_dma.c ****     }
 852:Drivers/STM32H7xx_HAL_Driver/Src/stm32h7xx_hal_dma.c **** 
 853:Drivers/STM32H7xx_HAL_Driver/Src/stm32h7xx_hal_dma.c ****     /* Clear all interrupt flags at correct offset within the register */
 854:Drivers/STM32H7xx_HAL_Driver/Src/stm32h7xx_hal_dma.c ****     if(IS_DMA_STREAM_INSTANCE(hdma->Instance) != 0U) /* DMA1 or DMA2 instance */
 3331              		.loc 1 854 8
 3332 0382 7B68     		ldr	r3, [r7, #4]
 3333 0384 1B68     		ldr	r3, [r3]
 3334 0386 2F4A     		ldr	r2, .L135
 3335 0388 9342     		cmp	r3, r2
 3336 038a 4AD0     		beq	.L124
 3337              		.loc 1 854 8 is_stmt 0 discriminator 2
 3338 038c 7B68     		ldr	r3, [r7, #4]
 3339 038e 1B68     		ldr	r3, [r3]
 3340 0390 2D4A     		ldr	r2, .L135+4
 3341 0392 9342     		cmp	r3, r2
 3342 0394 45D0     		beq	.L124
 3343              		.loc 1 854 8 discriminator 4
 3344 0396 7B68     		ldr	r3, [r7, #4]
 3345 0398 1B68     		ldr	r3, [r3]
 3346 039a 2C4A     		ldr	r2, .L135+8
 3347 039c 9342     		cmp	r3, r2
 3348 039e 40D0     		beq	.L124
 3349              		.loc 1 854 8 discriminator 6
 3350 03a0 7B68     		ldr	r3, [r7, #4]
 3351 03a2 1B68     		ldr	r3, [r3]
 3352 03a4 2A4A     		ldr	r2, .L135+12
 3353 03a6 9342     		cmp	r3, r2
 3354 03a8 3BD0     		beq	.L124
 3355              		.loc 1 854 8 discriminator 8
ARM GAS  /var/folders/g1/j12m_ky910s3_sv7d4yrsdn00000gn/T//ccliMUVd.s 			page 75


 3356 03aa 7B68     		ldr	r3, [r7, #4]
 3357 03ac 1B68     		ldr	r3, [r3]
 3358 03ae 294A     		ldr	r2, .L135+16
 3359 03b0 9342     		cmp	r3, r2
 3360 03b2 36D0     		beq	.L124
 3361              		.loc 1 854 8 discriminator 10
 3362 03b4 7B68     		ldr	r3, [r7, #4]
 3363 03b6 1B68     		ldr	r3, [r3]
 3364 03b8 274A     		ldr	r2, .L135+20
 3365 03ba 9342     		cmp	r3, r2
 3366 03bc 31D0     		beq	.L124
 3367              		.loc 1 854 8 discriminator 12
 3368 03be 7B68     		ldr	r3, [r7, #4]
 3369 03c0 1B68     		ldr	r3, [r3]
 3370 03c2 264A     		ldr	r2, .L135+24
 3371 03c4 9342     		cmp	r3, r2
 3372 03c6 2CD0     		beq	.L124
 3373              		.loc 1 854 8 discriminator 14
 3374 03c8 7B68     		ldr	r3, [r7, #4]
 3375 03ca 1B68     		ldr	r3, [r3]
 3376 03cc 244A     		ldr	r2, .L135+28
 3377 03ce 9342     		cmp	r3, r2
 3378 03d0 27D0     		beq	.L124
 3379              		.loc 1 854 8 discriminator 16
 3380 03d2 7B68     		ldr	r3, [r7, #4]
 3381 03d4 1B68     		ldr	r3, [r3]
 3382 03d6 234A     		ldr	r2, .L135+32
 3383 03d8 9342     		cmp	r3, r2
 3384 03da 22D0     		beq	.L124
 3385              		.loc 1 854 8 discriminator 18
 3386 03dc 7B68     		ldr	r3, [r7, #4]
 3387 03de 1B68     		ldr	r3, [r3]
 3388 03e0 214A     		ldr	r2, .L135+36
 3389 03e2 9342     		cmp	r3, r2
 3390 03e4 1DD0     		beq	.L124
 3391              		.loc 1 854 8 discriminator 20
 3392 03e6 7B68     		ldr	r3, [r7, #4]
 3393 03e8 1B68     		ldr	r3, [r3]
 3394 03ea 204A     		ldr	r2, .L135+40
 3395 03ec 9342     		cmp	r3, r2
 3396 03ee 18D0     		beq	.L124
 3397              		.loc 1 854 8 discriminator 22
 3398 03f0 7B68     		ldr	r3, [r7, #4]
 3399 03f2 1B68     		ldr	r3, [r3]
 3400 03f4 1E4A     		ldr	r2, .L135+44
 3401 03f6 9342     		cmp	r3, r2
 3402 03f8 13D0     		beq	.L124
 3403              		.loc 1 854 8 discriminator 24
 3404 03fa 7B68     		ldr	r3, [r7, #4]
 3405 03fc 1B68     		ldr	r3, [r3]
 3406 03fe 1D4A     		ldr	r2, .L135+48
 3407 0400 9342     		cmp	r3, r2
 3408 0402 0ED0     		beq	.L124
 3409              		.loc 1 854 8 discriminator 26
 3410 0404 7B68     		ldr	r3, [r7, #4]
 3411 0406 1B68     		ldr	r3, [r3]
 3412 0408 1B4A     		ldr	r2, .L135+52
ARM GAS  /var/folders/g1/j12m_ky910s3_sv7d4yrsdn00000gn/T//ccliMUVd.s 			page 76


 3413 040a 9342     		cmp	r3, r2
 3414 040c 09D0     		beq	.L124
 3415              		.loc 1 854 8 discriminator 28
 3416 040e 7B68     		ldr	r3, [r7, #4]
 3417 0410 1B68     		ldr	r3, [r3]
 3418 0412 1A4A     		ldr	r2, .L135+56
 3419 0414 9342     		cmp	r3, r2
 3420 0416 04D0     		beq	.L124
 3421              		.loc 1 854 8 discriminator 30
 3422 0418 7B68     		ldr	r3, [r7, #4]
 3423 041a 1B68     		ldr	r3, [r3]
 3424 041c 184A     		ldr	r2, .L135+60
 3425 041e 9342     		cmp	r3, r2
 3426 0420 01D1     		bne	.L125
 3427              	.L124:
 3428              		.loc 1 854 8 discriminator 31
 3429 0422 0123     		movs	r3, #1
 3430              		.loc 1 854 8
 3431 0424 00E0     		b	.L126
 3432              	.L125:
 3433              		.loc 1 854 8 discriminator 32
 3434 0426 0023     		movs	r3, #0
 3435              	.L126:
 3436              		.loc 1 854 7 is_stmt 1 discriminator 34
 3437 0428 002B     		cmp	r3, #0
 3438 042a 2BD0     		beq	.L127
 855:Drivers/STM32H7xx_HAL_Driver/Src/stm32h7xx_hal_dma.c ****     {
 856:Drivers/STM32H7xx_HAL_Driver/Src/stm32h7xx_hal_dma.c ****       regs_dma = (DMA_Base_Registers *)hdma->StreamBaseAddress;
 3439              		.loc 1 856 44
 3440 042c 7B68     		ldr	r3, [r7, #4]
 3441 042e 9B6D     		ldr	r3, [r3, #88]
 3442              		.loc 1 856 16
 3443 0430 BB60     		str	r3, [r7, #8]
 857:Drivers/STM32H7xx_HAL_Driver/Src/stm32h7xx_hal_dma.c ****       regs_dma->IFCR = 0x3FUL << (hdma->StreamIndex & 0x1FU);
 3444              		.loc 1 857 39
 3445 0432 7B68     		ldr	r3, [r7, #4]
 3446 0434 DB6D     		ldr	r3, [r3, #92]
 3447              		.loc 1 857 53
 3448 0436 03F01F03 		and	r3, r3, #31
 3449              		.loc 1 857 31
 3450 043a 3F22     		movs	r2, #63
 3451 043c 9A40     		lsls	r2, r2, r3
 3452              		.loc 1 857 22
 3453 043e BB68     		ldr	r3, [r7, #8]
 3454 0440 9A60     		str	r2, [r3, #8]
 3455 0442 2AE0     		b	.L128
 3456              	.L136:
 3457              		.align	2
 3458              	.L135:
 3459 0444 10000240 		.word	1073872912
 3460 0448 28000240 		.word	1073872936
 3461 044c 40000240 		.word	1073872960
 3462 0450 58000240 		.word	1073872984
 3463 0454 70000240 		.word	1073873008
 3464 0458 88000240 		.word	1073873032
 3465 045c A0000240 		.word	1073873056
 3466 0460 B8000240 		.word	1073873080
ARM GAS  /var/folders/g1/j12m_ky910s3_sv7d4yrsdn00000gn/T//ccliMUVd.s 			page 77


 3467 0464 10040240 		.word	1073873936
 3468 0468 28040240 		.word	1073873960
 3469 046c 40040240 		.word	1073873984
 3470 0470 58040240 		.word	1073874008
 3471 0474 70040240 		.word	1073874032
 3472 0478 88040240 		.word	1073874056
 3473 047c A0040240 		.word	1073874080
 3474 0480 B8040240 		.word	1073874104
 3475              	.L127:
 858:Drivers/STM32H7xx_HAL_Driver/Src/stm32h7xx_hal_dma.c ****     }
 859:Drivers/STM32H7xx_HAL_Driver/Src/stm32h7xx_hal_dma.c ****     else /* BDMA channel */
 860:Drivers/STM32H7xx_HAL_Driver/Src/stm32h7xx_hal_dma.c ****     {
 861:Drivers/STM32H7xx_HAL_Driver/Src/stm32h7xx_hal_dma.c ****       regs_bdma = (BDMA_Base_Registers *)hdma->StreamBaseAddress;
 3476              		.loc 1 861 46
 3477 0484 7B68     		ldr	r3, [r7, #4]
 3478 0486 9B6D     		ldr	r3, [r3, #88]
 3479              		.loc 1 861 17
 3480 0488 FB60     		str	r3, [r7, #12]
 862:Drivers/STM32H7xx_HAL_Driver/Src/stm32h7xx_hal_dma.c ****       regs_bdma->IFCR = ((BDMA_IFCR_CGIF0) << (hdma->StreamIndex & 0x1FU));
 3481              		.loc 1 862 52
 3482 048a 7B68     		ldr	r3, [r7, #4]
 3483 048c DB6D     		ldr	r3, [r3, #92]
 3484              		.loc 1 862 66
 3485 048e 03F01F03 		and	r3, r3, #31
 3486              		.loc 1 862 44
 3487 0492 0122     		movs	r2, #1
 3488 0494 9A40     		lsls	r2, r2, r3
 3489              		.loc 1 862 23
 3490 0496 FB68     		ldr	r3, [r7, #12]
 3491 0498 5A60     		str	r2, [r3, #4]
 3492              	.L128:
 863:Drivers/STM32H7xx_HAL_Driver/Src/stm32h7xx_hal_dma.c ****     }
 864:Drivers/STM32H7xx_HAL_Driver/Src/stm32h7xx_hal_dma.c **** 
 865:Drivers/STM32H7xx_HAL_Driver/Src/stm32h7xx_hal_dma.c ****     if(IS_DMA_DMAMUX_ALL_INSTANCE(hdma->Instance) != 0U) /* No DMAMUX available for BDMA1 */
 3493              		.loc 1 865 8
 3494 049a 7B68     		ldr	r3, [r7, #4]
 3495 049c 1B68     		ldr	r3, [r3]
 3496 049e 4F4A     		ldr	r2, .L137
 3497 04a0 9342     		cmp	r3, r2
 3498 04a2 72D0     		beq	.L129
 3499              		.loc 1 865 8 is_stmt 0 discriminator 2
 3500 04a4 7B68     		ldr	r3, [r7, #4]
 3501 04a6 1B68     		ldr	r3, [r3]
 3502 04a8 4D4A     		ldr	r2, .L137+4
 3503 04aa 9342     		cmp	r3, r2
 3504 04ac 6DD0     		beq	.L129
 3505              		.loc 1 865 8 discriminator 4
 3506 04ae 7B68     		ldr	r3, [r7, #4]
 3507 04b0 1B68     		ldr	r3, [r3]
 3508 04b2 4C4A     		ldr	r2, .L137+8
 3509 04b4 9342     		cmp	r3, r2
 3510 04b6 68D0     		beq	.L129
 3511              		.loc 1 865 8 discriminator 6
 3512 04b8 7B68     		ldr	r3, [r7, #4]
 3513 04ba 1B68     		ldr	r3, [r3]
 3514 04bc 4A4A     		ldr	r2, .L137+12
 3515 04be 9342     		cmp	r3, r2
ARM GAS  /var/folders/g1/j12m_ky910s3_sv7d4yrsdn00000gn/T//ccliMUVd.s 			page 78


 3516 04c0 63D0     		beq	.L129
 3517              		.loc 1 865 8 discriminator 8
 3518 04c2 7B68     		ldr	r3, [r7, #4]
 3519 04c4 1B68     		ldr	r3, [r3]
 3520 04c6 494A     		ldr	r2, .L137+16
 3521 04c8 9342     		cmp	r3, r2
 3522 04ca 5ED0     		beq	.L129
 3523              		.loc 1 865 8 discriminator 10
 3524 04cc 7B68     		ldr	r3, [r7, #4]
 3525 04ce 1B68     		ldr	r3, [r3]
 3526 04d0 474A     		ldr	r2, .L137+20
 3527 04d2 9342     		cmp	r3, r2
 3528 04d4 59D0     		beq	.L129
 3529              		.loc 1 865 8 discriminator 12
 3530 04d6 7B68     		ldr	r3, [r7, #4]
 3531 04d8 1B68     		ldr	r3, [r3]
 3532 04da 464A     		ldr	r2, .L137+24
 3533 04dc 9342     		cmp	r3, r2
 3534 04de 54D0     		beq	.L129
 3535              		.loc 1 865 8 discriminator 14
 3536 04e0 7B68     		ldr	r3, [r7, #4]
 3537 04e2 1B68     		ldr	r3, [r3]
 3538 04e4 444A     		ldr	r2, .L137+28
 3539 04e6 9342     		cmp	r3, r2
 3540 04e8 4FD0     		beq	.L129
 3541              		.loc 1 865 8 discriminator 16
 3542 04ea 7B68     		ldr	r3, [r7, #4]
 3543 04ec 1B68     		ldr	r3, [r3]
 3544 04ee 434A     		ldr	r2, .L137+32
 3545 04f0 9342     		cmp	r3, r2
 3546 04f2 4AD0     		beq	.L129
 3547              		.loc 1 865 8 discriminator 18
 3548 04f4 7B68     		ldr	r3, [r7, #4]
 3549 04f6 1B68     		ldr	r3, [r3]
 3550 04f8 414A     		ldr	r2, .L137+36
 3551 04fa 9342     		cmp	r3, r2
 3552 04fc 45D0     		beq	.L129
 3553              		.loc 1 865 8 discriminator 20
 3554 04fe 7B68     		ldr	r3, [r7, #4]
 3555 0500 1B68     		ldr	r3, [r3]
 3556 0502 404A     		ldr	r2, .L137+40
 3557 0504 9342     		cmp	r3, r2
 3558 0506 40D0     		beq	.L129
 3559              		.loc 1 865 8 discriminator 22
 3560 0508 7B68     		ldr	r3, [r7, #4]
 3561 050a 1B68     		ldr	r3, [r3]
 3562 050c 3E4A     		ldr	r2, .L137+44
 3563 050e 9342     		cmp	r3, r2
 3564 0510 3BD0     		beq	.L129
 3565              		.loc 1 865 8 discriminator 24
 3566 0512 7B68     		ldr	r3, [r7, #4]
 3567 0514 1B68     		ldr	r3, [r3]
 3568 0516 3D4A     		ldr	r2, .L137+48
 3569 0518 9342     		cmp	r3, r2
 3570 051a 36D0     		beq	.L129
 3571              		.loc 1 865 8 discriminator 26
 3572 051c 7B68     		ldr	r3, [r7, #4]
ARM GAS  /var/folders/g1/j12m_ky910s3_sv7d4yrsdn00000gn/T//ccliMUVd.s 			page 79


 3573 051e 1B68     		ldr	r3, [r3]
 3574 0520 3B4A     		ldr	r2, .L137+52
 3575 0522 9342     		cmp	r3, r2
 3576 0524 31D0     		beq	.L129
 3577              		.loc 1 865 8 discriminator 28
 3578 0526 7B68     		ldr	r3, [r7, #4]
 3579 0528 1B68     		ldr	r3, [r3]
 3580 052a 3A4A     		ldr	r2, .L137+56
 3581 052c 9342     		cmp	r3, r2
 3582 052e 2CD0     		beq	.L129
 3583              		.loc 1 865 8 discriminator 30
 3584 0530 7B68     		ldr	r3, [r7, #4]
 3585 0532 1B68     		ldr	r3, [r3]
 3586 0534 384A     		ldr	r2, .L137+60
 3587 0536 9342     		cmp	r3, r2
 3588 0538 27D0     		beq	.L129
 3589              		.loc 1 865 8 discriminator 32
 3590 053a 7B68     		ldr	r3, [r7, #4]
 3591 053c 1B68     		ldr	r3, [r3]
 3592 053e 374A     		ldr	r2, .L137+64
 3593 0540 9342     		cmp	r3, r2
 3594 0542 22D0     		beq	.L129
 3595              		.loc 1 865 8 discriminator 34
 3596 0544 7B68     		ldr	r3, [r7, #4]
 3597 0546 1B68     		ldr	r3, [r3]
 3598 0548 354A     		ldr	r2, .L137+68
 3599 054a 9342     		cmp	r3, r2
 3600 054c 1DD0     		beq	.L129
 3601              		.loc 1 865 8 discriminator 36
 3602 054e 7B68     		ldr	r3, [r7, #4]
 3603 0550 1B68     		ldr	r3, [r3]
 3604 0552 344A     		ldr	r2, .L137+72
 3605 0554 9342     		cmp	r3, r2
 3606 0556 18D0     		beq	.L129
 3607              		.loc 1 865 8 discriminator 38
 3608 0558 7B68     		ldr	r3, [r7, #4]
 3609 055a 1B68     		ldr	r3, [r3]
 3610 055c 324A     		ldr	r2, .L137+76
 3611 055e 9342     		cmp	r3, r2
 3612 0560 13D0     		beq	.L129
 3613              		.loc 1 865 8 discriminator 40
 3614 0562 7B68     		ldr	r3, [r7, #4]
 3615 0564 1B68     		ldr	r3, [r3]
 3616 0566 314A     		ldr	r2, .L137+80
 3617 0568 9342     		cmp	r3, r2
 3618 056a 0ED0     		beq	.L129
 3619              		.loc 1 865 8 discriminator 42
 3620 056c 7B68     		ldr	r3, [r7, #4]
 3621 056e 1B68     		ldr	r3, [r3]
 3622 0570 2F4A     		ldr	r2, .L137+84
 3623 0572 9342     		cmp	r3, r2
 3624 0574 09D0     		beq	.L129
 3625              		.loc 1 865 8 discriminator 44
 3626 0576 7B68     		ldr	r3, [r7, #4]
 3627 0578 1B68     		ldr	r3, [r3]
 3628 057a 2E4A     		ldr	r2, .L137+88
 3629 057c 9342     		cmp	r3, r2
ARM GAS  /var/folders/g1/j12m_ky910s3_sv7d4yrsdn00000gn/T//ccliMUVd.s 			page 80


 3630 057e 04D0     		beq	.L129
 3631              		.loc 1 865 8 discriminator 46
 3632 0580 7B68     		ldr	r3, [r7, #4]
 3633 0582 1B68     		ldr	r3, [r3]
 3634 0584 2C4A     		ldr	r2, .L137+92
 3635 0586 9342     		cmp	r3, r2
 3636 0588 01D1     		bne	.L130
 3637              	.L129:
 3638              		.loc 1 865 8 discriminator 47
 3639 058a 0123     		movs	r3, #1
 3640              		.loc 1 865 8
 3641 058c 00E0     		b	.L131
 3642              	.L130:
 3643              		.loc 1 865 8 discriminator 48
 3644 058e 0023     		movs	r3, #0
 3645              	.L131:
 3646              		.loc 1 865 7 is_stmt 1 discriminator 50
 3647 0590 002B     		cmp	r3, #0
 3648 0592 15D0     		beq	.L132
 866:Drivers/STM32H7xx_HAL_Driver/Src/stm32h7xx_hal_dma.c ****     {
 867:Drivers/STM32H7xx_HAL_Driver/Src/stm32h7xx_hal_dma.c ****       /* Clear the DMAMUX synchro overrun flag */
 868:Drivers/STM32H7xx_HAL_Driver/Src/stm32h7xx_hal_dma.c ****       hdma->DMAmuxChannelStatus->CFR = hdma->DMAmuxChannelStatusMask;
 3649              		.loc 1 868 11
 3650 0594 7B68     		ldr	r3, [r7, #4]
 3651 0596 5B6E     		ldr	r3, [r3, #100]
 3652              		.loc 1 868 44
 3653 0598 7A68     		ldr	r2, [r7, #4]
 3654 059a 926E     		ldr	r2, [r2, #104]
 3655              		.loc 1 868 38
 3656 059c 5A60     		str	r2, [r3, #4]
 869:Drivers/STM32H7xx_HAL_Driver/Src/stm32h7xx_hal_dma.c **** 
 870:Drivers/STM32H7xx_HAL_Driver/Src/stm32h7xx_hal_dma.c ****       if(hdma->DMAmuxRequestGen != 0U)
 3657              		.loc 1 870 14
 3658 059e 7B68     		ldr	r3, [r7, #4]
 3659 05a0 DB6E     		ldr	r3, [r3, #108]
 3660              		.loc 1 870 9
 3661 05a2 002B     		cmp	r3, #0
 3662 05a4 0CD0     		beq	.L132
 871:Drivers/STM32H7xx_HAL_Driver/Src/stm32h7xx_hal_dma.c ****       {
 872:Drivers/STM32H7xx_HAL_Driver/Src/stm32h7xx_hal_dma.c ****         /* if using DMAMUX request generator, disable the DMAMUX request generator overrun IT */
 873:Drivers/STM32H7xx_HAL_Driver/Src/stm32h7xx_hal_dma.c ****         /* disable the request gen overrun IT */
 874:Drivers/STM32H7xx_HAL_Driver/Src/stm32h7xx_hal_dma.c ****         hdma->DMAmuxRequestGen->RGCR &= ~DMAMUX_RGxCR_OIE;
 3663              		.loc 1 874 13
 3664 05a6 7B68     		ldr	r3, [r7, #4]
 3665 05a8 DB6E     		ldr	r3, [r3, #108]
 3666              		.loc 1 874 31
 3667 05aa 1A68     		ldr	r2, [r3]
 3668              		.loc 1 874 13
 3669 05ac 7B68     		ldr	r3, [r7, #4]
 3670 05ae DB6E     		ldr	r3, [r3, #108]
 3671              		.loc 1 874 38
 3672 05b0 22F48072 		bic	r2, r2, #256
 3673 05b4 1A60     		str	r2, [r3]
 875:Drivers/STM32H7xx_HAL_Driver/Src/stm32h7xx_hal_dma.c **** 
 876:Drivers/STM32H7xx_HAL_Driver/Src/stm32h7xx_hal_dma.c ****         /* Clear the DMAMUX request generator overrun flag */
 877:Drivers/STM32H7xx_HAL_Driver/Src/stm32h7xx_hal_dma.c ****         hdma->DMAmuxRequestGenStatus->RGCFR = hdma->DMAmuxRequestGenStatusMask;
 3674              		.loc 1 877 13
ARM GAS  /var/folders/g1/j12m_ky910s3_sv7d4yrsdn00000gn/T//ccliMUVd.s 			page 81


 3675 05b6 7B68     		ldr	r3, [r7, #4]
 3676 05b8 1B6F     		ldr	r3, [r3, #112]
 3677              		.loc 1 877 51
 3678 05ba 7A68     		ldr	r2, [r7, #4]
 3679 05bc 526F     		ldr	r2, [r2, #116]
 3680              		.loc 1 877 45
 3681 05be 5A60     		str	r2, [r3, #4]
 3682              	.L132:
 878:Drivers/STM32H7xx_HAL_Driver/Src/stm32h7xx_hal_dma.c ****       }
 879:Drivers/STM32H7xx_HAL_Driver/Src/stm32h7xx_hal_dma.c ****     }
 880:Drivers/STM32H7xx_HAL_Driver/Src/stm32h7xx_hal_dma.c **** 
 881:Drivers/STM32H7xx_HAL_Driver/Src/stm32h7xx_hal_dma.c ****     /* Change the DMA state */
 882:Drivers/STM32H7xx_HAL_Driver/Src/stm32h7xx_hal_dma.c ****     hdma->State = HAL_DMA_STATE_READY;
 3683              		.loc 1 882 17
 3684 05c0 7B68     		ldr	r3, [r7, #4]
 3685 05c2 0122     		movs	r2, #1
 3686 05c4 83F83520 		strb	r2, [r3, #53]
 883:Drivers/STM32H7xx_HAL_Driver/Src/stm32h7xx_hal_dma.c **** 
 884:Drivers/STM32H7xx_HAL_Driver/Src/stm32h7xx_hal_dma.c ****     /* Process Unlocked */
 885:Drivers/STM32H7xx_HAL_Driver/Src/stm32h7xx_hal_dma.c ****     __HAL_UNLOCK(hdma);
 3687              		.loc 1 885 5
 3688 05c8 7B68     		ldr	r3, [r7, #4]
 3689 05ca 0022     		movs	r2, #0
 3690 05cc 83F83420 		strb	r2, [r3, #52]
 886:Drivers/STM32H7xx_HAL_Driver/Src/stm32h7xx_hal_dma.c ****   }
 887:Drivers/STM32H7xx_HAL_Driver/Src/stm32h7xx_hal_dma.c **** 
 888:Drivers/STM32H7xx_HAL_Driver/Src/stm32h7xx_hal_dma.c ****   return HAL_OK;
 3691              		.loc 1 888 10
 3692 05d0 0023     		movs	r3, #0
 3693              	.L108:
 889:Drivers/STM32H7xx_HAL_Driver/Src/stm32h7xx_hal_dma.c **** }
 3694              		.loc 1 889 1
 3695 05d2 1846     		mov	r0, r3
 3696 05d4 1837     		adds	r7, r7, #24
 3697              	.LCFI23:
 3698              		.cfi_def_cfa_offset 8
 3699 05d6 BD46     		mov	sp, r7
 3700              	.LCFI24:
 3701              		.cfi_def_cfa_register 13
 3702              		@ sp needed
 3703 05d8 80BD     		pop	{r7, pc}
 3704              	.L138:
 3705 05da 00BF     		.align	2
 3706              	.L137:
 3707 05dc 10000240 		.word	1073872912
 3708 05e0 28000240 		.word	1073872936
 3709 05e4 40000240 		.word	1073872960
 3710 05e8 58000240 		.word	1073872984
 3711 05ec 70000240 		.word	1073873008
 3712 05f0 88000240 		.word	1073873032
 3713 05f4 A0000240 		.word	1073873056
 3714 05f8 B8000240 		.word	1073873080
 3715 05fc 10040240 		.word	1073873936
 3716 0600 28040240 		.word	1073873960
 3717 0604 40040240 		.word	1073873984
 3718 0608 58040240 		.word	1073874008
 3719 060c 70040240 		.word	1073874032
ARM GAS  /var/folders/g1/j12m_ky910s3_sv7d4yrsdn00000gn/T//ccliMUVd.s 			page 82


 3720 0610 88040240 		.word	1073874056
 3721 0614 A0040240 		.word	1073874080
 3722 0618 B8040240 		.word	1073874104
 3723 061c 08540258 		.word	1476547592
 3724 0620 1C540258 		.word	1476547612
 3725 0624 30540258 		.word	1476547632
 3726 0628 44540258 		.word	1476547652
 3727 062c 58540258 		.word	1476547672
 3728 0630 6C540258 		.word	1476547692
 3729 0634 80540258 		.word	1476547712
 3730 0638 94540258 		.word	1476547732
 3731              		.cfi_endproc
 3732              	.LFE148:
 3734              		.section	.text.HAL_DMA_Abort_IT,"ax",%progbits
 3735              		.align	1
 3736              		.global	HAL_DMA_Abort_IT
 3737              		.syntax unified
 3738              		.thumb
 3739              		.thumb_func
 3741              	HAL_DMA_Abort_IT:
 3742              	.LFB149:
 890:Drivers/STM32H7xx_HAL_Driver/Src/stm32h7xx_hal_dma.c **** 
 891:Drivers/STM32H7xx_HAL_Driver/Src/stm32h7xx_hal_dma.c **** /**
 892:Drivers/STM32H7xx_HAL_Driver/Src/stm32h7xx_hal_dma.c ****   * @brief  Aborts the DMA Transfer in Interrupt mode.
 893:Drivers/STM32H7xx_HAL_Driver/Src/stm32h7xx_hal_dma.c ****   * @param  hdma  : pointer to a DMA_HandleTypeDef structure that contains
 894:Drivers/STM32H7xx_HAL_Driver/Src/stm32h7xx_hal_dma.c ****   *                 the configuration information for the specified DMA Stream.
 895:Drivers/STM32H7xx_HAL_Driver/Src/stm32h7xx_hal_dma.c ****   * @retval HAL status
 896:Drivers/STM32H7xx_HAL_Driver/Src/stm32h7xx_hal_dma.c ****   */
 897:Drivers/STM32H7xx_HAL_Driver/Src/stm32h7xx_hal_dma.c **** HAL_StatusTypeDef HAL_DMA_Abort_IT(DMA_HandleTypeDef *hdma)
 898:Drivers/STM32H7xx_HAL_Driver/Src/stm32h7xx_hal_dma.c **** {
 3743              		.loc 1 898 1
 3744              		.cfi_startproc
 3745              		@ args = 0, pretend = 0, frame = 16
 3746              		@ frame_needed = 1, uses_anonymous_args = 0
 3747 0000 80B5     		push	{r7, lr}
 3748              	.LCFI25:
 3749              		.cfi_def_cfa_offset 8
 3750              		.cfi_offset 7, -8
 3751              		.cfi_offset 14, -4
 3752 0002 84B0     		sub	sp, sp, #16
 3753              	.LCFI26:
 3754              		.cfi_def_cfa_offset 24
 3755 0004 00AF     		add	r7, sp, #0
 3756              	.LCFI27:
 3757              		.cfi_def_cfa_register 7
 3758 0006 7860     		str	r0, [r7, #4]
 899:Drivers/STM32H7xx_HAL_Driver/Src/stm32h7xx_hal_dma.c ****   BDMA_Base_Registers *regs_bdma;
 900:Drivers/STM32H7xx_HAL_Driver/Src/stm32h7xx_hal_dma.c **** 
 901:Drivers/STM32H7xx_HAL_Driver/Src/stm32h7xx_hal_dma.c ****   /* Check the DMA peripheral handle */
 902:Drivers/STM32H7xx_HAL_Driver/Src/stm32h7xx_hal_dma.c ****   if(hdma == NULL)
 3759              		.loc 1 902 5
 3760 0008 7B68     		ldr	r3, [r7, #4]
 3761 000a 002B     		cmp	r3, #0
 3762 000c 01D1     		bne	.L140
 903:Drivers/STM32H7xx_HAL_Driver/Src/stm32h7xx_hal_dma.c ****   {
 904:Drivers/STM32H7xx_HAL_Driver/Src/stm32h7xx_hal_dma.c ****     return HAL_ERROR;
 3763              		.loc 1 904 12
ARM GAS  /var/folders/g1/j12m_ky910s3_sv7d4yrsdn00000gn/T//ccliMUVd.s 			page 83


 3764 000e 0123     		movs	r3, #1
 3765 0010 37E2     		b	.L141
 3766              	.L140:
 905:Drivers/STM32H7xx_HAL_Driver/Src/stm32h7xx_hal_dma.c ****   }
 906:Drivers/STM32H7xx_HAL_Driver/Src/stm32h7xx_hal_dma.c **** 
 907:Drivers/STM32H7xx_HAL_Driver/Src/stm32h7xx_hal_dma.c ****   if(hdma->State != HAL_DMA_STATE_BUSY)
 3767              		.loc 1 907 10
 3768 0012 7B68     		ldr	r3, [r7, #4]
 3769 0014 93F83530 		ldrb	r3, [r3, #53]
 3770 0018 DBB2     		uxtb	r3, r3
 3771              		.loc 1 907 5
 3772 001a 022B     		cmp	r3, #2
 3773 001c 04D0     		beq	.L142
 908:Drivers/STM32H7xx_HAL_Driver/Src/stm32h7xx_hal_dma.c ****   {
 909:Drivers/STM32H7xx_HAL_Driver/Src/stm32h7xx_hal_dma.c ****     hdma->ErrorCode = HAL_DMA_ERROR_NO_XFER;
 3774              		.loc 1 909 21
 3775 001e 7B68     		ldr	r3, [r7, #4]
 3776 0020 8022     		movs	r2, #128
 3777 0022 5A65     		str	r2, [r3, #84]
 910:Drivers/STM32H7xx_HAL_Driver/Src/stm32h7xx_hal_dma.c ****     return HAL_ERROR;
 3778              		.loc 1 910 12
 3779 0024 0123     		movs	r3, #1
 3780 0026 2CE2     		b	.L141
 3781              	.L142:
 911:Drivers/STM32H7xx_HAL_Driver/Src/stm32h7xx_hal_dma.c ****   }
 912:Drivers/STM32H7xx_HAL_Driver/Src/stm32h7xx_hal_dma.c ****   else
 913:Drivers/STM32H7xx_HAL_Driver/Src/stm32h7xx_hal_dma.c ****   {
 914:Drivers/STM32H7xx_HAL_Driver/Src/stm32h7xx_hal_dma.c ****     if(IS_DMA_STREAM_INSTANCE(hdma->Instance) != 0U) /* DMA1 or DMA2 instance */
 3782              		.loc 1 914 8
 3783 0028 7B68     		ldr	r3, [r7, #4]
 3784 002a 1B68     		ldr	r3, [r3]
 3785 002c 5C4A     		ldr	r2, .L158
 3786 002e 9342     		cmp	r3, r2
 3787 0030 4AD0     		beq	.L143
 3788              		.loc 1 914 8 is_stmt 0 discriminator 2
 3789 0032 7B68     		ldr	r3, [r7, #4]
 3790 0034 1B68     		ldr	r3, [r3]
 3791 0036 5B4A     		ldr	r2, .L158+4
 3792 0038 9342     		cmp	r3, r2
 3793 003a 45D0     		beq	.L143
 3794              		.loc 1 914 8 discriminator 4
 3795 003c 7B68     		ldr	r3, [r7, #4]
 3796 003e 1B68     		ldr	r3, [r3]
 3797 0040 594A     		ldr	r2, .L158+8
 3798 0042 9342     		cmp	r3, r2
 3799 0044 40D0     		beq	.L143
 3800              		.loc 1 914 8 discriminator 6
 3801 0046 7B68     		ldr	r3, [r7, #4]
 3802 0048 1B68     		ldr	r3, [r3]
 3803 004a 584A     		ldr	r2, .L158+12
 3804 004c 9342     		cmp	r3, r2
 3805 004e 3BD0     		beq	.L143
 3806              		.loc 1 914 8 discriminator 8
 3807 0050 7B68     		ldr	r3, [r7, #4]
 3808 0052 1B68     		ldr	r3, [r3]
 3809 0054 564A     		ldr	r2, .L158+16
 3810 0056 9342     		cmp	r3, r2
ARM GAS  /var/folders/g1/j12m_ky910s3_sv7d4yrsdn00000gn/T//ccliMUVd.s 			page 84


 3811 0058 36D0     		beq	.L143
 3812              		.loc 1 914 8 discriminator 10
 3813 005a 7B68     		ldr	r3, [r7, #4]
 3814 005c 1B68     		ldr	r3, [r3]
 3815 005e 554A     		ldr	r2, .L158+20
 3816 0060 9342     		cmp	r3, r2
 3817 0062 31D0     		beq	.L143
 3818              		.loc 1 914 8 discriminator 12
 3819 0064 7B68     		ldr	r3, [r7, #4]
 3820 0066 1B68     		ldr	r3, [r3]
 3821 0068 534A     		ldr	r2, .L158+24
 3822 006a 9342     		cmp	r3, r2
 3823 006c 2CD0     		beq	.L143
 3824              		.loc 1 914 8 discriminator 14
 3825 006e 7B68     		ldr	r3, [r7, #4]
 3826 0070 1B68     		ldr	r3, [r3]
 3827 0072 524A     		ldr	r2, .L158+28
 3828 0074 9342     		cmp	r3, r2
 3829 0076 27D0     		beq	.L143
 3830              		.loc 1 914 8 discriminator 16
 3831 0078 7B68     		ldr	r3, [r7, #4]
 3832 007a 1B68     		ldr	r3, [r3]
 3833 007c 504A     		ldr	r2, .L158+32
 3834 007e 9342     		cmp	r3, r2
 3835 0080 22D0     		beq	.L143
 3836              		.loc 1 914 8 discriminator 18
 3837 0082 7B68     		ldr	r3, [r7, #4]
 3838 0084 1B68     		ldr	r3, [r3]
 3839 0086 4F4A     		ldr	r2, .L158+36
 3840 0088 9342     		cmp	r3, r2
 3841 008a 1DD0     		beq	.L143
 3842              		.loc 1 914 8 discriminator 20
 3843 008c 7B68     		ldr	r3, [r7, #4]
 3844 008e 1B68     		ldr	r3, [r3]
 3845 0090 4D4A     		ldr	r2, .L158+40
 3846 0092 9342     		cmp	r3, r2
 3847 0094 18D0     		beq	.L143
 3848              		.loc 1 914 8 discriminator 22
 3849 0096 7B68     		ldr	r3, [r7, #4]
 3850 0098 1B68     		ldr	r3, [r3]
 3851 009a 4C4A     		ldr	r2, .L158+44
 3852 009c 9342     		cmp	r3, r2
 3853 009e 13D0     		beq	.L143
 3854              		.loc 1 914 8 discriminator 24
 3855 00a0 7B68     		ldr	r3, [r7, #4]
 3856 00a2 1B68     		ldr	r3, [r3]
 3857 00a4 4A4A     		ldr	r2, .L158+48
 3858 00a6 9342     		cmp	r3, r2
 3859 00a8 0ED0     		beq	.L143
 3860              		.loc 1 914 8 discriminator 26
 3861 00aa 7B68     		ldr	r3, [r7, #4]
 3862 00ac 1B68     		ldr	r3, [r3]
 3863 00ae 494A     		ldr	r2, .L158+52
 3864 00b0 9342     		cmp	r3, r2
 3865 00b2 09D0     		beq	.L143
 3866              		.loc 1 914 8 discriminator 28
 3867 00b4 7B68     		ldr	r3, [r7, #4]
ARM GAS  /var/folders/g1/j12m_ky910s3_sv7d4yrsdn00000gn/T//ccliMUVd.s 			page 85


 3868 00b6 1B68     		ldr	r3, [r3]
 3869 00b8 474A     		ldr	r2, .L158+56
 3870 00ba 9342     		cmp	r3, r2
 3871 00bc 04D0     		beq	.L143
 3872              		.loc 1 914 8 discriminator 30
 3873 00be 7B68     		ldr	r3, [r7, #4]
 3874 00c0 1B68     		ldr	r3, [r3]
 3875 00c2 464A     		ldr	r2, .L158+60
 3876 00c4 9342     		cmp	r3, r2
 3877 00c6 01D1     		bne	.L144
 3878              	.L143:
 3879              		.loc 1 914 8 discriminator 31
 3880 00c8 0123     		movs	r3, #1
 3881              		.loc 1 914 8
 3882 00ca 00E0     		b	.L145
 3883              	.L144:
 3884              		.loc 1 914 8 discriminator 32
 3885 00cc 0023     		movs	r3, #0
 3886              	.L145:
 3887              		.loc 1 914 7 is_stmt 1 discriminator 34
 3888 00ce 002B     		cmp	r3, #0
 3889 00d0 00F08680 		beq	.L146
 915:Drivers/STM32H7xx_HAL_Driver/Src/stm32h7xx_hal_dma.c ****     {
 916:Drivers/STM32H7xx_HAL_Driver/Src/stm32h7xx_hal_dma.c ****       /* Set Abort State  */
 917:Drivers/STM32H7xx_HAL_Driver/Src/stm32h7xx_hal_dma.c ****       hdma->State = HAL_DMA_STATE_ABORT;
 3890              		.loc 1 917 19
 3891 00d4 7B68     		ldr	r3, [r7, #4]
 3892 00d6 0422     		movs	r2, #4
 3893 00d8 83F83520 		strb	r2, [r3, #53]
 918:Drivers/STM32H7xx_HAL_Driver/Src/stm32h7xx_hal_dma.c **** 
 919:Drivers/STM32H7xx_HAL_Driver/Src/stm32h7xx_hal_dma.c ****       /* Disable the stream */
 920:Drivers/STM32H7xx_HAL_Driver/Src/stm32h7xx_hal_dma.c ****       __HAL_DMA_DISABLE(hdma);
 3894              		.loc 1 920 7
 3895 00dc 7B68     		ldr	r3, [r7, #4]
 3896 00de 1B68     		ldr	r3, [r3]
 3897 00e0 2F4A     		ldr	r2, .L158
 3898 00e2 9342     		cmp	r3, r2
 3899 00e4 4AD0     		beq	.L147
 3900              		.loc 1 920 7 is_stmt 0 discriminator 2
 3901 00e6 7B68     		ldr	r3, [r7, #4]
 3902 00e8 1B68     		ldr	r3, [r3]
 3903 00ea 2E4A     		ldr	r2, .L158+4
 3904 00ec 9342     		cmp	r3, r2
 3905 00ee 45D0     		beq	.L147
 3906              		.loc 1 920 7 discriminator 4
 3907 00f0 7B68     		ldr	r3, [r7, #4]
 3908 00f2 1B68     		ldr	r3, [r3]
 3909 00f4 2C4A     		ldr	r2, .L158+8
 3910 00f6 9342     		cmp	r3, r2
 3911 00f8 40D0     		beq	.L147
 3912              		.loc 1 920 7 discriminator 6
 3913 00fa 7B68     		ldr	r3, [r7, #4]
 3914 00fc 1B68     		ldr	r3, [r3]
 3915 00fe 2B4A     		ldr	r2, .L158+12
 3916 0100 9342     		cmp	r3, r2
 3917 0102 3BD0     		beq	.L147
 3918              		.loc 1 920 7 discriminator 8
ARM GAS  /var/folders/g1/j12m_ky910s3_sv7d4yrsdn00000gn/T//ccliMUVd.s 			page 86


 3919 0104 7B68     		ldr	r3, [r7, #4]
 3920 0106 1B68     		ldr	r3, [r3]
 3921 0108 294A     		ldr	r2, .L158+16
 3922 010a 9342     		cmp	r3, r2
 3923 010c 36D0     		beq	.L147
 3924              		.loc 1 920 7 discriminator 10
 3925 010e 7B68     		ldr	r3, [r7, #4]
 3926 0110 1B68     		ldr	r3, [r3]
 3927 0112 284A     		ldr	r2, .L158+20
 3928 0114 9342     		cmp	r3, r2
 3929 0116 31D0     		beq	.L147
 3930              		.loc 1 920 7 discriminator 12
 3931 0118 7B68     		ldr	r3, [r7, #4]
 3932 011a 1B68     		ldr	r3, [r3]
 3933 011c 264A     		ldr	r2, .L158+24
 3934 011e 9342     		cmp	r3, r2
 3935 0120 2CD0     		beq	.L147
 3936              		.loc 1 920 7 discriminator 14
 3937 0122 7B68     		ldr	r3, [r7, #4]
 3938 0124 1B68     		ldr	r3, [r3]
 3939 0126 254A     		ldr	r2, .L158+28
 3940 0128 9342     		cmp	r3, r2
 3941 012a 27D0     		beq	.L147
 3942              		.loc 1 920 7 discriminator 16
 3943 012c 7B68     		ldr	r3, [r7, #4]
 3944 012e 1B68     		ldr	r3, [r3]
 3945 0130 234A     		ldr	r2, .L158+32
 3946 0132 9342     		cmp	r3, r2
 3947 0134 22D0     		beq	.L147
 3948              		.loc 1 920 7 discriminator 18
 3949 0136 7B68     		ldr	r3, [r7, #4]
 3950 0138 1B68     		ldr	r3, [r3]
 3951 013a 224A     		ldr	r2, .L158+36
 3952 013c 9342     		cmp	r3, r2
 3953 013e 1DD0     		beq	.L147
 3954              		.loc 1 920 7 discriminator 20
 3955 0140 7B68     		ldr	r3, [r7, #4]
 3956 0142 1B68     		ldr	r3, [r3]
 3957 0144 204A     		ldr	r2, .L158+40
 3958 0146 9342     		cmp	r3, r2
 3959 0148 18D0     		beq	.L147
 3960              		.loc 1 920 7 discriminator 22
 3961 014a 7B68     		ldr	r3, [r7, #4]
 3962 014c 1B68     		ldr	r3, [r3]
 3963 014e 1F4A     		ldr	r2, .L158+44
 3964 0150 9342     		cmp	r3, r2
 3965 0152 13D0     		beq	.L147
 3966              		.loc 1 920 7 discriminator 24
 3967 0154 7B68     		ldr	r3, [r7, #4]
 3968 0156 1B68     		ldr	r3, [r3]
 3969 0158 1D4A     		ldr	r2, .L158+48
 3970 015a 9342     		cmp	r3, r2
 3971 015c 0ED0     		beq	.L147
 3972              		.loc 1 920 7 discriminator 26
 3973 015e 7B68     		ldr	r3, [r7, #4]
 3974 0160 1B68     		ldr	r3, [r3]
 3975 0162 1C4A     		ldr	r2, .L158+52
ARM GAS  /var/folders/g1/j12m_ky910s3_sv7d4yrsdn00000gn/T//ccliMUVd.s 			page 87


 3976 0164 9342     		cmp	r3, r2
 3977 0166 09D0     		beq	.L147
 3978              		.loc 1 920 7 discriminator 28
 3979 0168 7B68     		ldr	r3, [r7, #4]
 3980 016a 1B68     		ldr	r3, [r3]
 3981 016c 1A4A     		ldr	r2, .L158+56
 3982 016e 9342     		cmp	r3, r2
 3983 0170 04D0     		beq	.L147
 3984              		.loc 1 920 7 discriminator 30
 3985 0172 7B68     		ldr	r3, [r7, #4]
 3986 0174 1B68     		ldr	r3, [r3]
 3987 0176 194A     		ldr	r2, .L158+60
 3988 0178 9342     		cmp	r3, r2
 3989 017a 08D1     		bne	.L148
 3990              	.L147:
 3991              		.loc 1 920 7 discriminator 31
 3992 017c 7B68     		ldr	r3, [r7, #4]
 3993 017e 1B68     		ldr	r3, [r3]
 3994 0180 1A68     		ldr	r2, [r3]
 3995 0182 7B68     		ldr	r3, [r7, #4]
 3996 0184 1B68     		ldr	r3, [r3]
 3997 0186 22F00102 		bic	r2, r2, #1
 3998 018a 1A60     		str	r2, [r3]
 3999              		.loc 1 920 7
 4000 018c 78E1     		b	.L150
 4001              	.L148:
 4002              		.loc 1 920 7 discriminator 32
 4003 018e 7B68     		ldr	r3, [r7, #4]
 4004 0190 1B68     		ldr	r3, [r3]
 4005 0192 1A68     		ldr	r2, [r3]
 4006 0194 7B68     		ldr	r3, [r7, #4]
 4007 0196 1B68     		ldr	r3, [r3]
 4008 0198 22F00102 		bic	r2, r2, #1
 4009 019c 1A60     		str	r2, [r3]
 4010 019e 6FE1     		b	.L150
 4011              	.L159:
 4012              		.align	2
 4013              	.L158:
 4014 01a0 10000240 		.word	1073872912
 4015 01a4 28000240 		.word	1073872936
 4016 01a8 40000240 		.word	1073872960
 4017 01ac 58000240 		.word	1073872984
 4018 01b0 70000240 		.word	1073873008
 4019 01b4 88000240 		.word	1073873032
 4020 01b8 A0000240 		.word	1073873056
 4021 01bc B8000240 		.word	1073873080
 4022 01c0 10040240 		.word	1073873936
 4023 01c4 28040240 		.word	1073873960
 4024 01c8 40040240 		.word	1073873984
 4025 01cc 58040240 		.word	1073874008
 4026 01d0 70040240 		.word	1073874032
 4027 01d4 88040240 		.word	1073874056
 4028 01d8 A0040240 		.word	1073874080
 4029 01dc B8040240 		.word	1073874104
 4030              	.L146:
 921:Drivers/STM32H7xx_HAL_Driver/Src/stm32h7xx_hal_dma.c ****     }
 922:Drivers/STM32H7xx_HAL_Driver/Src/stm32h7xx_hal_dma.c ****     else /* BDMA channel */
ARM GAS  /var/folders/g1/j12m_ky910s3_sv7d4yrsdn00000gn/T//ccliMUVd.s 			page 88


 923:Drivers/STM32H7xx_HAL_Driver/Src/stm32h7xx_hal_dma.c ****     {
 924:Drivers/STM32H7xx_HAL_Driver/Src/stm32h7xx_hal_dma.c ****       /* Disable DMA All Interrupts  */
 925:Drivers/STM32H7xx_HAL_Driver/Src/stm32h7xx_hal_dma.c ****       ((BDMA_Channel_TypeDef   *)hdma->Instance)->CCR  &= ~(BDMA_CCR_TCIE | BDMA_CCR_HTIE | BDMA_CC
 4031              		.loc 1 925 38 is_stmt 1
 4032 01e0 7B68     		ldr	r3, [r7, #4]
 4033 01e2 1B68     		ldr	r3, [r3]
 4034              		.loc 1 925 49
 4035 01e4 1A68     		ldr	r2, [r3]
 4036              		.loc 1 925 38
 4037 01e6 7B68     		ldr	r3, [r7, #4]
 4038 01e8 1B68     		ldr	r3, [r3]
 4039              		.loc 1 925 56
 4040 01ea 22F00E02 		bic	r2, r2, #14
 4041 01ee 1A60     		str	r2, [r3]
 926:Drivers/STM32H7xx_HAL_Driver/Src/stm32h7xx_hal_dma.c **** 
 927:Drivers/STM32H7xx_HAL_Driver/Src/stm32h7xx_hal_dma.c ****       /* Disable the channel */
 928:Drivers/STM32H7xx_HAL_Driver/Src/stm32h7xx_hal_dma.c ****       __HAL_DMA_DISABLE(hdma);
 4042              		.loc 1 928 7
 4043 01f0 7B68     		ldr	r3, [r7, #4]
 4044 01f2 1B68     		ldr	r3, [r3]
 4045 01f4 6C4A     		ldr	r2, .L160
 4046 01f6 9342     		cmp	r3, r2
 4047 01f8 4AD0     		beq	.L151
 4048              		.loc 1 928 7 is_stmt 0 discriminator 2
 4049 01fa 7B68     		ldr	r3, [r7, #4]
 4050 01fc 1B68     		ldr	r3, [r3]
 4051 01fe 6B4A     		ldr	r2, .L160+4
 4052 0200 9342     		cmp	r3, r2
 4053 0202 45D0     		beq	.L151
 4054              		.loc 1 928 7 discriminator 4
 4055 0204 7B68     		ldr	r3, [r7, #4]
 4056 0206 1B68     		ldr	r3, [r3]
 4057 0208 694A     		ldr	r2, .L160+8
 4058 020a 9342     		cmp	r3, r2
 4059 020c 40D0     		beq	.L151
 4060              		.loc 1 928 7 discriminator 6
 4061 020e 7B68     		ldr	r3, [r7, #4]
 4062 0210 1B68     		ldr	r3, [r3]
 4063 0212 684A     		ldr	r2, .L160+12
 4064 0214 9342     		cmp	r3, r2
 4065 0216 3BD0     		beq	.L151
 4066              		.loc 1 928 7 discriminator 8
 4067 0218 7B68     		ldr	r3, [r7, #4]
 4068 021a 1B68     		ldr	r3, [r3]
 4069 021c 664A     		ldr	r2, .L160+16
 4070 021e 9342     		cmp	r3, r2
 4071 0220 36D0     		beq	.L151
 4072              		.loc 1 928 7 discriminator 10
 4073 0222 7B68     		ldr	r3, [r7, #4]
 4074 0224 1B68     		ldr	r3, [r3]
 4075 0226 654A     		ldr	r2, .L160+20
 4076 0228 9342     		cmp	r3, r2
 4077 022a 31D0     		beq	.L151
 4078              		.loc 1 928 7 discriminator 12
 4079 022c 7B68     		ldr	r3, [r7, #4]
 4080 022e 1B68     		ldr	r3, [r3]
 4081 0230 634A     		ldr	r2, .L160+24
ARM GAS  /var/folders/g1/j12m_ky910s3_sv7d4yrsdn00000gn/T//ccliMUVd.s 			page 89


 4082 0232 9342     		cmp	r3, r2
 4083 0234 2CD0     		beq	.L151
 4084              		.loc 1 928 7 discriminator 14
 4085 0236 7B68     		ldr	r3, [r7, #4]
 4086 0238 1B68     		ldr	r3, [r3]
 4087 023a 624A     		ldr	r2, .L160+28
 4088 023c 9342     		cmp	r3, r2
 4089 023e 27D0     		beq	.L151
 4090              		.loc 1 928 7 discriminator 16
 4091 0240 7B68     		ldr	r3, [r7, #4]
 4092 0242 1B68     		ldr	r3, [r3]
 4093 0244 604A     		ldr	r2, .L160+32
 4094 0246 9342     		cmp	r3, r2
 4095 0248 22D0     		beq	.L151
 4096              		.loc 1 928 7 discriminator 18
 4097 024a 7B68     		ldr	r3, [r7, #4]
 4098 024c 1B68     		ldr	r3, [r3]
 4099 024e 5F4A     		ldr	r2, .L160+36
 4100 0250 9342     		cmp	r3, r2
 4101 0252 1DD0     		beq	.L151
 4102              		.loc 1 928 7 discriminator 20
 4103 0254 7B68     		ldr	r3, [r7, #4]
 4104 0256 1B68     		ldr	r3, [r3]
 4105 0258 5D4A     		ldr	r2, .L160+40
 4106 025a 9342     		cmp	r3, r2
 4107 025c 18D0     		beq	.L151
 4108              		.loc 1 928 7 discriminator 22
 4109 025e 7B68     		ldr	r3, [r7, #4]
 4110 0260 1B68     		ldr	r3, [r3]
 4111 0262 5C4A     		ldr	r2, .L160+44
 4112 0264 9342     		cmp	r3, r2
 4113 0266 13D0     		beq	.L151
 4114              		.loc 1 928 7 discriminator 24
 4115 0268 7B68     		ldr	r3, [r7, #4]
 4116 026a 1B68     		ldr	r3, [r3]
 4117 026c 5A4A     		ldr	r2, .L160+48
 4118 026e 9342     		cmp	r3, r2
 4119 0270 0ED0     		beq	.L151
 4120              		.loc 1 928 7 discriminator 26
 4121 0272 7B68     		ldr	r3, [r7, #4]
 4122 0274 1B68     		ldr	r3, [r3]
 4123 0276 594A     		ldr	r2, .L160+52
 4124 0278 9342     		cmp	r3, r2
 4125 027a 09D0     		beq	.L151
 4126              		.loc 1 928 7 discriminator 28
 4127 027c 7B68     		ldr	r3, [r7, #4]
 4128 027e 1B68     		ldr	r3, [r3]
 4129 0280 574A     		ldr	r2, .L160+56
 4130 0282 9342     		cmp	r3, r2
 4131 0284 04D0     		beq	.L151
 4132              		.loc 1 928 7 discriminator 30
 4133 0286 7B68     		ldr	r3, [r7, #4]
 4134 0288 1B68     		ldr	r3, [r3]
 4135 028a 564A     		ldr	r2, .L160+60
 4136 028c 9342     		cmp	r3, r2
 4137 028e 08D1     		bne	.L152
 4138              	.L151:
ARM GAS  /var/folders/g1/j12m_ky910s3_sv7d4yrsdn00000gn/T//ccliMUVd.s 			page 90


 4139              		.loc 1 928 7 discriminator 31
 4140 0290 7B68     		ldr	r3, [r7, #4]
 4141 0292 1B68     		ldr	r3, [r3]
 4142 0294 1A68     		ldr	r2, [r3]
 4143 0296 7B68     		ldr	r3, [r7, #4]
 4144 0298 1B68     		ldr	r3, [r3]
 4145 029a 22F00102 		bic	r2, r2, #1
 4146 029e 1A60     		str	r2, [r3]
 4147              		.loc 1 928 7
 4148 02a0 07E0     		b	.L153
 4149              	.L152:
 4150              		.loc 1 928 7 discriminator 32
 4151 02a2 7B68     		ldr	r3, [r7, #4]
 4152 02a4 1B68     		ldr	r3, [r3]
 4153 02a6 1A68     		ldr	r2, [r3]
 4154 02a8 7B68     		ldr	r3, [r7, #4]
 4155 02aa 1B68     		ldr	r3, [r3]
 4156 02ac 22F00102 		bic	r2, r2, #1
 4157 02b0 1A60     		str	r2, [r3]
 4158              	.L153:
 929:Drivers/STM32H7xx_HAL_Driver/Src/stm32h7xx_hal_dma.c **** 
 930:Drivers/STM32H7xx_HAL_Driver/Src/stm32h7xx_hal_dma.c ****       if(IS_DMA_DMAMUX_ALL_INSTANCE(hdma->Instance) != 0U) /* No DMAMUX available for BDMA1 */
 4159              		.loc 1 930 10 is_stmt 1
 4160 02b2 7B68     		ldr	r3, [r7, #4]
 4161 02b4 1B68     		ldr	r3, [r3]
 4162 02b6 3C4A     		ldr	r2, .L160
 4163 02b8 9342     		cmp	r3, r2
 4164 02ba 72D0     		beq	.L154
 4165              		.loc 1 930 10 is_stmt 0 discriminator 2
 4166 02bc 7B68     		ldr	r3, [r7, #4]
 4167 02be 1B68     		ldr	r3, [r3]
 4168 02c0 3A4A     		ldr	r2, .L160+4
 4169 02c2 9342     		cmp	r3, r2
 4170 02c4 6DD0     		beq	.L154
 4171              		.loc 1 930 10 discriminator 4
 4172 02c6 7B68     		ldr	r3, [r7, #4]
 4173 02c8 1B68     		ldr	r3, [r3]
 4174 02ca 394A     		ldr	r2, .L160+8
 4175 02cc 9342     		cmp	r3, r2
 4176 02ce 68D0     		beq	.L154
 4177              		.loc 1 930 10 discriminator 6
 4178 02d0 7B68     		ldr	r3, [r7, #4]
 4179 02d2 1B68     		ldr	r3, [r3]
 4180 02d4 374A     		ldr	r2, .L160+12
 4181 02d6 9342     		cmp	r3, r2
 4182 02d8 63D0     		beq	.L154
 4183              		.loc 1 930 10 discriminator 8
 4184 02da 7B68     		ldr	r3, [r7, #4]
 4185 02dc 1B68     		ldr	r3, [r3]
 4186 02de 364A     		ldr	r2, .L160+16
 4187 02e0 9342     		cmp	r3, r2
 4188 02e2 5ED0     		beq	.L154
 4189              		.loc 1 930 10 discriminator 10
 4190 02e4 7B68     		ldr	r3, [r7, #4]
 4191 02e6 1B68     		ldr	r3, [r3]
 4192 02e8 344A     		ldr	r2, .L160+20
 4193 02ea 9342     		cmp	r3, r2
ARM GAS  /var/folders/g1/j12m_ky910s3_sv7d4yrsdn00000gn/T//ccliMUVd.s 			page 91


 4194 02ec 59D0     		beq	.L154
 4195              		.loc 1 930 10 discriminator 12
 4196 02ee 7B68     		ldr	r3, [r7, #4]
 4197 02f0 1B68     		ldr	r3, [r3]
 4198 02f2 334A     		ldr	r2, .L160+24
 4199 02f4 9342     		cmp	r3, r2
 4200 02f6 54D0     		beq	.L154
 4201              		.loc 1 930 10 discriminator 14
 4202 02f8 7B68     		ldr	r3, [r7, #4]
 4203 02fa 1B68     		ldr	r3, [r3]
 4204 02fc 314A     		ldr	r2, .L160+28
 4205 02fe 9342     		cmp	r3, r2
 4206 0300 4FD0     		beq	.L154
 4207              		.loc 1 930 10 discriminator 16
 4208 0302 7B68     		ldr	r3, [r7, #4]
 4209 0304 1B68     		ldr	r3, [r3]
 4210 0306 304A     		ldr	r2, .L160+32
 4211 0308 9342     		cmp	r3, r2
 4212 030a 4AD0     		beq	.L154
 4213              		.loc 1 930 10 discriminator 18
 4214 030c 7B68     		ldr	r3, [r7, #4]
 4215 030e 1B68     		ldr	r3, [r3]
 4216 0310 2E4A     		ldr	r2, .L160+36
 4217 0312 9342     		cmp	r3, r2
 4218 0314 45D0     		beq	.L154
 4219              		.loc 1 930 10 discriminator 20
 4220 0316 7B68     		ldr	r3, [r7, #4]
 4221 0318 1B68     		ldr	r3, [r3]
 4222 031a 2D4A     		ldr	r2, .L160+40
 4223 031c 9342     		cmp	r3, r2
 4224 031e 40D0     		beq	.L154
 4225              		.loc 1 930 10 discriminator 22
 4226 0320 7B68     		ldr	r3, [r7, #4]
 4227 0322 1B68     		ldr	r3, [r3]
 4228 0324 2B4A     		ldr	r2, .L160+44
 4229 0326 9342     		cmp	r3, r2
 4230 0328 3BD0     		beq	.L154
 4231              		.loc 1 930 10 discriminator 24
 4232 032a 7B68     		ldr	r3, [r7, #4]
 4233 032c 1B68     		ldr	r3, [r3]
 4234 032e 2A4A     		ldr	r2, .L160+48
 4235 0330 9342     		cmp	r3, r2
 4236 0332 36D0     		beq	.L154
 4237              		.loc 1 930 10 discriminator 26
 4238 0334 7B68     		ldr	r3, [r7, #4]
 4239 0336 1B68     		ldr	r3, [r3]
 4240 0338 284A     		ldr	r2, .L160+52
 4241 033a 9342     		cmp	r3, r2
 4242 033c 31D0     		beq	.L154
 4243              		.loc 1 930 10 discriminator 28
 4244 033e 7B68     		ldr	r3, [r7, #4]
 4245 0340 1B68     		ldr	r3, [r3]
 4246 0342 274A     		ldr	r2, .L160+56
 4247 0344 9342     		cmp	r3, r2
 4248 0346 2CD0     		beq	.L154
 4249              		.loc 1 930 10 discriminator 30
 4250 0348 7B68     		ldr	r3, [r7, #4]
ARM GAS  /var/folders/g1/j12m_ky910s3_sv7d4yrsdn00000gn/T//ccliMUVd.s 			page 92


 4251 034a 1B68     		ldr	r3, [r3]
 4252 034c 254A     		ldr	r2, .L160+60
 4253 034e 9342     		cmp	r3, r2
 4254 0350 27D0     		beq	.L154
 4255              		.loc 1 930 10 discriminator 32
 4256 0352 7B68     		ldr	r3, [r7, #4]
 4257 0354 1B68     		ldr	r3, [r3]
 4258 0356 244A     		ldr	r2, .L160+64
 4259 0358 9342     		cmp	r3, r2
 4260 035a 22D0     		beq	.L154
 4261              		.loc 1 930 10 discriminator 34
 4262 035c 7B68     		ldr	r3, [r7, #4]
 4263 035e 1B68     		ldr	r3, [r3]
 4264 0360 224A     		ldr	r2, .L160+68
 4265 0362 9342     		cmp	r3, r2
 4266 0364 1DD0     		beq	.L154
 4267              		.loc 1 930 10 discriminator 36
 4268 0366 7B68     		ldr	r3, [r7, #4]
 4269 0368 1B68     		ldr	r3, [r3]
 4270 036a 214A     		ldr	r2, .L160+72
 4271 036c 9342     		cmp	r3, r2
 4272 036e 18D0     		beq	.L154
 4273              		.loc 1 930 10 discriminator 38
 4274 0370 7B68     		ldr	r3, [r7, #4]
 4275 0372 1B68     		ldr	r3, [r3]
 4276 0374 1F4A     		ldr	r2, .L160+76
 4277 0376 9342     		cmp	r3, r2
 4278 0378 13D0     		beq	.L154
 4279              		.loc 1 930 10 discriminator 40
 4280 037a 7B68     		ldr	r3, [r7, #4]
 4281 037c 1B68     		ldr	r3, [r3]
 4282 037e 1E4A     		ldr	r2, .L160+80
 4283 0380 9342     		cmp	r3, r2
 4284 0382 0ED0     		beq	.L154
 4285              		.loc 1 930 10 discriminator 42
 4286 0384 7B68     		ldr	r3, [r7, #4]
 4287 0386 1B68     		ldr	r3, [r3]
 4288 0388 1C4A     		ldr	r2, .L160+84
 4289 038a 9342     		cmp	r3, r2
 4290 038c 09D0     		beq	.L154
 4291              		.loc 1 930 10 discriminator 44
 4292 038e 7B68     		ldr	r3, [r7, #4]
 4293 0390 1B68     		ldr	r3, [r3]
 4294 0392 1B4A     		ldr	r2, .L160+88
 4295 0394 9342     		cmp	r3, r2
 4296 0396 04D0     		beq	.L154
 4297              		.loc 1 930 10 discriminator 46
 4298 0398 7B68     		ldr	r3, [r7, #4]
 4299 039a 1B68     		ldr	r3, [r3]
 4300 039c 194A     		ldr	r2, .L160+92
 4301 039e 9342     		cmp	r3, r2
 4302 03a0 32D1     		bne	.L155
 4303              	.L154:
 4304              		.loc 1 930 10 discriminator 47
 4305 03a2 0123     		movs	r3, #1
 4306              		.loc 1 930 10
 4307 03a4 31E0     		b	.L156
ARM GAS  /var/folders/g1/j12m_ky910s3_sv7d4yrsdn00000gn/T//ccliMUVd.s 			page 93


 4308              	.L161:
 4309 03a6 00BF     		.align	2
 4310              	.L160:
 4311 03a8 10000240 		.word	1073872912
 4312 03ac 28000240 		.word	1073872936
 4313 03b0 40000240 		.word	1073872960
 4314 03b4 58000240 		.word	1073872984
 4315 03b8 70000240 		.word	1073873008
 4316 03bc 88000240 		.word	1073873032
 4317 03c0 A0000240 		.word	1073873056
 4318 03c4 B8000240 		.word	1073873080
 4319 03c8 10040240 		.word	1073873936
 4320 03cc 28040240 		.word	1073873960
 4321 03d0 40040240 		.word	1073873984
 4322 03d4 58040240 		.word	1073874008
 4323 03d8 70040240 		.word	1073874032
 4324 03dc 88040240 		.word	1073874056
 4325 03e0 A0040240 		.word	1073874080
 4326 03e4 B8040240 		.word	1073874104
 4327 03e8 08540258 		.word	1476547592
 4328 03ec 1C540258 		.word	1476547612
 4329 03f0 30540258 		.word	1476547632
 4330 03f4 44540258 		.word	1476547652
 4331 03f8 58540258 		.word	1476547672
 4332 03fc 6C540258 		.word	1476547692
 4333 0400 80540258 		.word	1476547712
 4334 0404 94540258 		.word	1476547732
 4335              	.L155:
 4336              		.loc 1 930 10 discriminator 48
 4337 0408 0023     		movs	r3, #0
 4338              	.L156:
 4339              		.loc 1 930 9 is_stmt 1 discriminator 50
 4340 040a 002B     		cmp	r3, #0
 4341 040c 28D0     		beq	.L157
 931:Drivers/STM32H7xx_HAL_Driver/Src/stm32h7xx_hal_dma.c ****       {
 932:Drivers/STM32H7xx_HAL_Driver/Src/stm32h7xx_hal_dma.c ****         /* disable the DMAMUX sync overrun IT */
 933:Drivers/STM32H7xx_HAL_Driver/Src/stm32h7xx_hal_dma.c ****         hdma->DMAmuxChannel->CCR &= ~DMAMUX_CxCR_SOIE;
 4342              		.loc 1 933 13
 4343 040e 7B68     		ldr	r3, [r7, #4]
 4344 0410 1B6E     		ldr	r3, [r3, #96]
 4345              		.loc 1 933 28
 4346 0412 1A68     		ldr	r2, [r3]
 4347              		.loc 1 933 13
 4348 0414 7B68     		ldr	r3, [r7, #4]
 4349 0416 1B6E     		ldr	r3, [r3, #96]
 4350              		.loc 1 933 34
 4351 0418 22F48072 		bic	r2, r2, #256
 4352 041c 1A60     		str	r2, [r3]
 934:Drivers/STM32H7xx_HAL_Driver/Src/stm32h7xx_hal_dma.c **** 
 935:Drivers/STM32H7xx_HAL_Driver/Src/stm32h7xx_hal_dma.c ****         /* Clear all flags */
 936:Drivers/STM32H7xx_HAL_Driver/Src/stm32h7xx_hal_dma.c ****         regs_bdma = (BDMA_Base_Registers *)hdma->StreamBaseAddress;
 4353              		.loc 1 936 48
 4354 041e 7B68     		ldr	r3, [r7, #4]
 4355 0420 9B6D     		ldr	r3, [r3, #88]
 4356              		.loc 1 936 19
 4357 0422 FB60     		str	r3, [r7, #12]
 937:Drivers/STM32H7xx_HAL_Driver/Src/stm32h7xx_hal_dma.c ****         regs_bdma->IFCR = ((BDMA_IFCR_CGIF0) << (hdma->StreamIndex & 0x1FU));
ARM GAS  /var/folders/g1/j12m_ky910s3_sv7d4yrsdn00000gn/T//ccliMUVd.s 			page 94


 4358              		.loc 1 937 54
 4359 0424 7B68     		ldr	r3, [r7, #4]
 4360 0426 DB6D     		ldr	r3, [r3, #92]
 4361              		.loc 1 937 68
 4362 0428 03F01F03 		and	r3, r3, #31
 4363              		.loc 1 937 46
 4364 042c 0122     		movs	r2, #1
 4365 042e 9A40     		lsls	r2, r2, r3
 4366              		.loc 1 937 25
 4367 0430 FB68     		ldr	r3, [r7, #12]
 4368 0432 5A60     		str	r2, [r3, #4]
 938:Drivers/STM32H7xx_HAL_Driver/Src/stm32h7xx_hal_dma.c **** 
 939:Drivers/STM32H7xx_HAL_Driver/Src/stm32h7xx_hal_dma.c ****         /* Clear the DMAMUX synchro overrun flag */
 940:Drivers/STM32H7xx_HAL_Driver/Src/stm32h7xx_hal_dma.c ****         hdma->DMAmuxChannelStatus->CFR = hdma->DMAmuxChannelStatusMask;
 4369              		.loc 1 940 13
 4370 0434 7B68     		ldr	r3, [r7, #4]
 4371 0436 5B6E     		ldr	r3, [r3, #100]
 4372              		.loc 1 940 46
 4373 0438 7A68     		ldr	r2, [r7, #4]
 4374 043a 926E     		ldr	r2, [r2, #104]
 4375              		.loc 1 940 40
 4376 043c 5A60     		str	r2, [r3, #4]
 941:Drivers/STM32H7xx_HAL_Driver/Src/stm32h7xx_hal_dma.c **** 
 942:Drivers/STM32H7xx_HAL_Driver/Src/stm32h7xx_hal_dma.c ****         if(hdma->DMAmuxRequestGen != 0U)
 4377              		.loc 1 942 16
 4378 043e 7B68     		ldr	r3, [r7, #4]
 4379 0440 DB6E     		ldr	r3, [r3, #108]
 4380              		.loc 1 942 11
 4381 0442 002B     		cmp	r3, #0
 4382 0444 0CD0     		beq	.L157
 943:Drivers/STM32H7xx_HAL_Driver/Src/stm32h7xx_hal_dma.c ****         {
 944:Drivers/STM32H7xx_HAL_Driver/Src/stm32h7xx_hal_dma.c ****           /* if using DMAMUX request generator, disable the DMAMUX request generator overrun IT*/
 945:Drivers/STM32H7xx_HAL_Driver/Src/stm32h7xx_hal_dma.c ****           /* disable the request gen overrun IT */
 946:Drivers/STM32H7xx_HAL_Driver/Src/stm32h7xx_hal_dma.c ****           hdma->DMAmuxRequestGen->RGCR &= ~DMAMUX_RGxCR_OIE;
 4383              		.loc 1 946 15
 4384 0446 7B68     		ldr	r3, [r7, #4]
 4385 0448 DB6E     		ldr	r3, [r3, #108]
 4386              		.loc 1 946 33
 4387 044a 1A68     		ldr	r2, [r3]
 4388              		.loc 1 946 15
 4389 044c 7B68     		ldr	r3, [r7, #4]
 4390 044e DB6E     		ldr	r3, [r3, #108]
 4391              		.loc 1 946 40
 4392 0450 22F48072 		bic	r2, r2, #256
 4393 0454 1A60     		str	r2, [r3]
 947:Drivers/STM32H7xx_HAL_Driver/Src/stm32h7xx_hal_dma.c **** 
 948:Drivers/STM32H7xx_HAL_Driver/Src/stm32h7xx_hal_dma.c ****           /* Clear the DMAMUX request generator overrun flag */
 949:Drivers/STM32H7xx_HAL_Driver/Src/stm32h7xx_hal_dma.c ****           hdma->DMAmuxRequestGenStatus->RGCFR = hdma->DMAmuxRequestGenStatusMask;
 4394              		.loc 1 949 15
 4395 0456 7B68     		ldr	r3, [r7, #4]
 4396 0458 1B6F     		ldr	r3, [r3, #112]
 4397              		.loc 1 949 53
 4398 045a 7A68     		ldr	r2, [r7, #4]
 4399 045c 526F     		ldr	r2, [r2, #116]
 4400              		.loc 1 949 47
 4401 045e 5A60     		str	r2, [r3, #4]
 4402              	.L157:
ARM GAS  /var/folders/g1/j12m_ky910s3_sv7d4yrsdn00000gn/T//ccliMUVd.s 			page 95


 950:Drivers/STM32H7xx_HAL_Driver/Src/stm32h7xx_hal_dma.c ****         }
 951:Drivers/STM32H7xx_HAL_Driver/Src/stm32h7xx_hal_dma.c ****       }
 952:Drivers/STM32H7xx_HAL_Driver/Src/stm32h7xx_hal_dma.c **** 
 953:Drivers/STM32H7xx_HAL_Driver/Src/stm32h7xx_hal_dma.c ****       /* Change the DMA state */
 954:Drivers/STM32H7xx_HAL_Driver/Src/stm32h7xx_hal_dma.c ****       hdma->State = HAL_DMA_STATE_READY;
 4403              		.loc 1 954 19
 4404 0460 7B68     		ldr	r3, [r7, #4]
 4405 0462 0122     		movs	r2, #1
 4406 0464 83F83520 		strb	r2, [r3, #53]
 955:Drivers/STM32H7xx_HAL_Driver/Src/stm32h7xx_hal_dma.c **** 
 956:Drivers/STM32H7xx_HAL_Driver/Src/stm32h7xx_hal_dma.c ****       /* Process Unlocked */
 957:Drivers/STM32H7xx_HAL_Driver/Src/stm32h7xx_hal_dma.c ****       __HAL_UNLOCK(hdma);
 4407              		.loc 1 957 7
 4408 0468 7B68     		ldr	r3, [r7, #4]
 4409 046a 0022     		movs	r2, #0
 4410 046c 83F83420 		strb	r2, [r3, #52]
 958:Drivers/STM32H7xx_HAL_Driver/Src/stm32h7xx_hal_dma.c **** 
 959:Drivers/STM32H7xx_HAL_Driver/Src/stm32h7xx_hal_dma.c ****       /* Call User Abort callback */
 960:Drivers/STM32H7xx_HAL_Driver/Src/stm32h7xx_hal_dma.c ****       if(hdma->XferAbortCallback != NULL)
 4411              		.loc 1 960 14
 4412 0470 7B68     		ldr	r3, [r7, #4]
 4413 0472 1B6D     		ldr	r3, [r3, #80]
 4414              		.loc 1 960 9
 4415 0474 002B     		cmp	r3, #0
 4416 0476 03D0     		beq	.L150
 961:Drivers/STM32H7xx_HAL_Driver/Src/stm32h7xx_hal_dma.c ****       {
 962:Drivers/STM32H7xx_HAL_Driver/Src/stm32h7xx_hal_dma.c ****         hdma->XferAbortCallback(hdma);
 4417              		.loc 1 962 13
 4418 0478 7B68     		ldr	r3, [r7, #4]
 4419 047a 1B6D     		ldr	r3, [r3, #80]
 4420              		.loc 1 962 9
 4421 047c 7868     		ldr	r0, [r7, #4]
 4422 047e 9847     		blx	r3
 4423              	.LVL0:
 4424              	.L150:
 963:Drivers/STM32H7xx_HAL_Driver/Src/stm32h7xx_hal_dma.c ****       }
 964:Drivers/STM32H7xx_HAL_Driver/Src/stm32h7xx_hal_dma.c ****     }
 965:Drivers/STM32H7xx_HAL_Driver/Src/stm32h7xx_hal_dma.c ****   }
 966:Drivers/STM32H7xx_HAL_Driver/Src/stm32h7xx_hal_dma.c **** 
 967:Drivers/STM32H7xx_HAL_Driver/Src/stm32h7xx_hal_dma.c ****   return HAL_OK;
 4425              		.loc 1 967 10
 4426 0480 0023     		movs	r3, #0
 4427              	.L141:
 968:Drivers/STM32H7xx_HAL_Driver/Src/stm32h7xx_hal_dma.c **** }
 4428              		.loc 1 968 1
 4429 0482 1846     		mov	r0, r3
 4430 0484 1037     		adds	r7, r7, #16
 4431              	.LCFI28:
 4432              		.cfi_def_cfa_offset 8
 4433 0486 BD46     		mov	sp, r7
 4434              	.LCFI29:
 4435              		.cfi_def_cfa_register 13
 4436              		@ sp needed
 4437 0488 80BD     		pop	{r7, pc}
 4438              		.cfi_endproc
 4439              	.LFE149:
 4441              		.section	.text.HAL_DMA_PollForTransfer,"ax",%progbits
ARM GAS  /var/folders/g1/j12m_ky910s3_sv7d4yrsdn00000gn/T//ccliMUVd.s 			page 96


 4442              		.align	1
 4443              		.global	HAL_DMA_PollForTransfer
 4444              		.syntax unified
 4445              		.thumb
 4446              		.thumb_func
 4448              	HAL_DMA_PollForTransfer:
 4449              	.LFB150:
 969:Drivers/STM32H7xx_HAL_Driver/Src/stm32h7xx_hal_dma.c **** 
 970:Drivers/STM32H7xx_HAL_Driver/Src/stm32h7xx_hal_dma.c **** /**
 971:Drivers/STM32H7xx_HAL_Driver/Src/stm32h7xx_hal_dma.c ****   * @brief  Polling for transfer complete.
 972:Drivers/STM32H7xx_HAL_Driver/Src/stm32h7xx_hal_dma.c ****   * @param  hdma:          pointer to a DMA_HandleTypeDef structure that contains
 973:Drivers/STM32H7xx_HAL_Driver/Src/stm32h7xx_hal_dma.c ****   *                        the configuration information for the specified DMA Stream.
 974:Drivers/STM32H7xx_HAL_Driver/Src/stm32h7xx_hal_dma.c ****   * @param  CompleteLevel: Specifies the DMA level complete.
 975:Drivers/STM32H7xx_HAL_Driver/Src/stm32h7xx_hal_dma.c ****   * @note   The polling mode is kept in this version for legacy. it is recommended to use the IT mo
 976:Drivers/STM32H7xx_HAL_Driver/Src/stm32h7xx_hal_dma.c ****   *         This model could be used for debug purpose.
 977:Drivers/STM32H7xx_HAL_Driver/Src/stm32h7xx_hal_dma.c ****   * @note   The HAL_DMA_PollForTransfer API cannot be used in circular and double buffering mode (a
 978:Drivers/STM32H7xx_HAL_Driver/Src/stm32h7xx_hal_dma.c ****   * @param  Timeout:       Timeout duration.
 979:Drivers/STM32H7xx_HAL_Driver/Src/stm32h7xx_hal_dma.c ****   * @retval HAL status
 980:Drivers/STM32H7xx_HAL_Driver/Src/stm32h7xx_hal_dma.c ****   */
 981:Drivers/STM32H7xx_HAL_Driver/Src/stm32h7xx_hal_dma.c **** HAL_StatusTypeDef HAL_DMA_PollForTransfer(DMA_HandleTypeDef *hdma, HAL_DMA_LevelCompleteTypeDef Com
 982:Drivers/STM32H7xx_HAL_Driver/Src/stm32h7xx_hal_dma.c **** {
 4450              		.loc 1 982 1
 4451              		.cfi_startproc
 4452              		@ args = 0, pretend = 0, frame = 40
 4453              		@ frame_needed = 1, uses_anonymous_args = 0
 4454 0000 80B5     		push	{r7, lr}
 4455              	.LCFI30:
 4456              		.cfi_def_cfa_offset 8
 4457              		.cfi_offset 7, -8
 4458              		.cfi_offset 14, -4
 4459 0002 8AB0     		sub	sp, sp, #40
 4460              	.LCFI31:
 4461              		.cfi_def_cfa_offset 48
 4462 0004 00AF     		add	r7, sp, #0
 4463              	.LCFI32:
 4464              		.cfi_def_cfa_register 7
 4465 0006 F860     		str	r0, [r7, #12]
 4466 0008 0B46     		mov	r3, r1
 4467 000a 7A60     		str	r2, [r7, #4]
 4468 000c FB72     		strb	r3, [r7, #11]
 983:Drivers/STM32H7xx_HAL_Driver/Src/stm32h7xx_hal_dma.c ****   HAL_StatusTypeDef status = HAL_OK;
 4469              		.loc 1 983 21
 4470 000e 0023     		movs	r3, #0
 4471 0010 FB76     		strb	r3, [r7, #27]
 984:Drivers/STM32H7xx_HAL_Driver/Src/stm32h7xx_hal_dma.c ****   uint32_t cpltlevel_mask;
 985:Drivers/STM32H7xx_HAL_Driver/Src/stm32h7xx_hal_dma.c ****   uint32_t tickstart = HAL_GetTick();
 4472              		.loc 1 985 24
 4473 0012 FFF7FEFF 		bl	HAL_GetTick
 4474 0016 7861     		str	r0, [r7, #20]
 986:Drivers/STM32H7xx_HAL_Driver/Src/stm32h7xx_hal_dma.c **** 
 987:Drivers/STM32H7xx_HAL_Driver/Src/stm32h7xx_hal_dma.c ****   /* IT status register */
 988:Drivers/STM32H7xx_HAL_Driver/Src/stm32h7xx_hal_dma.c ****   __IO uint32_t *isr_reg;
 989:Drivers/STM32H7xx_HAL_Driver/Src/stm32h7xx_hal_dma.c ****   /* IT clear flag register */
 990:Drivers/STM32H7xx_HAL_Driver/Src/stm32h7xx_hal_dma.c ****   __IO uint32_t *ifcr_reg;
 991:Drivers/STM32H7xx_HAL_Driver/Src/stm32h7xx_hal_dma.c **** 
 992:Drivers/STM32H7xx_HAL_Driver/Src/stm32h7xx_hal_dma.c ****   /* Check the DMA peripheral handle */
 993:Drivers/STM32H7xx_HAL_Driver/Src/stm32h7xx_hal_dma.c ****   if(hdma == NULL)
ARM GAS  /var/folders/g1/j12m_ky910s3_sv7d4yrsdn00000gn/T//ccliMUVd.s 			page 97


 4475              		.loc 1 993 5
 4476 0018 FB68     		ldr	r3, [r7, #12]
 4477 001a 002B     		cmp	r3, #0
 4478 001c 01D1     		bne	.L163
 994:Drivers/STM32H7xx_HAL_Driver/Src/stm32h7xx_hal_dma.c ****   {
 995:Drivers/STM32H7xx_HAL_Driver/Src/stm32h7xx_hal_dma.c ****     return HAL_ERROR;
 4479              		.loc 1 995 12
 4480 001e 0123     		movs	r3, #1
 4481 0020 74E3     		b	.L164
 4482              	.L163:
 996:Drivers/STM32H7xx_HAL_Driver/Src/stm32h7xx_hal_dma.c ****   }
 997:Drivers/STM32H7xx_HAL_Driver/Src/stm32h7xx_hal_dma.c **** 
 998:Drivers/STM32H7xx_HAL_Driver/Src/stm32h7xx_hal_dma.c ****   if(HAL_DMA_STATE_BUSY != hdma->State)
 4483              		.loc 1 998 32
 4484 0022 FB68     		ldr	r3, [r7, #12]
 4485 0024 93F83530 		ldrb	r3, [r3, #53]
 4486 0028 DBB2     		uxtb	r3, r3
 4487              		.loc 1 998 5
 4488 002a 022B     		cmp	r3, #2
 4489 002c 08D0     		beq	.L165
 999:Drivers/STM32H7xx_HAL_Driver/Src/stm32h7xx_hal_dma.c ****   {
1000:Drivers/STM32H7xx_HAL_Driver/Src/stm32h7xx_hal_dma.c ****     /* No transfer ongoing */
1001:Drivers/STM32H7xx_HAL_Driver/Src/stm32h7xx_hal_dma.c ****     hdma->ErrorCode = HAL_DMA_ERROR_NO_XFER;
 4490              		.loc 1 1001 21
 4491 002e FB68     		ldr	r3, [r7, #12]
 4492 0030 8022     		movs	r2, #128
 4493 0032 5A65     		str	r2, [r3, #84]
1002:Drivers/STM32H7xx_HAL_Driver/Src/stm32h7xx_hal_dma.c ****     __HAL_UNLOCK(hdma);
 4494              		.loc 1 1002 5
 4495 0034 FB68     		ldr	r3, [r7, #12]
 4496 0036 0022     		movs	r2, #0
 4497 0038 83F83420 		strb	r2, [r3, #52]
1003:Drivers/STM32H7xx_HAL_Driver/Src/stm32h7xx_hal_dma.c **** 
1004:Drivers/STM32H7xx_HAL_Driver/Src/stm32h7xx_hal_dma.c ****     return HAL_ERROR;
 4498              		.loc 1 1004 12
 4499 003c 0123     		movs	r3, #1
 4500 003e 65E3     		b	.L164
 4501              	.L165:
1005:Drivers/STM32H7xx_HAL_Driver/Src/stm32h7xx_hal_dma.c ****   }
1006:Drivers/STM32H7xx_HAL_Driver/Src/stm32h7xx_hal_dma.c **** 
1007:Drivers/STM32H7xx_HAL_Driver/Src/stm32h7xx_hal_dma.c ****   if(IS_DMA_STREAM_INSTANCE(hdma->Instance) != 0U) /* DMA1 or DMA2 instance */
 4502              		.loc 1 1007 6
 4503 0040 FB68     		ldr	r3, [r7, #12]
 4504 0042 1B68     		ldr	r3, [r3]
 4505 0044 7B4A     		ldr	r2, .L205
 4506 0046 9342     		cmp	r3, r2
 4507 0048 4AD0     		beq	.L166
 4508              		.loc 1 1007 6 is_stmt 0 discriminator 2
 4509 004a FB68     		ldr	r3, [r7, #12]
 4510 004c 1B68     		ldr	r3, [r3]
 4511 004e 7A4A     		ldr	r2, .L205+4
 4512 0050 9342     		cmp	r3, r2
 4513 0052 45D0     		beq	.L166
 4514              		.loc 1 1007 6 discriminator 4
 4515 0054 FB68     		ldr	r3, [r7, #12]
 4516 0056 1B68     		ldr	r3, [r3]
 4517 0058 784A     		ldr	r2, .L205+8
ARM GAS  /var/folders/g1/j12m_ky910s3_sv7d4yrsdn00000gn/T//ccliMUVd.s 			page 98


 4518 005a 9342     		cmp	r3, r2
 4519 005c 40D0     		beq	.L166
 4520              		.loc 1 1007 6 discriminator 6
 4521 005e FB68     		ldr	r3, [r7, #12]
 4522 0060 1B68     		ldr	r3, [r3]
 4523 0062 774A     		ldr	r2, .L205+12
 4524 0064 9342     		cmp	r3, r2
 4525 0066 3BD0     		beq	.L166
 4526              		.loc 1 1007 6 discriminator 8
 4527 0068 FB68     		ldr	r3, [r7, #12]
 4528 006a 1B68     		ldr	r3, [r3]
 4529 006c 754A     		ldr	r2, .L205+16
 4530 006e 9342     		cmp	r3, r2
 4531 0070 36D0     		beq	.L166
 4532              		.loc 1 1007 6 discriminator 10
 4533 0072 FB68     		ldr	r3, [r7, #12]
 4534 0074 1B68     		ldr	r3, [r3]
 4535 0076 744A     		ldr	r2, .L205+20
 4536 0078 9342     		cmp	r3, r2
 4537 007a 31D0     		beq	.L166
 4538              		.loc 1 1007 6 discriminator 12
 4539 007c FB68     		ldr	r3, [r7, #12]
 4540 007e 1B68     		ldr	r3, [r3]
 4541 0080 724A     		ldr	r2, .L205+24
 4542 0082 9342     		cmp	r3, r2
 4543 0084 2CD0     		beq	.L166
 4544              		.loc 1 1007 6 discriminator 14
 4545 0086 FB68     		ldr	r3, [r7, #12]
 4546 0088 1B68     		ldr	r3, [r3]
 4547 008a 714A     		ldr	r2, .L205+28
 4548 008c 9342     		cmp	r3, r2
 4549 008e 27D0     		beq	.L166
 4550              		.loc 1 1007 6 discriminator 16
 4551 0090 FB68     		ldr	r3, [r7, #12]
 4552 0092 1B68     		ldr	r3, [r3]
 4553 0094 6F4A     		ldr	r2, .L205+32
 4554 0096 9342     		cmp	r3, r2
 4555 0098 22D0     		beq	.L166
 4556              		.loc 1 1007 6 discriminator 18
 4557 009a FB68     		ldr	r3, [r7, #12]
 4558 009c 1B68     		ldr	r3, [r3]
 4559 009e 6E4A     		ldr	r2, .L205+36
 4560 00a0 9342     		cmp	r3, r2
 4561 00a2 1DD0     		beq	.L166
 4562              		.loc 1 1007 6 discriminator 20
 4563 00a4 FB68     		ldr	r3, [r7, #12]
 4564 00a6 1B68     		ldr	r3, [r3]
 4565 00a8 6C4A     		ldr	r2, .L205+40
 4566 00aa 9342     		cmp	r3, r2
 4567 00ac 18D0     		beq	.L166
 4568              		.loc 1 1007 6 discriminator 22
 4569 00ae FB68     		ldr	r3, [r7, #12]
 4570 00b0 1B68     		ldr	r3, [r3]
 4571 00b2 6B4A     		ldr	r2, .L205+44
 4572 00b4 9342     		cmp	r3, r2
 4573 00b6 13D0     		beq	.L166
 4574              		.loc 1 1007 6 discriminator 24
ARM GAS  /var/folders/g1/j12m_ky910s3_sv7d4yrsdn00000gn/T//ccliMUVd.s 			page 99


 4575 00b8 FB68     		ldr	r3, [r7, #12]
 4576 00ba 1B68     		ldr	r3, [r3]
 4577 00bc 694A     		ldr	r2, .L205+48
 4578 00be 9342     		cmp	r3, r2
 4579 00c0 0ED0     		beq	.L166
 4580              		.loc 1 1007 6 discriminator 26
 4581 00c2 FB68     		ldr	r3, [r7, #12]
 4582 00c4 1B68     		ldr	r3, [r3]
 4583 00c6 684A     		ldr	r2, .L205+52
 4584 00c8 9342     		cmp	r3, r2
 4585 00ca 09D0     		beq	.L166
 4586              		.loc 1 1007 6 discriminator 28
 4587 00cc FB68     		ldr	r3, [r7, #12]
 4588 00ce 1B68     		ldr	r3, [r3]
 4589 00d0 664A     		ldr	r2, .L205+56
 4590 00d2 9342     		cmp	r3, r2
 4591 00d4 04D0     		beq	.L166
 4592              		.loc 1 1007 6 discriminator 30
 4593 00d6 FB68     		ldr	r3, [r7, #12]
 4594 00d8 1B68     		ldr	r3, [r3]
 4595 00da 654A     		ldr	r2, .L205+60
 4596 00dc 9342     		cmp	r3, r2
 4597 00de 01D1     		bne	.L167
 4598              	.L166:
 4599              		.loc 1 1007 6 discriminator 31
 4600 00e0 0123     		movs	r3, #1
 4601              		.loc 1 1007 6
 4602 00e2 00E0     		b	.L168
 4603              	.L167:
 4604              		.loc 1 1007 6 discriminator 32
 4605 00e4 0023     		movs	r3, #0
 4606              	.L168:
 4607              		.loc 1 1007 5 is_stmt 1 discriminator 34
 4608 00e6 002B     		cmp	r3, #0
 4609 00e8 28D0     		beq	.L169
1008:Drivers/STM32H7xx_HAL_Driver/Src/stm32h7xx_hal_dma.c ****   {
1009:Drivers/STM32H7xx_HAL_Driver/Src/stm32h7xx_hal_dma.c ****     /* Polling mode not supported in circular mode and double buffering mode */
1010:Drivers/STM32H7xx_HAL_Driver/Src/stm32h7xx_hal_dma.c ****     if ((((DMA_Stream_TypeDef   *)hdma->Instance)->CR & DMA_SxCR_CIRC) != 0U)
 4610              		.loc 1 1010 39
 4611 00ea FB68     		ldr	r3, [r7, #12]
 4612 00ec 1B68     		ldr	r3, [r3]
 4613              		.loc 1 1010 50
 4614 00ee 1B68     		ldr	r3, [r3]
 4615              		.loc 1 1010 55
 4616 00f0 03F48073 		and	r3, r3, #256
 4617              		.loc 1 1010 8
 4618 00f4 002B     		cmp	r3, #0
 4619 00f6 05D0     		beq	.L170
1011:Drivers/STM32H7xx_HAL_Driver/Src/stm32h7xx_hal_dma.c ****     {
1012:Drivers/STM32H7xx_HAL_Driver/Src/stm32h7xx_hal_dma.c ****       hdma->ErrorCode = HAL_DMA_ERROR_NOT_SUPPORTED;
 4620              		.loc 1 1012 23
 4621 00f8 FB68     		ldr	r3, [r7, #12]
 4622 00fa 4FF48072 		mov	r2, #256
 4623 00fe 5A65     		str	r2, [r3, #84]
1013:Drivers/STM32H7xx_HAL_Driver/Src/stm32h7xx_hal_dma.c ****       return HAL_ERROR;
 4624              		.loc 1 1013 14
 4625 0100 0123     		movs	r3, #1
ARM GAS  /var/folders/g1/j12m_ky910s3_sv7d4yrsdn00000gn/T//ccliMUVd.s 			page 100


 4626 0102 03E3     		b	.L164
 4627              	.L170:
1014:Drivers/STM32H7xx_HAL_Driver/Src/stm32h7xx_hal_dma.c ****     }
1015:Drivers/STM32H7xx_HAL_Driver/Src/stm32h7xx_hal_dma.c **** 
1016:Drivers/STM32H7xx_HAL_Driver/Src/stm32h7xx_hal_dma.c ****     /* Get the level transfer complete flag */
1017:Drivers/STM32H7xx_HAL_Driver/Src/stm32h7xx_hal_dma.c ****     if(CompleteLevel == HAL_DMA_FULL_TRANSFER)
 4628              		.loc 1 1017 7
 4629 0104 FB7A     		ldrb	r3, [r7, #11]	@ zero_extendqisi2
 4630 0106 002B     		cmp	r3, #0
 4631 0108 08D1     		bne	.L171
1018:Drivers/STM32H7xx_HAL_Driver/Src/stm32h7xx_hal_dma.c ****     {
1019:Drivers/STM32H7xx_HAL_Driver/Src/stm32h7xx_hal_dma.c ****       /* Transfer Complete flag */
1020:Drivers/STM32H7xx_HAL_Driver/Src/stm32h7xx_hal_dma.c ****       cpltlevel_mask = DMA_FLAG_TCIF0_4 << (hdma->StreamIndex & 0x1FU);
 4632              		.loc 1 1020 49
 4633 010a FB68     		ldr	r3, [r7, #12]
 4634 010c DB6D     		ldr	r3, [r3, #92]
 4635              		.loc 1 1020 63
 4636 010e 03F01F03 		and	r3, r3, #31
 4637              		.loc 1 1020 22
 4638 0112 2022     		movs	r2, #32
 4639 0114 02FA03F3 		lsl	r3, r2, r3
 4640 0118 7B62     		str	r3, [r7, #36]
 4641 011a 07E0     		b	.L172
 4642              	.L171:
1021:Drivers/STM32H7xx_HAL_Driver/Src/stm32h7xx_hal_dma.c ****     }
1022:Drivers/STM32H7xx_HAL_Driver/Src/stm32h7xx_hal_dma.c ****     else
1023:Drivers/STM32H7xx_HAL_Driver/Src/stm32h7xx_hal_dma.c ****     {
1024:Drivers/STM32H7xx_HAL_Driver/Src/stm32h7xx_hal_dma.c ****       /* Half Transfer Complete flag */
1025:Drivers/STM32H7xx_HAL_Driver/Src/stm32h7xx_hal_dma.c ****       cpltlevel_mask = DMA_FLAG_HTIF0_4 << (hdma->StreamIndex & 0x1FU);
 4643              		.loc 1 1025 49
 4644 011c FB68     		ldr	r3, [r7, #12]
 4645 011e DB6D     		ldr	r3, [r3, #92]
 4646              		.loc 1 1025 63
 4647 0120 03F01F03 		and	r3, r3, #31
 4648              		.loc 1 1025 22
 4649 0124 1022     		movs	r2, #16
 4650 0126 02FA03F3 		lsl	r3, r2, r3
 4651 012a 7B62     		str	r3, [r7, #36]
 4652              	.L172:
1026:Drivers/STM32H7xx_HAL_Driver/Src/stm32h7xx_hal_dma.c ****     }
1027:Drivers/STM32H7xx_HAL_Driver/Src/stm32h7xx_hal_dma.c **** 
1028:Drivers/STM32H7xx_HAL_Driver/Src/stm32h7xx_hal_dma.c ****     isr_reg  = &(((DMA_Base_Registers *)hdma->StreamBaseAddress)->ISR);
 4653              		.loc 1 1028 45
 4654 012c FB68     		ldr	r3, [r7, #12]
 4655 012e 9B6D     		ldr	r3, [r3, #88]
 4656              		.loc 1 1028 14
 4657 0130 3B62     		str	r3, [r7, #32]
1029:Drivers/STM32H7xx_HAL_Driver/Src/stm32h7xx_hal_dma.c ****     ifcr_reg = &(((DMA_Base_Registers *)hdma->StreamBaseAddress)->IFCR);
 4658              		.loc 1 1029 45
 4659 0132 FB68     		ldr	r3, [r7, #12]
 4660 0134 9B6D     		ldr	r3, [r3, #88]
 4661              		.loc 1 1029 14
 4662 0136 0833     		adds	r3, r3, #8
 4663 0138 FB61     		str	r3, [r7, #28]
 4664 013a D5E1     		b	.L190
 4665              	.L169:
1030:Drivers/STM32H7xx_HAL_Driver/Src/stm32h7xx_hal_dma.c ****   }
ARM GAS  /var/folders/g1/j12m_ky910s3_sv7d4yrsdn00000gn/T//ccliMUVd.s 			page 101


1031:Drivers/STM32H7xx_HAL_Driver/Src/stm32h7xx_hal_dma.c ****   else /* BDMA channel */
1032:Drivers/STM32H7xx_HAL_Driver/Src/stm32h7xx_hal_dma.c ****   {
1033:Drivers/STM32H7xx_HAL_Driver/Src/stm32h7xx_hal_dma.c ****     /* Polling mode not supported in circular mode */
1034:Drivers/STM32H7xx_HAL_Driver/Src/stm32h7xx_hal_dma.c ****     if ((((BDMA_Channel_TypeDef   *)hdma->Instance)->CCR & BDMA_CCR_CIRC) != 0U)
 4666              		.loc 1 1034 41
 4667 013c FB68     		ldr	r3, [r7, #12]
 4668 013e 1B68     		ldr	r3, [r3]
 4669              		.loc 1 1034 52
 4670 0140 1B68     		ldr	r3, [r3]
 4671              		.loc 1 1034 58
 4672 0142 03F02003 		and	r3, r3, #32
 4673              		.loc 1 1034 8
 4674 0146 002B     		cmp	r3, #0
 4675 0148 05D0     		beq	.L174
1035:Drivers/STM32H7xx_HAL_Driver/Src/stm32h7xx_hal_dma.c ****     {
1036:Drivers/STM32H7xx_HAL_Driver/Src/stm32h7xx_hal_dma.c ****       hdma->ErrorCode = HAL_DMA_ERROR_NOT_SUPPORTED;
 4676              		.loc 1 1036 23
 4677 014a FB68     		ldr	r3, [r7, #12]
 4678 014c 4FF48072 		mov	r2, #256
 4679 0150 5A65     		str	r2, [r3, #84]
1037:Drivers/STM32H7xx_HAL_Driver/Src/stm32h7xx_hal_dma.c ****       return HAL_ERROR;
 4680              		.loc 1 1037 14
 4681 0152 0123     		movs	r3, #1
 4682 0154 DAE2     		b	.L164
 4683              	.L174:
1038:Drivers/STM32H7xx_HAL_Driver/Src/stm32h7xx_hal_dma.c ****     }
1039:Drivers/STM32H7xx_HAL_Driver/Src/stm32h7xx_hal_dma.c **** 
1040:Drivers/STM32H7xx_HAL_Driver/Src/stm32h7xx_hal_dma.c ****     /* Get the level transfer complete flag */
1041:Drivers/STM32H7xx_HAL_Driver/Src/stm32h7xx_hal_dma.c ****     if(CompleteLevel == HAL_DMA_FULL_TRANSFER)
 4684              		.loc 1 1041 7
 4685 0156 FB7A     		ldrb	r3, [r7, #11]	@ zero_extendqisi2
 4686 0158 002B     		cmp	r3, #0
 4687 015a 08D1     		bne	.L175
1042:Drivers/STM32H7xx_HAL_Driver/Src/stm32h7xx_hal_dma.c ****     {
1043:Drivers/STM32H7xx_HAL_Driver/Src/stm32h7xx_hal_dma.c ****       /* Transfer Complete flag */
1044:Drivers/STM32H7xx_HAL_Driver/Src/stm32h7xx_hal_dma.c ****       cpltlevel_mask = BDMA_FLAG_TC0 << (hdma->StreamIndex & 0x1FU);
 4688              		.loc 1 1044 46
 4689 015c FB68     		ldr	r3, [r7, #12]
 4690 015e DB6D     		ldr	r3, [r3, #92]
 4691              		.loc 1 1044 60
 4692 0160 03F01F03 		and	r3, r3, #31
 4693              		.loc 1 1044 22
 4694 0164 0222     		movs	r2, #2
 4695 0166 02FA03F3 		lsl	r3, r2, r3
 4696 016a 7B62     		str	r3, [r7, #36]
 4697 016c 07E0     		b	.L176
 4698              	.L175:
1045:Drivers/STM32H7xx_HAL_Driver/Src/stm32h7xx_hal_dma.c ****     }
1046:Drivers/STM32H7xx_HAL_Driver/Src/stm32h7xx_hal_dma.c ****     else
1047:Drivers/STM32H7xx_HAL_Driver/Src/stm32h7xx_hal_dma.c ****     {
1048:Drivers/STM32H7xx_HAL_Driver/Src/stm32h7xx_hal_dma.c ****       /* Half Transfer Complete flag */
1049:Drivers/STM32H7xx_HAL_Driver/Src/stm32h7xx_hal_dma.c ****       cpltlevel_mask = BDMA_FLAG_HT0 << (hdma->StreamIndex & 0x1FU);
 4699              		.loc 1 1049 46
 4700 016e FB68     		ldr	r3, [r7, #12]
 4701 0170 DB6D     		ldr	r3, [r3, #92]
 4702              		.loc 1 1049 60
 4703 0172 03F01F03 		and	r3, r3, #31
ARM GAS  /var/folders/g1/j12m_ky910s3_sv7d4yrsdn00000gn/T//ccliMUVd.s 			page 102


 4704              		.loc 1 1049 22
 4705 0176 0422     		movs	r2, #4
 4706 0178 02FA03F3 		lsl	r3, r2, r3
 4707 017c 7B62     		str	r3, [r7, #36]
 4708              	.L176:
1050:Drivers/STM32H7xx_HAL_Driver/Src/stm32h7xx_hal_dma.c ****     }
1051:Drivers/STM32H7xx_HAL_Driver/Src/stm32h7xx_hal_dma.c **** 
1052:Drivers/STM32H7xx_HAL_Driver/Src/stm32h7xx_hal_dma.c ****     isr_reg  = &(((BDMA_Base_Registers *)hdma->StreamBaseAddress)->ISR);
 4709              		.loc 1 1052 46
 4710 017e FB68     		ldr	r3, [r7, #12]
 4711 0180 9B6D     		ldr	r3, [r3, #88]
 4712              		.loc 1 1052 14
 4713 0182 3B62     		str	r3, [r7, #32]
1053:Drivers/STM32H7xx_HAL_Driver/Src/stm32h7xx_hal_dma.c ****     ifcr_reg = &(((BDMA_Base_Registers *)hdma->StreamBaseAddress)->IFCR);
 4714              		.loc 1 1053 46
 4715 0184 FB68     		ldr	r3, [r7, #12]
 4716 0186 9B6D     		ldr	r3, [r3, #88]
 4717              		.loc 1 1053 14
 4718 0188 0433     		adds	r3, r3, #4
 4719 018a FB61     		str	r3, [r7, #28]
1054:Drivers/STM32H7xx_HAL_Driver/Src/stm32h7xx_hal_dma.c ****   }
1055:Drivers/STM32H7xx_HAL_Driver/Src/stm32h7xx_hal_dma.c **** 
1056:Drivers/STM32H7xx_HAL_Driver/Src/stm32h7xx_hal_dma.c ****   while(((*isr_reg) & cpltlevel_mask) == 0U)
 4720              		.loc 1 1056 8
 4721 018c ACE1     		b	.L190
 4722              	.L193:
1057:Drivers/STM32H7xx_HAL_Driver/Src/stm32h7xx_hal_dma.c ****   {
1058:Drivers/STM32H7xx_HAL_Driver/Src/stm32h7xx_hal_dma.c ****     if(IS_DMA_STREAM_INSTANCE(hdma->Instance) != 0U) /* DMA1 or DMA2 instance */
 4723              		.loc 1 1058 8
 4724 018e FB68     		ldr	r3, [r7, #12]
 4725 0190 1B68     		ldr	r3, [r3]
 4726 0192 284A     		ldr	r2, .L205
 4727 0194 9342     		cmp	r3, r2
 4728 0196 4AD0     		beq	.L178
 4729              		.loc 1 1058 8 is_stmt 0 discriminator 2
 4730 0198 FB68     		ldr	r3, [r7, #12]
 4731 019a 1B68     		ldr	r3, [r3]
 4732 019c 264A     		ldr	r2, .L205+4
 4733 019e 9342     		cmp	r3, r2
 4734 01a0 45D0     		beq	.L178
 4735              		.loc 1 1058 8 discriminator 4
 4736 01a2 FB68     		ldr	r3, [r7, #12]
 4737 01a4 1B68     		ldr	r3, [r3]
 4738 01a6 254A     		ldr	r2, .L205+8
 4739 01a8 9342     		cmp	r3, r2
 4740 01aa 40D0     		beq	.L178
 4741              		.loc 1 1058 8 discriminator 6
 4742 01ac FB68     		ldr	r3, [r7, #12]
 4743 01ae 1B68     		ldr	r3, [r3]
 4744 01b0 234A     		ldr	r2, .L205+12
 4745 01b2 9342     		cmp	r3, r2
 4746 01b4 3BD0     		beq	.L178
 4747              		.loc 1 1058 8 discriminator 8
 4748 01b6 FB68     		ldr	r3, [r7, #12]
 4749 01b8 1B68     		ldr	r3, [r3]
 4750 01ba 224A     		ldr	r2, .L205+16
 4751 01bc 9342     		cmp	r3, r2
ARM GAS  /var/folders/g1/j12m_ky910s3_sv7d4yrsdn00000gn/T//ccliMUVd.s 			page 103


 4752 01be 36D0     		beq	.L178
 4753              		.loc 1 1058 8 discriminator 10
 4754 01c0 FB68     		ldr	r3, [r7, #12]
 4755 01c2 1B68     		ldr	r3, [r3]
 4756 01c4 204A     		ldr	r2, .L205+20
 4757 01c6 9342     		cmp	r3, r2
 4758 01c8 31D0     		beq	.L178
 4759              		.loc 1 1058 8 discriminator 12
 4760 01ca FB68     		ldr	r3, [r7, #12]
 4761 01cc 1B68     		ldr	r3, [r3]
 4762 01ce 1F4A     		ldr	r2, .L205+24
 4763 01d0 9342     		cmp	r3, r2
 4764 01d2 2CD0     		beq	.L178
 4765              		.loc 1 1058 8 discriminator 14
 4766 01d4 FB68     		ldr	r3, [r7, #12]
 4767 01d6 1B68     		ldr	r3, [r3]
 4768 01d8 1D4A     		ldr	r2, .L205+28
 4769 01da 9342     		cmp	r3, r2
 4770 01dc 27D0     		beq	.L178
 4771              		.loc 1 1058 8 discriminator 16
 4772 01de FB68     		ldr	r3, [r7, #12]
 4773 01e0 1B68     		ldr	r3, [r3]
 4774 01e2 1C4A     		ldr	r2, .L205+32
 4775 01e4 9342     		cmp	r3, r2
 4776 01e6 22D0     		beq	.L178
 4777              		.loc 1 1058 8 discriminator 18
 4778 01e8 FB68     		ldr	r3, [r7, #12]
 4779 01ea 1B68     		ldr	r3, [r3]
 4780 01ec 1A4A     		ldr	r2, .L205+36
 4781 01ee 9342     		cmp	r3, r2
 4782 01f0 1DD0     		beq	.L178
 4783              		.loc 1 1058 8 discriminator 20
 4784 01f2 FB68     		ldr	r3, [r7, #12]
 4785 01f4 1B68     		ldr	r3, [r3]
 4786 01f6 194A     		ldr	r2, .L205+40
 4787 01f8 9342     		cmp	r3, r2
 4788 01fa 18D0     		beq	.L178
 4789              		.loc 1 1058 8 discriminator 22
 4790 01fc FB68     		ldr	r3, [r7, #12]
 4791 01fe 1B68     		ldr	r3, [r3]
 4792 0200 174A     		ldr	r2, .L205+44
 4793 0202 9342     		cmp	r3, r2
 4794 0204 13D0     		beq	.L178
 4795              		.loc 1 1058 8 discriminator 24
 4796 0206 FB68     		ldr	r3, [r7, #12]
 4797 0208 1B68     		ldr	r3, [r3]
 4798 020a 164A     		ldr	r2, .L205+48
 4799 020c 9342     		cmp	r3, r2
 4800 020e 0ED0     		beq	.L178
 4801              		.loc 1 1058 8 discriminator 26
 4802 0210 FB68     		ldr	r3, [r7, #12]
 4803 0212 1B68     		ldr	r3, [r3]
 4804 0214 144A     		ldr	r2, .L205+52
 4805 0216 9342     		cmp	r3, r2
 4806 0218 09D0     		beq	.L178
 4807              		.loc 1 1058 8 discriminator 28
 4808 021a FB68     		ldr	r3, [r7, #12]
ARM GAS  /var/folders/g1/j12m_ky910s3_sv7d4yrsdn00000gn/T//ccliMUVd.s 			page 104


 4809 021c 1B68     		ldr	r3, [r3]
 4810 021e 134A     		ldr	r2, .L205+56
 4811 0220 9342     		cmp	r3, r2
 4812 0222 04D0     		beq	.L178
 4813              		.loc 1 1058 8 discriminator 30
 4814 0224 FB68     		ldr	r3, [r7, #12]
 4815 0226 1B68     		ldr	r3, [r3]
 4816 0228 114A     		ldr	r2, .L205+60
 4817 022a 9342     		cmp	r3, r2
 4818 022c 22D1     		bne	.L179
 4819              	.L178:
 4820              		.loc 1 1058 8 discriminator 31
 4821 022e 0123     		movs	r3, #1
 4822              		.loc 1 1058 8
 4823 0230 21E0     		b	.L180
 4824              	.L206:
 4825 0232 00BF     		.align	2
 4826              	.L205:
 4827 0234 10000240 		.word	1073872912
 4828 0238 28000240 		.word	1073872936
 4829 023c 40000240 		.word	1073872960
 4830 0240 58000240 		.word	1073872984
 4831 0244 70000240 		.word	1073873008
 4832 0248 88000240 		.word	1073873032
 4833 024c A0000240 		.word	1073873056
 4834 0250 B8000240 		.word	1073873080
 4835 0254 10040240 		.word	1073873936
 4836 0258 28040240 		.word	1073873960
 4837 025c 40040240 		.word	1073873984
 4838 0260 58040240 		.word	1073874008
 4839 0264 70040240 		.word	1073874032
 4840 0268 88040240 		.word	1073874056
 4841 026c A0040240 		.word	1073874080
 4842 0270 B8040240 		.word	1073874104
 4843              	.L179:
 4844              		.loc 1 1058 8 discriminator 32
 4845 0274 0023     		movs	r3, #0
 4846              	.L180:
 4847              		.loc 1 1058 7 is_stmt 1 discriminator 34
 4848 0276 002B     		cmp	r3, #0
 4849 0278 57D0     		beq	.L181
1059:Drivers/STM32H7xx_HAL_Driver/Src/stm32h7xx_hal_dma.c ****     {
1060:Drivers/STM32H7xx_HAL_Driver/Src/stm32h7xx_hal_dma.c ****       if(((*isr_reg) & (DMA_FLAG_FEIF0_4 << (hdma->StreamIndex & 0x1FU))) != 0U)
 4850              		.loc 1 1060 12
 4851 027a 3B6A     		ldr	r3, [r7, #32]
 4852 027c 1A68     		ldr	r2, [r3]
 4853              		.loc 1 1060 50
 4854 027e FB68     		ldr	r3, [r7, #12]
 4855 0280 DB6D     		ldr	r3, [r3, #92]
 4856              		.loc 1 1060 64
 4857 0282 03F01F03 		and	r3, r3, #31
 4858              		.loc 1 1060 75
 4859 0286 22FA03F3 		lsr	r3, r2, r3
 4860 028a 03F00103 		and	r3, r3, #1
 4861              		.loc 1 1060 9
 4862 028e 002B     		cmp	r3, #0
 4863 0290 0DD0     		beq	.L182
ARM GAS  /var/folders/g1/j12m_ky910s3_sv7d4yrsdn00000gn/T//ccliMUVd.s 			page 105


1061:Drivers/STM32H7xx_HAL_Driver/Src/stm32h7xx_hal_dma.c ****       {
1062:Drivers/STM32H7xx_HAL_Driver/Src/stm32h7xx_hal_dma.c ****         /* Update error code */
1063:Drivers/STM32H7xx_HAL_Driver/Src/stm32h7xx_hal_dma.c ****         hdma->ErrorCode |= HAL_DMA_ERROR_FE;
 4864              		.loc 1 1063 13
 4865 0292 FB68     		ldr	r3, [r7, #12]
 4866 0294 5B6D     		ldr	r3, [r3, #84]
 4867              		.loc 1 1063 25
 4868 0296 43F00202 		orr	r2, r3, #2
 4869 029a FB68     		ldr	r3, [r7, #12]
 4870 029c 5A65     		str	r2, [r3, #84]
1064:Drivers/STM32H7xx_HAL_Driver/Src/stm32h7xx_hal_dma.c **** 
1065:Drivers/STM32H7xx_HAL_Driver/Src/stm32h7xx_hal_dma.c ****         /* Clear the FIFO error flag */
1066:Drivers/STM32H7xx_HAL_Driver/Src/stm32h7xx_hal_dma.c ****         (*ifcr_reg) = DMA_FLAG_FEIF0_4 << (hdma->StreamIndex & 0x1FU);
 4871              		.loc 1 1066 48
 4872 029e FB68     		ldr	r3, [r7, #12]
 4873 02a0 DB6D     		ldr	r3, [r3, #92]
 4874              		.loc 1 1066 62
 4875 02a2 03F01F03 		and	r3, r3, #31
 4876              		.loc 1 1066 40
 4877 02a6 0122     		movs	r2, #1
 4878 02a8 9A40     		lsls	r2, r2, r3
 4879              		.loc 1 1066 21
 4880 02aa FB69     		ldr	r3, [r7, #28]
 4881 02ac 1A60     		str	r2, [r3]
 4882              	.L182:
1067:Drivers/STM32H7xx_HAL_Driver/Src/stm32h7xx_hal_dma.c ****       }
1068:Drivers/STM32H7xx_HAL_Driver/Src/stm32h7xx_hal_dma.c **** 
1069:Drivers/STM32H7xx_HAL_Driver/Src/stm32h7xx_hal_dma.c ****       if(((*isr_reg) & (DMA_FLAG_DMEIF0_4 << (hdma->StreamIndex & 0x1FU))) != 0U)
 4883              		.loc 1 1069 12
 4884 02ae 3B6A     		ldr	r3, [r7, #32]
 4885 02b0 1A68     		ldr	r2, [r3]
 4886              		.loc 1 1069 51
 4887 02b2 FB68     		ldr	r3, [r7, #12]
 4888 02b4 DB6D     		ldr	r3, [r3, #92]
 4889              		.loc 1 1069 65
 4890 02b6 03F01F03 		and	r3, r3, #31
 4891              		.loc 1 1069 43
 4892 02ba 0421     		movs	r1, #4
 4893 02bc 01FA03F3 		lsl	r3, r1, r3
 4894              		.loc 1 1069 22
 4895 02c0 1340     		ands	r3, r3, r2
 4896              		.loc 1 1069 9
 4897 02c2 002B     		cmp	r3, #0
 4898 02c4 0DD0     		beq	.L183
1070:Drivers/STM32H7xx_HAL_Driver/Src/stm32h7xx_hal_dma.c ****       {
1071:Drivers/STM32H7xx_HAL_Driver/Src/stm32h7xx_hal_dma.c ****         /* Update error code */
1072:Drivers/STM32H7xx_HAL_Driver/Src/stm32h7xx_hal_dma.c ****         hdma->ErrorCode |= HAL_DMA_ERROR_DME;
 4899              		.loc 1 1072 13
 4900 02c6 FB68     		ldr	r3, [r7, #12]
 4901 02c8 5B6D     		ldr	r3, [r3, #84]
 4902              		.loc 1 1072 25
 4903 02ca 43F00402 		orr	r2, r3, #4
 4904 02ce FB68     		ldr	r3, [r7, #12]
 4905 02d0 5A65     		str	r2, [r3, #84]
1073:Drivers/STM32H7xx_HAL_Driver/Src/stm32h7xx_hal_dma.c **** 
1074:Drivers/STM32H7xx_HAL_Driver/Src/stm32h7xx_hal_dma.c ****         /* Clear the Direct Mode error flag */
1075:Drivers/STM32H7xx_HAL_Driver/Src/stm32h7xx_hal_dma.c ****         (*ifcr_reg) = DMA_FLAG_DMEIF0_4 << (hdma->StreamIndex & 0x1FU);
ARM GAS  /var/folders/g1/j12m_ky910s3_sv7d4yrsdn00000gn/T//ccliMUVd.s 			page 106


 4906              		.loc 1 1075 49
 4907 02d2 FB68     		ldr	r3, [r7, #12]
 4908 02d4 DB6D     		ldr	r3, [r3, #92]
 4909              		.loc 1 1075 63
 4910 02d6 03F01F03 		and	r3, r3, #31
 4911              		.loc 1 1075 41
 4912 02da 0422     		movs	r2, #4
 4913 02dc 9A40     		lsls	r2, r2, r3
 4914              		.loc 1 1075 21
 4915 02de FB69     		ldr	r3, [r7, #28]
 4916 02e0 1A60     		str	r2, [r3]
 4917              	.L183:
1076:Drivers/STM32H7xx_HAL_Driver/Src/stm32h7xx_hal_dma.c ****       }
1077:Drivers/STM32H7xx_HAL_Driver/Src/stm32h7xx_hal_dma.c **** 
1078:Drivers/STM32H7xx_HAL_Driver/Src/stm32h7xx_hal_dma.c ****       if(((*isr_reg) & (DMA_FLAG_TEIF0_4 << (hdma->StreamIndex & 0x1FU))) != 0U)
 4918              		.loc 1 1078 12
 4919 02e2 3B6A     		ldr	r3, [r7, #32]
 4920 02e4 1A68     		ldr	r2, [r3]
 4921              		.loc 1 1078 50
 4922 02e6 FB68     		ldr	r3, [r7, #12]
 4923 02e8 DB6D     		ldr	r3, [r3, #92]
 4924              		.loc 1 1078 64
 4925 02ea 03F01F03 		and	r3, r3, #31
 4926              		.loc 1 1078 42
 4927 02ee 0821     		movs	r1, #8
 4928 02f0 01FA03F3 		lsl	r3, r1, r3
 4929              		.loc 1 1078 22
 4930 02f4 1340     		ands	r3, r3, r2
 4931              		.loc 1 1078 9
 4932 02f6 002B     		cmp	r3, #0
 4933 02f8 38D0     		beq	.L184
1079:Drivers/STM32H7xx_HAL_Driver/Src/stm32h7xx_hal_dma.c ****       {
1080:Drivers/STM32H7xx_HAL_Driver/Src/stm32h7xx_hal_dma.c ****         /* Update error code */
1081:Drivers/STM32H7xx_HAL_Driver/Src/stm32h7xx_hal_dma.c ****         hdma->ErrorCode |= HAL_DMA_ERROR_TE;
 4934              		.loc 1 1081 13
 4935 02fa FB68     		ldr	r3, [r7, #12]
 4936 02fc 5B6D     		ldr	r3, [r3, #84]
 4937              		.loc 1 1081 25
 4938 02fe 43F00102 		orr	r2, r3, #1
 4939 0302 FB68     		ldr	r3, [r7, #12]
 4940 0304 5A65     		str	r2, [r3, #84]
1082:Drivers/STM32H7xx_HAL_Driver/Src/stm32h7xx_hal_dma.c **** 
1083:Drivers/STM32H7xx_HAL_Driver/Src/stm32h7xx_hal_dma.c ****         /* Clear the transfer error flag */
1084:Drivers/STM32H7xx_HAL_Driver/Src/stm32h7xx_hal_dma.c ****         (*ifcr_reg) = DMA_FLAG_TEIF0_4 << (hdma->StreamIndex & 0x1FU);
 4941              		.loc 1 1084 48
 4942 0306 FB68     		ldr	r3, [r7, #12]
 4943 0308 DB6D     		ldr	r3, [r3, #92]
 4944              		.loc 1 1084 62
 4945 030a 03F01F03 		and	r3, r3, #31
 4946              		.loc 1 1084 40
 4947 030e 0822     		movs	r2, #8
 4948 0310 9A40     		lsls	r2, r2, r3
 4949              		.loc 1 1084 21
 4950 0312 FB69     		ldr	r3, [r7, #28]
 4951 0314 1A60     		str	r2, [r3]
1085:Drivers/STM32H7xx_HAL_Driver/Src/stm32h7xx_hal_dma.c **** 
1086:Drivers/STM32H7xx_HAL_Driver/Src/stm32h7xx_hal_dma.c ****         /* Change the DMA state */
ARM GAS  /var/folders/g1/j12m_ky910s3_sv7d4yrsdn00000gn/T//ccliMUVd.s 			page 107


1087:Drivers/STM32H7xx_HAL_Driver/Src/stm32h7xx_hal_dma.c ****         hdma->State = HAL_DMA_STATE_READY;
 4952              		.loc 1 1087 21
 4953 0316 FB68     		ldr	r3, [r7, #12]
 4954 0318 0122     		movs	r2, #1
 4955 031a 83F83520 		strb	r2, [r3, #53]
1088:Drivers/STM32H7xx_HAL_Driver/Src/stm32h7xx_hal_dma.c **** 
1089:Drivers/STM32H7xx_HAL_Driver/Src/stm32h7xx_hal_dma.c ****         /* Process Unlocked */
1090:Drivers/STM32H7xx_HAL_Driver/Src/stm32h7xx_hal_dma.c ****         __HAL_UNLOCK(hdma);
 4956              		.loc 1 1090 9
 4957 031e FB68     		ldr	r3, [r7, #12]
 4958 0320 0022     		movs	r2, #0
 4959 0322 83F83420 		strb	r2, [r3, #52]
1091:Drivers/STM32H7xx_HAL_Driver/Src/stm32h7xx_hal_dma.c **** 
1092:Drivers/STM32H7xx_HAL_Driver/Src/stm32h7xx_hal_dma.c ****         return HAL_ERROR;
 4960              		.loc 1 1092 16
 4961 0326 0123     		movs	r3, #1
 4962 0328 F0E1     		b	.L164
 4963              	.L181:
1093:Drivers/STM32H7xx_HAL_Driver/Src/stm32h7xx_hal_dma.c ****       }
1094:Drivers/STM32H7xx_HAL_Driver/Src/stm32h7xx_hal_dma.c ****     }
1095:Drivers/STM32H7xx_HAL_Driver/Src/stm32h7xx_hal_dma.c ****     else /* BDMA channel */
1096:Drivers/STM32H7xx_HAL_Driver/Src/stm32h7xx_hal_dma.c ****     {
1097:Drivers/STM32H7xx_HAL_Driver/Src/stm32h7xx_hal_dma.c ****       if(((*isr_reg) & (BDMA_FLAG_TE0 << (hdma->StreamIndex & 0x1FU))) != 0U)
 4964              		.loc 1 1097 12
 4965 032a 3B6A     		ldr	r3, [r7, #32]
 4966 032c 1A68     		ldr	r2, [r3]
 4967              		.loc 1 1097 47
 4968 032e FB68     		ldr	r3, [r7, #12]
 4969 0330 DB6D     		ldr	r3, [r3, #92]
 4970              		.loc 1 1097 61
 4971 0332 03F01F03 		and	r3, r3, #31
 4972              		.loc 1 1097 39
 4973 0336 0821     		movs	r1, #8
 4974 0338 01FA03F3 		lsl	r3, r1, r3
 4975              		.loc 1 1097 22
 4976 033c 1340     		ands	r3, r3, r2
 4977              		.loc 1 1097 9
 4978 033e 002B     		cmp	r3, #0
 4979 0340 14D0     		beq	.L184
1098:Drivers/STM32H7xx_HAL_Driver/Src/stm32h7xx_hal_dma.c ****       {
1099:Drivers/STM32H7xx_HAL_Driver/Src/stm32h7xx_hal_dma.c ****         /* When a DMA transfer error occurs */
1100:Drivers/STM32H7xx_HAL_Driver/Src/stm32h7xx_hal_dma.c ****         /* A hardware clear of its EN bits is performed */
1101:Drivers/STM32H7xx_HAL_Driver/Src/stm32h7xx_hal_dma.c ****         /* Clear all flags */
1102:Drivers/STM32H7xx_HAL_Driver/Src/stm32h7xx_hal_dma.c ****         (*isr_reg) = ((BDMA_ISR_GIF0) << (hdma->StreamIndex & 0x1FU));
 4980              		.loc 1 1102 47
 4981 0342 FB68     		ldr	r3, [r7, #12]
 4982 0344 DB6D     		ldr	r3, [r3, #92]
 4983              		.loc 1 1102 61
 4984 0346 03F01F03 		and	r3, r3, #31
 4985              		.loc 1 1102 39
 4986 034a 0122     		movs	r2, #1
 4987 034c 9A40     		lsls	r2, r2, r3
 4988              		.loc 1 1102 20
 4989 034e 3B6A     		ldr	r3, [r7, #32]
 4990 0350 1A60     		str	r2, [r3]
1103:Drivers/STM32H7xx_HAL_Driver/Src/stm32h7xx_hal_dma.c **** 
1104:Drivers/STM32H7xx_HAL_Driver/Src/stm32h7xx_hal_dma.c ****         /* Update error code */
ARM GAS  /var/folders/g1/j12m_ky910s3_sv7d4yrsdn00000gn/T//ccliMUVd.s 			page 108


1105:Drivers/STM32H7xx_HAL_Driver/Src/stm32h7xx_hal_dma.c ****         hdma->ErrorCode = HAL_DMA_ERROR_TE;
 4991              		.loc 1 1105 25
 4992 0352 FB68     		ldr	r3, [r7, #12]
 4993 0354 0122     		movs	r2, #1
 4994 0356 5A65     		str	r2, [r3, #84]
1106:Drivers/STM32H7xx_HAL_Driver/Src/stm32h7xx_hal_dma.c **** 
1107:Drivers/STM32H7xx_HAL_Driver/Src/stm32h7xx_hal_dma.c ****         /* Change the DMA state */
1108:Drivers/STM32H7xx_HAL_Driver/Src/stm32h7xx_hal_dma.c ****         hdma->State = HAL_DMA_STATE_READY;
 4995              		.loc 1 1108 21
 4996 0358 FB68     		ldr	r3, [r7, #12]
 4997 035a 0122     		movs	r2, #1
 4998 035c 83F83520 		strb	r2, [r3, #53]
1109:Drivers/STM32H7xx_HAL_Driver/Src/stm32h7xx_hal_dma.c **** 
1110:Drivers/STM32H7xx_HAL_Driver/Src/stm32h7xx_hal_dma.c ****         /* Process Unlocked */
1111:Drivers/STM32H7xx_HAL_Driver/Src/stm32h7xx_hal_dma.c ****         __HAL_UNLOCK(hdma);
 4999              		.loc 1 1111 9
 5000 0360 FB68     		ldr	r3, [r7, #12]
 5001 0362 0022     		movs	r2, #0
 5002 0364 83F83420 		strb	r2, [r3, #52]
1112:Drivers/STM32H7xx_HAL_Driver/Src/stm32h7xx_hal_dma.c **** 
1113:Drivers/STM32H7xx_HAL_Driver/Src/stm32h7xx_hal_dma.c ****         return HAL_ERROR;
 5003              		.loc 1 1113 16
 5004 0368 0123     		movs	r3, #1
 5005 036a CFE1     		b	.L164
 5006              	.L184:
1114:Drivers/STM32H7xx_HAL_Driver/Src/stm32h7xx_hal_dma.c ****       }
1115:Drivers/STM32H7xx_HAL_Driver/Src/stm32h7xx_hal_dma.c ****     }
1116:Drivers/STM32H7xx_HAL_Driver/Src/stm32h7xx_hal_dma.c **** 
1117:Drivers/STM32H7xx_HAL_Driver/Src/stm32h7xx_hal_dma.c ****     /* Check for the Timeout (Not applicable in circular mode)*/
1118:Drivers/STM32H7xx_HAL_Driver/Src/stm32h7xx_hal_dma.c ****     if(Timeout != HAL_MAX_DELAY)
 5007              		.loc 1 1118 7
 5008 036c 7B68     		ldr	r3, [r7, #4]
 5009 036e B3F1FF3F 		cmp	r3, #-1
 5010 0372 12D0     		beq	.L185
1119:Drivers/STM32H7xx_HAL_Driver/Src/stm32h7xx_hal_dma.c ****     {
1120:Drivers/STM32H7xx_HAL_Driver/Src/stm32h7xx_hal_dma.c ****       if(((HAL_GetTick() - tickstart ) > Timeout)||(Timeout == 0U))
 5011              		.loc 1 1120 12
 5012 0374 FFF7FEFF 		bl	HAL_GetTick
 5013 0378 0246     		mov	r2, r0
 5014              		.loc 1 1120 26 discriminator 1
 5015 037a 7B69     		ldr	r3, [r7, #20]
 5016 037c D31A     		subs	r3, r2, r3
 5017              		.loc 1 1120 9 discriminator 1
 5018 037e 7A68     		ldr	r2, [r7, #4]
 5019 0380 9A42     		cmp	r2, r3
 5020 0382 02D3     		bcc	.L186
 5021              		.loc 1 1120 50 discriminator 1
 5022 0384 7B68     		ldr	r3, [r7, #4]
 5023 0386 002B     		cmp	r3, #0
 5024 0388 07D1     		bne	.L185
 5025              	.L186:
1121:Drivers/STM32H7xx_HAL_Driver/Src/stm32h7xx_hal_dma.c ****       {
1122:Drivers/STM32H7xx_HAL_Driver/Src/stm32h7xx_hal_dma.c ****         /* Update error code */
1123:Drivers/STM32H7xx_HAL_Driver/Src/stm32h7xx_hal_dma.c ****         hdma->ErrorCode = HAL_DMA_ERROR_TIMEOUT;
 5026              		.loc 1 1123 25
 5027 038a FB68     		ldr	r3, [r7, #12]
 5028 038c 2022     		movs	r2, #32
ARM GAS  /var/folders/g1/j12m_ky910s3_sv7d4yrsdn00000gn/T//ccliMUVd.s 			page 109


 5029 038e 5A65     		str	r2, [r3, #84]
1124:Drivers/STM32H7xx_HAL_Driver/Src/stm32h7xx_hal_dma.c **** 
1125:Drivers/STM32H7xx_HAL_Driver/Src/stm32h7xx_hal_dma.c ****         /* if timeout then abort the current transfer */
1126:Drivers/STM32H7xx_HAL_Driver/Src/stm32h7xx_hal_dma.c ****         /* No need to check return value: as in this case we will return HAL_ERROR with HAL_DMA_ERR
1127:Drivers/STM32H7xx_HAL_Driver/Src/stm32h7xx_hal_dma.c ****         (void) HAL_DMA_Abort(hdma);
 5030              		.loc 1 1127 16
 5031 0390 F868     		ldr	r0, [r7, #12]
 5032 0392 FFF7FEFF 		bl	HAL_DMA_Abort
1128:Drivers/STM32H7xx_HAL_Driver/Src/stm32h7xx_hal_dma.c ****           /*
1129:Drivers/STM32H7xx_HAL_Driver/Src/stm32h7xx_hal_dma.c ****             Note that the Abort function will
1130:Drivers/STM32H7xx_HAL_Driver/Src/stm32h7xx_hal_dma.c ****               - Clear the transfer error flags
1131:Drivers/STM32H7xx_HAL_Driver/Src/stm32h7xx_hal_dma.c ****               - Unlock
1132:Drivers/STM32H7xx_HAL_Driver/Src/stm32h7xx_hal_dma.c ****               - Set the State
1133:Drivers/STM32H7xx_HAL_Driver/Src/stm32h7xx_hal_dma.c ****           */
1134:Drivers/STM32H7xx_HAL_Driver/Src/stm32h7xx_hal_dma.c **** 
1135:Drivers/STM32H7xx_HAL_Driver/Src/stm32h7xx_hal_dma.c ****         return HAL_ERROR;
 5033              		.loc 1 1135 16
 5034 0396 0123     		movs	r3, #1
 5035 0398 B8E1     		b	.L164
 5036              	.L185:
1136:Drivers/STM32H7xx_HAL_Driver/Src/stm32h7xx_hal_dma.c ****       }
1137:Drivers/STM32H7xx_HAL_Driver/Src/stm32h7xx_hal_dma.c ****     }
1138:Drivers/STM32H7xx_HAL_Driver/Src/stm32h7xx_hal_dma.c **** 
1139:Drivers/STM32H7xx_HAL_Driver/Src/stm32h7xx_hal_dma.c ****     if(IS_DMA_DMAMUX_ALL_INSTANCE(hdma->Instance) != 0U) /* No DMAMUX available for BDMA1 */
 5037              		.loc 1 1139 8
 5038 039a FB68     		ldr	r3, [r7, #12]
 5039 039c 1B68     		ldr	r3, [r3]
 5040 039e 814A     		ldr	r2, .L207
 5041 03a0 9342     		cmp	r3, r2
 5042 03a2 72D0     		beq	.L187
 5043              		.loc 1 1139 8 is_stmt 0 discriminator 2
 5044 03a4 FB68     		ldr	r3, [r7, #12]
 5045 03a6 1B68     		ldr	r3, [r3]
 5046 03a8 7F4A     		ldr	r2, .L207+4
 5047 03aa 9342     		cmp	r3, r2
 5048 03ac 6DD0     		beq	.L187
 5049              		.loc 1 1139 8 discriminator 4
 5050 03ae FB68     		ldr	r3, [r7, #12]
 5051 03b0 1B68     		ldr	r3, [r3]
 5052 03b2 7E4A     		ldr	r2, .L207+8
 5053 03b4 9342     		cmp	r3, r2
 5054 03b6 68D0     		beq	.L187
 5055              		.loc 1 1139 8 discriminator 6
 5056 03b8 FB68     		ldr	r3, [r7, #12]
 5057 03ba 1B68     		ldr	r3, [r3]
 5058 03bc 7C4A     		ldr	r2, .L207+12
 5059 03be 9342     		cmp	r3, r2
 5060 03c0 63D0     		beq	.L187
 5061              		.loc 1 1139 8 discriminator 8
 5062 03c2 FB68     		ldr	r3, [r7, #12]
 5063 03c4 1B68     		ldr	r3, [r3]
 5064 03c6 7B4A     		ldr	r2, .L207+16
 5065 03c8 9342     		cmp	r3, r2
 5066 03ca 5ED0     		beq	.L187
 5067              		.loc 1 1139 8 discriminator 10
 5068 03cc FB68     		ldr	r3, [r7, #12]
 5069 03ce 1B68     		ldr	r3, [r3]
ARM GAS  /var/folders/g1/j12m_ky910s3_sv7d4yrsdn00000gn/T//ccliMUVd.s 			page 110


 5070 03d0 794A     		ldr	r2, .L207+20
 5071 03d2 9342     		cmp	r3, r2
 5072 03d4 59D0     		beq	.L187
 5073              		.loc 1 1139 8 discriminator 12
 5074 03d6 FB68     		ldr	r3, [r7, #12]
 5075 03d8 1B68     		ldr	r3, [r3]
 5076 03da 784A     		ldr	r2, .L207+24
 5077 03dc 9342     		cmp	r3, r2
 5078 03de 54D0     		beq	.L187
 5079              		.loc 1 1139 8 discriminator 14
 5080 03e0 FB68     		ldr	r3, [r7, #12]
 5081 03e2 1B68     		ldr	r3, [r3]
 5082 03e4 764A     		ldr	r2, .L207+28
 5083 03e6 9342     		cmp	r3, r2
 5084 03e8 4FD0     		beq	.L187
 5085              		.loc 1 1139 8 discriminator 16
 5086 03ea FB68     		ldr	r3, [r7, #12]
 5087 03ec 1B68     		ldr	r3, [r3]
 5088 03ee 754A     		ldr	r2, .L207+32
 5089 03f0 9342     		cmp	r3, r2
 5090 03f2 4AD0     		beq	.L187
 5091              		.loc 1 1139 8 discriminator 18
 5092 03f4 FB68     		ldr	r3, [r7, #12]
 5093 03f6 1B68     		ldr	r3, [r3]
 5094 03f8 734A     		ldr	r2, .L207+36
 5095 03fa 9342     		cmp	r3, r2
 5096 03fc 45D0     		beq	.L187
 5097              		.loc 1 1139 8 discriminator 20
 5098 03fe FB68     		ldr	r3, [r7, #12]
 5099 0400 1B68     		ldr	r3, [r3]
 5100 0402 724A     		ldr	r2, .L207+40
 5101 0404 9342     		cmp	r3, r2
 5102 0406 40D0     		beq	.L187
 5103              		.loc 1 1139 8 discriminator 22
 5104 0408 FB68     		ldr	r3, [r7, #12]
 5105 040a 1B68     		ldr	r3, [r3]
 5106 040c 704A     		ldr	r2, .L207+44
 5107 040e 9342     		cmp	r3, r2
 5108 0410 3BD0     		beq	.L187
 5109              		.loc 1 1139 8 discriminator 24
 5110 0412 FB68     		ldr	r3, [r7, #12]
 5111 0414 1B68     		ldr	r3, [r3]
 5112 0416 6F4A     		ldr	r2, .L207+48
 5113 0418 9342     		cmp	r3, r2
 5114 041a 36D0     		beq	.L187
 5115              		.loc 1 1139 8 discriminator 26
 5116 041c FB68     		ldr	r3, [r7, #12]
 5117 041e 1B68     		ldr	r3, [r3]
 5118 0420 6D4A     		ldr	r2, .L207+52
 5119 0422 9342     		cmp	r3, r2
 5120 0424 31D0     		beq	.L187
 5121              		.loc 1 1139 8 discriminator 28
 5122 0426 FB68     		ldr	r3, [r7, #12]
 5123 0428 1B68     		ldr	r3, [r3]
 5124 042a 6C4A     		ldr	r2, .L207+56
 5125 042c 9342     		cmp	r3, r2
 5126 042e 2CD0     		beq	.L187
ARM GAS  /var/folders/g1/j12m_ky910s3_sv7d4yrsdn00000gn/T//ccliMUVd.s 			page 111


 5127              		.loc 1 1139 8 discriminator 30
 5128 0430 FB68     		ldr	r3, [r7, #12]
 5129 0432 1B68     		ldr	r3, [r3]
 5130 0434 6A4A     		ldr	r2, .L207+60
 5131 0436 9342     		cmp	r3, r2
 5132 0438 27D0     		beq	.L187
 5133              		.loc 1 1139 8 discriminator 32
 5134 043a FB68     		ldr	r3, [r7, #12]
 5135 043c 1B68     		ldr	r3, [r3]
 5136 043e 694A     		ldr	r2, .L207+64
 5137 0440 9342     		cmp	r3, r2
 5138 0442 22D0     		beq	.L187
 5139              		.loc 1 1139 8 discriminator 34
 5140 0444 FB68     		ldr	r3, [r7, #12]
 5141 0446 1B68     		ldr	r3, [r3]
 5142 0448 674A     		ldr	r2, .L207+68
 5143 044a 9342     		cmp	r3, r2
 5144 044c 1DD0     		beq	.L187
 5145              		.loc 1 1139 8 discriminator 36
 5146 044e FB68     		ldr	r3, [r7, #12]
 5147 0450 1B68     		ldr	r3, [r3]
 5148 0452 664A     		ldr	r2, .L207+72
 5149 0454 9342     		cmp	r3, r2
 5150 0456 18D0     		beq	.L187
 5151              		.loc 1 1139 8 discriminator 38
 5152 0458 FB68     		ldr	r3, [r7, #12]
 5153 045a 1B68     		ldr	r3, [r3]
 5154 045c 644A     		ldr	r2, .L207+76
 5155 045e 9342     		cmp	r3, r2
 5156 0460 13D0     		beq	.L187
 5157              		.loc 1 1139 8 discriminator 40
 5158 0462 FB68     		ldr	r3, [r7, #12]
 5159 0464 1B68     		ldr	r3, [r3]
 5160 0466 634A     		ldr	r2, .L207+80
 5161 0468 9342     		cmp	r3, r2
 5162 046a 0ED0     		beq	.L187
 5163              		.loc 1 1139 8 discriminator 42
 5164 046c FB68     		ldr	r3, [r7, #12]
 5165 046e 1B68     		ldr	r3, [r3]
 5166 0470 614A     		ldr	r2, .L207+84
 5167 0472 9342     		cmp	r3, r2
 5168 0474 09D0     		beq	.L187
 5169              		.loc 1 1139 8 discriminator 44
 5170 0476 FB68     		ldr	r3, [r7, #12]
 5171 0478 1B68     		ldr	r3, [r3]
 5172 047a 604A     		ldr	r2, .L207+88
 5173 047c 9342     		cmp	r3, r2
 5174 047e 04D0     		beq	.L187
 5175              		.loc 1 1139 8 discriminator 46
 5176 0480 FB68     		ldr	r3, [r7, #12]
 5177 0482 1B68     		ldr	r3, [r3]
 5178 0484 5E4A     		ldr	r2, .L207+92
 5179 0486 9342     		cmp	r3, r2
 5180 0488 01D1     		bne	.L188
 5181              	.L187:
 5182              		.loc 1 1139 8 discriminator 47
 5183 048a 0123     		movs	r3, #1
ARM GAS  /var/folders/g1/j12m_ky910s3_sv7d4yrsdn00000gn/T//ccliMUVd.s 			page 112


 5184              		.loc 1 1139 8
 5185 048c 00E0     		b	.L189
 5186              	.L188:
 5187              		.loc 1 1139 8 discriminator 48
 5188 048e 0023     		movs	r3, #0
 5189              	.L189:
 5190              		.loc 1 1139 7 is_stmt 1 discriminator 50
 5191 0490 002B     		cmp	r3, #0
 5192 0492 29D0     		beq	.L190
1140:Drivers/STM32H7xx_HAL_Driver/Src/stm32h7xx_hal_dma.c ****     {
1141:Drivers/STM32H7xx_HAL_Driver/Src/stm32h7xx_hal_dma.c ****       /* Check for DMAMUX Request generator (if used) overrun status */
1142:Drivers/STM32H7xx_HAL_Driver/Src/stm32h7xx_hal_dma.c ****       if(hdma->DMAmuxRequestGen != 0U)
 5193              		.loc 1 1142 14
 5194 0494 FB68     		ldr	r3, [r7, #12]
 5195 0496 DB6E     		ldr	r3, [r3, #108]
 5196              		.loc 1 1142 9
 5197 0498 002B     		cmp	r3, #0
 5198 049a 12D0     		beq	.L191
1143:Drivers/STM32H7xx_HAL_Driver/Src/stm32h7xx_hal_dma.c ****       {
1144:Drivers/STM32H7xx_HAL_Driver/Src/stm32h7xx_hal_dma.c ****         /* if using DMAMUX request generator Check for DMAMUX request generator overrun */
1145:Drivers/STM32H7xx_HAL_Driver/Src/stm32h7xx_hal_dma.c ****         if((hdma->DMAmuxRequestGenStatus->RGSR & hdma->DMAmuxRequestGenStatusMask) != 0U)
 5199              		.loc 1 1145 17
 5200 049c FB68     		ldr	r3, [r7, #12]
 5201 049e 1B6F     		ldr	r3, [r3, #112]
 5202              		.loc 1 1145 41
 5203 04a0 1A68     		ldr	r2, [r3]
 5204              		.loc 1 1145 54
 5205 04a2 FB68     		ldr	r3, [r7, #12]
 5206 04a4 5B6F     		ldr	r3, [r3, #116]
 5207              		.loc 1 1145 48
 5208 04a6 1340     		ands	r3, r3, r2
 5209              		.loc 1 1145 11
 5210 04a8 002B     		cmp	r3, #0
 5211 04aa 0AD0     		beq	.L191
1146:Drivers/STM32H7xx_HAL_Driver/Src/stm32h7xx_hal_dma.c ****         {
1147:Drivers/STM32H7xx_HAL_Driver/Src/stm32h7xx_hal_dma.c ****           /* Clear the DMAMUX request generator overrun flag */
1148:Drivers/STM32H7xx_HAL_Driver/Src/stm32h7xx_hal_dma.c ****           hdma->DMAmuxRequestGenStatus->RGCFR = hdma->DMAmuxRequestGenStatusMask;
 5212              		.loc 1 1148 15
 5213 04ac FB68     		ldr	r3, [r7, #12]
 5214 04ae 1B6F     		ldr	r3, [r3, #112]
 5215              		.loc 1 1148 53
 5216 04b0 FA68     		ldr	r2, [r7, #12]
 5217 04b2 526F     		ldr	r2, [r2, #116]
 5218              		.loc 1 1148 47
 5219 04b4 5A60     		str	r2, [r3, #4]
1149:Drivers/STM32H7xx_HAL_Driver/Src/stm32h7xx_hal_dma.c **** 
1150:Drivers/STM32H7xx_HAL_Driver/Src/stm32h7xx_hal_dma.c ****           /* Update error code */
1151:Drivers/STM32H7xx_HAL_Driver/Src/stm32h7xx_hal_dma.c ****           hdma->ErrorCode |= HAL_DMA_ERROR_REQGEN;
 5220              		.loc 1 1151 15
 5221 04b6 FB68     		ldr	r3, [r7, #12]
 5222 04b8 5B6D     		ldr	r3, [r3, #84]
 5223              		.loc 1 1151 27
 5224 04ba 43F48062 		orr	r2, r3, #1024
 5225 04be FB68     		ldr	r3, [r7, #12]
 5226 04c0 5A65     		str	r2, [r3, #84]
 5227              	.L191:
1152:Drivers/STM32H7xx_HAL_Driver/Src/stm32h7xx_hal_dma.c ****         }
ARM GAS  /var/folders/g1/j12m_ky910s3_sv7d4yrsdn00000gn/T//ccliMUVd.s 			page 113


1153:Drivers/STM32H7xx_HAL_Driver/Src/stm32h7xx_hal_dma.c ****       }
1154:Drivers/STM32H7xx_HAL_Driver/Src/stm32h7xx_hal_dma.c **** 
1155:Drivers/STM32H7xx_HAL_Driver/Src/stm32h7xx_hal_dma.c ****       /* Check for DMAMUX Synchronization overrun */
1156:Drivers/STM32H7xx_HAL_Driver/Src/stm32h7xx_hal_dma.c ****       if((hdma->DMAmuxChannelStatus->CSR & hdma->DMAmuxChannelStatusMask) != 0U)
 5228              		.loc 1 1156 15
 5229 04c2 FB68     		ldr	r3, [r7, #12]
 5230 04c4 5B6E     		ldr	r3, [r3, #100]
 5231              		.loc 1 1156 36
 5232 04c6 1A68     		ldr	r2, [r3]
 5233              		.loc 1 1156 48
 5234 04c8 FB68     		ldr	r3, [r7, #12]
 5235 04ca 9B6E     		ldr	r3, [r3, #104]
 5236              		.loc 1 1156 42
 5237 04cc 1340     		ands	r3, r3, r2
 5238              		.loc 1 1156 9
 5239 04ce 002B     		cmp	r3, #0
 5240 04d0 0AD0     		beq	.L190
1157:Drivers/STM32H7xx_HAL_Driver/Src/stm32h7xx_hal_dma.c ****       {
1158:Drivers/STM32H7xx_HAL_Driver/Src/stm32h7xx_hal_dma.c ****         /* Clear the DMAMUX synchro overrun flag */
1159:Drivers/STM32H7xx_HAL_Driver/Src/stm32h7xx_hal_dma.c ****         hdma->DMAmuxChannelStatus->CFR = hdma->DMAmuxChannelStatusMask;
 5241              		.loc 1 1159 13
 5242 04d2 FB68     		ldr	r3, [r7, #12]
 5243 04d4 5B6E     		ldr	r3, [r3, #100]
 5244              		.loc 1 1159 46
 5245 04d6 FA68     		ldr	r2, [r7, #12]
 5246 04d8 926E     		ldr	r2, [r2, #104]
 5247              		.loc 1 1159 40
 5248 04da 5A60     		str	r2, [r3, #4]
1160:Drivers/STM32H7xx_HAL_Driver/Src/stm32h7xx_hal_dma.c **** 
1161:Drivers/STM32H7xx_HAL_Driver/Src/stm32h7xx_hal_dma.c ****         /* Update error code */
1162:Drivers/STM32H7xx_HAL_Driver/Src/stm32h7xx_hal_dma.c ****         hdma->ErrorCode |= HAL_DMA_ERROR_SYNC;
 5249              		.loc 1 1162 13
 5250 04dc FB68     		ldr	r3, [r7, #12]
 5251 04de 5B6D     		ldr	r3, [r3, #84]
 5252              		.loc 1 1162 25
 5253 04e0 43F40072 		orr	r2, r3, #512
 5254 04e4 FB68     		ldr	r3, [r7, #12]
 5255 04e6 5A65     		str	r2, [r3, #84]
 5256              	.L190:
1056:Drivers/STM32H7xx_HAL_Driver/Src/stm32h7xx_hal_dma.c ****   {
 5257              		.loc 1 1056 11
 5258 04e8 3B6A     		ldr	r3, [r7, #32]
 5259 04ea 1A68     		ldr	r2, [r3]
1056:Drivers/STM32H7xx_HAL_Driver/Src/stm32h7xx_hal_dma.c ****   {
 5260              		.loc 1 1056 21
 5261 04ec 7B6A     		ldr	r3, [r7, #36]
 5262 04ee 1340     		ands	r3, r3, r2
1056:Drivers/STM32H7xx_HAL_Driver/Src/stm32h7xx_hal_dma.c ****   {
 5263              		.loc 1 1056 39
 5264 04f0 002B     		cmp	r3, #0
 5265 04f2 3FF44CAE 		beq	.L193
1163:Drivers/STM32H7xx_HAL_Driver/Src/stm32h7xx_hal_dma.c ****       }
1164:Drivers/STM32H7xx_HAL_Driver/Src/stm32h7xx_hal_dma.c ****     }
1165:Drivers/STM32H7xx_HAL_Driver/Src/stm32h7xx_hal_dma.c ****   }
1166:Drivers/STM32H7xx_HAL_Driver/Src/stm32h7xx_hal_dma.c **** 
1167:Drivers/STM32H7xx_HAL_Driver/Src/stm32h7xx_hal_dma.c **** 
1168:Drivers/STM32H7xx_HAL_Driver/Src/stm32h7xx_hal_dma.c ****   /* Get the level transfer complete flag */
ARM GAS  /var/folders/g1/j12m_ky910s3_sv7d4yrsdn00000gn/T//ccliMUVd.s 			page 114


1169:Drivers/STM32H7xx_HAL_Driver/Src/stm32h7xx_hal_dma.c ****   if(CompleteLevel == HAL_DMA_FULL_TRANSFER)
 5266              		.loc 1 1169 5
 5267 04f6 FB7A     		ldrb	r3, [r7, #11]	@ zero_extendqisi2
 5268 04f8 002B     		cmp	r3, #0
 5269 04fa 40F0A080 		bne	.L194
1170:Drivers/STM32H7xx_HAL_Driver/Src/stm32h7xx_hal_dma.c ****   {
1171:Drivers/STM32H7xx_HAL_Driver/Src/stm32h7xx_hal_dma.c ****     /* Clear the half transfer and transfer complete flags */
1172:Drivers/STM32H7xx_HAL_Driver/Src/stm32h7xx_hal_dma.c ****     if(IS_DMA_STREAM_INSTANCE(hdma->Instance) != 0U) /* DMA1 or DMA2 instance */
 5270              		.loc 1 1172 8
 5271 04fe FB68     		ldr	r3, [r7, #12]
 5272 0500 1B68     		ldr	r3, [r3]
 5273 0502 284A     		ldr	r2, .L207
 5274 0504 9342     		cmp	r3, r2
 5275 0506 4AD0     		beq	.L195
 5276              		.loc 1 1172 8 is_stmt 0 discriminator 2
 5277 0508 FB68     		ldr	r3, [r7, #12]
 5278 050a 1B68     		ldr	r3, [r3]
 5279 050c 264A     		ldr	r2, .L207+4
 5280 050e 9342     		cmp	r3, r2
 5281 0510 45D0     		beq	.L195
 5282              		.loc 1 1172 8 discriminator 4
 5283 0512 FB68     		ldr	r3, [r7, #12]
 5284 0514 1B68     		ldr	r3, [r3]
 5285 0516 254A     		ldr	r2, .L207+8
 5286 0518 9342     		cmp	r3, r2
 5287 051a 40D0     		beq	.L195
 5288              		.loc 1 1172 8 discriminator 6
 5289 051c FB68     		ldr	r3, [r7, #12]
 5290 051e 1B68     		ldr	r3, [r3]
 5291 0520 234A     		ldr	r2, .L207+12
 5292 0522 9342     		cmp	r3, r2
 5293 0524 3BD0     		beq	.L195
 5294              		.loc 1 1172 8 discriminator 8
 5295 0526 FB68     		ldr	r3, [r7, #12]
 5296 0528 1B68     		ldr	r3, [r3]
 5297 052a 224A     		ldr	r2, .L207+16
 5298 052c 9342     		cmp	r3, r2
 5299 052e 36D0     		beq	.L195
 5300              		.loc 1 1172 8 discriminator 10
 5301 0530 FB68     		ldr	r3, [r7, #12]
 5302 0532 1B68     		ldr	r3, [r3]
 5303 0534 204A     		ldr	r2, .L207+20
 5304 0536 9342     		cmp	r3, r2
 5305 0538 31D0     		beq	.L195
 5306              		.loc 1 1172 8 discriminator 12
 5307 053a FB68     		ldr	r3, [r7, #12]
 5308 053c 1B68     		ldr	r3, [r3]
 5309 053e 1F4A     		ldr	r2, .L207+24
 5310 0540 9342     		cmp	r3, r2
 5311 0542 2CD0     		beq	.L195
 5312              		.loc 1 1172 8 discriminator 14
 5313 0544 FB68     		ldr	r3, [r7, #12]
 5314 0546 1B68     		ldr	r3, [r3]
 5315 0548 1D4A     		ldr	r2, .L207+28
 5316 054a 9342     		cmp	r3, r2
 5317 054c 27D0     		beq	.L195
 5318              		.loc 1 1172 8 discriminator 16
ARM GAS  /var/folders/g1/j12m_ky910s3_sv7d4yrsdn00000gn/T//ccliMUVd.s 			page 115


 5319 054e FB68     		ldr	r3, [r7, #12]
 5320 0550 1B68     		ldr	r3, [r3]
 5321 0552 1C4A     		ldr	r2, .L207+32
 5322 0554 9342     		cmp	r3, r2
 5323 0556 22D0     		beq	.L195
 5324              		.loc 1 1172 8 discriminator 18
 5325 0558 FB68     		ldr	r3, [r7, #12]
 5326 055a 1B68     		ldr	r3, [r3]
 5327 055c 1A4A     		ldr	r2, .L207+36
 5328 055e 9342     		cmp	r3, r2
 5329 0560 1DD0     		beq	.L195
 5330              		.loc 1 1172 8 discriminator 20
 5331 0562 FB68     		ldr	r3, [r7, #12]
 5332 0564 1B68     		ldr	r3, [r3]
 5333 0566 194A     		ldr	r2, .L207+40
 5334 0568 9342     		cmp	r3, r2
 5335 056a 18D0     		beq	.L195
 5336              		.loc 1 1172 8 discriminator 22
 5337 056c FB68     		ldr	r3, [r7, #12]
 5338 056e 1B68     		ldr	r3, [r3]
 5339 0570 174A     		ldr	r2, .L207+44
 5340 0572 9342     		cmp	r3, r2
 5341 0574 13D0     		beq	.L195
 5342              		.loc 1 1172 8 discriminator 24
 5343 0576 FB68     		ldr	r3, [r7, #12]
 5344 0578 1B68     		ldr	r3, [r3]
 5345 057a 164A     		ldr	r2, .L207+48
 5346 057c 9342     		cmp	r3, r2
 5347 057e 0ED0     		beq	.L195
 5348              		.loc 1 1172 8 discriminator 26
 5349 0580 FB68     		ldr	r3, [r7, #12]
 5350 0582 1B68     		ldr	r3, [r3]
 5351 0584 144A     		ldr	r2, .L207+52
 5352 0586 9342     		cmp	r3, r2
 5353 0588 09D0     		beq	.L195
 5354              		.loc 1 1172 8 discriminator 28
 5355 058a FB68     		ldr	r3, [r7, #12]
 5356 058c 1B68     		ldr	r3, [r3]
 5357 058e 134A     		ldr	r2, .L207+56
 5358 0590 9342     		cmp	r3, r2
 5359 0592 04D0     		beq	.L195
 5360              		.loc 1 1172 8 discriminator 30
 5361 0594 FB68     		ldr	r3, [r7, #12]
 5362 0596 1B68     		ldr	r3, [r3]
 5363 0598 114A     		ldr	r2, .L207+60
 5364 059a 9342     		cmp	r3, r2
 5365 059c 32D1     		bne	.L196
 5366              	.L195:
 5367              		.loc 1 1172 8 discriminator 31
 5368 059e 0123     		movs	r3, #1
 5369              		.loc 1 1172 8
 5370 05a0 31E0     		b	.L197
 5371              	.L208:
 5372 05a2 00BF     		.align	2
 5373              	.L207:
 5374 05a4 10000240 		.word	1073872912
 5375 05a8 28000240 		.word	1073872936
ARM GAS  /var/folders/g1/j12m_ky910s3_sv7d4yrsdn00000gn/T//ccliMUVd.s 			page 116


 5376 05ac 40000240 		.word	1073872960
 5377 05b0 58000240 		.word	1073872984
 5378 05b4 70000240 		.word	1073873008
 5379 05b8 88000240 		.word	1073873032
 5380 05bc A0000240 		.word	1073873056
 5381 05c0 B8000240 		.word	1073873080
 5382 05c4 10040240 		.word	1073873936
 5383 05c8 28040240 		.word	1073873960
 5384 05cc 40040240 		.word	1073873984
 5385 05d0 58040240 		.word	1073874008
 5386 05d4 70040240 		.word	1073874032
 5387 05d8 88040240 		.word	1073874056
 5388 05dc A0040240 		.word	1073874080
 5389 05e0 B8040240 		.word	1073874104
 5390 05e4 08540258 		.word	1476547592
 5391 05e8 1C540258 		.word	1476547612
 5392 05ec 30540258 		.word	1476547632
 5393 05f0 44540258 		.word	1476547652
 5394 05f4 58540258 		.word	1476547672
 5395 05f8 6C540258 		.word	1476547692
 5396 05fc 80540258 		.word	1476547712
 5397 0600 94540258 		.word	1476547732
 5398              	.L196:
 5399              		.loc 1 1172 8 discriminator 32
 5400 0604 0023     		movs	r3, #0
 5401              	.L197:
 5402              		.loc 1 1172 7 is_stmt 1 discriminator 34
 5403 0606 002B     		cmp	r3, #0
 5404 0608 08D0     		beq	.L198
1173:Drivers/STM32H7xx_HAL_Driver/Src/stm32h7xx_hal_dma.c ****     {
1174:Drivers/STM32H7xx_HAL_Driver/Src/stm32h7xx_hal_dma.c ****       (*ifcr_reg) = (DMA_FLAG_HTIF0_4 | DMA_FLAG_TCIF0_4) << (hdma->StreamIndex & 0x1FU);
 5405              		.loc 1 1174 67
 5406 060a FB68     		ldr	r3, [r7, #12]
 5407 060c DB6D     		ldr	r3, [r3, #92]
 5408              		.loc 1 1174 81
 5409 060e 03F01F03 		and	r3, r3, #31
 5410              		.loc 1 1174 59
 5411 0612 3022     		movs	r2, #48
 5412 0614 9A40     		lsls	r2, r2, r3
 5413              		.loc 1 1174 19
 5414 0616 FB69     		ldr	r3, [r7, #28]
 5415 0618 1A60     		str	r2, [r3]
 5416 061a 07E0     		b	.L199
 5417              	.L198:
1175:Drivers/STM32H7xx_HAL_Driver/Src/stm32h7xx_hal_dma.c ****     }
1176:Drivers/STM32H7xx_HAL_Driver/Src/stm32h7xx_hal_dma.c ****     else /* BDMA channel */
1177:Drivers/STM32H7xx_HAL_Driver/Src/stm32h7xx_hal_dma.c ****     {
1178:Drivers/STM32H7xx_HAL_Driver/Src/stm32h7xx_hal_dma.c ****       (*ifcr_reg) = (BDMA_FLAG_TC0 << (hdma->StreamIndex & 0x1FU));
 5418              		.loc 1 1178 44
 5419 061c FB68     		ldr	r3, [r7, #12]
 5420 061e DB6D     		ldr	r3, [r3, #92]
 5421              		.loc 1 1178 58
 5422 0620 03F01F03 		and	r3, r3, #31
 5423              		.loc 1 1178 36
 5424 0624 0222     		movs	r2, #2
 5425 0626 9A40     		lsls	r2, r2, r3
 5426              		.loc 1 1178 19
ARM GAS  /var/folders/g1/j12m_ky910s3_sv7d4yrsdn00000gn/T//ccliMUVd.s 			page 117


 5427 0628 FB69     		ldr	r3, [r7, #28]
 5428 062a 1A60     		str	r2, [r3]
 5429              	.L199:
1179:Drivers/STM32H7xx_HAL_Driver/Src/stm32h7xx_hal_dma.c ****     }
1180:Drivers/STM32H7xx_HAL_Driver/Src/stm32h7xx_hal_dma.c **** 
1181:Drivers/STM32H7xx_HAL_Driver/Src/stm32h7xx_hal_dma.c ****     hdma->State = HAL_DMA_STATE_READY;
 5430              		.loc 1 1181 17
 5431 062c FB68     		ldr	r3, [r7, #12]
 5432 062e 0122     		movs	r2, #1
 5433 0630 83F83520 		strb	r2, [r3, #53]
1182:Drivers/STM32H7xx_HAL_Driver/Src/stm32h7xx_hal_dma.c **** 
1183:Drivers/STM32H7xx_HAL_Driver/Src/stm32h7xx_hal_dma.c ****     /* Process Unlocked */
1184:Drivers/STM32H7xx_HAL_Driver/Src/stm32h7xx_hal_dma.c ****     __HAL_UNLOCK(hdma);
 5434              		.loc 1 1184 5
 5435 0634 FB68     		ldr	r3, [r7, #12]
 5436 0636 0022     		movs	r2, #0
 5437 0638 83F83420 		strb	r2, [r3, #52]
 5438 063c 65E0     		b	.L200
 5439              	.L194:
1185:Drivers/STM32H7xx_HAL_Driver/Src/stm32h7xx_hal_dma.c ****   }
1186:Drivers/STM32H7xx_HAL_Driver/Src/stm32h7xx_hal_dma.c ****   else /*CompleteLevel = HAL_DMA_HALF_TRANSFER*/
1187:Drivers/STM32H7xx_HAL_Driver/Src/stm32h7xx_hal_dma.c ****   {
1188:Drivers/STM32H7xx_HAL_Driver/Src/stm32h7xx_hal_dma.c ****     /* Clear the half transfer and transfer complete flags */
1189:Drivers/STM32H7xx_HAL_Driver/Src/stm32h7xx_hal_dma.c ****     if(IS_DMA_STREAM_INSTANCE(hdma->Instance) != 0U) /* DMA1 or DMA2 instance */
 5440              		.loc 1 1189 8
 5441 063e FB68     		ldr	r3, [r7, #12]
 5442 0640 1B68     		ldr	r3, [r3]
 5443 0642 344A     		ldr	r2, .L209
 5444 0644 9342     		cmp	r3, r2
 5445 0646 4AD0     		beq	.L201
 5446              		.loc 1 1189 8 is_stmt 0 discriminator 2
 5447 0648 FB68     		ldr	r3, [r7, #12]
 5448 064a 1B68     		ldr	r3, [r3]
 5449 064c 324A     		ldr	r2, .L209+4
 5450 064e 9342     		cmp	r3, r2
 5451 0650 45D0     		beq	.L201
 5452              		.loc 1 1189 8 discriminator 4
 5453 0652 FB68     		ldr	r3, [r7, #12]
 5454 0654 1B68     		ldr	r3, [r3]
 5455 0656 314A     		ldr	r2, .L209+8
 5456 0658 9342     		cmp	r3, r2
 5457 065a 40D0     		beq	.L201
 5458              		.loc 1 1189 8 discriminator 6
 5459 065c FB68     		ldr	r3, [r7, #12]
 5460 065e 1B68     		ldr	r3, [r3]
 5461 0660 2F4A     		ldr	r2, .L209+12
 5462 0662 9342     		cmp	r3, r2
 5463 0664 3BD0     		beq	.L201
 5464              		.loc 1 1189 8 discriminator 8
 5465 0666 FB68     		ldr	r3, [r7, #12]
 5466 0668 1B68     		ldr	r3, [r3]
 5467 066a 2E4A     		ldr	r2, .L209+16
 5468 066c 9342     		cmp	r3, r2
 5469 066e 36D0     		beq	.L201
 5470              		.loc 1 1189 8 discriminator 10
 5471 0670 FB68     		ldr	r3, [r7, #12]
 5472 0672 1B68     		ldr	r3, [r3]
ARM GAS  /var/folders/g1/j12m_ky910s3_sv7d4yrsdn00000gn/T//ccliMUVd.s 			page 118


 5473 0674 2C4A     		ldr	r2, .L209+20
 5474 0676 9342     		cmp	r3, r2
 5475 0678 31D0     		beq	.L201
 5476              		.loc 1 1189 8 discriminator 12
 5477 067a FB68     		ldr	r3, [r7, #12]
 5478 067c 1B68     		ldr	r3, [r3]
 5479 067e 2B4A     		ldr	r2, .L209+24
 5480 0680 9342     		cmp	r3, r2
 5481 0682 2CD0     		beq	.L201
 5482              		.loc 1 1189 8 discriminator 14
 5483 0684 FB68     		ldr	r3, [r7, #12]
 5484 0686 1B68     		ldr	r3, [r3]
 5485 0688 294A     		ldr	r2, .L209+28
 5486 068a 9342     		cmp	r3, r2
 5487 068c 27D0     		beq	.L201
 5488              		.loc 1 1189 8 discriminator 16
 5489 068e FB68     		ldr	r3, [r7, #12]
 5490 0690 1B68     		ldr	r3, [r3]
 5491 0692 284A     		ldr	r2, .L209+32
 5492 0694 9342     		cmp	r3, r2
 5493 0696 22D0     		beq	.L201
 5494              		.loc 1 1189 8 discriminator 18
 5495 0698 FB68     		ldr	r3, [r7, #12]
 5496 069a 1B68     		ldr	r3, [r3]
 5497 069c 264A     		ldr	r2, .L209+36
 5498 069e 9342     		cmp	r3, r2
 5499 06a0 1DD0     		beq	.L201
 5500              		.loc 1 1189 8 discriminator 20
 5501 06a2 FB68     		ldr	r3, [r7, #12]
 5502 06a4 1B68     		ldr	r3, [r3]
 5503 06a6 254A     		ldr	r2, .L209+40
 5504 06a8 9342     		cmp	r3, r2
 5505 06aa 18D0     		beq	.L201
 5506              		.loc 1 1189 8 discriminator 22
 5507 06ac FB68     		ldr	r3, [r7, #12]
 5508 06ae 1B68     		ldr	r3, [r3]
 5509 06b0 234A     		ldr	r2, .L209+44
 5510 06b2 9342     		cmp	r3, r2
 5511 06b4 13D0     		beq	.L201
 5512              		.loc 1 1189 8 discriminator 24
 5513 06b6 FB68     		ldr	r3, [r7, #12]
 5514 06b8 1B68     		ldr	r3, [r3]
 5515 06ba 224A     		ldr	r2, .L209+48
 5516 06bc 9342     		cmp	r3, r2
 5517 06be 0ED0     		beq	.L201
 5518              		.loc 1 1189 8 discriminator 26
 5519 06c0 FB68     		ldr	r3, [r7, #12]
 5520 06c2 1B68     		ldr	r3, [r3]
 5521 06c4 204A     		ldr	r2, .L209+52
 5522 06c6 9342     		cmp	r3, r2
 5523 06c8 09D0     		beq	.L201
 5524              		.loc 1 1189 8 discriminator 28
 5525 06ca FB68     		ldr	r3, [r7, #12]
 5526 06cc 1B68     		ldr	r3, [r3]
 5527 06ce 1F4A     		ldr	r2, .L209+56
 5528 06d0 9342     		cmp	r3, r2
 5529 06d2 04D0     		beq	.L201
ARM GAS  /var/folders/g1/j12m_ky910s3_sv7d4yrsdn00000gn/T//ccliMUVd.s 			page 119


 5530              		.loc 1 1189 8 discriminator 30
 5531 06d4 FB68     		ldr	r3, [r7, #12]
 5532 06d6 1B68     		ldr	r3, [r3]
 5533 06d8 1D4A     		ldr	r2, .L209+60
 5534 06da 9342     		cmp	r3, r2
 5535 06dc 01D1     		bne	.L202
 5536              	.L201:
 5537              		.loc 1 1189 8 discriminator 31
 5538 06de 0123     		movs	r3, #1
 5539              		.loc 1 1189 8
 5540 06e0 00E0     		b	.L203
 5541              	.L202:
 5542              		.loc 1 1189 8 discriminator 32
 5543 06e2 0023     		movs	r3, #0
 5544              	.L203:
 5545              		.loc 1 1189 7 is_stmt 1 discriminator 34
 5546 06e4 002B     		cmp	r3, #0
 5547 06e6 08D0     		beq	.L204
1190:Drivers/STM32H7xx_HAL_Driver/Src/stm32h7xx_hal_dma.c ****     {
1191:Drivers/STM32H7xx_HAL_Driver/Src/stm32h7xx_hal_dma.c ****       (*ifcr_reg) = (DMA_FLAG_HTIF0_4) << (hdma->StreamIndex & 0x1FU);
 5548              		.loc 1 1191 48
 5549 06e8 FB68     		ldr	r3, [r7, #12]
 5550 06ea DB6D     		ldr	r3, [r3, #92]
 5551              		.loc 1 1191 62
 5552 06ec 03F01F03 		and	r3, r3, #31
 5553              		.loc 1 1191 40
 5554 06f0 1022     		movs	r2, #16
 5555 06f2 9A40     		lsls	r2, r2, r3
 5556              		.loc 1 1191 19
 5557 06f4 FB69     		ldr	r3, [r7, #28]
 5558 06f6 1A60     		str	r2, [r3]
 5559 06f8 07E0     		b	.L200
 5560              	.L204:
1192:Drivers/STM32H7xx_HAL_Driver/Src/stm32h7xx_hal_dma.c ****     }
1193:Drivers/STM32H7xx_HAL_Driver/Src/stm32h7xx_hal_dma.c ****     else /* BDMA channel */
1194:Drivers/STM32H7xx_HAL_Driver/Src/stm32h7xx_hal_dma.c ****     {
1195:Drivers/STM32H7xx_HAL_Driver/Src/stm32h7xx_hal_dma.c ****       (*ifcr_reg) = (BDMA_FLAG_HT0 << (hdma->StreamIndex & 0x1FU));
 5561              		.loc 1 1195 44
 5562 06fa FB68     		ldr	r3, [r7, #12]
 5563 06fc DB6D     		ldr	r3, [r3, #92]
 5564              		.loc 1 1195 58
 5565 06fe 03F01F03 		and	r3, r3, #31
 5566              		.loc 1 1195 36
 5567 0702 0422     		movs	r2, #4
 5568 0704 9A40     		lsls	r2, r2, r3
 5569              		.loc 1 1195 19
 5570 0706 FB69     		ldr	r3, [r7, #28]
 5571 0708 1A60     		str	r2, [r3]
 5572              	.L200:
1196:Drivers/STM32H7xx_HAL_Driver/Src/stm32h7xx_hal_dma.c ****     }
1197:Drivers/STM32H7xx_HAL_Driver/Src/stm32h7xx_hal_dma.c ****   }
1198:Drivers/STM32H7xx_HAL_Driver/Src/stm32h7xx_hal_dma.c **** 
1199:Drivers/STM32H7xx_HAL_Driver/Src/stm32h7xx_hal_dma.c ****   return status;
 5573              		.loc 1 1199 10
 5574 070a FB7E     		ldrb	r3, [r7, #27]	@ zero_extendqisi2
 5575              	.L164:
1200:Drivers/STM32H7xx_HAL_Driver/Src/stm32h7xx_hal_dma.c **** }
ARM GAS  /var/folders/g1/j12m_ky910s3_sv7d4yrsdn00000gn/T//ccliMUVd.s 			page 120


 5576              		.loc 1 1200 1
 5577 070c 1846     		mov	r0, r3
 5578 070e 2837     		adds	r7, r7, #40
 5579              	.LCFI33:
 5580              		.cfi_def_cfa_offset 8
 5581 0710 BD46     		mov	sp, r7
 5582              	.LCFI34:
 5583              		.cfi_def_cfa_register 13
 5584              		@ sp needed
 5585 0712 80BD     		pop	{r7, pc}
 5586              	.L210:
 5587              		.align	2
 5588              	.L209:
 5589 0714 10000240 		.word	1073872912
 5590 0718 28000240 		.word	1073872936
 5591 071c 40000240 		.word	1073872960
 5592 0720 58000240 		.word	1073872984
 5593 0724 70000240 		.word	1073873008
 5594 0728 88000240 		.word	1073873032
 5595 072c A0000240 		.word	1073873056
 5596 0730 B8000240 		.word	1073873080
 5597 0734 10040240 		.word	1073873936
 5598 0738 28040240 		.word	1073873960
 5599 073c 40040240 		.word	1073873984
 5600 0740 58040240 		.word	1073874008
 5601 0744 70040240 		.word	1073874032
 5602 0748 88040240 		.word	1073874056
 5603 074c A0040240 		.word	1073874080
 5604 0750 B8040240 		.word	1073874104
 5605              		.cfi_endproc
 5606              	.LFE150:
 5608              		.section	.text.HAL_DMA_IRQHandler,"ax",%progbits
 5609              		.align	1
 5610              		.global	HAL_DMA_IRQHandler
 5611              		.syntax unified
 5612              		.thumb
 5613              		.thumb_func
 5615              	HAL_DMA_IRQHandler:
 5616              	.LFB151:
1201:Drivers/STM32H7xx_HAL_Driver/Src/stm32h7xx_hal_dma.c **** 
1202:Drivers/STM32H7xx_HAL_Driver/Src/stm32h7xx_hal_dma.c **** /**
1203:Drivers/STM32H7xx_HAL_Driver/Src/stm32h7xx_hal_dma.c ****   * @brief  Handles DMA interrupt request.
1204:Drivers/STM32H7xx_HAL_Driver/Src/stm32h7xx_hal_dma.c ****   * @param  hdma: pointer to a DMA_HandleTypeDef structure that contains
1205:Drivers/STM32H7xx_HAL_Driver/Src/stm32h7xx_hal_dma.c ****   *               the configuration information for the specified DMA Stream.
1206:Drivers/STM32H7xx_HAL_Driver/Src/stm32h7xx_hal_dma.c ****   * @retval None
1207:Drivers/STM32H7xx_HAL_Driver/Src/stm32h7xx_hal_dma.c ****   */
1208:Drivers/STM32H7xx_HAL_Driver/Src/stm32h7xx_hal_dma.c **** void HAL_DMA_IRQHandler(DMA_HandleTypeDef *hdma)
1209:Drivers/STM32H7xx_HAL_Driver/Src/stm32h7xx_hal_dma.c **** {
 5617              		.loc 1 1209 1
 5618              		.cfi_startproc
 5619              		@ args = 0, pretend = 0, frame = 40
 5620              		@ frame_needed = 1, uses_anonymous_args = 0
 5621 0000 80B5     		push	{r7, lr}
 5622              	.LCFI35:
 5623              		.cfi_def_cfa_offset 8
 5624              		.cfi_offset 7, -8
 5625              		.cfi_offset 14, -4
ARM GAS  /var/folders/g1/j12m_ky910s3_sv7d4yrsdn00000gn/T//ccliMUVd.s 			page 121


 5626 0002 8AB0     		sub	sp, sp, #40
 5627              	.LCFI36:
 5628              		.cfi_def_cfa_offset 48
 5629 0004 00AF     		add	r7, sp, #0
 5630              	.LCFI37:
 5631              		.cfi_def_cfa_register 7
 5632 0006 7860     		str	r0, [r7, #4]
1210:Drivers/STM32H7xx_HAL_Driver/Src/stm32h7xx_hal_dma.c ****   uint32_t tmpisr_dma, tmpisr_bdma;
1211:Drivers/STM32H7xx_HAL_Driver/Src/stm32h7xx_hal_dma.c ****   uint32_t ccr_reg;
1212:Drivers/STM32H7xx_HAL_Driver/Src/stm32h7xx_hal_dma.c ****   __IO uint32_t count = 0U;
 5633              		.loc 1 1212 17
 5634 0008 0023     		movs	r3, #0
 5635 000a FB60     		str	r3, [r7, #12]
1213:Drivers/STM32H7xx_HAL_Driver/Src/stm32h7xx_hal_dma.c ****   uint32_t timeout = SystemCoreClock / 9600U;
 5636              		.loc 1 1213 38
 5637 000c 674B     		ldr	r3, .L282
 5638 000e 1B68     		ldr	r3, [r3]
 5639              		.loc 1 1213 12
 5640 0010 674A     		ldr	r2, .L282+4
 5641 0012 A2FB0323 		umull	r2, r3, r2, r3
 5642 0016 9B0A     		lsrs	r3, r3, #10
 5643 0018 7B62     		str	r3, [r7, #36]
1214:Drivers/STM32H7xx_HAL_Driver/Src/stm32h7xx_hal_dma.c **** 
1215:Drivers/STM32H7xx_HAL_Driver/Src/stm32h7xx_hal_dma.c ****   /* calculate DMA base and stream number */
1216:Drivers/STM32H7xx_HAL_Driver/Src/stm32h7xx_hal_dma.c ****   DMA_Base_Registers  *regs_dma  = (DMA_Base_Registers *)hdma->StreamBaseAddress;
 5644              		.loc 1 1216 62
 5645 001a 7B68     		ldr	r3, [r7, #4]
 5646 001c 9B6D     		ldr	r3, [r3, #88]
 5647              		.loc 1 1216 24
 5648 001e 3B62     		str	r3, [r7, #32]
1217:Drivers/STM32H7xx_HAL_Driver/Src/stm32h7xx_hal_dma.c ****   BDMA_Base_Registers *regs_bdma = (BDMA_Base_Registers *)hdma->StreamBaseAddress;
 5649              		.loc 1 1217 63
 5650 0020 7B68     		ldr	r3, [r7, #4]
 5651 0022 9B6D     		ldr	r3, [r3, #88]
 5652              		.loc 1 1217 24
 5653 0024 FB61     		str	r3, [r7, #28]
1218:Drivers/STM32H7xx_HAL_Driver/Src/stm32h7xx_hal_dma.c **** 
1219:Drivers/STM32H7xx_HAL_Driver/Src/stm32h7xx_hal_dma.c ****   tmpisr_dma  = regs_dma->ISR;
 5654              		.loc 1 1219 15
 5655 0026 3B6A     		ldr	r3, [r7, #32]
 5656 0028 1B68     		ldr	r3, [r3]
 5657 002a BB61     		str	r3, [r7, #24]
1220:Drivers/STM32H7xx_HAL_Driver/Src/stm32h7xx_hal_dma.c ****   tmpisr_bdma = regs_bdma->ISR;
 5658              		.loc 1 1220 15
 5659 002c FB69     		ldr	r3, [r7, #28]
 5660 002e 1B68     		ldr	r3, [r3]
 5661 0030 7B61     		str	r3, [r7, #20]
1221:Drivers/STM32H7xx_HAL_Driver/Src/stm32h7xx_hal_dma.c **** 
1222:Drivers/STM32H7xx_HAL_Driver/Src/stm32h7xx_hal_dma.c ****   if(IS_DMA_STREAM_INSTANCE(hdma->Instance) != 0U)  /* DMA1 or DMA2 instance */
 5662              		.loc 1 1222 6
 5663 0032 7B68     		ldr	r3, [r7, #4]
 5664 0034 1B68     		ldr	r3, [r3]
 5665 0036 5F4A     		ldr	r2, .L282+8
 5666 0038 9342     		cmp	r3, r2
 5667 003a 4AD0     		beq	.L212
 5668              		.loc 1 1222 6 is_stmt 0 discriminator 2
 5669 003c 7B68     		ldr	r3, [r7, #4]
ARM GAS  /var/folders/g1/j12m_ky910s3_sv7d4yrsdn00000gn/T//ccliMUVd.s 			page 122


 5670 003e 1B68     		ldr	r3, [r3]
 5671 0040 5D4A     		ldr	r2, .L282+12
 5672 0042 9342     		cmp	r3, r2
 5673 0044 45D0     		beq	.L212
 5674              		.loc 1 1222 6 discriminator 4
 5675 0046 7B68     		ldr	r3, [r7, #4]
 5676 0048 1B68     		ldr	r3, [r3]
 5677 004a 5C4A     		ldr	r2, .L282+16
 5678 004c 9342     		cmp	r3, r2
 5679 004e 40D0     		beq	.L212
 5680              		.loc 1 1222 6 discriminator 6
 5681 0050 7B68     		ldr	r3, [r7, #4]
 5682 0052 1B68     		ldr	r3, [r3]
 5683 0054 5A4A     		ldr	r2, .L282+20
 5684 0056 9342     		cmp	r3, r2
 5685 0058 3BD0     		beq	.L212
 5686              		.loc 1 1222 6 discriminator 8
 5687 005a 7B68     		ldr	r3, [r7, #4]
 5688 005c 1B68     		ldr	r3, [r3]
 5689 005e 594A     		ldr	r2, .L282+24
 5690 0060 9342     		cmp	r3, r2
 5691 0062 36D0     		beq	.L212
 5692              		.loc 1 1222 6 discriminator 10
 5693 0064 7B68     		ldr	r3, [r7, #4]
 5694 0066 1B68     		ldr	r3, [r3]
 5695 0068 574A     		ldr	r2, .L282+28
 5696 006a 9342     		cmp	r3, r2
 5697 006c 31D0     		beq	.L212
 5698              		.loc 1 1222 6 discriminator 12
 5699 006e 7B68     		ldr	r3, [r7, #4]
 5700 0070 1B68     		ldr	r3, [r3]
 5701 0072 564A     		ldr	r2, .L282+32
 5702 0074 9342     		cmp	r3, r2
 5703 0076 2CD0     		beq	.L212
 5704              		.loc 1 1222 6 discriminator 14
 5705 0078 7B68     		ldr	r3, [r7, #4]
 5706 007a 1B68     		ldr	r3, [r3]
 5707 007c 544A     		ldr	r2, .L282+36
 5708 007e 9342     		cmp	r3, r2
 5709 0080 27D0     		beq	.L212
 5710              		.loc 1 1222 6 discriminator 16
 5711 0082 7B68     		ldr	r3, [r7, #4]
 5712 0084 1B68     		ldr	r3, [r3]
 5713 0086 534A     		ldr	r2, .L282+40
 5714 0088 9342     		cmp	r3, r2
 5715 008a 22D0     		beq	.L212
 5716              		.loc 1 1222 6 discriminator 18
 5717 008c 7B68     		ldr	r3, [r7, #4]
 5718 008e 1B68     		ldr	r3, [r3]
 5719 0090 514A     		ldr	r2, .L282+44
 5720 0092 9342     		cmp	r3, r2
 5721 0094 1DD0     		beq	.L212
 5722              		.loc 1 1222 6 discriminator 20
 5723 0096 7B68     		ldr	r3, [r7, #4]
 5724 0098 1B68     		ldr	r3, [r3]
 5725 009a 504A     		ldr	r2, .L282+48
 5726 009c 9342     		cmp	r3, r2
ARM GAS  /var/folders/g1/j12m_ky910s3_sv7d4yrsdn00000gn/T//ccliMUVd.s 			page 123


 5727 009e 18D0     		beq	.L212
 5728              		.loc 1 1222 6 discriminator 22
 5729 00a0 7B68     		ldr	r3, [r7, #4]
 5730 00a2 1B68     		ldr	r3, [r3]
 5731 00a4 4E4A     		ldr	r2, .L282+52
 5732 00a6 9342     		cmp	r3, r2
 5733 00a8 13D0     		beq	.L212
 5734              		.loc 1 1222 6 discriminator 24
 5735 00aa 7B68     		ldr	r3, [r7, #4]
 5736 00ac 1B68     		ldr	r3, [r3]
 5737 00ae 4D4A     		ldr	r2, .L282+56
 5738 00b0 9342     		cmp	r3, r2
 5739 00b2 0ED0     		beq	.L212
 5740              		.loc 1 1222 6 discriminator 26
 5741 00b4 7B68     		ldr	r3, [r7, #4]
 5742 00b6 1B68     		ldr	r3, [r3]
 5743 00b8 4B4A     		ldr	r2, .L282+60
 5744 00ba 9342     		cmp	r3, r2
 5745 00bc 09D0     		beq	.L212
 5746              		.loc 1 1222 6 discriminator 28
 5747 00be 7B68     		ldr	r3, [r7, #4]
 5748 00c0 1B68     		ldr	r3, [r3]
 5749 00c2 4A4A     		ldr	r2, .L282+64
 5750 00c4 9342     		cmp	r3, r2
 5751 00c6 04D0     		beq	.L212
 5752              		.loc 1 1222 6 discriminator 30
 5753 00c8 7B68     		ldr	r3, [r7, #4]
 5754 00ca 1B68     		ldr	r3, [r3]
 5755 00cc 484A     		ldr	r2, .L282+68
 5756 00ce 9342     		cmp	r3, r2
 5757 00d0 01D1     		bne	.L213
 5758              	.L212:
 5759              		.loc 1 1222 6 discriminator 31
 5760 00d2 0123     		movs	r3, #1
 5761              		.loc 1 1222 6
 5762 00d4 00E0     		b	.L214
 5763              	.L213:
 5764              		.loc 1 1222 6 discriminator 32
 5765 00d6 0023     		movs	r3, #0
 5766              	.L214:
 5767              		.loc 1 1222 5 is_stmt 1 discriminator 34
 5768 00d8 002B     		cmp	r3, #0
 5769 00da 00F02B84 		beq	.L215
1223:Drivers/STM32H7xx_HAL_Driver/Src/stm32h7xx_hal_dma.c ****   {
1224:Drivers/STM32H7xx_HAL_Driver/Src/stm32h7xx_hal_dma.c ****     /* Transfer Error Interrupt management ***************************************/
1225:Drivers/STM32H7xx_HAL_Driver/Src/stm32h7xx_hal_dma.c ****     if ((tmpisr_dma & (DMA_FLAG_TEIF0_4 << (hdma->StreamIndex & 0x1FU))) != 0U)
 5770              		.loc 1 1225 49
 5771 00de 7B68     		ldr	r3, [r7, #4]
 5772 00e0 DB6D     		ldr	r3, [r3, #92]
 5773              		.loc 1 1225 63
 5774 00e2 03F01F03 		and	r3, r3, #31
 5775              		.loc 1 1225 41
 5776 00e6 0822     		movs	r2, #8
 5777 00e8 9A40     		lsls	r2, r2, r3
 5778              		.loc 1 1225 21
 5779 00ea BB69     		ldr	r3, [r7, #24]
 5780 00ec 1340     		ands	r3, r3, r2
ARM GAS  /var/folders/g1/j12m_ky910s3_sv7d4yrsdn00000gn/T//ccliMUVd.s 			page 124


 5781              		.loc 1 1225 8
 5782 00ee 002B     		cmp	r3, #0
 5783 00f0 00F0A280 		beq	.L216
1226:Drivers/STM32H7xx_HAL_Driver/Src/stm32h7xx_hal_dma.c ****     {
1227:Drivers/STM32H7xx_HAL_Driver/Src/stm32h7xx_hal_dma.c ****       if(__HAL_DMA_GET_IT_SOURCE(hdma, DMA_IT_TE) != 0U)
 5784              		.loc 1 1227 10
 5785 00f4 7B68     		ldr	r3, [r7, #4]
 5786 00f6 1B68     		ldr	r3, [r3]
 5787              		.loc 1 1227 51
 5788 00f8 2E4A     		ldr	r2, .L282+8
 5789 00fa 9342     		cmp	r3, r2
 5790 00fc 4AD0     		beq	.L217
 5791              		.loc 1 1227 10 discriminator 2
 5792 00fe 7B68     		ldr	r3, [r7, #4]
 5793 0100 1B68     		ldr	r3, [r3]
 5794 0102 2D4A     		ldr	r2, .L282+12
 5795 0104 9342     		cmp	r3, r2
 5796 0106 45D0     		beq	.L217
 5797              		.loc 1 1227 10 is_stmt 0 discriminator 4
 5798 0108 7B68     		ldr	r3, [r7, #4]
 5799 010a 1B68     		ldr	r3, [r3]
 5800 010c 2B4A     		ldr	r2, .L282+16
 5801 010e 9342     		cmp	r3, r2
 5802 0110 40D0     		beq	.L217
 5803              		.loc 1 1227 10 discriminator 6
 5804 0112 7B68     		ldr	r3, [r7, #4]
 5805 0114 1B68     		ldr	r3, [r3]
 5806 0116 2A4A     		ldr	r2, .L282+20
 5807 0118 9342     		cmp	r3, r2
 5808 011a 3BD0     		beq	.L217
 5809              		.loc 1 1227 10 discriminator 8
 5810 011c 7B68     		ldr	r3, [r7, #4]
 5811 011e 1B68     		ldr	r3, [r3]
 5812 0120 284A     		ldr	r2, .L282+24
 5813 0122 9342     		cmp	r3, r2
 5814 0124 36D0     		beq	.L217
 5815              		.loc 1 1227 10 discriminator 10
 5816 0126 7B68     		ldr	r3, [r7, #4]
 5817 0128 1B68     		ldr	r3, [r3]
 5818 012a 274A     		ldr	r2, .L282+28
 5819 012c 9342     		cmp	r3, r2
 5820 012e 31D0     		beq	.L217
 5821              		.loc 1 1227 10 discriminator 12
 5822 0130 7B68     		ldr	r3, [r7, #4]
 5823 0132 1B68     		ldr	r3, [r3]
 5824 0134 254A     		ldr	r2, .L282+32
 5825 0136 9342     		cmp	r3, r2
 5826 0138 2CD0     		beq	.L217
 5827              		.loc 1 1227 10 discriminator 14
 5828 013a 7B68     		ldr	r3, [r7, #4]
 5829 013c 1B68     		ldr	r3, [r3]
 5830 013e 244A     		ldr	r2, .L282+36
 5831 0140 9342     		cmp	r3, r2
 5832 0142 27D0     		beq	.L217
 5833              		.loc 1 1227 10 discriminator 16
 5834 0144 7B68     		ldr	r3, [r7, #4]
 5835 0146 1B68     		ldr	r3, [r3]
ARM GAS  /var/folders/g1/j12m_ky910s3_sv7d4yrsdn00000gn/T//ccliMUVd.s 			page 125


 5836 0148 224A     		ldr	r2, .L282+40
 5837 014a 9342     		cmp	r3, r2
 5838 014c 22D0     		beq	.L217
 5839              		.loc 1 1227 10 discriminator 18
 5840 014e 7B68     		ldr	r3, [r7, #4]
 5841 0150 1B68     		ldr	r3, [r3]
 5842 0152 214A     		ldr	r2, .L282+44
 5843 0154 9342     		cmp	r3, r2
 5844 0156 1DD0     		beq	.L217
 5845              		.loc 1 1227 10 discriminator 20
 5846 0158 7B68     		ldr	r3, [r7, #4]
 5847 015a 1B68     		ldr	r3, [r3]
 5848 015c 1F4A     		ldr	r2, .L282+48
 5849 015e 9342     		cmp	r3, r2
 5850 0160 18D0     		beq	.L217
 5851              		.loc 1 1227 10 discriminator 22
 5852 0162 7B68     		ldr	r3, [r7, #4]
 5853 0164 1B68     		ldr	r3, [r3]
 5854 0166 1E4A     		ldr	r2, .L282+52
 5855 0168 9342     		cmp	r3, r2
 5856 016a 13D0     		beq	.L217
 5857              		.loc 1 1227 10 discriminator 24
 5858 016c 7B68     		ldr	r3, [r7, #4]
 5859 016e 1B68     		ldr	r3, [r3]
 5860 0170 1C4A     		ldr	r2, .L282+56
 5861 0172 9342     		cmp	r3, r2
 5862 0174 0ED0     		beq	.L217
 5863              		.loc 1 1227 10 discriminator 26
 5864 0176 7B68     		ldr	r3, [r7, #4]
 5865 0178 1B68     		ldr	r3, [r3]
 5866 017a 1B4A     		ldr	r2, .L282+60
 5867 017c 9342     		cmp	r3, r2
 5868 017e 09D0     		beq	.L217
 5869              		.loc 1 1227 10 discriminator 28
 5870 0180 7B68     		ldr	r3, [r7, #4]
 5871 0182 1B68     		ldr	r3, [r3]
 5872 0184 194A     		ldr	r2, .L282+64
 5873 0186 9342     		cmp	r3, r2
 5874 0188 04D0     		beq	.L217
 5875              		.loc 1 1227 10 discriminator 30
 5876 018a 7B68     		ldr	r3, [r7, #4]
 5877 018c 1B68     		ldr	r3, [r3]
 5878 018e 184A     		ldr	r2, .L282+68
 5879 0190 9342     		cmp	r3, r2
 5880 0192 2FD1     		bne	.L218
 5881              	.L217:
 5882              		.loc 1 1227 10 discriminator 31
 5883 0194 7B68     		ldr	r3, [r7, #4]
 5884 0196 1B68     		ldr	r3, [r3]
 5885 0198 1B68     		ldr	r3, [r3]
 5886 019a 03F00403 		and	r3, r3, #4
 5887              		.loc 1 1227 51 is_stmt 1 discriminator 31
 5888 019e 002B     		cmp	r3, #0
 5889 01a0 14BF     		ite	ne
 5890 01a2 0123     		movne	r3, #1
 5891 01a4 0023     		moveq	r3, #0
 5892 01a6 DBB2     		uxtb	r3, r3
ARM GAS  /var/folders/g1/j12m_ky910s3_sv7d4yrsdn00000gn/T//ccliMUVd.s 			page 126


 5893              		.loc 1 1227 51 is_stmt 0
 5894 01a8 2EE0     		b	.L219
 5895              	.L283:
 5896 01aa 00BF     		.align	2
 5897              	.L282:
 5898 01ac 00000000 		.word	SystemCoreClock
 5899 01b0 B5814E1B 		.word	458129845
 5900 01b4 10000240 		.word	1073872912
 5901 01b8 28000240 		.word	1073872936
 5902 01bc 40000240 		.word	1073872960
 5903 01c0 58000240 		.word	1073872984
 5904 01c4 70000240 		.word	1073873008
 5905 01c8 88000240 		.word	1073873032
 5906 01cc A0000240 		.word	1073873056
 5907 01d0 B8000240 		.word	1073873080
 5908 01d4 10040240 		.word	1073873936
 5909 01d8 28040240 		.word	1073873960
 5910 01dc 40040240 		.word	1073873984
 5911 01e0 58040240 		.word	1073874008
 5912 01e4 70040240 		.word	1073874032
 5913 01e8 88040240 		.word	1073874056
 5914 01ec A0040240 		.word	1073874080
 5915 01f0 B8040240 		.word	1073874104
 5916              	.L218:
 5917              		.loc 1 1227 10 is_stmt 1 discriminator 32
 5918 01f4 7B68     		ldr	r3, [r7, #4]
 5919 01f6 1B68     		ldr	r3, [r3]
 5920 01f8 1B68     		ldr	r3, [r3]
 5921 01fa 03F00803 		and	r3, r3, #8
 5922              		.loc 1 1227 51 discriminator 32
 5923 01fe 002B     		cmp	r3, #0
 5924 0200 14BF     		ite	ne
 5925 0202 0123     		movne	r3, #1
 5926 0204 0023     		moveq	r3, #0
 5927 0206 DBB2     		uxtb	r3, r3
 5928              	.L219:
 5929              		.loc 1 1227 9 discriminator 34
 5930 0208 002B     		cmp	r3, #0
 5931 020a 15D0     		beq	.L216
1228:Drivers/STM32H7xx_HAL_Driver/Src/stm32h7xx_hal_dma.c ****       {
1229:Drivers/STM32H7xx_HAL_Driver/Src/stm32h7xx_hal_dma.c ****         /* Disable the transfer error interrupt */
1230:Drivers/STM32H7xx_HAL_Driver/Src/stm32h7xx_hal_dma.c ****         ((DMA_Stream_TypeDef   *)hdma->Instance)->CR  &= ~(DMA_IT_TE);
 5932              		.loc 1 1230 38
 5933 020c 7B68     		ldr	r3, [r7, #4]
 5934 020e 1B68     		ldr	r3, [r3]
 5935              		.loc 1 1230 49
 5936 0210 1A68     		ldr	r2, [r3]
 5937              		.loc 1 1230 38
 5938 0212 7B68     		ldr	r3, [r7, #4]
 5939 0214 1B68     		ldr	r3, [r3]
 5940              		.loc 1 1230 55
 5941 0216 22F00402 		bic	r2, r2, #4
 5942 021a 1A60     		str	r2, [r3]
1231:Drivers/STM32H7xx_HAL_Driver/Src/stm32h7xx_hal_dma.c **** 
1232:Drivers/STM32H7xx_HAL_Driver/Src/stm32h7xx_hal_dma.c ****         /* Clear the transfer error flag */
1233:Drivers/STM32H7xx_HAL_Driver/Src/stm32h7xx_hal_dma.c ****         regs_dma->IFCR = DMA_FLAG_TEIF0_4 << (hdma->StreamIndex & 0x1FU);
 5943              		.loc 1 1233 51
ARM GAS  /var/folders/g1/j12m_ky910s3_sv7d4yrsdn00000gn/T//ccliMUVd.s 			page 127


 5944 021c 7B68     		ldr	r3, [r7, #4]
 5945 021e DB6D     		ldr	r3, [r3, #92]
 5946              		.loc 1 1233 65
 5947 0220 03F01F03 		and	r3, r3, #31
 5948              		.loc 1 1233 43
 5949 0224 0822     		movs	r2, #8
 5950 0226 9A40     		lsls	r2, r2, r3
 5951              		.loc 1 1233 24
 5952 0228 3B6A     		ldr	r3, [r7, #32]
 5953 022a 9A60     		str	r2, [r3, #8]
1234:Drivers/STM32H7xx_HAL_Driver/Src/stm32h7xx_hal_dma.c **** 
1235:Drivers/STM32H7xx_HAL_Driver/Src/stm32h7xx_hal_dma.c ****         /* Update error code */
1236:Drivers/STM32H7xx_HAL_Driver/Src/stm32h7xx_hal_dma.c ****         hdma->ErrorCode |= HAL_DMA_ERROR_TE;
 5954              		.loc 1 1236 13
 5955 022c 7B68     		ldr	r3, [r7, #4]
 5956 022e 5B6D     		ldr	r3, [r3, #84]
 5957              		.loc 1 1236 25
 5958 0230 43F00102 		orr	r2, r3, #1
 5959 0234 7B68     		ldr	r3, [r7, #4]
 5960 0236 5A65     		str	r2, [r3, #84]
 5961              	.L216:
1237:Drivers/STM32H7xx_HAL_Driver/Src/stm32h7xx_hal_dma.c ****       }
1238:Drivers/STM32H7xx_HAL_Driver/Src/stm32h7xx_hal_dma.c ****     }
1239:Drivers/STM32H7xx_HAL_Driver/Src/stm32h7xx_hal_dma.c ****     /* FIFO Error Interrupt management ******************************************/
1240:Drivers/STM32H7xx_HAL_Driver/Src/stm32h7xx_hal_dma.c ****     if ((tmpisr_dma & (DMA_FLAG_FEIF0_4 << (hdma->StreamIndex & 0x1FU))) != 0U)
 5962              		.loc 1 1240 49
 5963 0238 7B68     		ldr	r3, [r7, #4]
 5964 023a DB6D     		ldr	r3, [r3, #92]
 5965              		.loc 1 1240 63
 5966 023c 03F01F03 		and	r3, r3, #31
 5967              		.loc 1 1240 74
 5968 0240 BA69     		ldr	r2, [r7, #24]
 5969 0242 22FA03F3 		lsr	r3, r2, r3
 5970 0246 03F00103 		and	r3, r3, #1
 5971              		.loc 1 1240 8
 5972 024a 002B     		cmp	r3, #0
 5973 024c 6ED0     		beq	.L220
1241:Drivers/STM32H7xx_HAL_Driver/Src/stm32h7xx_hal_dma.c ****     {
1242:Drivers/STM32H7xx_HAL_Driver/Src/stm32h7xx_hal_dma.c ****       if(__HAL_DMA_GET_IT_SOURCE(hdma, DMA_IT_FE) != 0U)
 5974              		.loc 1 1242 10
 5975 024e 7B68     		ldr	r3, [r7, #4]
 5976 0250 1B68     		ldr	r3, [r3]
 5977              		.loc 1 1242 51
 5978 0252 694A     		ldr	r2, .L284
 5979 0254 9342     		cmp	r3, r2
 5980 0256 4AD0     		beq	.L221
 5981              		.loc 1 1242 10 discriminator 2
 5982 0258 7B68     		ldr	r3, [r7, #4]
 5983 025a 1B68     		ldr	r3, [r3]
 5984 025c 674A     		ldr	r2, .L284+4
 5985 025e 9342     		cmp	r3, r2
 5986 0260 45D0     		beq	.L221
 5987              		.loc 1 1242 10 is_stmt 0 discriminator 4
 5988 0262 7B68     		ldr	r3, [r7, #4]
 5989 0264 1B68     		ldr	r3, [r3]
 5990 0266 664A     		ldr	r2, .L284+8
 5991 0268 9342     		cmp	r3, r2
ARM GAS  /var/folders/g1/j12m_ky910s3_sv7d4yrsdn00000gn/T//ccliMUVd.s 			page 128


 5992 026a 40D0     		beq	.L221
 5993              		.loc 1 1242 10 discriminator 6
 5994 026c 7B68     		ldr	r3, [r7, #4]
 5995 026e 1B68     		ldr	r3, [r3]
 5996 0270 644A     		ldr	r2, .L284+12
 5997 0272 9342     		cmp	r3, r2
 5998 0274 3BD0     		beq	.L221
 5999              		.loc 1 1242 10 discriminator 8
 6000 0276 7B68     		ldr	r3, [r7, #4]
 6001 0278 1B68     		ldr	r3, [r3]
 6002 027a 634A     		ldr	r2, .L284+16
 6003 027c 9342     		cmp	r3, r2
 6004 027e 36D0     		beq	.L221
 6005              		.loc 1 1242 10 discriminator 10
 6006 0280 7B68     		ldr	r3, [r7, #4]
 6007 0282 1B68     		ldr	r3, [r3]
 6008 0284 614A     		ldr	r2, .L284+20
 6009 0286 9342     		cmp	r3, r2
 6010 0288 31D0     		beq	.L221
 6011              		.loc 1 1242 10 discriminator 12
 6012 028a 7B68     		ldr	r3, [r7, #4]
 6013 028c 1B68     		ldr	r3, [r3]
 6014 028e 604A     		ldr	r2, .L284+24
 6015 0290 9342     		cmp	r3, r2
 6016 0292 2CD0     		beq	.L221
 6017              		.loc 1 1242 10 discriminator 14
 6018 0294 7B68     		ldr	r3, [r7, #4]
 6019 0296 1B68     		ldr	r3, [r3]
 6020 0298 5E4A     		ldr	r2, .L284+28
 6021 029a 9342     		cmp	r3, r2
 6022 029c 27D0     		beq	.L221
 6023              		.loc 1 1242 10 discriminator 16
 6024 029e 7B68     		ldr	r3, [r7, #4]
 6025 02a0 1B68     		ldr	r3, [r3]
 6026 02a2 5D4A     		ldr	r2, .L284+32
 6027 02a4 9342     		cmp	r3, r2
 6028 02a6 22D0     		beq	.L221
 6029              		.loc 1 1242 10 discriminator 18
 6030 02a8 7B68     		ldr	r3, [r7, #4]
 6031 02aa 1B68     		ldr	r3, [r3]
 6032 02ac 5B4A     		ldr	r2, .L284+36
 6033 02ae 9342     		cmp	r3, r2
 6034 02b0 1DD0     		beq	.L221
 6035              		.loc 1 1242 10 discriminator 20
 6036 02b2 7B68     		ldr	r3, [r7, #4]
 6037 02b4 1B68     		ldr	r3, [r3]
 6038 02b6 5A4A     		ldr	r2, .L284+40
 6039 02b8 9342     		cmp	r3, r2
 6040 02ba 18D0     		beq	.L221
 6041              		.loc 1 1242 10 discriminator 22
 6042 02bc 7B68     		ldr	r3, [r7, #4]
 6043 02be 1B68     		ldr	r3, [r3]
 6044 02c0 584A     		ldr	r2, .L284+44
 6045 02c2 9342     		cmp	r3, r2
 6046 02c4 13D0     		beq	.L221
 6047              		.loc 1 1242 10 discriminator 24
 6048 02c6 7B68     		ldr	r3, [r7, #4]
ARM GAS  /var/folders/g1/j12m_ky910s3_sv7d4yrsdn00000gn/T//ccliMUVd.s 			page 129


 6049 02c8 1B68     		ldr	r3, [r3]
 6050 02ca 574A     		ldr	r2, .L284+48
 6051 02cc 9342     		cmp	r3, r2
 6052 02ce 0ED0     		beq	.L221
 6053              		.loc 1 1242 10 discriminator 26
 6054 02d0 7B68     		ldr	r3, [r7, #4]
 6055 02d2 1B68     		ldr	r3, [r3]
 6056 02d4 554A     		ldr	r2, .L284+52
 6057 02d6 9342     		cmp	r3, r2
 6058 02d8 09D0     		beq	.L221
 6059              		.loc 1 1242 10 discriminator 28
 6060 02da 7B68     		ldr	r3, [r7, #4]
 6061 02dc 1B68     		ldr	r3, [r3]
 6062 02de 544A     		ldr	r2, .L284+56
 6063 02e0 9342     		cmp	r3, r2
 6064 02e2 04D0     		beq	.L221
 6065              		.loc 1 1242 10 discriminator 30
 6066 02e4 7B68     		ldr	r3, [r7, #4]
 6067 02e6 1B68     		ldr	r3, [r3]
 6068 02e8 524A     		ldr	r2, .L284+60
 6069 02ea 9342     		cmp	r3, r2
 6070 02ec 0AD1     		bne	.L222
 6071              	.L221:
 6072              		.loc 1 1242 10 discriminator 31
 6073 02ee 7B68     		ldr	r3, [r7, #4]
 6074 02f0 1B68     		ldr	r3, [r3]
 6075 02f2 5B69     		ldr	r3, [r3, #20]
 6076 02f4 03F08003 		and	r3, r3, #128
 6077              		.loc 1 1242 51 is_stmt 1 discriminator 31
 6078 02f8 002B     		cmp	r3, #0
 6079 02fa 14BF     		ite	ne
 6080 02fc 0123     		movne	r3, #1
 6081 02fe 0023     		moveq	r3, #0
 6082 0300 DBB2     		uxtb	r3, r3
 6083              		.loc 1 1242 51 is_stmt 0
 6084 0302 03E0     		b	.L223
 6085              	.L222:
 6086              		.loc 1 1242 10 is_stmt 1 discriminator 32
 6087 0304 7B68     		ldr	r3, [r7, #4]
 6088 0306 1B68     		ldr	r3, [r3]
 6089 0308 1B68     		ldr	r3, [r3]
 6090              		.loc 1 1242 51 discriminator 32
 6091 030a 0023     		movs	r3, #0
 6092              	.L223:
 6093              		.loc 1 1242 9 discriminator 34
 6094 030c 002B     		cmp	r3, #0
 6095 030e 0DD0     		beq	.L220
1243:Drivers/STM32H7xx_HAL_Driver/Src/stm32h7xx_hal_dma.c ****       {
1244:Drivers/STM32H7xx_HAL_Driver/Src/stm32h7xx_hal_dma.c ****         /* Clear the FIFO error flag */
1245:Drivers/STM32H7xx_HAL_Driver/Src/stm32h7xx_hal_dma.c ****         regs_dma->IFCR = DMA_FLAG_FEIF0_4 << (hdma->StreamIndex & 0x1FU);
 6096              		.loc 1 1245 51
 6097 0310 7B68     		ldr	r3, [r7, #4]
 6098 0312 DB6D     		ldr	r3, [r3, #92]
 6099              		.loc 1 1245 65
 6100 0314 03F01F03 		and	r3, r3, #31
 6101              		.loc 1 1245 43
 6102 0318 0122     		movs	r2, #1
ARM GAS  /var/folders/g1/j12m_ky910s3_sv7d4yrsdn00000gn/T//ccliMUVd.s 			page 130


 6103 031a 9A40     		lsls	r2, r2, r3
 6104              		.loc 1 1245 24
 6105 031c 3B6A     		ldr	r3, [r7, #32]
 6106 031e 9A60     		str	r2, [r3, #8]
1246:Drivers/STM32H7xx_HAL_Driver/Src/stm32h7xx_hal_dma.c **** 
1247:Drivers/STM32H7xx_HAL_Driver/Src/stm32h7xx_hal_dma.c ****         /* Update error code */
1248:Drivers/STM32H7xx_HAL_Driver/Src/stm32h7xx_hal_dma.c ****         hdma->ErrorCode |= HAL_DMA_ERROR_FE;
 6107              		.loc 1 1248 13
 6108 0320 7B68     		ldr	r3, [r7, #4]
 6109 0322 5B6D     		ldr	r3, [r3, #84]
 6110              		.loc 1 1248 25
 6111 0324 43F00202 		orr	r2, r3, #2
 6112 0328 7B68     		ldr	r3, [r7, #4]
 6113 032a 5A65     		str	r2, [r3, #84]
 6114              	.L220:
1249:Drivers/STM32H7xx_HAL_Driver/Src/stm32h7xx_hal_dma.c ****       }
1250:Drivers/STM32H7xx_HAL_Driver/Src/stm32h7xx_hal_dma.c ****     }
1251:Drivers/STM32H7xx_HAL_Driver/Src/stm32h7xx_hal_dma.c ****     /* Direct Mode Error Interrupt management ***********************************/
1252:Drivers/STM32H7xx_HAL_Driver/Src/stm32h7xx_hal_dma.c ****     if ((tmpisr_dma & (DMA_FLAG_DMEIF0_4 << (hdma->StreamIndex & 0x1FU))) != 0U)
 6115              		.loc 1 1252 50
 6116 032c 7B68     		ldr	r3, [r7, #4]
 6117 032e DB6D     		ldr	r3, [r3, #92]
 6118              		.loc 1 1252 64
 6119 0330 03F01F03 		and	r3, r3, #31
 6120              		.loc 1 1252 42
 6121 0334 0422     		movs	r2, #4
 6122 0336 9A40     		lsls	r2, r2, r3
 6123              		.loc 1 1252 21
 6124 0338 BB69     		ldr	r3, [r7, #24]
 6125 033a 1340     		ands	r3, r3, r2
 6126              		.loc 1 1252 8
 6127 033c 002B     		cmp	r3, #0
 6128 033e 00F08F80 		beq	.L224
1253:Drivers/STM32H7xx_HAL_Driver/Src/stm32h7xx_hal_dma.c ****     {
1254:Drivers/STM32H7xx_HAL_Driver/Src/stm32h7xx_hal_dma.c ****       if(__HAL_DMA_GET_IT_SOURCE(hdma, DMA_IT_DME) != 0U)
 6129              		.loc 1 1254 10
 6130 0342 7B68     		ldr	r3, [r7, #4]
 6131 0344 1B68     		ldr	r3, [r3]
 6132              		.loc 1 1254 52
 6133 0346 2C4A     		ldr	r2, .L284
 6134 0348 9342     		cmp	r3, r2
 6135 034a 4AD0     		beq	.L225
 6136              		.loc 1 1254 10 discriminator 2
 6137 034c 7B68     		ldr	r3, [r7, #4]
 6138 034e 1B68     		ldr	r3, [r3]
 6139 0350 2A4A     		ldr	r2, .L284+4
 6140 0352 9342     		cmp	r3, r2
 6141 0354 45D0     		beq	.L225
 6142              		.loc 1 1254 10 is_stmt 0 discriminator 4
 6143 0356 7B68     		ldr	r3, [r7, #4]
 6144 0358 1B68     		ldr	r3, [r3]
 6145 035a 294A     		ldr	r2, .L284+8
 6146 035c 9342     		cmp	r3, r2
 6147 035e 40D0     		beq	.L225
 6148              		.loc 1 1254 10 discriminator 6
 6149 0360 7B68     		ldr	r3, [r7, #4]
 6150 0362 1B68     		ldr	r3, [r3]
ARM GAS  /var/folders/g1/j12m_ky910s3_sv7d4yrsdn00000gn/T//ccliMUVd.s 			page 131


 6151 0364 274A     		ldr	r2, .L284+12
 6152 0366 9342     		cmp	r3, r2
 6153 0368 3BD0     		beq	.L225
 6154              		.loc 1 1254 10 discriminator 8
 6155 036a 7B68     		ldr	r3, [r7, #4]
 6156 036c 1B68     		ldr	r3, [r3]
 6157 036e 264A     		ldr	r2, .L284+16
 6158 0370 9342     		cmp	r3, r2
 6159 0372 36D0     		beq	.L225
 6160              		.loc 1 1254 10 discriminator 10
 6161 0374 7B68     		ldr	r3, [r7, #4]
 6162 0376 1B68     		ldr	r3, [r3]
 6163 0378 244A     		ldr	r2, .L284+20
 6164 037a 9342     		cmp	r3, r2
 6165 037c 31D0     		beq	.L225
 6166              		.loc 1 1254 10 discriminator 12
 6167 037e 7B68     		ldr	r3, [r7, #4]
 6168 0380 1B68     		ldr	r3, [r3]
 6169 0382 234A     		ldr	r2, .L284+24
 6170 0384 9342     		cmp	r3, r2
 6171 0386 2CD0     		beq	.L225
 6172              		.loc 1 1254 10 discriminator 14
 6173 0388 7B68     		ldr	r3, [r7, #4]
 6174 038a 1B68     		ldr	r3, [r3]
 6175 038c 214A     		ldr	r2, .L284+28
 6176 038e 9342     		cmp	r3, r2
 6177 0390 27D0     		beq	.L225
 6178              		.loc 1 1254 10 discriminator 16
 6179 0392 7B68     		ldr	r3, [r7, #4]
 6180 0394 1B68     		ldr	r3, [r3]
 6181 0396 204A     		ldr	r2, .L284+32
 6182 0398 9342     		cmp	r3, r2
 6183 039a 22D0     		beq	.L225
 6184              		.loc 1 1254 10 discriminator 18
 6185 039c 7B68     		ldr	r3, [r7, #4]
 6186 039e 1B68     		ldr	r3, [r3]
 6187 03a0 1E4A     		ldr	r2, .L284+36
 6188 03a2 9342     		cmp	r3, r2
 6189 03a4 1DD0     		beq	.L225
 6190              		.loc 1 1254 10 discriminator 20
 6191 03a6 7B68     		ldr	r3, [r7, #4]
 6192 03a8 1B68     		ldr	r3, [r3]
 6193 03aa 1D4A     		ldr	r2, .L284+40
 6194 03ac 9342     		cmp	r3, r2
 6195 03ae 18D0     		beq	.L225
 6196              		.loc 1 1254 10 discriminator 22
 6197 03b0 7B68     		ldr	r3, [r7, #4]
 6198 03b2 1B68     		ldr	r3, [r3]
 6199 03b4 1B4A     		ldr	r2, .L284+44
 6200 03b6 9342     		cmp	r3, r2
 6201 03b8 13D0     		beq	.L225
 6202              		.loc 1 1254 10 discriminator 24
 6203 03ba 7B68     		ldr	r3, [r7, #4]
 6204 03bc 1B68     		ldr	r3, [r3]
 6205 03be 1A4A     		ldr	r2, .L284+48
 6206 03c0 9342     		cmp	r3, r2
 6207 03c2 0ED0     		beq	.L225
ARM GAS  /var/folders/g1/j12m_ky910s3_sv7d4yrsdn00000gn/T//ccliMUVd.s 			page 132


 6208              		.loc 1 1254 10 discriminator 26
 6209 03c4 7B68     		ldr	r3, [r7, #4]
 6210 03c6 1B68     		ldr	r3, [r3]
 6211 03c8 184A     		ldr	r2, .L284+52
 6212 03ca 9342     		cmp	r3, r2
 6213 03cc 09D0     		beq	.L225
 6214              		.loc 1 1254 10 discriminator 28
 6215 03ce 7B68     		ldr	r3, [r7, #4]
 6216 03d0 1B68     		ldr	r3, [r3]
 6217 03d2 174A     		ldr	r2, .L284+56
 6218 03d4 9342     		cmp	r3, r2
 6219 03d6 04D0     		beq	.L225
 6220              		.loc 1 1254 10 discriminator 30
 6221 03d8 7B68     		ldr	r3, [r7, #4]
 6222 03da 1B68     		ldr	r3, [r3]
 6223 03dc 154A     		ldr	r2, .L284+60
 6224 03de 9342     		cmp	r3, r2
 6225 03e0 2AD1     		bne	.L226
 6226              	.L225:
 6227              		.loc 1 1254 10 discriminator 31
 6228 03e2 7B68     		ldr	r3, [r7, #4]
 6229 03e4 1B68     		ldr	r3, [r3]
 6230 03e6 1B68     		ldr	r3, [r3]
 6231 03e8 03F00203 		and	r3, r3, #2
 6232              		.loc 1 1254 52 is_stmt 1 discriminator 31
 6233 03ec 002B     		cmp	r3, #0
 6234 03ee 14BF     		ite	ne
 6235 03f0 0123     		movne	r3, #1
 6236 03f2 0023     		moveq	r3, #0
 6237 03f4 DBB2     		uxtb	r3, r3
 6238              		.loc 1 1254 52 is_stmt 0
 6239 03f6 23E0     		b	.L227
 6240              	.L285:
 6241              		.align	2
 6242              	.L284:
 6243 03f8 10000240 		.word	1073872912
 6244 03fc 28000240 		.word	1073872936
 6245 0400 40000240 		.word	1073872960
 6246 0404 58000240 		.word	1073872984
 6247 0408 70000240 		.word	1073873008
 6248 040c 88000240 		.word	1073873032
 6249 0410 A0000240 		.word	1073873056
 6250 0414 B8000240 		.word	1073873080
 6251 0418 10040240 		.word	1073873936
 6252 041c 28040240 		.word	1073873960
 6253 0420 40040240 		.word	1073873984
 6254 0424 58040240 		.word	1073874008
 6255 0428 70040240 		.word	1073874032
 6256 042c 88040240 		.word	1073874056
 6257 0430 A0040240 		.word	1073874080
 6258 0434 B8040240 		.word	1073874104
 6259              	.L226:
 6260              		.loc 1 1254 10 is_stmt 1 discriminator 32
 6261 0438 7B68     		ldr	r3, [r7, #4]
 6262 043a 1B68     		ldr	r3, [r3]
 6263 043c 1B68     		ldr	r3, [r3]
 6264              		.loc 1 1254 52 discriminator 32
ARM GAS  /var/folders/g1/j12m_ky910s3_sv7d4yrsdn00000gn/T//ccliMUVd.s 			page 133


 6265 043e 0023     		movs	r3, #0
 6266              	.L227:
 6267              		.loc 1 1254 9 discriminator 34
 6268 0440 002B     		cmp	r3, #0
 6269 0442 0DD0     		beq	.L224
1255:Drivers/STM32H7xx_HAL_Driver/Src/stm32h7xx_hal_dma.c ****       {
1256:Drivers/STM32H7xx_HAL_Driver/Src/stm32h7xx_hal_dma.c ****         /* Clear the direct mode error flag */
1257:Drivers/STM32H7xx_HAL_Driver/Src/stm32h7xx_hal_dma.c ****         regs_dma->IFCR = DMA_FLAG_DMEIF0_4 << (hdma->StreamIndex & 0x1FU);
 6270              		.loc 1 1257 52
 6271 0444 7B68     		ldr	r3, [r7, #4]
 6272 0446 DB6D     		ldr	r3, [r3, #92]
 6273              		.loc 1 1257 66
 6274 0448 03F01F03 		and	r3, r3, #31
 6275              		.loc 1 1257 44
 6276 044c 0422     		movs	r2, #4
 6277 044e 9A40     		lsls	r2, r2, r3
 6278              		.loc 1 1257 24
 6279 0450 3B6A     		ldr	r3, [r7, #32]
 6280 0452 9A60     		str	r2, [r3, #8]
1258:Drivers/STM32H7xx_HAL_Driver/Src/stm32h7xx_hal_dma.c **** 
1259:Drivers/STM32H7xx_HAL_Driver/Src/stm32h7xx_hal_dma.c ****         /* Update error code */
1260:Drivers/STM32H7xx_HAL_Driver/Src/stm32h7xx_hal_dma.c ****         hdma->ErrorCode |= HAL_DMA_ERROR_DME;
 6281              		.loc 1 1260 13
 6282 0454 7B68     		ldr	r3, [r7, #4]
 6283 0456 5B6D     		ldr	r3, [r3, #84]
 6284              		.loc 1 1260 25
 6285 0458 43F00402 		orr	r2, r3, #4
 6286 045c 7B68     		ldr	r3, [r7, #4]
 6287 045e 5A65     		str	r2, [r3, #84]
 6288              	.L224:
1261:Drivers/STM32H7xx_HAL_Driver/Src/stm32h7xx_hal_dma.c ****       }
1262:Drivers/STM32H7xx_HAL_Driver/Src/stm32h7xx_hal_dma.c ****     }
1263:Drivers/STM32H7xx_HAL_Driver/Src/stm32h7xx_hal_dma.c ****     /* Half Transfer Complete Interrupt management ******************************/
1264:Drivers/STM32H7xx_HAL_Driver/Src/stm32h7xx_hal_dma.c ****     if ((tmpisr_dma & (DMA_FLAG_HTIF0_4 << (hdma->StreamIndex & 0x1FU))) != 0U)
 6289              		.loc 1 1264 49
 6290 0460 7B68     		ldr	r3, [r7, #4]
 6291 0462 DB6D     		ldr	r3, [r3, #92]
 6292              		.loc 1 1264 63
 6293 0464 03F01F03 		and	r3, r3, #31
 6294              		.loc 1 1264 41
 6295 0468 1022     		movs	r2, #16
 6296 046a 9A40     		lsls	r2, r2, r3
 6297              		.loc 1 1264 21
 6298 046c BB69     		ldr	r3, [r7, #24]
 6299 046e 1340     		ands	r3, r3, r2
 6300              		.loc 1 1264 8
 6301 0470 002B     		cmp	r3, #0
 6302 0472 00F0A680 		beq	.L228
1265:Drivers/STM32H7xx_HAL_Driver/Src/stm32h7xx_hal_dma.c ****     {
1266:Drivers/STM32H7xx_HAL_Driver/Src/stm32h7xx_hal_dma.c ****       if(__HAL_DMA_GET_IT_SOURCE(hdma, DMA_IT_HT) != 0U)
 6303              		.loc 1 1266 10
 6304 0476 7B68     		ldr	r3, [r7, #4]
 6305 0478 1B68     		ldr	r3, [r3]
 6306              		.loc 1 1266 51
 6307 047a 854A     		ldr	r2, .L286
 6308 047c 9342     		cmp	r3, r2
 6309 047e 4AD0     		beq	.L229
ARM GAS  /var/folders/g1/j12m_ky910s3_sv7d4yrsdn00000gn/T//ccliMUVd.s 			page 134


 6310              		.loc 1 1266 10 discriminator 2
 6311 0480 7B68     		ldr	r3, [r7, #4]
 6312 0482 1B68     		ldr	r3, [r3]
 6313 0484 834A     		ldr	r2, .L286+4
 6314 0486 9342     		cmp	r3, r2
 6315 0488 45D0     		beq	.L229
 6316              		.loc 1 1266 10 is_stmt 0 discriminator 4
 6317 048a 7B68     		ldr	r3, [r7, #4]
 6318 048c 1B68     		ldr	r3, [r3]
 6319 048e 824A     		ldr	r2, .L286+8
 6320 0490 9342     		cmp	r3, r2
 6321 0492 40D0     		beq	.L229
 6322              		.loc 1 1266 10 discriminator 6
 6323 0494 7B68     		ldr	r3, [r7, #4]
 6324 0496 1B68     		ldr	r3, [r3]
 6325 0498 804A     		ldr	r2, .L286+12
 6326 049a 9342     		cmp	r3, r2
 6327 049c 3BD0     		beq	.L229
 6328              		.loc 1 1266 10 discriminator 8
 6329 049e 7B68     		ldr	r3, [r7, #4]
 6330 04a0 1B68     		ldr	r3, [r3]
 6331 04a2 7F4A     		ldr	r2, .L286+16
 6332 04a4 9342     		cmp	r3, r2
 6333 04a6 36D0     		beq	.L229
 6334              		.loc 1 1266 10 discriminator 10
 6335 04a8 7B68     		ldr	r3, [r7, #4]
 6336 04aa 1B68     		ldr	r3, [r3]
 6337 04ac 7D4A     		ldr	r2, .L286+20
 6338 04ae 9342     		cmp	r3, r2
 6339 04b0 31D0     		beq	.L229
 6340              		.loc 1 1266 10 discriminator 12
 6341 04b2 7B68     		ldr	r3, [r7, #4]
 6342 04b4 1B68     		ldr	r3, [r3]
 6343 04b6 7C4A     		ldr	r2, .L286+24
 6344 04b8 9342     		cmp	r3, r2
 6345 04ba 2CD0     		beq	.L229
 6346              		.loc 1 1266 10 discriminator 14
 6347 04bc 7B68     		ldr	r3, [r7, #4]
 6348 04be 1B68     		ldr	r3, [r3]
 6349 04c0 7A4A     		ldr	r2, .L286+28
 6350 04c2 9342     		cmp	r3, r2
 6351 04c4 27D0     		beq	.L229
 6352              		.loc 1 1266 10 discriminator 16
 6353 04c6 7B68     		ldr	r3, [r7, #4]
 6354 04c8 1B68     		ldr	r3, [r3]
 6355 04ca 794A     		ldr	r2, .L286+32
 6356 04cc 9342     		cmp	r3, r2
 6357 04ce 22D0     		beq	.L229
 6358              		.loc 1 1266 10 discriminator 18
 6359 04d0 7B68     		ldr	r3, [r7, #4]
 6360 04d2 1B68     		ldr	r3, [r3]
 6361 04d4 774A     		ldr	r2, .L286+36
 6362 04d6 9342     		cmp	r3, r2
 6363 04d8 1DD0     		beq	.L229
 6364              		.loc 1 1266 10 discriminator 20
 6365 04da 7B68     		ldr	r3, [r7, #4]
 6366 04dc 1B68     		ldr	r3, [r3]
ARM GAS  /var/folders/g1/j12m_ky910s3_sv7d4yrsdn00000gn/T//ccliMUVd.s 			page 135


 6367 04de 764A     		ldr	r2, .L286+40
 6368 04e0 9342     		cmp	r3, r2
 6369 04e2 18D0     		beq	.L229
 6370              		.loc 1 1266 10 discriminator 22
 6371 04e4 7B68     		ldr	r3, [r7, #4]
 6372 04e6 1B68     		ldr	r3, [r3]
 6373 04e8 744A     		ldr	r2, .L286+44
 6374 04ea 9342     		cmp	r3, r2
 6375 04ec 13D0     		beq	.L229
 6376              		.loc 1 1266 10 discriminator 24
 6377 04ee 7B68     		ldr	r3, [r7, #4]
 6378 04f0 1B68     		ldr	r3, [r3]
 6379 04f2 734A     		ldr	r2, .L286+48
 6380 04f4 9342     		cmp	r3, r2
 6381 04f6 0ED0     		beq	.L229
 6382              		.loc 1 1266 10 discriminator 26
 6383 04f8 7B68     		ldr	r3, [r7, #4]
 6384 04fa 1B68     		ldr	r3, [r3]
 6385 04fc 714A     		ldr	r2, .L286+52
 6386 04fe 9342     		cmp	r3, r2
 6387 0500 09D0     		beq	.L229
 6388              		.loc 1 1266 10 discriminator 28
 6389 0502 7B68     		ldr	r3, [r7, #4]
 6390 0504 1B68     		ldr	r3, [r3]
 6391 0506 704A     		ldr	r2, .L286+56
 6392 0508 9342     		cmp	r3, r2
 6393 050a 04D0     		beq	.L229
 6394              		.loc 1 1266 10 discriminator 30
 6395 050c 7B68     		ldr	r3, [r7, #4]
 6396 050e 1B68     		ldr	r3, [r3]
 6397 0510 6E4A     		ldr	r2, .L286+60
 6398 0512 9342     		cmp	r3, r2
 6399 0514 0AD1     		bne	.L230
 6400              	.L229:
 6401              		.loc 1 1266 10 discriminator 31
 6402 0516 7B68     		ldr	r3, [r7, #4]
 6403 0518 1B68     		ldr	r3, [r3]
 6404 051a 1B68     		ldr	r3, [r3]
 6405 051c 03F00803 		and	r3, r3, #8
 6406              		.loc 1 1266 51 is_stmt 1 discriminator 31
 6407 0520 002B     		cmp	r3, #0
 6408 0522 14BF     		ite	ne
 6409 0524 0123     		movne	r3, #1
 6410 0526 0023     		moveq	r3, #0
 6411 0528 DBB2     		uxtb	r3, r3
 6412              		.loc 1 1266 51 is_stmt 0
 6413 052a 09E0     		b	.L231
 6414              	.L230:
 6415              		.loc 1 1266 10 is_stmt 1 discriminator 32
 6416 052c 7B68     		ldr	r3, [r7, #4]
 6417 052e 1B68     		ldr	r3, [r3]
 6418 0530 1B68     		ldr	r3, [r3]
 6419 0532 03F00403 		and	r3, r3, #4
 6420              		.loc 1 1266 51 discriminator 32
 6421 0536 002B     		cmp	r3, #0
 6422 0538 14BF     		ite	ne
 6423 053a 0123     		movne	r3, #1
ARM GAS  /var/folders/g1/j12m_ky910s3_sv7d4yrsdn00000gn/T//ccliMUVd.s 			page 136


 6424 053c 0023     		moveq	r3, #0
 6425 053e DBB2     		uxtb	r3, r3
 6426              	.L231:
 6427              		.loc 1 1266 9 discriminator 34
 6428 0540 002B     		cmp	r3, #0
 6429 0542 3ED0     		beq	.L228
1267:Drivers/STM32H7xx_HAL_Driver/Src/stm32h7xx_hal_dma.c ****       {
1268:Drivers/STM32H7xx_HAL_Driver/Src/stm32h7xx_hal_dma.c ****         /* Clear the half transfer complete flag */
1269:Drivers/STM32H7xx_HAL_Driver/Src/stm32h7xx_hal_dma.c ****         regs_dma->IFCR = DMA_FLAG_HTIF0_4 << (hdma->StreamIndex & 0x1FU);
 6430              		.loc 1 1269 51
 6431 0544 7B68     		ldr	r3, [r7, #4]
 6432 0546 DB6D     		ldr	r3, [r3, #92]
 6433              		.loc 1 1269 65
 6434 0548 03F01F03 		and	r3, r3, #31
 6435              		.loc 1 1269 43
 6436 054c 1022     		movs	r2, #16
 6437 054e 9A40     		lsls	r2, r2, r3
 6438              		.loc 1 1269 24
 6439 0550 3B6A     		ldr	r3, [r7, #32]
 6440 0552 9A60     		str	r2, [r3, #8]
1270:Drivers/STM32H7xx_HAL_Driver/Src/stm32h7xx_hal_dma.c **** 
1271:Drivers/STM32H7xx_HAL_Driver/Src/stm32h7xx_hal_dma.c ****         /* Multi_Buffering mode enabled */
1272:Drivers/STM32H7xx_HAL_Driver/Src/stm32h7xx_hal_dma.c ****         if(((((DMA_Stream_TypeDef   *)hdma->Instance)->CR) & (uint32_t)(DMA_SxCR_DBM)) != 0U)
 6441              		.loc 1 1272 43
 6442 0554 7B68     		ldr	r3, [r7, #4]
 6443 0556 1B68     		ldr	r3, [r3]
 6444              		.loc 1 1272 54
 6445 0558 1B68     		ldr	r3, [r3]
 6446              		.loc 1 1272 60
 6447 055a 03F48023 		and	r3, r3, #262144
 6448              		.loc 1 1272 11
 6449 055e 002B     		cmp	r3, #0
 6450 0560 18D0     		beq	.L232
1273:Drivers/STM32H7xx_HAL_Driver/Src/stm32h7xx_hal_dma.c ****         {
1274:Drivers/STM32H7xx_HAL_Driver/Src/stm32h7xx_hal_dma.c ****           /* Current memory buffer used is Memory 0 */
1275:Drivers/STM32H7xx_HAL_Driver/Src/stm32h7xx_hal_dma.c ****           if((((DMA_Stream_TypeDef   *)hdma->Instance)->CR & DMA_SxCR_CT) == 0U)
 6451              		.loc 1 1275 44
 6452 0562 7B68     		ldr	r3, [r7, #4]
 6453 0564 1B68     		ldr	r3, [r3]
 6454              		.loc 1 1275 55
 6455 0566 1B68     		ldr	r3, [r3]
 6456              		.loc 1 1275 60
 6457 0568 03F40023 		and	r3, r3, #524288
 6458              		.loc 1 1275 13
 6459 056c 002B     		cmp	r3, #0
 6460 056e 08D1     		bne	.L233
1276:Drivers/STM32H7xx_HAL_Driver/Src/stm32h7xx_hal_dma.c ****           {
1277:Drivers/STM32H7xx_HAL_Driver/Src/stm32h7xx_hal_dma.c ****             if(hdma->XferHalfCpltCallback != NULL)
 6461              		.loc 1 1277 20
 6462 0570 7B68     		ldr	r3, [r7, #4]
 6463 0572 1B6C     		ldr	r3, [r3, #64]
 6464              		.loc 1 1277 15
 6465 0574 002B     		cmp	r3, #0
 6466 0576 24D0     		beq	.L228
1278:Drivers/STM32H7xx_HAL_Driver/Src/stm32h7xx_hal_dma.c ****             {
1279:Drivers/STM32H7xx_HAL_Driver/Src/stm32h7xx_hal_dma.c ****               /* Half transfer callback */
1280:Drivers/STM32H7xx_HAL_Driver/Src/stm32h7xx_hal_dma.c ****               hdma->XferHalfCpltCallback(hdma);
ARM GAS  /var/folders/g1/j12m_ky910s3_sv7d4yrsdn00000gn/T//ccliMUVd.s 			page 137


 6467              		.loc 1 1280 19
 6468 0578 7B68     		ldr	r3, [r7, #4]
 6469 057a 1B6C     		ldr	r3, [r3, #64]
 6470              		.loc 1 1280 15
 6471 057c 7868     		ldr	r0, [r7, #4]
 6472 057e 9847     		blx	r3
 6473              	.LVL1:
 6474 0580 1FE0     		b	.L228
 6475              	.L233:
1281:Drivers/STM32H7xx_HAL_Driver/Src/stm32h7xx_hal_dma.c ****             }
1282:Drivers/STM32H7xx_HAL_Driver/Src/stm32h7xx_hal_dma.c ****           }
1283:Drivers/STM32H7xx_HAL_Driver/Src/stm32h7xx_hal_dma.c ****           /* Current memory buffer used is Memory 1 */
1284:Drivers/STM32H7xx_HAL_Driver/Src/stm32h7xx_hal_dma.c ****           else
1285:Drivers/STM32H7xx_HAL_Driver/Src/stm32h7xx_hal_dma.c ****           {
1286:Drivers/STM32H7xx_HAL_Driver/Src/stm32h7xx_hal_dma.c ****             if(hdma->XferM1HalfCpltCallback != NULL)
 6476              		.loc 1 1286 20
 6477 0582 7B68     		ldr	r3, [r7, #4]
 6478 0584 9B6C     		ldr	r3, [r3, #72]
 6479              		.loc 1 1286 15
 6480 0586 002B     		cmp	r3, #0
 6481 0588 1BD0     		beq	.L228
1287:Drivers/STM32H7xx_HAL_Driver/Src/stm32h7xx_hal_dma.c ****             {
1288:Drivers/STM32H7xx_HAL_Driver/Src/stm32h7xx_hal_dma.c ****               /* Half transfer callback */
1289:Drivers/STM32H7xx_HAL_Driver/Src/stm32h7xx_hal_dma.c ****               hdma->XferM1HalfCpltCallback(hdma);
 6482              		.loc 1 1289 19
 6483 058a 7B68     		ldr	r3, [r7, #4]
 6484 058c 9B6C     		ldr	r3, [r3, #72]
 6485              		.loc 1 1289 15
 6486 058e 7868     		ldr	r0, [r7, #4]
 6487 0590 9847     		blx	r3
 6488              	.LVL2:
 6489 0592 16E0     		b	.L228
 6490              	.L232:
1290:Drivers/STM32H7xx_HAL_Driver/Src/stm32h7xx_hal_dma.c ****             }
1291:Drivers/STM32H7xx_HAL_Driver/Src/stm32h7xx_hal_dma.c ****           }
1292:Drivers/STM32H7xx_HAL_Driver/Src/stm32h7xx_hal_dma.c ****         }
1293:Drivers/STM32H7xx_HAL_Driver/Src/stm32h7xx_hal_dma.c ****         else
1294:Drivers/STM32H7xx_HAL_Driver/Src/stm32h7xx_hal_dma.c ****         {
1295:Drivers/STM32H7xx_HAL_Driver/Src/stm32h7xx_hal_dma.c ****           /* Disable the half transfer interrupt if the DMA mode is not CIRCULAR */
1296:Drivers/STM32H7xx_HAL_Driver/Src/stm32h7xx_hal_dma.c ****           if((((DMA_Stream_TypeDef   *)hdma->Instance)->CR & DMA_SxCR_CIRC) == 0U)
 6491              		.loc 1 1296 44
 6492 0594 7B68     		ldr	r3, [r7, #4]
 6493 0596 1B68     		ldr	r3, [r3]
 6494              		.loc 1 1296 55
 6495 0598 1B68     		ldr	r3, [r3]
 6496              		.loc 1 1296 60
 6497 059a 03F48073 		and	r3, r3, #256
 6498              		.loc 1 1296 13
 6499 059e 002B     		cmp	r3, #0
 6500 05a0 07D1     		bne	.L234
1297:Drivers/STM32H7xx_HAL_Driver/Src/stm32h7xx_hal_dma.c ****           {
1298:Drivers/STM32H7xx_HAL_Driver/Src/stm32h7xx_hal_dma.c ****             /* Disable the half transfer interrupt */
1299:Drivers/STM32H7xx_HAL_Driver/Src/stm32h7xx_hal_dma.c ****             ((DMA_Stream_TypeDef   *)hdma->Instance)->CR  &= ~(DMA_IT_HT);
 6501              		.loc 1 1299 42
 6502 05a2 7B68     		ldr	r3, [r7, #4]
 6503 05a4 1B68     		ldr	r3, [r3]
 6504              		.loc 1 1299 53
ARM GAS  /var/folders/g1/j12m_ky910s3_sv7d4yrsdn00000gn/T//ccliMUVd.s 			page 138


 6505 05a6 1A68     		ldr	r2, [r3]
 6506              		.loc 1 1299 42
 6507 05a8 7B68     		ldr	r3, [r7, #4]
 6508 05aa 1B68     		ldr	r3, [r3]
 6509              		.loc 1 1299 59
 6510 05ac 22F00802 		bic	r2, r2, #8
 6511 05b0 1A60     		str	r2, [r3]
 6512              	.L234:
1300:Drivers/STM32H7xx_HAL_Driver/Src/stm32h7xx_hal_dma.c ****           }
1301:Drivers/STM32H7xx_HAL_Driver/Src/stm32h7xx_hal_dma.c **** 
1302:Drivers/STM32H7xx_HAL_Driver/Src/stm32h7xx_hal_dma.c ****           if(hdma->XferHalfCpltCallback != NULL)
 6513              		.loc 1 1302 18
 6514 05b2 7B68     		ldr	r3, [r7, #4]
 6515 05b4 1B6C     		ldr	r3, [r3, #64]
 6516              		.loc 1 1302 13
 6517 05b6 002B     		cmp	r3, #0
 6518 05b8 03D0     		beq	.L228
1303:Drivers/STM32H7xx_HAL_Driver/Src/stm32h7xx_hal_dma.c ****           {
1304:Drivers/STM32H7xx_HAL_Driver/Src/stm32h7xx_hal_dma.c ****             /* Half transfer callback */
1305:Drivers/STM32H7xx_HAL_Driver/Src/stm32h7xx_hal_dma.c ****             hdma->XferHalfCpltCallback(hdma);
 6519              		.loc 1 1305 17
 6520 05ba 7B68     		ldr	r3, [r7, #4]
 6521 05bc 1B6C     		ldr	r3, [r3, #64]
 6522              		.loc 1 1305 13
 6523 05be 7868     		ldr	r0, [r7, #4]
 6524 05c0 9847     		blx	r3
 6525              	.LVL3:
 6526              	.L228:
1306:Drivers/STM32H7xx_HAL_Driver/Src/stm32h7xx_hal_dma.c ****           }
1307:Drivers/STM32H7xx_HAL_Driver/Src/stm32h7xx_hal_dma.c ****         }
1308:Drivers/STM32H7xx_HAL_Driver/Src/stm32h7xx_hal_dma.c ****       }
1309:Drivers/STM32H7xx_HAL_Driver/Src/stm32h7xx_hal_dma.c ****     }
1310:Drivers/STM32H7xx_HAL_Driver/Src/stm32h7xx_hal_dma.c ****     /* Transfer Complete Interrupt management ***********************************/
1311:Drivers/STM32H7xx_HAL_Driver/Src/stm32h7xx_hal_dma.c ****     if ((tmpisr_dma & (DMA_FLAG_TCIF0_4 << (hdma->StreamIndex & 0x1FU))) != 0U)
 6527              		.loc 1 1311 49
 6528 05c2 7B68     		ldr	r3, [r7, #4]
 6529 05c4 DB6D     		ldr	r3, [r3, #92]
 6530              		.loc 1 1311 63
 6531 05c6 03F01F03 		and	r3, r3, #31
 6532              		.loc 1 1311 41
 6533 05ca 2022     		movs	r2, #32
 6534 05cc 9A40     		lsls	r2, r2, r3
 6535              		.loc 1 1311 21
 6536 05ce BB69     		ldr	r3, [r7, #24]
 6537 05d0 1340     		ands	r3, r3, r2
 6538              		.loc 1 1311 8
 6539 05d2 002B     		cmp	r3, #0
 6540 05d4 00F01081 		beq	.L235
1312:Drivers/STM32H7xx_HAL_Driver/Src/stm32h7xx_hal_dma.c ****     {
1313:Drivers/STM32H7xx_HAL_Driver/Src/stm32h7xx_hal_dma.c ****       if(__HAL_DMA_GET_IT_SOURCE(hdma, DMA_IT_TC) != 0U)
 6541              		.loc 1 1313 10
 6542 05d8 7B68     		ldr	r3, [r7, #4]
 6543 05da 1B68     		ldr	r3, [r3]
 6544              		.loc 1 1313 51
 6545 05dc 2C4A     		ldr	r2, .L286
 6546 05de 9342     		cmp	r3, r2
 6547 05e0 4AD0     		beq	.L236
ARM GAS  /var/folders/g1/j12m_ky910s3_sv7d4yrsdn00000gn/T//ccliMUVd.s 			page 139


 6548              		.loc 1 1313 10 discriminator 2
 6549 05e2 7B68     		ldr	r3, [r7, #4]
 6550 05e4 1B68     		ldr	r3, [r3]
 6551 05e6 2B4A     		ldr	r2, .L286+4
 6552 05e8 9342     		cmp	r3, r2
 6553 05ea 45D0     		beq	.L236
 6554              		.loc 1 1313 10 is_stmt 0 discriminator 4
 6555 05ec 7B68     		ldr	r3, [r7, #4]
 6556 05ee 1B68     		ldr	r3, [r3]
 6557 05f0 294A     		ldr	r2, .L286+8
 6558 05f2 9342     		cmp	r3, r2
 6559 05f4 40D0     		beq	.L236
 6560              		.loc 1 1313 10 discriminator 6
 6561 05f6 7B68     		ldr	r3, [r7, #4]
 6562 05f8 1B68     		ldr	r3, [r3]
 6563 05fa 284A     		ldr	r2, .L286+12
 6564 05fc 9342     		cmp	r3, r2
 6565 05fe 3BD0     		beq	.L236
 6566              		.loc 1 1313 10 discriminator 8
 6567 0600 7B68     		ldr	r3, [r7, #4]
 6568 0602 1B68     		ldr	r3, [r3]
 6569 0604 264A     		ldr	r2, .L286+16
 6570 0606 9342     		cmp	r3, r2
 6571 0608 36D0     		beq	.L236
 6572              		.loc 1 1313 10 discriminator 10
 6573 060a 7B68     		ldr	r3, [r7, #4]
 6574 060c 1B68     		ldr	r3, [r3]
 6575 060e 254A     		ldr	r2, .L286+20
 6576 0610 9342     		cmp	r3, r2
 6577 0612 31D0     		beq	.L236
 6578              		.loc 1 1313 10 discriminator 12
 6579 0614 7B68     		ldr	r3, [r7, #4]
 6580 0616 1B68     		ldr	r3, [r3]
 6581 0618 234A     		ldr	r2, .L286+24
 6582 061a 9342     		cmp	r3, r2
 6583 061c 2CD0     		beq	.L236
 6584              		.loc 1 1313 10 discriminator 14
 6585 061e 7B68     		ldr	r3, [r7, #4]
 6586 0620 1B68     		ldr	r3, [r3]
 6587 0622 224A     		ldr	r2, .L286+28
 6588 0624 9342     		cmp	r3, r2
 6589 0626 27D0     		beq	.L236
 6590              		.loc 1 1313 10 discriminator 16
 6591 0628 7B68     		ldr	r3, [r7, #4]
 6592 062a 1B68     		ldr	r3, [r3]
 6593 062c 204A     		ldr	r2, .L286+32
 6594 062e 9342     		cmp	r3, r2
 6595 0630 22D0     		beq	.L236
 6596              		.loc 1 1313 10 discriminator 18
 6597 0632 7B68     		ldr	r3, [r7, #4]
 6598 0634 1B68     		ldr	r3, [r3]
 6599 0636 1F4A     		ldr	r2, .L286+36
 6600 0638 9342     		cmp	r3, r2
 6601 063a 1DD0     		beq	.L236
 6602              		.loc 1 1313 10 discriminator 20
 6603 063c 7B68     		ldr	r3, [r7, #4]
 6604 063e 1B68     		ldr	r3, [r3]
ARM GAS  /var/folders/g1/j12m_ky910s3_sv7d4yrsdn00000gn/T//ccliMUVd.s 			page 140


 6605 0640 1D4A     		ldr	r2, .L286+40
 6606 0642 9342     		cmp	r3, r2
 6607 0644 18D0     		beq	.L236
 6608              		.loc 1 1313 10 discriminator 22
 6609 0646 7B68     		ldr	r3, [r7, #4]
 6610 0648 1B68     		ldr	r3, [r3]
 6611 064a 1C4A     		ldr	r2, .L286+44
 6612 064c 9342     		cmp	r3, r2
 6613 064e 13D0     		beq	.L236
 6614              		.loc 1 1313 10 discriminator 24
 6615 0650 7B68     		ldr	r3, [r7, #4]
 6616 0652 1B68     		ldr	r3, [r3]
 6617 0654 1A4A     		ldr	r2, .L286+48
 6618 0656 9342     		cmp	r3, r2
 6619 0658 0ED0     		beq	.L236
 6620              		.loc 1 1313 10 discriminator 26
 6621 065a 7B68     		ldr	r3, [r7, #4]
 6622 065c 1B68     		ldr	r3, [r3]
 6623 065e 194A     		ldr	r2, .L286+52
 6624 0660 9342     		cmp	r3, r2
 6625 0662 09D0     		beq	.L236
 6626              		.loc 1 1313 10 discriminator 28
 6627 0664 7B68     		ldr	r3, [r7, #4]
 6628 0666 1B68     		ldr	r3, [r3]
 6629 0668 174A     		ldr	r2, .L286+56
 6630 066a 9342     		cmp	r3, r2
 6631 066c 04D0     		beq	.L236
 6632              		.loc 1 1313 10 discriminator 30
 6633 066e 7B68     		ldr	r3, [r7, #4]
 6634 0670 1B68     		ldr	r3, [r3]
 6635 0672 164A     		ldr	r2, .L286+60
 6636 0674 9342     		cmp	r3, r2
 6637 0676 2BD1     		bne	.L237
 6638              	.L236:
 6639              		.loc 1 1313 10 discriminator 31
 6640 0678 7B68     		ldr	r3, [r7, #4]
 6641 067a 1B68     		ldr	r3, [r3]
 6642 067c 1B68     		ldr	r3, [r3]
 6643 067e 03F01003 		and	r3, r3, #16
 6644              		.loc 1 1313 51 is_stmt 1 discriminator 31
 6645 0682 002B     		cmp	r3, #0
 6646 0684 14BF     		ite	ne
 6647 0686 0123     		movne	r3, #1
 6648 0688 0023     		moveq	r3, #0
 6649 068a DBB2     		uxtb	r3, r3
 6650              		.loc 1 1313 51 is_stmt 0
 6651 068c 2AE0     		b	.L238
 6652              	.L287:
 6653 068e 00BF     		.align	2
 6654              	.L286:
 6655 0690 10000240 		.word	1073872912
 6656 0694 28000240 		.word	1073872936
 6657 0698 40000240 		.word	1073872960
 6658 069c 58000240 		.word	1073872984
 6659 06a0 70000240 		.word	1073873008
 6660 06a4 88000240 		.word	1073873032
 6661 06a8 A0000240 		.word	1073873056
ARM GAS  /var/folders/g1/j12m_ky910s3_sv7d4yrsdn00000gn/T//ccliMUVd.s 			page 141


 6662 06ac B8000240 		.word	1073873080
 6663 06b0 10040240 		.word	1073873936
 6664 06b4 28040240 		.word	1073873960
 6665 06b8 40040240 		.word	1073873984
 6666 06bc 58040240 		.word	1073874008
 6667 06c0 70040240 		.word	1073874032
 6668 06c4 88040240 		.word	1073874056
 6669 06c8 A0040240 		.word	1073874080
 6670 06cc B8040240 		.word	1073874104
 6671              	.L237:
 6672              		.loc 1 1313 10 is_stmt 1 discriminator 32
 6673 06d0 7B68     		ldr	r3, [r7, #4]
 6674 06d2 1B68     		ldr	r3, [r3]
 6675 06d4 1B68     		ldr	r3, [r3]
 6676 06d6 03F00203 		and	r3, r3, #2
 6677              		.loc 1 1313 51 discriminator 32
 6678 06da 002B     		cmp	r3, #0
 6679 06dc 14BF     		ite	ne
 6680 06de 0123     		movne	r3, #1
 6681 06e0 0023     		moveq	r3, #0
 6682 06e2 DBB2     		uxtb	r3, r3
 6683              	.L238:
 6684              		.loc 1 1313 9 discriminator 34
 6685 06e4 002B     		cmp	r3, #0
 6686 06e6 00F08780 		beq	.L235
1314:Drivers/STM32H7xx_HAL_Driver/Src/stm32h7xx_hal_dma.c ****       {
1315:Drivers/STM32H7xx_HAL_Driver/Src/stm32h7xx_hal_dma.c ****         /* Clear the transfer complete flag */
1316:Drivers/STM32H7xx_HAL_Driver/Src/stm32h7xx_hal_dma.c ****         regs_dma->IFCR = DMA_FLAG_TCIF0_4 << (hdma->StreamIndex & 0x1FU);
 6687              		.loc 1 1316 51
 6688 06ea 7B68     		ldr	r3, [r7, #4]
 6689 06ec DB6D     		ldr	r3, [r3, #92]
 6690              		.loc 1 1316 65
 6691 06ee 03F01F03 		and	r3, r3, #31
 6692              		.loc 1 1316 43
 6693 06f2 2022     		movs	r2, #32
 6694 06f4 9A40     		lsls	r2, r2, r3
 6695              		.loc 1 1316 24
 6696 06f6 3B6A     		ldr	r3, [r7, #32]
 6697 06f8 9A60     		str	r2, [r3, #8]
1317:Drivers/STM32H7xx_HAL_Driver/Src/stm32h7xx_hal_dma.c **** 
1318:Drivers/STM32H7xx_HAL_Driver/Src/stm32h7xx_hal_dma.c ****         if(HAL_DMA_STATE_ABORT == hdma->State)
 6698              		.loc 1 1318 39
 6699 06fa 7B68     		ldr	r3, [r7, #4]
 6700 06fc 93F83530 		ldrb	r3, [r3, #53]
 6701 0700 DBB2     		uxtb	r3, r3
 6702              		.loc 1 1318 11
 6703 0702 042B     		cmp	r3, #4
 6704 0704 39D1     		bne	.L239
1319:Drivers/STM32H7xx_HAL_Driver/Src/stm32h7xx_hal_dma.c ****         {
1320:Drivers/STM32H7xx_HAL_Driver/Src/stm32h7xx_hal_dma.c ****           /* Disable all the transfer interrupts */
1321:Drivers/STM32H7xx_HAL_Driver/Src/stm32h7xx_hal_dma.c ****           ((DMA_Stream_TypeDef   *)hdma->Instance)->CR  &= ~(DMA_IT_TC | DMA_IT_TE | DMA_IT_DME);
 6705              		.loc 1 1321 40
 6706 0706 7B68     		ldr	r3, [r7, #4]
 6707 0708 1B68     		ldr	r3, [r3]
 6708              		.loc 1 1321 51
 6709 070a 1A68     		ldr	r2, [r3]
 6710              		.loc 1 1321 40
ARM GAS  /var/folders/g1/j12m_ky910s3_sv7d4yrsdn00000gn/T//ccliMUVd.s 			page 142


 6711 070c 7B68     		ldr	r3, [r7, #4]
 6712 070e 1B68     		ldr	r3, [r3]
 6713              		.loc 1 1321 57
 6714 0710 22F01602 		bic	r2, r2, #22
 6715 0714 1A60     		str	r2, [r3]
1322:Drivers/STM32H7xx_HAL_Driver/Src/stm32h7xx_hal_dma.c ****           ((DMA_Stream_TypeDef   *)hdma->Instance)->FCR &= ~(DMA_IT_FE);
 6716              		.loc 1 1322 40
 6717 0716 7B68     		ldr	r3, [r7, #4]
 6718 0718 1B68     		ldr	r3, [r3]
 6719              		.loc 1 1322 51
 6720 071a 5A69     		ldr	r2, [r3, #20]
 6721              		.loc 1 1322 40
 6722 071c 7B68     		ldr	r3, [r7, #4]
 6723 071e 1B68     		ldr	r3, [r3]
 6724              		.loc 1 1322 57
 6725 0720 22F08002 		bic	r2, r2, #128
 6726 0724 5A61     		str	r2, [r3, #20]
1323:Drivers/STM32H7xx_HAL_Driver/Src/stm32h7xx_hal_dma.c **** 
1324:Drivers/STM32H7xx_HAL_Driver/Src/stm32h7xx_hal_dma.c ****           if((hdma->XferHalfCpltCallback != NULL) || (hdma->XferM1HalfCpltCallback != NULL))
 6727              		.loc 1 1324 19
 6728 0726 7B68     		ldr	r3, [r7, #4]
 6729 0728 1B6C     		ldr	r3, [r3, #64]
 6730              		.loc 1 1324 13
 6731 072a 002B     		cmp	r3, #0
 6732 072c 03D1     		bne	.L240
 6733              		.loc 1 1324 59 discriminator 1
 6734 072e 7B68     		ldr	r3, [r7, #4]
 6735 0730 9B6C     		ldr	r3, [r3, #72]
 6736              		.loc 1 1324 51 discriminator 1
 6737 0732 002B     		cmp	r3, #0
 6738 0734 07D0     		beq	.L241
 6739              	.L240:
1325:Drivers/STM32H7xx_HAL_Driver/Src/stm32h7xx_hal_dma.c ****           {
1326:Drivers/STM32H7xx_HAL_Driver/Src/stm32h7xx_hal_dma.c ****             ((DMA_Stream_TypeDef   *)hdma->Instance)->CR  &= ~(DMA_IT_HT);
 6740              		.loc 1 1326 42
 6741 0736 7B68     		ldr	r3, [r7, #4]
 6742 0738 1B68     		ldr	r3, [r3]
 6743              		.loc 1 1326 53
 6744 073a 1A68     		ldr	r2, [r3]
 6745              		.loc 1 1326 42
 6746 073c 7B68     		ldr	r3, [r7, #4]
 6747 073e 1B68     		ldr	r3, [r3]
 6748              		.loc 1 1326 59
 6749 0740 22F00802 		bic	r2, r2, #8
 6750 0744 1A60     		str	r2, [r3]
 6751              	.L241:
1327:Drivers/STM32H7xx_HAL_Driver/Src/stm32h7xx_hal_dma.c ****           }
1328:Drivers/STM32H7xx_HAL_Driver/Src/stm32h7xx_hal_dma.c **** 
1329:Drivers/STM32H7xx_HAL_Driver/Src/stm32h7xx_hal_dma.c ****           /* Clear all interrupt flags at correct offset within the register */
1330:Drivers/STM32H7xx_HAL_Driver/Src/stm32h7xx_hal_dma.c ****           regs_dma->IFCR = 0x3FUL << (hdma->StreamIndex & 0x1FU);
 6752              		.loc 1 1330 43
 6753 0746 7B68     		ldr	r3, [r7, #4]
 6754 0748 DB6D     		ldr	r3, [r3, #92]
 6755              		.loc 1 1330 57
 6756 074a 03F01F03 		and	r3, r3, #31
 6757              		.loc 1 1330 35
 6758 074e 3F22     		movs	r2, #63
ARM GAS  /var/folders/g1/j12m_ky910s3_sv7d4yrsdn00000gn/T//ccliMUVd.s 			page 143


 6759 0750 9A40     		lsls	r2, r2, r3
 6760              		.loc 1 1330 26
 6761 0752 3B6A     		ldr	r3, [r7, #32]
 6762 0754 9A60     		str	r2, [r3, #8]
1331:Drivers/STM32H7xx_HAL_Driver/Src/stm32h7xx_hal_dma.c **** 
1332:Drivers/STM32H7xx_HAL_Driver/Src/stm32h7xx_hal_dma.c ****           /* Change the DMA state */
1333:Drivers/STM32H7xx_HAL_Driver/Src/stm32h7xx_hal_dma.c ****           hdma->State = HAL_DMA_STATE_READY;
 6763              		.loc 1 1333 23
 6764 0756 7B68     		ldr	r3, [r7, #4]
 6765 0758 0122     		movs	r2, #1
 6766 075a 83F83520 		strb	r2, [r3, #53]
1334:Drivers/STM32H7xx_HAL_Driver/Src/stm32h7xx_hal_dma.c **** 
1335:Drivers/STM32H7xx_HAL_Driver/Src/stm32h7xx_hal_dma.c ****           /* Process Unlocked */
1336:Drivers/STM32H7xx_HAL_Driver/Src/stm32h7xx_hal_dma.c ****           __HAL_UNLOCK(hdma);
 6767              		.loc 1 1336 11
 6768 075e 7B68     		ldr	r3, [r7, #4]
 6769 0760 0022     		movs	r2, #0
 6770 0762 83F83420 		strb	r2, [r3, #52]
1337:Drivers/STM32H7xx_HAL_Driver/Src/stm32h7xx_hal_dma.c **** 
1338:Drivers/STM32H7xx_HAL_Driver/Src/stm32h7xx_hal_dma.c ****           if(hdma->XferAbortCallback != NULL)
 6771              		.loc 1 1338 18
 6772 0766 7B68     		ldr	r3, [r7, #4]
 6773 0768 1B6D     		ldr	r3, [r3, #80]
 6774              		.loc 1 1338 13
 6775 076a 002B     		cmp	r3, #0
 6776 076c 00F04A83 		beq	.L278
1339:Drivers/STM32H7xx_HAL_Driver/Src/stm32h7xx_hal_dma.c ****           {
1340:Drivers/STM32H7xx_HAL_Driver/Src/stm32h7xx_hal_dma.c ****             hdma->XferAbortCallback(hdma);
 6777              		.loc 1 1340 17
 6778 0770 7B68     		ldr	r3, [r7, #4]
 6779 0772 1B6D     		ldr	r3, [r3, #80]
 6780              		.loc 1 1340 13
 6781 0774 7868     		ldr	r0, [r7, #4]
 6782 0776 9847     		blx	r3
 6783              	.LVL4:
1341:Drivers/STM32H7xx_HAL_Driver/Src/stm32h7xx_hal_dma.c ****           }
1342:Drivers/STM32H7xx_HAL_Driver/Src/stm32h7xx_hal_dma.c ****           return;
 6784              		.loc 1 1342 11
 6785 0778 44E3     		b	.L278
 6786              	.L239:
1343:Drivers/STM32H7xx_HAL_Driver/Src/stm32h7xx_hal_dma.c ****         }
1344:Drivers/STM32H7xx_HAL_Driver/Src/stm32h7xx_hal_dma.c **** 
1345:Drivers/STM32H7xx_HAL_Driver/Src/stm32h7xx_hal_dma.c ****         if(((((DMA_Stream_TypeDef   *)hdma->Instance)->CR) & (uint32_t)(DMA_SxCR_DBM)) != 0U)
 6787              		.loc 1 1345 43
 6788 077a 7B68     		ldr	r3, [r7, #4]
 6789 077c 1B68     		ldr	r3, [r3]
 6790              		.loc 1 1345 54
 6791 077e 1B68     		ldr	r3, [r3]
 6792              		.loc 1 1345 60
 6793 0780 03F48023 		and	r3, r3, #262144
 6794              		.loc 1 1345 11
 6795 0784 002B     		cmp	r3, #0
 6796 0786 18D0     		beq	.L244
1346:Drivers/STM32H7xx_HAL_Driver/Src/stm32h7xx_hal_dma.c ****         {
1347:Drivers/STM32H7xx_HAL_Driver/Src/stm32h7xx_hal_dma.c ****           /* Current memory buffer used is Memory 0 */
1348:Drivers/STM32H7xx_HAL_Driver/Src/stm32h7xx_hal_dma.c ****           if((((DMA_Stream_TypeDef   *)hdma->Instance)->CR & DMA_SxCR_CT) == 0U)
 6797              		.loc 1 1348 44
ARM GAS  /var/folders/g1/j12m_ky910s3_sv7d4yrsdn00000gn/T//ccliMUVd.s 			page 144


 6798 0788 7B68     		ldr	r3, [r7, #4]
 6799 078a 1B68     		ldr	r3, [r3]
 6800              		.loc 1 1348 55
 6801 078c 1B68     		ldr	r3, [r3]
 6802              		.loc 1 1348 60
 6803 078e 03F40023 		and	r3, r3, #524288
 6804              		.loc 1 1348 13
 6805 0792 002B     		cmp	r3, #0
 6806 0794 08D1     		bne	.L245
1349:Drivers/STM32H7xx_HAL_Driver/Src/stm32h7xx_hal_dma.c ****           {
1350:Drivers/STM32H7xx_HAL_Driver/Src/stm32h7xx_hal_dma.c ****             if(hdma->XferM1CpltCallback != NULL)
 6807              		.loc 1 1350 20
 6808 0796 7B68     		ldr	r3, [r7, #4]
 6809 0798 5B6C     		ldr	r3, [r3, #68]
 6810              		.loc 1 1350 15
 6811 079a 002B     		cmp	r3, #0
 6812 079c 2CD0     		beq	.L235
1351:Drivers/STM32H7xx_HAL_Driver/Src/stm32h7xx_hal_dma.c ****             {
1352:Drivers/STM32H7xx_HAL_Driver/Src/stm32h7xx_hal_dma.c ****               /* Transfer complete Callback for memory1 */
1353:Drivers/STM32H7xx_HAL_Driver/Src/stm32h7xx_hal_dma.c ****               hdma->XferM1CpltCallback(hdma);
 6813              		.loc 1 1353 19
 6814 079e 7B68     		ldr	r3, [r7, #4]
 6815 07a0 5B6C     		ldr	r3, [r3, #68]
 6816              		.loc 1 1353 15
 6817 07a2 7868     		ldr	r0, [r7, #4]
 6818 07a4 9847     		blx	r3
 6819              	.LVL5:
 6820 07a6 27E0     		b	.L235
 6821              	.L245:
1354:Drivers/STM32H7xx_HAL_Driver/Src/stm32h7xx_hal_dma.c ****             }
1355:Drivers/STM32H7xx_HAL_Driver/Src/stm32h7xx_hal_dma.c ****           }
1356:Drivers/STM32H7xx_HAL_Driver/Src/stm32h7xx_hal_dma.c ****           /* Current memory buffer used is Memory 1 */
1357:Drivers/STM32H7xx_HAL_Driver/Src/stm32h7xx_hal_dma.c ****           else
1358:Drivers/STM32H7xx_HAL_Driver/Src/stm32h7xx_hal_dma.c ****           {
1359:Drivers/STM32H7xx_HAL_Driver/Src/stm32h7xx_hal_dma.c ****             if(hdma->XferCpltCallback != NULL)
 6822              		.loc 1 1359 20
 6823 07a8 7B68     		ldr	r3, [r7, #4]
 6824 07aa DB6B     		ldr	r3, [r3, #60]
 6825              		.loc 1 1359 15
 6826 07ac 002B     		cmp	r3, #0
 6827 07ae 23D0     		beq	.L235
1360:Drivers/STM32H7xx_HAL_Driver/Src/stm32h7xx_hal_dma.c ****             {
1361:Drivers/STM32H7xx_HAL_Driver/Src/stm32h7xx_hal_dma.c ****               /* Transfer complete Callback for memory0 */
1362:Drivers/STM32H7xx_HAL_Driver/Src/stm32h7xx_hal_dma.c ****               hdma->XferCpltCallback(hdma);
 6828              		.loc 1 1362 19
 6829 07b0 7B68     		ldr	r3, [r7, #4]
 6830 07b2 DB6B     		ldr	r3, [r3, #60]
 6831              		.loc 1 1362 15
 6832 07b4 7868     		ldr	r0, [r7, #4]
 6833 07b6 9847     		blx	r3
 6834              	.LVL6:
 6835 07b8 1EE0     		b	.L235
 6836              	.L244:
1363:Drivers/STM32H7xx_HAL_Driver/Src/stm32h7xx_hal_dma.c ****             }
1364:Drivers/STM32H7xx_HAL_Driver/Src/stm32h7xx_hal_dma.c ****           }
1365:Drivers/STM32H7xx_HAL_Driver/Src/stm32h7xx_hal_dma.c ****         }
1366:Drivers/STM32H7xx_HAL_Driver/Src/stm32h7xx_hal_dma.c ****         /* Disable the transfer complete interrupt if the DMA mode is not CIRCULAR */
ARM GAS  /var/folders/g1/j12m_ky910s3_sv7d4yrsdn00000gn/T//ccliMUVd.s 			page 145


1367:Drivers/STM32H7xx_HAL_Driver/Src/stm32h7xx_hal_dma.c ****         else
1368:Drivers/STM32H7xx_HAL_Driver/Src/stm32h7xx_hal_dma.c ****         {
1369:Drivers/STM32H7xx_HAL_Driver/Src/stm32h7xx_hal_dma.c ****           if((((DMA_Stream_TypeDef   *)hdma->Instance)->CR & DMA_SxCR_CIRC) == 0U)
 6837              		.loc 1 1369 44
 6838 07ba 7B68     		ldr	r3, [r7, #4]
 6839 07bc 1B68     		ldr	r3, [r3]
 6840              		.loc 1 1369 55
 6841 07be 1B68     		ldr	r3, [r3]
 6842              		.loc 1 1369 60
 6843 07c0 03F48073 		and	r3, r3, #256
 6844              		.loc 1 1369 13
 6845 07c4 002B     		cmp	r3, #0
 6846 07c6 0FD1     		bne	.L246
1370:Drivers/STM32H7xx_HAL_Driver/Src/stm32h7xx_hal_dma.c ****           {
1371:Drivers/STM32H7xx_HAL_Driver/Src/stm32h7xx_hal_dma.c ****             /* Disable the transfer complete interrupt */
1372:Drivers/STM32H7xx_HAL_Driver/Src/stm32h7xx_hal_dma.c ****             ((DMA_Stream_TypeDef   *)hdma->Instance)->CR  &= ~(DMA_IT_TC);
 6847              		.loc 1 1372 42
 6848 07c8 7B68     		ldr	r3, [r7, #4]
 6849 07ca 1B68     		ldr	r3, [r3]
 6850              		.loc 1 1372 53
 6851 07cc 1A68     		ldr	r2, [r3]
 6852              		.loc 1 1372 42
 6853 07ce 7B68     		ldr	r3, [r7, #4]
 6854 07d0 1B68     		ldr	r3, [r3]
 6855              		.loc 1 1372 59
 6856 07d2 22F01002 		bic	r2, r2, #16
 6857 07d6 1A60     		str	r2, [r3]
1373:Drivers/STM32H7xx_HAL_Driver/Src/stm32h7xx_hal_dma.c **** 
1374:Drivers/STM32H7xx_HAL_Driver/Src/stm32h7xx_hal_dma.c ****             /* Change the DMA state */
1375:Drivers/STM32H7xx_HAL_Driver/Src/stm32h7xx_hal_dma.c ****             hdma->State = HAL_DMA_STATE_READY;
 6858              		.loc 1 1375 25
 6859 07d8 7B68     		ldr	r3, [r7, #4]
 6860 07da 0122     		movs	r2, #1
 6861 07dc 83F83520 		strb	r2, [r3, #53]
1376:Drivers/STM32H7xx_HAL_Driver/Src/stm32h7xx_hal_dma.c **** 
1377:Drivers/STM32H7xx_HAL_Driver/Src/stm32h7xx_hal_dma.c ****             /* Process Unlocked */
1378:Drivers/STM32H7xx_HAL_Driver/Src/stm32h7xx_hal_dma.c ****             __HAL_UNLOCK(hdma);
 6862              		.loc 1 1378 13
 6863 07e0 7B68     		ldr	r3, [r7, #4]
 6864 07e2 0022     		movs	r2, #0
 6865 07e4 83F83420 		strb	r2, [r3, #52]
 6866              	.L246:
1379:Drivers/STM32H7xx_HAL_Driver/Src/stm32h7xx_hal_dma.c ****           }
1380:Drivers/STM32H7xx_HAL_Driver/Src/stm32h7xx_hal_dma.c **** 
1381:Drivers/STM32H7xx_HAL_Driver/Src/stm32h7xx_hal_dma.c ****           if(hdma->XferCpltCallback != NULL)
 6867              		.loc 1 1381 18
 6868 07e8 7B68     		ldr	r3, [r7, #4]
 6869 07ea DB6B     		ldr	r3, [r3, #60]
 6870              		.loc 1 1381 13
 6871 07ec 002B     		cmp	r3, #0
 6872 07ee 03D0     		beq	.L235
1382:Drivers/STM32H7xx_HAL_Driver/Src/stm32h7xx_hal_dma.c ****           {
1383:Drivers/STM32H7xx_HAL_Driver/Src/stm32h7xx_hal_dma.c ****             /* Transfer complete callback */
1384:Drivers/STM32H7xx_HAL_Driver/Src/stm32h7xx_hal_dma.c ****             hdma->XferCpltCallback(hdma);
 6873              		.loc 1 1384 17
 6874 07f0 7B68     		ldr	r3, [r7, #4]
 6875 07f2 DB6B     		ldr	r3, [r3, #60]
ARM GAS  /var/folders/g1/j12m_ky910s3_sv7d4yrsdn00000gn/T//ccliMUVd.s 			page 146


 6876              		.loc 1 1384 13
 6877 07f4 7868     		ldr	r0, [r7, #4]
 6878 07f6 9847     		blx	r3
 6879              	.LVL7:
 6880              	.L235:
1385:Drivers/STM32H7xx_HAL_Driver/Src/stm32h7xx_hal_dma.c ****           }
1386:Drivers/STM32H7xx_HAL_Driver/Src/stm32h7xx_hal_dma.c ****         }
1387:Drivers/STM32H7xx_HAL_Driver/Src/stm32h7xx_hal_dma.c ****       }
1388:Drivers/STM32H7xx_HAL_Driver/Src/stm32h7xx_hal_dma.c ****     }
1389:Drivers/STM32H7xx_HAL_Driver/Src/stm32h7xx_hal_dma.c **** 
1390:Drivers/STM32H7xx_HAL_Driver/Src/stm32h7xx_hal_dma.c ****     /* manage error case */
1391:Drivers/STM32H7xx_HAL_Driver/Src/stm32h7xx_hal_dma.c ****     if(hdma->ErrorCode != HAL_DMA_ERROR_NONE)
 6881              		.loc 1 1391 12
 6882 07f8 7B68     		ldr	r3, [r7, #4]
 6883 07fa 5B6D     		ldr	r3, [r3, #84]
 6884              		.loc 1 1391 7
 6885 07fc 002B     		cmp	r3, #0
 6886 07fe 00F00683 		beq	.L211
1392:Drivers/STM32H7xx_HAL_Driver/Src/stm32h7xx_hal_dma.c ****     {
1393:Drivers/STM32H7xx_HAL_Driver/Src/stm32h7xx_hal_dma.c ****       if((hdma->ErrorCode & HAL_DMA_ERROR_TE) != 0U)
 6887              		.loc 1 1393 15
 6888 0802 7B68     		ldr	r3, [r7, #4]
 6889 0804 5B6D     		ldr	r3, [r3, #84]
 6890              		.loc 1 1393 27
 6891 0806 03F00103 		and	r3, r3, #1
 6892              		.loc 1 1393 9
 6893 080a 002B     		cmp	r3, #0
 6894 080c 00F08880 		beq	.L247
1394:Drivers/STM32H7xx_HAL_Driver/Src/stm32h7xx_hal_dma.c ****       {
1395:Drivers/STM32H7xx_HAL_Driver/Src/stm32h7xx_hal_dma.c ****         hdma->State = HAL_DMA_STATE_ABORT;
 6895              		.loc 1 1395 21
 6896 0810 7B68     		ldr	r3, [r7, #4]
 6897 0812 0422     		movs	r2, #4
 6898 0814 83F83520 		strb	r2, [r3, #53]
1396:Drivers/STM32H7xx_HAL_Driver/Src/stm32h7xx_hal_dma.c **** 
1397:Drivers/STM32H7xx_HAL_Driver/Src/stm32h7xx_hal_dma.c ****         /* Disable the stream */
1398:Drivers/STM32H7xx_HAL_Driver/Src/stm32h7xx_hal_dma.c ****         __HAL_DMA_DISABLE(hdma);
 6899              		.loc 1 1398 9
 6900 0818 7B68     		ldr	r3, [r7, #4]
 6901 081a 1B68     		ldr	r3, [r3]
 6902 081c 7A4A     		ldr	r2, .L288
 6903 081e 9342     		cmp	r3, r2
 6904 0820 4AD0     		beq	.L248
 6905              		.loc 1 1398 9 is_stmt 0 discriminator 2
 6906 0822 7B68     		ldr	r3, [r7, #4]
 6907 0824 1B68     		ldr	r3, [r3]
 6908 0826 794A     		ldr	r2, .L288+4
 6909 0828 9342     		cmp	r3, r2
 6910 082a 45D0     		beq	.L248
 6911              		.loc 1 1398 9 discriminator 4
 6912 082c 7B68     		ldr	r3, [r7, #4]
 6913 082e 1B68     		ldr	r3, [r3]
 6914 0830 774A     		ldr	r2, .L288+8
 6915 0832 9342     		cmp	r3, r2
 6916 0834 40D0     		beq	.L248
 6917              		.loc 1 1398 9 discriminator 6
 6918 0836 7B68     		ldr	r3, [r7, #4]
ARM GAS  /var/folders/g1/j12m_ky910s3_sv7d4yrsdn00000gn/T//ccliMUVd.s 			page 147


 6919 0838 1B68     		ldr	r3, [r3]
 6920 083a 764A     		ldr	r2, .L288+12
 6921 083c 9342     		cmp	r3, r2
 6922 083e 3BD0     		beq	.L248
 6923              		.loc 1 1398 9 discriminator 8
 6924 0840 7B68     		ldr	r3, [r7, #4]
 6925 0842 1B68     		ldr	r3, [r3]
 6926 0844 744A     		ldr	r2, .L288+16
 6927 0846 9342     		cmp	r3, r2
 6928 0848 36D0     		beq	.L248
 6929              		.loc 1 1398 9 discriminator 10
 6930 084a 7B68     		ldr	r3, [r7, #4]
 6931 084c 1B68     		ldr	r3, [r3]
 6932 084e 734A     		ldr	r2, .L288+20
 6933 0850 9342     		cmp	r3, r2
 6934 0852 31D0     		beq	.L248
 6935              		.loc 1 1398 9 discriminator 12
 6936 0854 7B68     		ldr	r3, [r7, #4]
 6937 0856 1B68     		ldr	r3, [r3]
 6938 0858 714A     		ldr	r2, .L288+24
 6939 085a 9342     		cmp	r3, r2
 6940 085c 2CD0     		beq	.L248
 6941              		.loc 1 1398 9 discriminator 14
 6942 085e 7B68     		ldr	r3, [r7, #4]
 6943 0860 1B68     		ldr	r3, [r3]
 6944 0862 704A     		ldr	r2, .L288+28
 6945 0864 9342     		cmp	r3, r2
 6946 0866 27D0     		beq	.L248
 6947              		.loc 1 1398 9 discriminator 16
 6948 0868 7B68     		ldr	r3, [r7, #4]
 6949 086a 1B68     		ldr	r3, [r3]
 6950 086c 6E4A     		ldr	r2, .L288+32
 6951 086e 9342     		cmp	r3, r2
 6952 0870 22D0     		beq	.L248
 6953              		.loc 1 1398 9 discriminator 18
 6954 0872 7B68     		ldr	r3, [r7, #4]
 6955 0874 1B68     		ldr	r3, [r3]
 6956 0876 6D4A     		ldr	r2, .L288+36
 6957 0878 9342     		cmp	r3, r2
 6958 087a 1DD0     		beq	.L248
 6959              		.loc 1 1398 9 discriminator 20
 6960 087c 7B68     		ldr	r3, [r7, #4]
 6961 087e 1B68     		ldr	r3, [r3]
 6962 0880 6B4A     		ldr	r2, .L288+40
 6963 0882 9342     		cmp	r3, r2
 6964 0884 18D0     		beq	.L248
 6965              		.loc 1 1398 9 discriminator 22
 6966 0886 7B68     		ldr	r3, [r7, #4]
 6967 0888 1B68     		ldr	r3, [r3]
 6968 088a 6A4A     		ldr	r2, .L288+44
 6969 088c 9342     		cmp	r3, r2
 6970 088e 13D0     		beq	.L248
 6971              		.loc 1 1398 9 discriminator 24
 6972 0890 7B68     		ldr	r3, [r7, #4]
 6973 0892 1B68     		ldr	r3, [r3]
 6974 0894 684A     		ldr	r2, .L288+48
 6975 0896 9342     		cmp	r3, r2
ARM GAS  /var/folders/g1/j12m_ky910s3_sv7d4yrsdn00000gn/T//ccliMUVd.s 			page 148


 6976 0898 0ED0     		beq	.L248
 6977              		.loc 1 1398 9 discriminator 26
 6978 089a 7B68     		ldr	r3, [r7, #4]
 6979 089c 1B68     		ldr	r3, [r3]
 6980 089e 674A     		ldr	r2, .L288+52
 6981 08a0 9342     		cmp	r3, r2
 6982 08a2 09D0     		beq	.L248
 6983              		.loc 1 1398 9 discriminator 28
 6984 08a4 7B68     		ldr	r3, [r7, #4]
 6985 08a6 1B68     		ldr	r3, [r3]
 6986 08a8 654A     		ldr	r2, .L288+56
 6987 08aa 9342     		cmp	r3, r2
 6988 08ac 04D0     		beq	.L248
 6989              		.loc 1 1398 9 discriminator 30
 6990 08ae 7B68     		ldr	r3, [r7, #4]
 6991 08b0 1B68     		ldr	r3, [r3]
 6992 08b2 644A     		ldr	r2, .L288+60
 6993 08b4 9342     		cmp	r3, r2
 6994 08b6 08D1     		bne	.L249
 6995              	.L248:
 6996              		.loc 1 1398 9 discriminator 31
 6997 08b8 7B68     		ldr	r3, [r7, #4]
 6998 08ba 1B68     		ldr	r3, [r3]
 6999 08bc 1A68     		ldr	r2, [r3]
 7000 08be 7B68     		ldr	r3, [r7, #4]
 7001 08c0 1B68     		ldr	r3, [r3]
 7002 08c2 22F00102 		bic	r2, r2, #1
 7003 08c6 1A60     		str	r2, [r3]
 7004              		.loc 1 1398 9
 7005 08c8 07E0     		b	.L253
 7006              	.L249:
 7007              		.loc 1 1398 9 discriminator 32
 7008 08ca 7B68     		ldr	r3, [r7, #4]
 7009 08cc 1B68     		ldr	r3, [r3]
 7010 08ce 1A68     		ldr	r2, [r3]
 7011 08d0 7B68     		ldr	r3, [r7, #4]
 7012 08d2 1B68     		ldr	r3, [r3]
 7013 08d4 22F00102 		bic	r2, r2, #1
 7014 08d8 1A60     		str	r2, [r3]
 7015              	.L253:
1399:Drivers/STM32H7xx_HAL_Driver/Src/stm32h7xx_hal_dma.c **** 
1400:Drivers/STM32H7xx_HAL_Driver/Src/stm32h7xx_hal_dma.c ****         do
1401:Drivers/STM32H7xx_HAL_Driver/Src/stm32h7xx_hal_dma.c ****         {
1402:Drivers/STM32H7xx_HAL_Driver/Src/stm32h7xx_hal_dma.c ****           if (++count > timeout)
 7016              		.loc 1 1402 15 is_stmt 1
 7017 08da FB68     		ldr	r3, [r7, #12]
 7018 08dc 0133     		adds	r3, r3, #1
 7019              		.loc 1 1402 14
 7020 08de FB60     		str	r3, [r7, #12]
 7021 08e0 7A6A     		ldr	r2, [r7, #36]
 7022 08e2 9A42     		cmp	r2, r3
 7023 08e4 07D3     		bcc	.L279
1403:Drivers/STM32H7xx_HAL_Driver/Src/stm32h7xx_hal_dma.c ****           {
1404:Drivers/STM32H7xx_HAL_Driver/Src/stm32h7xx_hal_dma.c ****             break;
1405:Drivers/STM32H7xx_HAL_Driver/Src/stm32h7xx_hal_dma.c ****           }
1406:Drivers/STM32H7xx_HAL_Driver/Src/stm32h7xx_hal_dma.c ****         }
1407:Drivers/STM32H7xx_HAL_Driver/Src/stm32h7xx_hal_dma.c ****         while((((DMA_Stream_TypeDef   *)hdma->Instance)->CR & DMA_SxCR_EN) != 0U);
ARM GAS  /var/folders/g1/j12m_ky910s3_sv7d4yrsdn00000gn/T//ccliMUVd.s 			page 149


 7024              		.loc 1 1407 45
 7025 08e6 7B68     		ldr	r3, [r7, #4]
 7026 08e8 1B68     		ldr	r3, [r3]
 7027              		.loc 1 1407 56
 7028 08ea 1B68     		ldr	r3, [r3]
 7029              		.loc 1 1407 61
 7030 08ec 03F00103 		and	r3, r3, #1
 7031              		.loc 1 1407 76
 7032 08f0 002B     		cmp	r3, #0
 7033 08f2 F2D1     		bne	.L253
 7034 08f4 00E0     		b	.L252
 7035              	.L279:
1404:Drivers/STM32H7xx_HAL_Driver/Src/stm32h7xx_hal_dma.c ****           }
 7036              		.loc 1 1404 13
 7037 08f6 00BF     		nop
 7038              	.L252:
1408:Drivers/STM32H7xx_HAL_Driver/Src/stm32h7xx_hal_dma.c **** 
1409:Drivers/STM32H7xx_HAL_Driver/Src/stm32h7xx_hal_dma.c ****         if((((DMA_Stream_TypeDef   *)hdma->Instance)->CR & DMA_SxCR_EN) != 0U)
 7039              		.loc 1 1409 42
 7040 08f8 7B68     		ldr	r3, [r7, #4]
 7041 08fa 1B68     		ldr	r3, [r3]
 7042              		.loc 1 1409 53
 7043 08fc 1B68     		ldr	r3, [r3]
 7044              		.loc 1 1409 58
 7045 08fe 03F00103 		and	r3, r3, #1
 7046              		.loc 1 1409 11
 7047 0902 002B     		cmp	r3, #0
 7048 0904 04D0     		beq	.L254
1410:Drivers/STM32H7xx_HAL_Driver/Src/stm32h7xx_hal_dma.c ****         {
1411:Drivers/STM32H7xx_HAL_Driver/Src/stm32h7xx_hal_dma.c ****           /* Change the DMA state to error if DMA disable fails */
1412:Drivers/STM32H7xx_HAL_Driver/Src/stm32h7xx_hal_dma.c ****           hdma->State = HAL_DMA_STATE_ERROR;
 7049              		.loc 1 1412 23
 7050 0906 7B68     		ldr	r3, [r7, #4]
 7051 0908 0322     		movs	r2, #3
 7052 090a 83F83520 		strb	r2, [r3, #53]
 7053 090e 03E0     		b	.L255
 7054              	.L254:
1413:Drivers/STM32H7xx_HAL_Driver/Src/stm32h7xx_hal_dma.c ****         }
1414:Drivers/STM32H7xx_HAL_Driver/Src/stm32h7xx_hal_dma.c ****         else
1415:Drivers/STM32H7xx_HAL_Driver/Src/stm32h7xx_hal_dma.c ****         {
1416:Drivers/STM32H7xx_HAL_Driver/Src/stm32h7xx_hal_dma.c ****           /* Change the DMA state to Ready if DMA disable success */
1417:Drivers/STM32H7xx_HAL_Driver/Src/stm32h7xx_hal_dma.c ****           hdma->State = HAL_DMA_STATE_READY;
 7055              		.loc 1 1417 23
 7056 0910 7B68     		ldr	r3, [r7, #4]
 7057 0912 0122     		movs	r2, #1
 7058 0914 83F83520 		strb	r2, [r3, #53]
 7059              	.L255:
1418:Drivers/STM32H7xx_HAL_Driver/Src/stm32h7xx_hal_dma.c ****         }
1419:Drivers/STM32H7xx_HAL_Driver/Src/stm32h7xx_hal_dma.c **** 
1420:Drivers/STM32H7xx_HAL_Driver/Src/stm32h7xx_hal_dma.c ****         /* Process Unlocked */
1421:Drivers/STM32H7xx_HAL_Driver/Src/stm32h7xx_hal_dma.c ****         __HAL_UNLOCK(hdma);
 7060              		.loc 1 1421 9
 7061 0918 7B68     		ldr	r3, [r7, #4]
 7062 091a 0022     		movs	r2, #0
 7063 091c 83F83420 		strb	r2, [r3, #52]
 7064              	.L247:
1422:Drivers/STM32H7xx_HAL_Driver/Src/stm32h7xx_hal_dma.c ****       }
ARM GAS  /var/folders/g1/j12m_ky910s3_sv7d4yrsdn00000gn/T//ccliMUVd.s 			page 150


1423:Drivers/STM32H7xx_HAL_Driver/Src/stm32h7xx_hal_dma.c **** 
1424:Drivers/STM32H7xx_HAL_Driver/Src/stm32h7xx_hal_dma.c ****       if(hdma->XferErrorCallback != NULL)
 7065              		.loc 1 1424 14
 7066 0920 7B68     		ldr	r3, [r7, #4]
 7067 0922 DB6C     		ldr	r3, [r3, #76]
 7068              		.loc 1 1424 9
 7069 0924 002B     		cmp	r3, #0
 7070 0926 00F07282 		beq	.L211
1425:Drivers/STM32H7xx_HAL_Driver/Src/stm32h7xx_hal_dma.c ****       {
1426:Drivers/STM32H7xx_HAL_Driver/Src/stm32h7xx_hal_dma.c ****         /* Transfer error callback */
1427:Drivers/STM32H7xx_HAL_Driver/Src/stm32h7xx_hal_dma.c ****         hdma->XferErrorCallback(hdma);
 7071              		.loc 1 1427 13
 7072 092a 7B68     		ldr	r3, [r7, #4]
 7073 092c DB6C     		ldr	r3, [r3, #76]
 7074              		.loc 1 1427 9
 7075 092e 7868     		ldr	r0, [r7, #4]
 7076 0930 9847     		blx	r3
 7077              	.LVL8:
 7078 0932 6CE2     		b	.L211
 7079              	.L215:
1428:Drivers/STM32H7xx_HAL_Driver/Src/stm32h7xx_hal_dma.c ****       }
1429:Drivers/STM32H7xx_HAL_Driver/Src/stm32h7xx_hal_dma.c ****     }
1430:Drivers/STM32H7xx_HAL_Driver/Src/stm32h7xx_hal_dma.c ****   }
1431:Drivers/STM32H7xx_HAL_Driver/Src/stm32h7xx_hal_dma.c ****   else if(IS_BDMA_CHANNEL_INSTANCE(hdma->Instance) != 0U)  /* BDMA instance(s) */
 7080              		.loc 1 1431 11
 7081 0934 7B68     		ldr	r3, [r7, #4]
 7082 0936 1B68     		ldr	r3, [r3]
 7083 0938 434A     		ldr	r2, .L288+64
 7084 093a 9342     		cmp	r3, r2
 7085 093c 22D0     		beq	.L256
 7086              		.loc 1 1431 11 is_stmt 0 discriminator 2
 7087 093e 7B68     		ldr	r3, [r7, #4]
 7088 0940 1B68     		ldr	r3, [r3]
 7089 0942 424A     		ldr	r2, .L288+68
 7090 0944 9342     		cmp	r3, r2
 7091 0946 1DD0     		beq	.L256
 7092              		.loc 1 1431 11 discriminator 4
 7093 0948 7B68     		ldr	r3, [r7, #4]
 7094 094a 1B68     		ldr	r3, [r3]
 7095 094c 404A     		ldr	r2, .L288+72
 7096 094e 9342     		cmp	r3, r2
 7097 0950 18D0     		beq	.L256
 7098              		.loc 1 1431 11 discriminator 6
 7099 0952 7B68     		ldr	r3, [r7, #4]
 7100 0954 1B68     		ldr	r3, [r3]
 7101 0956 3F4A     		ldr	r2, .L288+76
 7102 0958 9342     		cmp	r3, r2
 7103 095a 13D0     		beq	.L256
 7104              		.loc 1 1431 11 discriminator 8
 7105 095c 7B68     		ldr	r3, [r7, #4]
 7106 095e 1B68     		ldr	r3, [r3]
 7107 0960 3D4A     		ldr	r2, .L288+80
 7108 0962 9342     		cmp	r3, r2
 7109 0964 0ED0     		beq	.L256
 7110              		.loc 1 1431 11 discriminator 10
 7111 0966 7B68     		ldr	r3, [r7, #4]
 7112 0968 1B68     		ldr	r3, [r3]
ARM GAS  /var/folders/g1/j12m_ky910s3_sv7d4yrsdn00000gn/T//ccliMUVd.s 			page 151


 7113 096a 3C4A     		ldr	r2, .L288+84
 7114 096c 9342     		cmp	r3, r2
 7115 096e 09D0     		beq	.L256
 7116              		.loc 1 1431 11 discriminator 12
 7117 0970 7B68     		ldr	r3, [r7, #4]
 7118 0972 1B68     		ldr	r3, [r3]
 7119 0974 3A4A     		ldr	r2, .L288+88
 7120 0976 9342     		cmp	r3, r2
 7121 0978 04D0     		beq	.L256
 7122              		.loc 1 1431 11 discriminator 14
 7123 097a 7B68     		ldr	r3, [r7, #4]
 7124 097c 1B68     		ldr	r3, [r3]
 7125 097e 394A     		ldr	r2, .L288+92
 7126 0980 9342     		cmp	r3, r2
 7127 0982 01D1     		bne	.L257
 7128              	.L256:
 7129              		.loc 1 1431 11 discriminator 15
 7130 0984 0123     		movs	r3, #1
 7131              		.loc 1 1431 11
 7132 0986 00E0     		b	.L258
 7133              	.L257:
 7134              		.loc 1 1431 11 discriminator 16
 7135 0988 0023     		movs	r3, #0
 7136              	.L258:
 7137              		.loc 1 1431 10 is_stmt 1 discriminator 18
 7138 098a 002B     		cmp	r3, #0
 7139 098c 00F03F82 		beq	.L211
1432:Drivers/STM32H7xx_HAL_Driver/Src/stm32h7xx_hal_dma.c ****   {
1433:Drivers/STM32H7xx_HAL_Driver/Src/stm32h7xx_hal_dma.c ****     ccr_reg = (((BDMA_Channel_TypeDef   *)hdma->Instance)->CCR);
 7140              		.loc 1 1433 47
 7141 0990 7B68     		ldr	r3, [r7, #4]
 7142 0992 1B68     		ldr	r3, [r3]
 7143              		.loc 1 1433 13
 7144 0994 1B68     		ldr	r3, [r3]
 7145 0996 3B61     		str	r3, [r7, #16]
1434:Drivers/STM32H7xx_HAL_Driver/Src/stm32h7xx_hal_dma.c **** 
1435:Drivers/STM32H7xx_HAL_Driver/Src/stm32h7xx_hal_dma.c ****     /* Half Transfer Complete Interrupt management ******************************/
1436:Drivers/STM32H7xx_HAL_Driver/Src/stm32h7xx_hal_dma.c ****     if (((tmpisr_bdma & (BDMA_FLAG_HT0 << (hdma->StreamIndex & 0x1FU))) != 0U) && ((ccr_reg & BDMA_
 7146              		.loc 1 1436 48
 7147 0998 7B68     		ldr	r3, [r7, #4]
 7148 099a DB6D     		ldr	r3, [r3, #92]
 7149              		.loc 1 1436 62
 7150 099c 03F01F03 		and	r3, r3, #31
 7151              		.loc 1 1436 40
 7152 09a0 0422     		movs	r2, #4
 7153 09a2 9A40     		lsls	r2, r2, r3
 7154              		.loc 1 1436 23
 7155 09a4 7B69     		ldr	r3, [r7, #20]
 7156 09a6 1340     		ands	r3, r3, r2
 7157              		.loc 1 1436 8
 7158 09a8 002B     		cmp	r3, #0
 7159 09aa 00F0CD80 		beq	.L259
 7160              		.loc 1 1436 93 discriminator 1
 7161 09ae 3B69     		ldr	r3, [r7, #16]
 7162 09b0 03F00403 		and	r3, r3, #4
 7163              		.loc 1 1436 80 discriminator 1
 7164 09b4 002B     		cmp	r3, #0
ARM GAS  /var/folders/g1/j12m_ky910s3_sv7d4yrsdn00000gn/T//ccliMUVd.s 			page 152


 7165 09b6 00F0C780 		beq	.L259
1437:Drivers/STM32H7xx_HAL_Driver/Src/stm32h7xx_hal_dma.c ****     {
1438:Drivers/STM32H7xx_HAL_Driver/Src/stm32h7xx_hal_dma.c ****       /* Clear the half transfer complete flag */
1439:Drivers/STM32H7xx_HAL_Driver/Src/stm32h7xx_hal_dma.c ****       regs_bdma->IFCR = (BDMA_ISR_HTIF0 << (hdma->StreamIndex & 0x1FU));
 7166              		.loc 1 1439 49
 7167 09ba 7B68     		ldr	r3, [r7, #4]
 7168 09bc DB6D     		ldr	r3, [r3, #92]
 7169              		.loc 1 1439 63
 7170 09be 03F01F03 		and	r3, r3, #31
 7171              		.loc 1 1439 41
 7172 09c2 0422     		movs	r2, #4
 7173 09c4 9A40     		lsls	r2, r2, r3
 7174              		.loc 1 1439 23
 7175 09c6 FB69     		ldr	r3, [r7, #28]
 7176 09c8 5A60     		str	r2, [r3, #4]
1440:Drivers/STM32H7xx_HAL_Driver/Src/stm32h7xx_hal_dma.c **** 
1441:Drivers/STM32H7xx_HAL_Driver/Src/stm32h7xx_hal_dma.c ****       /* Disable the transfer complete interrupt if the DMA mode is Double Buffering */
1442:Drivers/STM32H7xx_HAL_Driver/Src/stm32h7xx_hal_dma.c ****       if((ccr_reg & BDMA_CCR_DBM) != 0U)
 7177              		.loc 1 1442 19
 7178 09ca 3B69     		ldr	r3, [r7, #16]
 7179 09cc 03F40043 		and	r3, r3, #32768
 7180              		.loc 1 1442 9
 7181 09d0 002B     		cmp	r3, #0
 7182 09d2 49D0     		beq	.L260
1443:Drivers/STM32H7xx_HAL_Driver/Src/stm32h7xx_hal_dma.c ****       {
1444:Drivers/STM32H7xx_HAL_Driver/Src/stm32h7xx_hal_dma.c ****         /* Current memory buffer used is Memory 0 */
1445:Drivers/STM32H7xx_HAL_Driver/Src/stm32h7xx_hal_dma.c ****         if((ccr_reg & BDMA_CCR_CT) == 0U)
 7183              		.loc 1 1445 21
 7184 09d4 3B69     		ldr	r3, [r7, #16]
 7185 09d6 03F48033 		and	r3, r3, #65536
 7186              		.loc 1 1445 11
 7187 09da 002B     		cmp	r3, #0
 7188 09dc 09D1     		bne	.L261
1446:Drivers/STM32H7xx_HAL_Driver/Src/stm32h7xx_hal_dma.c ****         {
1447:Drivers/STM32H7xx_HAL_Driver/Src/stm32h7xx_hal_dma.c ****           if(hdma->XferM1HalfCpltCallback != NULL)
 7189              		.loc 1 1447 18
 7190 09de 7B68     		ldr	r3, [r7, #4]
 7191 09e0 9B6C     		ldr	r3, [r3, #72]
 7192              		.loc 1 1447 13
 7193 09e2 002B     		cmp	r3, #0
 7194 09e4 00F01082 		beq	.L280
1448:Drivers/STM32H7xx_HAL_Driver/Src/stm32h7xx_hal_dma.c ****           {
1449:Drivers/STM32H7xx_HAL_Driver/Src/stm32h7xx_hal_dma.c ****             /* Half transfer Callback for Memory 1 */
1450:Drivers/STM32H7xx_HAL_Driver/Src/stm32h7xx_hal_dma.c ****             hdma->XferM1HalfCpltCallback(hdma);
 7195              		.loc 1 1450 17
 7196 09e8 7B68     		ldr	r3, [r7, #4]
 7197 09ea 9B6C     		ldr	r3, [r3, #72]
 7198              		.loc 1 1450 13
 7199 09ec 7868     		ldr	r0, [r7, #4]
 7200 09ee 9847     		blx	r3
 7201              	.LVL9:
1442:Drivers/STM32H7xx_HAL_Driver/Src/stm32h7xx_hal_dma.c ****       {
 7202              		.loc 1 1442 9
 7203 09f0 0AE2     		b	.L280
 7204              	.L261:
1451:Drivers/STM32H7xx_HAL_Driver/Src/stm32h7xx_hal_dma.c ****           }
1452:Drivers/STM32H7xx_HAL_Driver/Src/stm32h7xx_hal_dma.c ****         }
ARM GAS  /var/folders/g1/j12m_ky910s3_sv7d4yrsdn00000gn/T//ccliMUVd.s 			page 153


1453:Drivers/STM32H7xx_HAL_Driver/Src/stm32h7xx_hal_dma.c ****         /* Current memory buffer used is Memory 1 */
1454:Drivers/STM32H7xx_HAL_Driver/Src/stm32h7xx_hal_dma.c ****         else
1455:Drivers/STM32H7xx_HAL_Driver/Src/stm32h7xx_hal_dma.c ****         {
1456:Drivers/STM32H7xx_HAL_Driver/Src/stm32h7xx_hal_dma.c ****           if(hdma->XferHalfCpltCallback != NULL)
 7205              		.loc 1 1456 18
 7206 09f2 7B68     		ldr	r3, [r7, #4]
 7207 09f4 1B6C     		ldr	r3, [r3, #64]
 7208              		.loc 1 1456 13
 7209 09f6 002B     		cmp	r3, #0
 7210 09f8 00F00682 		beq	.L280
1457:Drivers/STM32H7xx_HAL_Driver/Src/stm32h7xx_hal_dma.c ****           {
1458:Drivers/STM32H7xx_HAL_Driver/Src/stm32h7xx_hal_dma.c ****             /* Half transfer Callback for Memory 0 */
1459:Drivers/STM32H7xx_HAL_Driver/Src/stm32h7xx_hal_dma.c ****             hdma->XferHalfCpltCallback(hdma);
 7211              		.loc 1 1459 17
 7212 09fc 7B68     		ldr	r3, [r7, #4]
 7213 09fe 1B6C     		ldr	r3, [r3, #64]
 7214              		.loc 1 1459 13
 7215 0a00 7868     		ldr	r0, [r7, #4]
 7216 0a02 9847     		blx	r3
 7217              	.LVL10:
1442:Drivers/STM32H7xx_HAL_Driver/Src/stm32h7xx_hal_dma.c ****       {
 7218              		.loc 1 1442 9
 7219 0a04 00E2     		b	.L280
 7220              	.L289:
 7221 0a06 00BF     		.align	2
 7222              	.L288:
 7223 0a08 10000240 		.word	1073872912
 7224 0a0c 28000240 		.word	1073872936
 7225 0a10 40000240 		.word	1073872960
 7226 0a14 58000240 		.word	1073872984
 7227 0a18 70000240 		.word	1073873008
 7228 0a1c 88000240 		.word	1073873032
 7229 0a20 A0000240 		.word	1073873056
 7230 0a24 B8000240 		.word	1073873080
 7231 0a28 10040240 		.word	1073873936
 7232 0a2c 28040240 		.word	1073873960
 7233 0a30 40040240 		.word	1073873984
 7234 0a34 58040240 		.word	1073874008
 7235 0a38 70040240 		.word	1073874032
 7236 0a3c 88040240 		.word	1073874056
 7237 0a40 A0040240 		.word	1073874080
 7238 0a44 B8040240 		.word	1073874104
 7239 0a48 08540258 		.word	1476547592
 7240 0a4c 1C540258 		.word	1476547612
 7241 0a50 30540258 		.word	1476547632
 7242 0a54 44540258 		.word	1476547652
 7243 0a58 58540258 		.word	1476547672
 7244 0a5c 6C540258 		.word	1476547692
 7245 0a60 80540258 		.word	1476547712
 7246 0a64 94540258 		.word	1476547732
 7247              	.L260:
1460:Drivers/STM32H7xx_HAL_Driver/Src/stm32h7xx_hal_dma.c ****           }
1461:Drivers/STM32H7xx_HAL_Driver/Src/stm32h7xx_hal_dma.c ****         }
1462:Drivers/STM32H7xx_HAL_Driver/Src/stm32h7xx_hal_dma.c ****       }
1463:Drivers/STM32H7xx_HAL_Driver/Src/stm32h7xx_hal_dma.c ****       else
1464:Drivers/STM32H7xx_HAL_Driver/Src/stm32h7xx_hal_dma.c ****       {
1465:Drivers/STM32H7xx_HAL_Driver/Src/stm32h7xx_hal_dma.c ****         if((ccr_reg & BDMA_CCR_CIRC) == 0U)
ARM GAS  /var/folders/g1/j12m_ky910s3_sv7d4yrsdn00000gn/T//ccliMUVd.s 			page 154


 7248              		.loc 1 1465 21
 7249 0a68 3B69     		ldr	r3, [r7, #16]
 7250 0a6a 03F02003 		and	r3, r3, #32
 7251              		.loc 1 1465 11
 7252 0a6e 002B     		cmp	r3, #0
 7253 0a70 60D1     		bne	.L263
1466:Drivers/STM32H7xx_HAL_Driver/Src/stm32h7xx_hal_dma.c ****         {
1467:Drivers/STM32H7xx_HAL_Driver/Src/stm32h7xx_hal_dma.c ****           /* Disable the half transfer interrupt */
1468:Drivers/STM32H7xx_HAL_Driver/Src/stm32h7xx_hal_dma.c ****           __HAL_DMA_DISABLE_IT(hdma, DMA_IT_HT);
 7254              		.loc 1 1468 11
 7255 0a72 7B68     		ldr	r3, [r7, #4]
 7256 0a74 1B68     		ldr	r3, [r3]
 7257 0a76 7F4A     		ldr	r2, .L290
 7258 0a78 9342     		cmp	r3, r2
 7259 0a7a 4AD0     		beq	.L264
 7260              		.loc 1 1468 11 is_stmt 0 discriminator 2
 7261 0a7c 7B68     		ldr	r3, [r7, #4]
 7262 0a7e 1B68     		ldr	r3, [r3]
 7263 0a80 7D4A     		ldr	r2, .L290+4
 7264 0a82 9342     		cmp	r3, r2
 7265 0a84 45D0     		beq	.L264
 7266              		.loc 1 1468 11 discriminator 4
 7267 0a86 7B68     		ldr	r3, [r7, #4]
 7268 0a88 1B68     		ldr	r3, [r3]
 7269 0a8a 7C4A     		ldr	r2, .L290+8
 7270 0a8c 9342     		cmp	r3, r2
 7271 0a8e 40D0     		beq	.L264
 7272              		.loc 1 1468 11 discriminator 6
 7273 0a90 7B68     		ldr	r3, [r7, #4]
 7274 0a92 1B68     		ldr	r3, [r3]
 7275 0a94 7A4A     		ldr	r2, .L290+12
 7276 0a96 9342     		cmp	r3, r2
 7277 0a98 3BD0     		beq	.L264
 7278              		.loc 1 1468 11 discriminator 8
 7279 0a9a 7B68     		ldr	r3, [r7, #4]
 7280 0a9c 1B68     		ldr	r3, [r3]
 7281 0a9e 794A     		ldr	r2, .L290+16
 7282 0aa0 9342     		cmp	r3, r2
 7283 0aa2 36D0     		beq	.L264
 7284              		.loc 1 1468 11 discriminator 10
 7285 0aa4 7B68     		ldr	r3, [r7, #4]
 7286 0aa6 1B68     		ldr	r3, [r3]
 7287 0aa8 774A     		ldr	r2, .L290+20
 7288 0aaa 9342     		cmp	r3, r2
 7289 0aac 31D0     		beq	.L264
 7290              		.loc 1 1468 11 discriminator 12
 7291 0aae 7B68     		ldr	r3, [r7, #4]
 7292 0ab0 1B68     		ldr	r3, [r3]
 7293 0ab2 764A     		ldr	r2, .L290+24
 7294 0ab4 9342     		cmp	r3, r2
 7295 0ab6 2CD0     		beq	.L264
 7296              		.loc 1 1468 11 discriminator 14
 7297 0ab8 7B68     		ldr	r3, [r7, #4]
 7298 0aba 1B68     		ldr	r3, [r3]
 7299 0abc 744A     		ldr	r2, .L290+28
 7300 0abe 9342     		cmp	r3, r2
 7301 0ac0 27D0     		beq	.L264
ARM GAS  /var/folders/g1/j12m_ky910s3_sv7d4yrsdn00000gn/T//ccliMUVd.s 			page 155


 7302              		.loc 1 1468 11 discriminator 16
 7303 0ac2 7B68     		ldr	r3, [r7, #4]
 7304 0ac4 1B68     		ldr	r3, [r3]
 7305 0ac6 734A     		ldr	r2, .L290+32
 7306 0ac8 9342     		cmp	r3, r2
 7307 0aca 22D0     		beq	.L264
 7308              		.loc 1 1468 11 discriminator 18
 7309 0acc 7B68     		ldr	r3, [r7, #4]
 7310 0ace 1B68     		ldr	r3, [r3]
 7311 0ad0 714A     		ldr	r2, .L290+36
 7312 0ad2 9342     		cmp	r3, r2
 7313 0ad4 1DD0     		beq	.L264
 7314              		.loc 1 1468 11 discriminator 20
 7315 0ad6 7B68     		ldr	r3, [r7, #4]
 7316 0ad8 1B68     		ldr	r3, [r3]
 7317 0ada 704A     		ldr	r2, .L290+40
 7318 0adc 9342     		cmp	r3, r2
 7319 0ade 18D0     		beq	.L264
 7320              		.loc 1 1468 11 discriminator 22
 7321 0ae0 7B68     		ldr	r3, [r7, #4]
 7322 0ae2 1B68     		ldr	r3, [r3]
 7323 0ae4 6E4A     		ldr	r2, .L290+44
 7324 0ae6 9342     		cmp	r3, r2
 7325 0ae8 13D0     		beq	.L264
 7326              		.loc 1 1468 11 discriminator 24
 7327 0aea 7B68     		ldr	r3, [r7, #4]
 7328 0aec 1B68     		ldr	r3, [r3]
 7329 0aee 6D4A     		ldr	r2, .L290+48
 7330 0af0 9342     		cmp	r3, r2
 7331 0af2 0ED0     		beq	.L264
 7332              		.loc 1 1468 11 discriminator 26
 7333 0af4 7B68     		ldr	r3, [r7, #4]
 7334 0af6 1B68     		ldr	r3, [r3]
 7335 0af8 6B4A     		ldr	r2, .L290+52
 7336 0afa 9342     		cmp	r3, r2
 7337 0afc 09D0     		beq	.L264
 7338              		.loc 1 1468 11 discriminator 28
 7339 0afe 7B68     		ldr	r3, [r7, #4]
 7340 0b00 1B68     		ldr	r3, [r3]
 7341 0b02 6A4A     		ldr	r2, .L290+56
 7342 0b04 9342     		cmp	r3, r2
 7343 0b06 04D0     		beq	.L264
 7344              		.loc 1 1468 11 discriminator 30
 7345 0b08 7B68     		ldr	r3, [r7, #4]
 7346 0b0a 1B68     		ldr	r3, [r3]
 7347 0b0c 684A     		ldr	r2, .L290+60
 7348 0b0e 9342     		cmp	r3, r2
 7349 0b10 08D1     		bne	.L265
 7350              	.L264:
 7351              		.loc 1 1468 11 discriminator 31
 7352 0b12 7B68     		ldr	r3, [r7, #4]
 7353 0b14 1B68     		ldr	r3, [r3]
 7354 0b16 1A68     		ldr	r2, [r3]
 7355 0b18 7B68     		ldr	r3, [r7, #4]
 7356 0b1a 1B68     		ldr	r3, [r3]
 7357 0b1c 22F00802 		bic	r2, r2, #8
 7358 0b20 1A60     		str	r2, [r3]
ARM GAS  /var/folders/g1/j12m_ky910s3_sv7d4yrsdn00000gn/T//ccliMUVd.s 			page 156


 7359              		.loc 1 1468 11
 7360 0b22 07E0     		b	.L263
 7361              	.L265:
 7362              		.loc 1 1468 11 discriminator 32
 7363 0b24 7B68     		ldr	r3, [r7, #4]
 7364 0b26 1B68     		ldr	r3, [r3]
 7365 0b28 1A68     		ldr	r2, [r3]
 7366 0b2a 7B68     		ldr	r3, [r7, #4]
 7367 0b2c 1B68     		ldr	r3, [r3]
 7368 0b2e 22F00402 		bic	r2, r2, #4
 7369 0b32 1A60     		str	r2, [r3]
 7370              	.L263:
1469:Drivers/STM32H7xx_HAL_Driver/Src/stm32h7xx_hal_dma.c ****         }
1470:Drivers/STM32H7xx_HAL_Driver/Src/stm32h7xx_hal_dma.c **** 
1471:Drivers/STM32H7xx_HAL_Driver/Src/stm32h7xx_hal_dma.c ****         /* DMA peripheral state is not updated in Half Transfer */
1472:Drivers/STM32H7xx_HAL_Driver/Src/stm32h7xx_hal_dma.c ****         /* but in Transfer Complete case */
1473:Drivers/STM32H7xx_HAL_Driver/Src/stm32h7xx_hal_dma.c **** 
1474:Drivers/STM32H7xx_HAL_Driver/Src/stm32h7xx_hal_dma.c ****        if(hdma->XferHalfCpltCallback != NULL)
 7371              		.loc 1 1474 15 is_stmt 1
 7372 0b34 7B68     		ldr	r3, [r7, #4]
 7373 0b36 1B6C     		ldr	r3, [r3, #64]
 7374              		.loc 1 1474 10
 7375 0b38 002B     		cmp	r3, #0
 7376 0b3a 00F06581 		beq	.L280
1475:Drivers/STM32H7xx_HAL_Driver/Src/stm32h7xx_hal_dma.c ****         {
1476:Drivers/STM32H7xx_HAL_Driver/Src/stm32h7xx_hal_dma.c ****           /* Half transfer callback */
1477:Drivers/STM32H7xx_HAL_Driver/Src/stm32h7xx_hal_dma.c ****           hdma->XferHalfCpltCallback(hdma);
 7377              		.loc 1 1477 15
 7378 0b3e 7B68     		ldr	r3, [r7, #4]
 7379 0b40 1B6C     		ldr	r3, [r3, #64]
 7380              		.loc 1 1477 11
 7381 0b42 7868     		ldr	r0, [r7, #4]
 7382 0b44 9847     		blx	r3
 7383              	.LVL11:
1442:Drivers/STM32H7xx_HAL_Driver/Src/stm32h7xx_hal_dma.c ****       {
 7384              		.loc 1 1442 9
 7385 0b46 5FE1     		b	.L280
 7386              	.L259:
1478:Drivers/STM32H7xx_HAL_Driver/Src/stm32h7xx_hal_dma.c ****         }
1479:Drivers/STM32H7xx_HAL_Driver/Src/stm32h7xx_hal_dma.c ****       }
1480:Drivers/STM32H7xx_HAL_Driver/Src/stm32h7xx_hal_dma.c ****     }
1481:Drivers/STM32H7xx_HAL_Driver/Src/stm32h7xx_hal_dma.c **** 
1482:Drivers/STM32H7xx_HAL_Driver/Src/stm32h7xx_hal_dma.c ****     /* Transfer Complete Interrupt management ***********************************/
1483:Drivers/STM32H7xx_HAL_Driver/Src/stm32h7xx_hal_dma.c ****     else if (((tmpisr_bdma & (BDMA_FLAG_TC0 << (hdma->StreamIndex & 0x1FU))) != 0U) && ((ccr_reg & 
 7387              		.loc 1 1483 53
 7388 0b48 7B68     		ldr	r3, [r7, #4]
 7389 0b4a DB6D     		ldr	r3, [r3, #92]
 7390              		.loc 1 1483 67
 7391 0b4c 03F01F03 		and	r3, r3, #31
 7392              		.loc 1 1483 45
 7393 0b50 0222     		movs	r2, #2
 7394 0b52 9A40     		lsls	r2, r2, r3
 7395              		.loc 1 1483 28
 7396 0b54 7B69     		ldr	r3, [r7, #20]
 7397 0b56 1340     		ands	r3, r3, r2
 7398              		.loc 1 1483 13
 7399 0b58 002B     		cmp	r3, #0
ARM GAS  /var/folders/g1/j12m_ky910s3_sv7d4yrsdn00000gn/T//ccliMUVd.s 			page 157


 7400 0b5a 00F0C580 		beq	.L267
 7401              		.loc 1 1483 98 discriminator 1
 7402 0b5e 3B69     		ldr	r3, [r7, #16]
 7403 0b60 03F00203 		and	r3, r3, #2
 7404              		.loc 1 1483 85 discriminator 1
 7405 0b64 002B     		cmp	r3, #0
 7406 0b66 00F0BF80 		beq	.L267
1484:Drivers/STM32H7xx_HAL_Driver/Src/stm32h7xx_hal_dma.c ****     {
1485:Drivers/STM32H7xx_HAL_Driver/Src/stm32h7xx_hal_dma.c ****       /* Clear the transfer complete flag */
1486:Drivers/STM32H7xx_HAL_Driver/Src/stm32h7xx_hal_dma.c ****       regs_bdma->IFCR = (BDMA_ISR_TCIF0) << (hdma->StreamIndex & 0x1FU);
 7407              		.loc 1 1486 50
 7408 0b6a 7B68     		ldr	r3, [r7, #4]
 7409 0b6c DB6D     		ldr	r3, [r3, #92]
 7410              		.loc 1 1486 64
 7411 0b6e 03F01F03 		and	r3, r3, #31
 7412              		.loc 1 1486 42
 7413 0b72 0222     		movs	r2, #2
 7414 0b74 9A40     		lsls	r2, r2, r3
 7415              		.loc 1 1486 23
 7416 0b76 FB69     		ldr	r3, [r7, #28]
 7417 0b78 5A60     		str	r2, [r3, #4]
1487:Drivers/STM32H7xx_HAL_Driver/Src/stm32h7xx_hal_dma.c **** 
1488:Drivers/STM32H7xx_HAL_Driver/Src/stm32h7xx_hal_dma.c ****       /* Disable the transfer complete interrupt if the DMA mode is Double Buffering */
1489:Drivers/STM32H7xx_HAL_Driver/Src/stm32h7xx_hal_dma.c ****       if((ccr_reg & BDMA_CCR_DBM) != 0U)
 7418              		.loc 1 1489 19
 7419 0b7a 3B69     		ldr	r3, [r7, #16]
 7420 0b7c 03F40043 		and	r3, r3, #32768
 7421              		.loc 1 1489 9
 7422 0b80 002B     		cmp	r3, #0
 7423 0b82 18D0     		beq	.L268
1490:Drivers/STM32H7xx_HAL_Driver/Src/stm32h7xx_hal_dma.c ****       {
1491:Drivers/STM32H7xx_HAL_Driver/Src/stm32h7xx_hal_dma.c ****         /* Current memory buffer used is Memory 0 */
1492:Drivers/STM32H7xx_HAL_Driver/Src/stm32h7xx_hal_dma.c ****         if((ccr_reg & BDMA_CCR_CT) == 0U)
 7424              		.loc 1 1492 21
 7425 0b84 3B69     		ldr	r3, [r7, #16]
 7426 0b86 03F48033 		and	r3, r3, #65536
 7427              		.loc 1 1492 11
 7428 0b8a 002B     		cmp	r3, #0
 7429 0b8c 09D1     		bne	.L269
1493:Drivers/STM32H7xx_HAL_Driver/Src/stm32h7xx_hal_dma.c ****         {
1494:Drivers/STM32H7xx_HAL_Driver/Src/stm32h7xx_hal_dma.c ****           if(hdma->XferM1CpltCallback != NULL)
 7430              		.loc 1 1494 18
 7431 0b8e 7B68     		ldr	r3, [r7, #4]
 7432 0b90 5B6C     		ldr	r3, [r3, #68]
 7433              		.loc 1 1494 13
 7434 0b92 002B     		cmp	r3, #0
 7435 0b94 00F03A81 		beq	.L281
1495:Drivers/STM32H7xx_HAL_Driver/Src/stm32h7xx_hal_dma.c ****           {
1496:Drivers/STM32H7xx_HAL_Driver/Src/stm32h7xx_hal_dma.c ****             /* Transfer complete Callback for Memory 1 */
1497:Drivers/STM32H7xx_HAL_Driver/Src/stm32h7xx_hal_dma.c ****             hdma->XferM1CpltCallback(hdma);
 7436              		.loc 1 1497 17
 7437 0b98 7B68     		ldr	r3, [r7, #4]
 7438 0b9a 5B6C     		ldr	r3, [r3, #68]
 7439              		.loc 1 1497 13
 7440 0b9c 7868     		ldr	r0, [r7, #4]
 7441 0b9e 9847     		blx	r3
 7442              	.LVL12:
ARM GAS  /var/folders/g1/j12m_ky910s3_sv7d4yrsdn00000gn/T//ccliMUVd.s 			page 158


1489:Drivers/STM32H7xx_HAL_Driver/Src/stm32h7xx_hal_dma.c ****       {
 7443              		.loc 1 1489 9
 7444 0ba0 34E1     		b	.L281
 7445              	.L269:
1498:Drivers/STM32H7xx_HAL_Driver/Src/stm32h7xx_hal_dma.c ****           }
1499:Drivers/STM32H7xx_HAL_Driver/Src/stm32h7xx_hal_dma.c ****         }
1500:Drivers/STM32H7xx_HAL_Driver/Src/stm32h7xx_hal_dma.c ****         /* Current memory buffer used is Memory 1 */
1501:Drivers/STM32H7xx_HAL_Driver/Src/stm32h7xx_hal_dma.c ****         else
1502:Drivers/STM32H7xx_HAL_Driver/Src/stm32h7xx_hal_dma.c ****         {
1503:Drivers/STM32H7xx_HAL_Driver/Src/stm32h7xx_hal_dma.c ****           if(hdma->XferCpltCallback != NULL)
 7446              		.loc 1 1503 18
 7447 0ba2 7B68     		ldr	r3, [r7, #4]
 7448 0ba4 DB6B     		ldr	r3, [r3, #60]
 7449              		.loc 1 1503 13
 7450 0ba6 002B     		cmp	r3, #0
 7451 0ba8 00F03081 		beq	.L281
1504:Drivers/STM32H7xx_HAL_Driver/Src/stm32h7xx_hal_dma.c ****           {
1505:Drivers/STM32H7xx_HAL_Driver/Src/stm32h7xx_hal_dma.c ****             /* Transfer complete Callback for Memory 0 */
1506:Drivers/STM32H7xx_HAL_Driver/Src/stm32h7xx_hal_dma.c ****             hdma->XferCpltCallback(hdma);
 7452              		.loc 1 1506 17
 7453 0bac 7B68     		ldr	r3, [r7, #4]
 7454 0bae DB6B     		ldr	r3, [r3, #60]
 7455              		.loc 1 1506 13
 7456 0bb0 7868     		ldr	r0, [r7, #4]
 7457 0bb2 9847     		blx	r3
 7458              	.LVL13:
1489:Drivers/STM32H7xx_HAL_Driver/Src/stm32h7xx_hal_dma.c ****       {
 7459              		.loc 1 1489 9
 7460 0bb4 2AE1     		b	.L281
 7461              	.L268:
1507:Drivers/STM32H7xx_HAL_Driver/Src/stm32h7xx_hal_dma.c ****           }
1508:Drivers/STM32H7xx_HAL_Driver/Src/stm32h7xx_hal_dma.c ****         }
1509:Drivers/STM32H7xx_HAL_Driver/Src/stm32h7xx_hal_dma.c ****       }
1510:Drivers/STM32H7xx_HAL_Driver/Src/stm32h7xx_hal_dma.c ****       else
1511:Drivers/STM32H7xx_HAL_Driver/Src/stm32h7xx_hal_dma.c ****       {
1512:Drivers/STM32H7xx_HAL_Driver/Src/stm32h7xx_hal_dma.c ****         if((ccr_reg & BDMA_CCR_CIRC) == 0U)
 7462              		.loc 1 1512 21
 7463 0bb6 3B69     		ldr	r3, [r7, #16]
 7464 0bb8 03F02003 		and	r3, r3, #32
 7465              		.loc 1 1512 11
 7466 0bbc 002B     		cmp	r3, #0
 7467 0bbe 40F08980 		bne	.L271
1513:Drivers/STM32H7xx_HAL_Driver/Src/stm32h7xx_hal_dma.c ****         {
1514:Drivers/STM32H7xx_HAL_Driver/Src/stm32h7xx_hal_dma.c ****           /* Disable the transfer complete and error interrupt, if the DMA mode is not CIRCULAR */
1515:Drivers/STM32H7xx_HAL_Driver/Src/stm32h7xx_hal_dma.c ****           __HAL_DMA_DISABLE_IT(hdma, DMA_IT_TE | DMA_IT_TC);
 7468              		.loc 1 1515 11
 7469 0bc2 7B68     		ldr	r3, [r7, #4]
 7470 0bc4 1B68     		ldr	r3, [r3]
 7471 0bc6 2B4A     		ldr	r2, .L290
 7472 0bc8 9342     		cmp	r3, r2
 7473 0bca 4AD0     		beq	.L272
 7474              		.loc 1 1515 11 is_stmt 0 discriminator 2
 7475 0bcc 7B68     		ldr	r3, [r7, #4]
 7476 0bce 1B68     		ldr	r3, [r3]
 7477 0bd0 294A     		ldr	r2, .L290+4
 7478 0bd2 9342     		cmp	r3, r2
 7479 0bd4 45D0     		beq	.L272
ARM GAS  /var/folders/g1/j12m_ky910s3_sv7d4yrsdn00000gn/T//ccliMUVd.s 			page 159


 7480              		.loc 1 1515 11 discriminator 4
 7481 0bd6 7B68     		ldr	r3, [r7, #4]
 7482 0bd8 1B68     		ldr	r3, [r3]
 7483 0bda 284A     		ldr	r2, .L290+8
 7484 0bdc 9342     		cmp	r3, r2
 7485 0bde 40D0     		beq	.L272
 7486              		.loc 1 1515 11 discriminator 6
 7487 0be0 7B68     		ldr	r3, [r7, #4]
 7488 0be2 1B68     		ldr	r3, [r3]
 7489 0be4 264A     		ldr	r2, .L290+12
 7490 0be6 9342     		cmp	r3, r2
 7491 0be8 3BD0     		beq	.L272
 7492              		.loc 1 1515 11 discriminator 8
 7493 0bea 7B68     		ldr	r3, [r7, #4]
 7494 0bec 1B68     		ldr	r3, [r3]
 7495 0bee 254A     		ldr	r2, .L290+16
 7496 0bf0 9342     		cmp	r3, r2
 7497 0bf2 36D0     		beq	.L272
 7498              		.loc 1 1515 11 discriminator 10
 7499 0bf4 7B68     		ldr	r3, [r7, #4]
 7500 0bf6 1B68     		ldr	r3, [r3]
 7501 0bf8 234A     		ldr	r2, .L290+20
 7502 0bfa 9342     		cmp	r3, r2
 7503 0bfc 31D0     		beq	.L272
 7504              		.loc 1 1515 11 discriminator 12
 7505 0bfe 7B68     		ldr	r3, [r7, #4]
 7506 0c00 1B68     		ldr	r3, [r3]
 7507 0c02 224A     		ldr	r2, .L290+24
 7508 0c04 9342     		cmp	r3, r2
 7509 0c06 2CD0     		beq	.L272
 7510              		.loc 1 1515 11 discriminator 14
 7511 0c08 7B68     		ldr	r3, [r7, #4]
 7512 0c0a 1B68     		ldr	r3, [r3]
 7513 0c0c 204A     		ldr	r2, .L290+28
 7514 0c0e 9342     		cmp	r3, r2
 7515 0c10 27D0     		beq	.L272
 7516              		.loc 1 1515 11 discriminator 16
 7517 0c12 7B68     		ldr	r3, [r7, #4]
 7518 0c14 1B68     		ldr	r3, [r3]
 7519 0c16 1F4A     		ldr	r2, .L290+32
 7520 0c18 9342     		cmp	r3, r2
 7521 0c1a 22D0     		beq	.L272
 7522              		.loc 1 1515 11 discriminator 18
 7523 0c1c 7B68     		ldr	r3, [r7, #4]
 7524 0c1e 1B68     		ldr	r3, [r3]
 7525 0c20 1D4A     		ldr	r2, .L290+36
 7526 0c22 9342     		cmp	r3, r2
 7527 0c24 1DD0     		beq	.L272
 7528              		.loc 1 1515 11 discriminator 20
 7529 0c26 7B68     		ldr	r3, [r7, #4]
 7530 0c28 1B68     		ldr	r3, [r3]
 7531 0c2a 1C4A     		ldr	r2, .L290+40
 7532 0c2c 9342     		cmp	r3, r2
 7533 0c2e 18D0     		beq	.L272
 7534              		.loc 1 1515 11 discriminator 22
 7535 0c30 7B68     		ldr	r3, [r7, #4]
 7536 0c32 1B68     		ldr	r3, [r3]
ARM GAS  /var/folders/g1/j12m_ky910s3_sv7d4yrsdn00000gn/T//ccliMUVd.s 			page 160


 7537 0c34 1A4A     		ldr	r2, .L290+44
 7538 0c36 9342     		cmp	r3, r2
 7539 0c38 13D0     		beq	.L272
 7540              		.loc 1 1515 11 discriminator 24
 7541 0c3a 7B68     		ldr	r3, [r7, #4]
 7542 0c3c 1B68     		ldr	r3, [r3]
 7543 0c3e 194A     		ldr	r2, .L290+48
 7544 0c40 9342     		cmp	r3, r2
 7545 0c42 0ED0     		beq	.L272
 7546              		.loc 1 1515 11 discriminator 26
 7547 0c44 7B68     		ldr	r3, [r7, #4]
 7548 0c46 1B68     		ldr	r3, [r3]
 7549 0c48 174A     		ldr	r2, .L290+52
 7550 0c4a 9342     		cmp	r3, r2
 7551 0c4c 09D0     		beq	.L272
 7552              		.loc 1 1515 11 discriminator 28
 7553 0c4e 7B68     		ldr	r3, [r7, #4]
 7554 0c50 1B68     		ldr	r3, [r3]
 7555 0c52 164A     		ldr	r2, .L290+56
 7556 0c54 9342     		cmp	r3, r2
 7557 0c56 04D0     		beq	.L272
 7558              		.loc 1 1515 11 discriminator 30
 7559 0c58 7B68     		ldr	r3, [r7, #4]
 7560 0c5a 1B68     		ldr	r3, [r3]
 7561 0c5c 144A     		ldr	r2, .L290+60
 7562 0c5e 9342     		cmp	r3, r2
 7563 0c60 28D1     		bne	.L273
 7564              	.L272:
 7565              		.loc 1 1515 11 discriminator 31
 7566 0c62 7B68     		ldr	r3, [r7, #4]
 7567 0c64 1B68     		ldr	r3, [r3]
 7568 0c66 1A68     		ldr	r2, [r3]
 7569 0c68 7B68     		ldr	r3, [r7, #4]
 7570 0c6a 1B68     		ldr	r3, [r3]
 7571 0c6c 22F01402 		bic	r2, r2, #20
 7572 0c70 1A60     		str	r2, [r3]
 7573              		.loc 1 1515 11
 7574 0c72 27E0     		b	.L274
 7575              	.L291:
 7576              		.align	2
 7577              	.L290:
 7578 0c74 10000240 		.word	1073872912
 7579 0c78 28000240 		.word	1073872936
 7580 0c7c 40000240 		.word	1073872960
 7581 0c80 58000240 		.word	1073872984
 7582 0c84 70000240 		.word	1073873008
 7583 0c88 88000240 		.word	1073873032
 7584 0c8c A0000240 		.word	1073873056
 7585 0c90 B8000240 		.word	1073873080
 7586 0c94 10040240 		.word	1073873936
 7587 0c98 28040240 		.word	1073873960
 7588 0c9c 40040240 		.word	1073873984
 7589 0ca0 58040240 		.word	1073874008
 7590 0ca4 70040240 		.word	1073874032
 7591 0ca8 88040240 		.word	1073874056
 7592 0cac A0040240 		.word	1073874080
 7593 0cb0 B8040240 		.word	1073874104
ARM GAS  /var/folders/g1/j12m_ky910s3_sv7d4yrsdn00000gn/T//ccliMUVd.s 			page 161


 7594              	.L273:
 7595              		.loc 1 1515 11 discriminator 32
 7596 0cb4 7B68     		ldr	r3, [r7, #4]
 7597 0cb6 1B68     		ldr	r3, [r3]
 7598 0cb8 1A68     		ldr	r2, [r3]
 7599 0cba 7B68     		ldr	r3, [r7, #4]
 7600 0cbc 1B68     		ldr	r3, [r3]
 7601 0cbe 22F00A02 		bic	r2, r2, #10
 7602 0cc2 1A60     		str	r2, [r3]
 7603              	.L274:
1516:Drivers/STM32H7xx_HAL_Driver/Src/stm32h7xx_hal_dma.c **** 
1517:Drivers/STM32H7xx_HAL_Driver/Src/stm32h7xx_hal_dma.c ****           /* Change the DMA state */
1518:Drivers/STM32H7xx_HAL_Driver/Src/stm32h7xx_hal_dma.c ****           hdma->State = HAL_DMA_STATE_READY;
 7604              		.loc 1 1518 23 is_stmt 1
 7605 0cc4 7B68     		ldr	r3, [r7, #4]
 7606 0cc6 0122     		movs	r2, #1
 7607 0cc8 83F83520 		strb	r2, [r3, #53]
1519:Drivers/STM32H7xx_HAL_Driver/Src/stm32h7xx_hal_dma.c **** 
1520:Drivers/STM32H7xx_HAL_Driver/Src/stm32h7xx_hal_dma.c ****           /* Process Unlocked */
1521:Drivers/STM32H7xx_HAL_Driver/Src/stm32h7xx_hal_dma.c ****           __HAL_UNLOCK(hdma);
 7608              		.loc 1 1521 11
 7609 0ccc 7B68     		ldr	r3, [r7, #4]
 7610 0cce 0022     		movs	r2, #0
 7611 0cd0 83F83420 		strb	r2, [r3, #52]
 7612              	.L271:
1522:Drivers/STM32H7xx_HAL_Driver/Src/stm32h7xx_hal_dma.c ****         }
1523:Drivers/STM32H7xx_HAL_Driver/Src/stm32h7xx_hal_dma.c **** 
1524:Drivers/STM32H7xx_HAL_Driver/Src/stm32h7xx_hal_dma.c ****         if(hdma->XferCpltCallback != NULL)
 7613              		.loc 1 1524 16
 7614 0cd4 7B68     		ldr	r3, [r7, #4]
 7615 0cd6 DB6B     		ldr	r3, [r3, #60]
 7616              		.loc 1 1524 11
 7617 0cd8 002B     		cmp	r3, #0
 7618 0cda 00F09780 		beq	.L281
1525:Drivers/STM32H7xx_HAL_Driver/Src/stm32h7xx_hal_dma.c ****         {
1526:Drivers/STM32H7xx_HAL_Driver/Src/stm32h7xx_hal_dma.c ****           /* Transfer complete callback */
1527:Drivers/STM32H7xx_HAL_Driver/Src/stm32h7xx_hal_dma.c ****           hdma->XferCpltCallback(hdma);
 7619              		.loc 1 1527 15
 7620 0cde 7B68     		ldr	r3, [r7, #4]
 7621 0ce0 DB6B     		ldr	r3, [r3, #60]
 7622              		.loc 1 1527 11
 7623 0ce2 7868     		ldr	r0, [r7, #4]
 7624 0ce4 9847     		blx	r3
 7625              	.LVL14:
1489:Drivers/STM32H7xx_HAL_Driver/Src/stm32h7xx_hal_dma.c ****       {
 7626              		.loc 1 1489 9
 7627 0ce6 91E0     		b	.L281
 7628              	.L267:
1528:Drivers/STM32H7xx_HAL_Driver/Src/stm32h7xx_hal_dma.c ****         }
1529:Drivers/STM32H7xx_HAL_Driver/Src/stm32h7xx_hal_dma.c ****       }
1530:Drivers/STM32H7xx_HAL_Driver/Src/stm32h7xx_hal_dma.c ****     }
1531:Drivers/STM32H7xx_HAL_Driver/Src/stm32h7xx_hal_dma.c ****     /* Transfer Error Interrupt management **************************************/
1532:Drivers/STM32H7xx_HAL_Driver/Src/stm32h7xx_hal_dma.c ****     else if (((tmpisr_bdma & (BDMA_FLAG_TE0 << (hdma->StreamIndex & 0x1FU))) != 0U) && ((ccr_reg & 
 7629              		.loc 1 1532 53
 7630 0ce8 7B68     		ldr	r3, [r7, #4]
 7631 0cea DB6D     		ldr	r3, [r3, #92]
 7632              		.loc 1 1532 67
ARM GAS  /var/folders/g1/j12m_ky910s3_sv7d4yrsdn00000gn/T//ccliMUVd.s 			page 162


 7633 0cec 03F01F03 		and	r3, r3, #31
 7634              		.loc 1 1532 45
 7635 0cf0 0822     		movs	r2, #8
 7636 0cf2 9A40     		lsls	r2, r2, r3
 7637              		.loc 1 1532 28
 7638 0cf4 7B69     		ldr	r3, [r7, #20]
 7639 0cf6 1340     		ands	r3, r3, r2
 7640              		.loc 1 1532 13
 7641 0cf8 002B     		cmp	r3, #0
 7642 0cfa 00F08880 		beq	.L211
 7643              		.loc 1 1532 98 discriminator 1
 7644 0cfe 3B69     		ldr	r3, [r7, #16]
 7645 0d00 03F00803 		and	r3, r3, #8
 7646              		.loc 1 1532 85 discriminator 1
 7647 0d04 002B     		cmp	r3, #0
 7648 0d06 00F08280 		beq	.L211
1533:Drivers/STM32H7xx_HAL_Driver/Src/stm32h7xx_hal_dma.c ****     {
1534:Drivers/STM32H7xx_HAL_Driver/Src/stm32h7xx_hal_dma.c ****       /* When a DMA transfer error occurs */
1535:Drivers/STM32H7xx_HAL_Driver/Src/stm32h7xx_hal_dma.c ****       /* A hardware clear of its EN bits is performed */
1536:Drivers/STM32H7xx_HAL_Driver/Src/stm32h7xx_hal_dma.c ****       /* Disable ALL DMA IT */
1537:Drivers/STM32H7xx_HAL_Driver/Src/stm32h7xx_hal_dma.c ****       __HAL_DMA_DISABLE_IT(hdma, (DMA_IT_TC | DMA_IT_HT | DMA_IT_TE));
 7649              		.loc 1 1537 7
 7650 0d0a 7B68     		ldr	r3, [r7, #4]
 7651 0d0c 1B68     		ldr	r3, [r3]
 7652 0d0e 414A     		ldr	r2, .L292
 7653 0d10 9342     		cmp	r3, r2
 7654 0d12 4AD0     		beq	.L275
 7655              		.loc 1 1537 7 is_stmt 0 discriminator 2
 7656 0d14 7B68     		ldr	r3, [r7, #4]
 7657 0d16 1B68     		ldr	r3, [r3]
 7658 0d18 3F4A     		ldr	r2, .L292+4
 7659 0d1a 9342     		cmp	r3, r2
 7660 0d1c 45D0     		beq	.L275
 7661              		.loc 1 1537 7 discriminator 4
 7662 0d1e 7B68     		ldr	r3, [r7, #4]
 7663 0d20 1B68     		ldr	r3, [r3]
 7664 0d22 3E4A     		ldr	r2, .L292+8
 7665 0d24 9342     		cmp	r3, r2
 7666 0d26 40D0     		beq	.L275
 7667              		.loc 1 1537 7 discriminator 6
 7668 0d28 7B68     		ldr	r3, [r7, #4]
 7669 0d2a 1B68     		ldr	r3, [r3]
 7670 0d2c 3C4A     		ldr	r2, .L292+12
 7671 0d2e 9342     		cmp	r3, r2
 7672 0d30 3BD0     		beq	.L275
 7673              		.loc 1 1537 7 discriminator 8
 7674 0d32 7B68     		ldr	r3, [r7, #4]
 7675 0d34 1B68     		ldr	r3, [r3]
 7676 0d36 3B4A     		ldr	r2, .L292+16
 7677 0d38 9342     		cmp	r3, r2
 7678 0d3a 36D0     		beq	.L275
 7679              		.loc 1 1537 7 discriminator 10
 7680 0d3c 7B68     		ldr	r3, [r7, #4]
 7681 0d3e 1B68     		ldr	r3, [r3]
 7682 0d40 394A     		ldr	r2, .L292+20
 7683 0d42 9342     		cmp	r3, r2
 7684 0d44 31D0     		beq	.L275
ARM GAS  /var/folders/g1/j12m_ky910s3_sv7d4yrsdn00000gn/T//ccliMUVd.s 			page 163


 7685              		.loc 1 1537 7 discriminator 12
 7686 0d46 7B68     		ldr	r3, [r7, #4]
 7687 0d48 1B68     		ldr	r3, [r3]
 7688 0d4a 384A     		ldr	r2, .L292+24
 7689 0d4c 9342     		cmp	r3, r2
 7690 0d4e 2CD0     		beq	.L275
 7691              		.loc 1 1537 7 discriminator 14
 7692 0d50 7B68     		ldr	r3, [r7, #4]
 7693 0d52 1B68     		ldr	r3, [r3]
 7694 0d54 364A     		ldr	r2, .L292+28
 7695 0d56 9342     		cmp	r3, r2
 7696 0d58 27D0     		beq	.L275
 7697              		.loc 1 1537 7 discriminator 16
 7698 0d5a 7B68     		ldr	r3, [r7, #4]
 7699 0d5c 1B68     		ldr	r3, [r3]
 7700 0d5e 354A     		ldr	r2, .L292+32
 7701 0d60 9342     		cmp	r3, r2
 7702 0d62 22D0     		beq	.L275
 7703              		.loc 1 1537 7 discriminator 18
 7704 0d64 7B68     		ldr	r3, [r7, #4]
 7705 0d66 1B68     		ldr	r3, [r3]
 7706 0d68 334A     		ldr	r2, .L292+36
 7707 0d6a 9342     		cmp	r3, r2
 7708 0d6c 1DD0     		beq	.L275
 7709              		.loc 1 1537 7 discriminator 20
 7710 0d6e 7B68     		ldr	r3, [r7, #4]
 7711 0d70 1B68     		ldr	r3, [r3]
 7712 0d72 324A     		ldr	r2, .L292+40
 7713 0d74 9342     		cmp	r3, r2
 7714 0d76 18D0     		beq	.L275
 7715              		.loc 1 1537 7 discriminator 22
 7716 0d78 7B68     		ldr	r3, [r7, #4]
 7717 0d7a 1B68     		ldr	r3, [r3]
 7718 0d7c 304A     		ldr	r2, .L292+44
 7719 0d7e 9342     		cmp	r3, r2
 7720 0d80 13D0     		beq	.L275
 7721              		.loc 1 1537 7 discriminator 24
 7722 0d82 7B68     		ldr	r3, [r7, #4]
 7723 0d84 1B68     		ldr	r3, [r3]
 7724 0d86 2F4A     		ldr	r2, .L292+48
 7725 0d88 9342     		cmp	r3, r2
 7726 0d8a 0ED0     		beq	.L275
 7727              		.loc 1 1537 7 discriminator 26
 7728 0d8c 7B68     		ldr	r3, [r7, #4]
 7729 0d8e 1B68     		ldr	r3, [r3]
 7730 0d90 2D4A     		ldr	r2, .L292+52
 7731 0d92 9342     		cmp	r3, r2
 7732 0d94 09D0     		beq	.L275
 7733              		.loc 1 1537 7 discriminator 28
 7734 0d96 7B68     		ldr	r3, [r7, #4]
 7735 0d98 1B68     		ldr	r3, [r3]
 7736 0d9a 2C4A     		ldr	r2, .L292+56
 7737 0d9c 9342     		cmp	r3, r2
 7738 0d9e 04D0     		beq	.L275
 7739              		.loc 1 1537 7 discriminator 30
 7740 0da0 7B68     		ldr	r3, [r7, #4]
 7741 0da2 1B68     		ldr	r3, [r3]
ARM GAS  /var/folders/g1/j12m_ky910s3_sv7d4yrsdn00000gn/T//ccliMUVd.s 			page 164


 7742 0da4 2A4A     		ldr	r2, .L292+60
 7743 0da6 9342     		cmp	r3, r2
 7744 0da8 08D1     		bne	.L276
 7745              	.L275:
 7746              		.loc 1 1537 7 discriminator 31
 7747 0daa 7B68     		ldr	r3, [r7, #4]
 7748 0dac 1B68     		ldr	r3, [r3]
 7749 0dae 1A68     		ldr	r2, [r3]
 7750 0db0 7B68     		ldr	r3, [r7, #4]
 7751 0db2 1B68     		ldr	r3, [r3]
 7752 0db4 22F01C02 		bic	r2, r2, #28
 7753 0db8 1A60     		str	r2, [r3]
 7754              		.loc 1 1537 7
 7755 0dba 07E0     		b	.L277
 7756              	.L276:
 7757              		.loc 1 1537 7 discriminator 32
 7758 0dbc 7B68     		ldr	r3, [r7, #4]
 7759 0dbe 1B68     		ldr	r3, [r3]
 7760 0dc0 1A68     		ldr	r2, [r3]
 7761 0dc2 7B68     		ldr	r3, [r7, #4]
 7762 0dc4 1B68     		ldr	r3, [r3]
 7763 0dc6 22F00E02 		bic	r2, r2, #14
 7764 0dca 1A60     		str	r2, [r3]
 7765              	.L277:
1538:Drivers/STM32H7xx_HAL_Driver/Src/stm32h7xx_hal_dma.c **** 
1539:Drivers/STM32H7xx_HAL_Driver/Src/stm32h7xx_hal_dma.c ****       /* Clear all flags */
1540:Drivers/STM32H7xx_HAL_Driver/Src/stm32h7xx_hal_dma.c ****       regs_bdma->IFCR = (BDMA_ISR_GIF0) << (hdma->StreamIndex & 0x1FU);
 7766              		.loc 1 1540 49 is_stmt 1
 7767 0dcc 7B68     		ldr	r3, [r7, #4]
 7768 0dce DB6D     		ldr	r3, [r3, #92]
 7769              		.loc 1 1540 63
 7770 0dd0 03F01F03 		and	r3, r3, #31
 7771              		.loc 1 1540 41
 7772 0dd4 0122     		movs	r2, #1
 7773 0dd6 9A40     		lsls	r2, r2, r3
 7774              		.loc 1 1540 23
 7775 0dd8 FB69     		ldr	r3, [r7, #28]
 7776 0dda 5A60     		str	r2, [r3, #4]
1541:Drivers/STM32H7xx_HAL_Driver/Src/stm32h7xx_hal_dma.c **** 
1542:Drivers/STM32H7xx_HAL_Driver/Src/stm32h7xx_hal_dma.c ****       /* Update error code */
1543:Drivers/STM32H7xx_HAL_Driver/Src/stm32h7xx_hal_dma.c ****       hdma->ErrorCode = HAL_DMA_ERROR_TE;
 7777              		.loc 1 1543 23
 7778 0ddc 7B68     		ldr	r3, [r7, #4]
 7779 0dde 0122     		movs	r2, #1
 7780 0de0 5A65     		str	r2, [r3, #84]
1544:Drivers/STM32H7xx_HAL_Driver/Src/stm32h7xx_hal_dma.c **** 
1545:Drivers/STM32H7xx_HAL_Driver/Src/stm32h7xx_hal_dma.c ****       /* Change the DMA state */
1546:Drivers/STM32H7xx_HAL_Driver/Src/stm32h7xx_hal_dma.c ****       hdma->State = HAL_DMA_STATE_READY;
 7781              		.loc 1 1546 19
 7782 0de2 7B68     		ldr	r3, [r7, #4]
 7783 0de4 0122     		movs	r2, #1
 7784 0de6 83F83520 		strb	r2, [r3, #53]
1547:Drivers/STM32H7xx_HAL_Driver/Src/stm32h7xx_hal_dma.c **** 
1548:Drivers/STM32H7xx_HAL_Driver/Src/stm32h7xx_hal_dma.c ****       /* Process Unlocked */
1549:Drivers/STM32H7xx_HAL_Driver/Src/stm32h7xx_hal_dma.c ****       __HAL_UNLOCK(hdma);
 7785              		.loc 1 1549 7
 7786 0dea 7B68     		ldr	r3, [r7, #4]
ARM GAS  /var/folders/g1/j12m_ky910s3_sv7d4yrsdn00000gn/T//ccliMUVd.s 			page 165


 7787 0dec 0022     		movs	r2, #0
 7788 0dee 83F83420 		strb	r2, [r3, #52]
1550:Drivers/STM32H7xx_HAL_Driver/Src/stm32h7xx_hal_dma.c **** 
1551:Drivers/STM32H7xx_HAL_Driver/Src/stm32h7xx_hal_dma.c ****       if (hdma->XferErrorCallback != NULL)
 7789              		.loc 1 1551 15
 7790 0df2 7B68     		ldr	r3, [r7, #4]
 7791 0df4 DB6C     		ldr	r3, [r3, #76]
 7792              		.loc 1 1551 10
 7793 0df6 002B     		cmp	r3, #0
 7794 0df8 09D0     		beq	.L211
1552:Drivers/STM32H7xx_HAL_Driver/Src/stm32h7xx_hal_dma.c ****       {
1553:Drivers/STM32H7xx_HAL_Driver/Src/stm32h7xx_hal_dma.c ****         /* Transfer error callback */
1554:Drivers/STM32H7xx_HAL_Driver/Src/stm32h7xx_hal_dma.c ****         hdma->XferErrorCallback(hdma);
 7795              		.loc 1 1554 13
 7796 0dfa 7B68     		ldr	r3, [r7, #4]
 7797 0dfc DB6C     		ldr	r3, [r3, #76]
 7798              		.loc 1 1554 9
 7799 0dfe 7868     		ldr	r0, [r7, #4]
 7800 0e00 9847     		blx	r3
 7801              	.LVL15:
 7802 0e02 04E0     		b	.L211
 7803              	.L278:
1342:Drivers/STM32H7xx_HAL_Driver/Src/stm32h7xx_hal_dma.c ****         }
 7804              		.loc 1 1342 11
 7805 0e04 00BF     		nop
 7806 0e06 02E0     		b	.L211
 7807              	.L280:
1442:Drivers/STM32H7xx_HAL_Driver/Src/stm32h7xx_hal_dma.c ****       {
 7808              		.loc 1 1442 9
 7809 0e08 00BF     		nop
 7810 0e0a 00E0     		b	.L211
 7811              	.L281:
1489:Drivers/STM32H7xx_HAL_Driver/Src/stm32h7xx_hal_dma.c ****       {
 7812              		.loc 1 1489 9
 7813 0e0c 00BF     		nop
 7814              	.L211:
1555:Drivers/STM32H7xx_HAL_Driver/Src/stm32h7xx_hal_dma.c ****       }
1556:Drivers/STM32H7xx_HAL_Driver/Src/stm32h7xx_hal_dma.c ****     }
1557:Drivers/STM32H7xx_HAL_Driver/Src/stm32h7xx_hal_dma.c ****     else
1558:Drivers/STM32H7xx_HAL_Driver/Src/stm32h7xx_hal_dma.c ****     {
1559:Drivers/STM32H7xx_HAL_Driver/Src/stm32h7xx_hal_dma.c ****       /* Nothing To Do */
1560:Drivers/STM32H7xx_HAL_Driver/Src/stm32h7xx_hal_dma.c ****     }
1561:Drivers/STM32H7xx_HAL_Driver/Src/stm32h7xx_hal_dma.c ****   }
1562:Drivers/STM32H7xx_HAL_Driver/Src/stm32h7xx_hal_dma.c ****   else
1563:Drivers/STM32H7xx_HAL_Driver/Src/stm32h7xx_hal_dma.c ****   {
1564:Drivers/STM32H7xx_HAL_Driver/Src/stm32h7xx_hal_dma.c ****     /* Nothing To Do */
1565:Drivers/STM32H7xx_HAL_Driver/Src/stm32h7xx_hal_dma.c ****   }
1566:Drivers/STM32H7xx_HAL_Driver/Src/stm32h7xx_hal_dma.c **** }
 7815              		.loc 1 1566 1
 7816 0e0e 2837     		adds	r7, r7, #40
 7817              	.LCFI38:
 7818              		.cfi_def_cfa_offset 8
 7819 0e10 BD46     		mov	sp, r7
 7820              	.LCFI39:
 7821              		.cfi_def_cfa_register 13
 7822              		@ sp needed
 7823 0e12 80BD     		pop	{r7, pc}
ARM GAS  /var/folders/g1/j12m_ky910s3_sv7d4yrsdn00000gn/T//ccliMUVd.s 			page 166


 7824              	.L293:
 7825              		.align	2
 7826              	.L292:
 7827 0e14 10000240 		.word	1073872912
 7828 0e18 28000240 		.word	1073872936
 7829 0e1c 40000240 		.word	1073872960
 7830 0e20 58000240 		.word	1073872984
 7831 0e24 70000240 		.word	1073873008
 7832 0e28 88000240 		.word	1073873032
 7833 0e2c A0000240 		.word	1073873056
 7834 0e30 B8000240 		.word	1073873080
 7835 0e34 10040240 		.word	1073873936
 7836 0e38 28040240 		.word	1073873960
 7837 0e3c 40040240 		.word	1073873984
 7838 0e40 58040240 		.word	1073874008
 7839 0e44 70040240 		.word	1073874032
 7840 0e48 88040240 		.word	1073874056
 7841 0e4c A0040240 		.word	1073874080
 7842 0e50 B8040240 		.word	1073874104
 7843              		.cfi_endproc
 7844              	.LFE151:
 7846              		.section	.text.HAL_DMA_RegisterCallback,"ax",%progbits
 7847              		.align	1
 7848              		.global	HAL_DMA_RegisterCallback
 7849              		.syntax unified
 7850              		.thumb
 7851              		.thumb_func
 7853              	HAL_DMA_RegisterCallback:
 7854              	.LFB152:
1567:Drivers/STM32H7xx_HAL_Driver/Src/stm32h7xx_hal_dma.c **** 
1568:Drivers/STM32H7xx_HAL_Driver/Src/stm32h7xx_hal_dma.c **** /**
1569:Drivers/STM32H7xx_HAL_Driver/Src/stm32h7xx_hal_dma.c ****   * @brief  Register callbacks
1570:Drivers/STM32H7xx_HAL_Driver/Src/stm32h7xx_hal_dma.c ****   * @param  hdma:                 pointer to a DMA_HandleTypeDef structure that contains
1571:Drivers/STM32H7xx_HAL_Driver/Src/stm32h7xx_hal_dma.c ****   *                               the configuration information for the specified DMA Stream.
1572:Drivers/STM32H7xx_HAL_Driver/Src/stm32h7xx_hal_dma.c ****   * @param  CallbackID:           User Callback identifier
1573:Drivers/STM32H7xx_HAL_Driver/Src/stm32h7xx_hal_dma.c ****   *                               a DMA_HandleTypeDef structure as parameter.
1574:Drivers/STM32H7xx_HAL_Driver/Src/stm32h7xx_hal_dma.c ****   * @param  pCallback:            pointer to private callback function which has pointer to
1575:Drivers/STM32H7xx_HAL_Driver/Src/stm32h7xx_hal_dma.c ****   *                               a DMA_HandleTypeDef structure as parameter.
1576:Drivers/STM32H7xx_HAL_Driver/Src/stm32h7xx_hal_dma.c ****   * @retval HAL status
1577:Drivers/STM32H7xx_HAL_Driver/Src/stm32h7xx_hal_dma.c ****   */
1578:Drivers/STM32H7xx_HAL_Driver/Src/stm32h7xx_hal_dma.c **** HAL_StatusTypeDef HAL_DMA_RegisterCallback(DMA_HandleTypeDef *hdma, HAL_DMA_CallbackIDTypeDef Callb
1579:Drivers/STM32H7xx_HAL_Driver/Src/stm32h7xx_hal_dma.c **** {
 7855              		.loc 1 1579 1
 7856              		.cfi_startproc
 7857              		@ args = 0, pretend = 0, frame = 24
 7858              		@ frame_needed = 1, uses_anonymous_args = 0
 7859              		@ link register save eliminated.
 7860 0000 80B4     		push	{r7}
 7861              	.LCFI40:
 7862              		.cfi_def_cfa_offset 4
 7863              		.cfi_offset 7, -4
 7864 0002 87B0     		sub	sp, sp, #28
 7865              	.LCFI41:
 7866              		.cfi_def_cfa_offset 32
 7867 0004 00AF     		add	r7, sp, #0
 7868              	.LCFI42:
 7869              		.cfi_def_cfa_register 7
ARM GAS  /var/folders/g1/j12m_ky910s3_sv7d4yrsdn00000gn/T//ccliMUVd.s 			page 167


 7870 0006 F860     		str	r0, [r7, #12]
 7871 0008 0B46     		mov	r3, r1
 7872 000a 7A60     		str	r2, [r7, #4]
 7873 000c FB72     		strb	r3, [r7, #11]
1580:Drivers/STM32H7xx_HAL_Driver/Src/stm32h7xx_hal_dma.c **** 
1581:Drivers/STM32H7xx_HAL_Driver/Src/stm32h7xx_hal_dma.c ****   HAL_StatusTypeDef status = HAL_OK;
 7874              		.loc 1 1581 21
 7875 000e 0023     		movs	r3, #0
 7876 0010 FB75     		strb	r3, [r7, #23]
1582:Drivers/STM32H7xx_HAL_Driver/Src/stm32h7xx_hal_dma.c **** 
1583:Drivers/STM32H7xx_HAL_Driver/Src/stm32h7xx_hal_dma.c ****   /* Check the DMA peripheral handle */
1584:Drivers/STM32H7xx_HAL_Driver/Src/stm32h7xx_hal_dma.c ****   if(hdma == NULL)
 7877              		.loc 1 1584 5
 7878 0012 FB68     		ldr	r3, [r7, #12]
 7879 0014 002B     		cmp	r3, #0
 7880 0016 01D1     		bne	.L295
1585:Drivers/STM32H7xx_HAL_Driver/Src/stm32h7xx_hal_dma.c ****   {
1586:Drivers/STM32H7xx_HAL_Driver/Src/stm32h7xx_hal_dma.c ****     return HAL_ERROR;
 7881              		.loc 1 1586 12
 7882 0018 0123     		movs	r3, #1
 7883 001a 45E0     		b	.L296
 7884              	.L295:
1587:Drivers/STM32H7xx_HAL_Driver/Src/stm32h7xx_hal_dma.c ****   }
1588:Drivers/STM32H7xx_HAL_Driver/Src/stm32h7xx_hal_dma.c **** 
1589:Drivers/STM32H7xx_HAL_Driver/Src/stm32h7xx_hal_dma.c ****   /* Process locked */
1590:Drivers/STM32H7xx_HAL_Driver/Src/stm32h7xx_hal_dma.c ****   __HAL_LOCK(hdma);
 7885              		.loc 1 1590 3
 7886 001c FB68     		ldr	r3, [r7, #12]
 7887 001e 93F83430 		ldrb	r3, [r3, #52]	@ zero_extendqisi2
 7888 0022 012B     		cmp	r3, #1
 7889 0024 01D1     		bne	.L297
 7890              		.loc 1 1590 3 is_stmt 0 discriminator 1
 7891 0026 0223     		movs	r3, #2
 7892              		.loc 1 1590 3
 7893 0028 3EE0     		b	.L296
 7894              	.L297:
 7895              		.loc 1 1590 3 discriminator 2
 7896 002a FB68     		ldr	r3, [r7, #12]
 7897 002c 0122     		movs	r2, #1
 7898 002e 83F83420 		strb	r2, [r3, #52]
1591:Drivers/STM32H7xx_HAL_Driver/Src/stm32h7xx_hal_dma.c **** 
1592:Drivers/STM32H7xx_HAL_Driver/Src/stm32h7xx_hal_dma.c ****   if(HAL_DMA_STATE_READY == hdma->State)
 7899              		.loc 1 1592 33 is_stmt 1
 7900 0032 FB68     		ldr	r3, [r7, #12]
 7901 0034 93F83530 		ldrb	r3, [r3, #53]
 7902 0038 DBB2     		uxtb	r3, r3
 7903              		.loc 1 1592 5
 7904 003a 012B     		cmp	r3, #1
 7905 003c 2DD1     		bne	.L298
1593:Drivers/STM32H7xx_HAL_Driver/Src/stm32h7xx_hal_dma.c ****   {
1594:Drivers/STM32H7xx_HAL_Driver/Src/stm32h7xx_hal_dma.c ****     switch (CallbackID)
 7906              		.loc 1 1594 5
 7907 003e FB7A     		ldrb	r3, [r7, #11]	@ zero_extendqisi2
 7908 0040 052B     		cmp	r3, #5
 7909 0042 27D8     		bhi	.L299
 7910 0044 01A2     		adr	r2, .L301
 7911 0046 52F823F0 		ldr	pc, [r2, r3, lsl #2]
ARM GAS  /var/folders/g1/j12m_ky910s3_sv7d4yrsdn00000gn/T//ccliMUVd.s 			page 168


 7912 004a 00BF     		.p2align 2
 7913              	.L301:
 7914 004c 65000000 		.word	.L306+1
 7915 0050 6D000000 		.word	.L305+1
 7916 0054 75000000 		.word	.L304+1
 7917 0058 7D000000 		.word	.L303+1
 7918 005c 85000000 		.word	.L302+1
 7919 0060 8D000000 		.word	.L300+1
 7920              		.p2align 1
 7921              	.L306:
1595:Drivers/STM32H7xx_HAL_Driver/Src/stm32h7xx_hal_dma.c ****     {
1596:Drivers/STM32H7xx_HAL_Driver/Src/stm32h7xx_hal_dma.c ****     case  HAL_DMA_XFER_CPLT_CB_ID:
1597:Drivers/STM32H7xx_HAL_Driver/Src/stm32h7xx_hal_dma.c ****       hdma->XferCpltCallback = pCallback;
 7922              		.loc 1 1597 30
 7923 0064 FB68     		ldr	r3, [r7, #12]
 7924 0066 7A68     		ldr	r2, [r7, #4]
 7925 0068 DA63     		str	r2, [r3, #60]
1598:Drivers/STM32H7xx_HAL_Driver/Src/stm32h7xx_hal_dma.c ****       break;
 7926              		.loc 1 1598 7
 7927 006a 18E0     		b	.L308
 7928              	.L305:
1599:Drivers/STM32H7xx_HAL_Driver/Src/stm32h7xx_hal_dma.c **** 
1600:Drivers/STM32H7xx_HAL_Driver/Src/stm32h7xx_hal_dma.c ****     case  HAL_DMA_XFER_HALFCPLT_CB_ID:
1601:Drivers/STM32H7xx_HAL_Driver/Src/stm32h7xx_hal_dma.c ****       hdma->XferHalfCpltCallback = pCallback;
 7929              		.loc 1 1601 34
 7930 006c FB68     		ldr	r3, [r7, #12]
 7931 006e 7A68     		ldr	r2, [r7, #4]
 7932 0070 1A64     		str	r2, [r3, #64]
1602:Drivers/STM32H7xx_HAL_Driver/Src/stm32h7xx_hal_dma.c ****       break;
 7933              		.loc 1 1602 7
 7934 0072 14E0     		b	.L308
 7935              	.L304:
1603:Drivers/STM32H7xx_HAL_Driver/Src/stm32h7xx_hal_dma.c **** 
1604:Drivers/STM32H7xx_HAL_Driver/Src/stm32h7xx_hal_dma.c ****     case  HAL_DMA_XFER_M1CPLT_CB_ID:
1605:Drivers/STM32H7xx_HAL_Driver/Src/stm32h7xx_hal_dma.c ****       hdma->XferM1CpltCallback = pCallback;
 7936              		.loc 1 1605 32
 7937 0074 FB68     		ldr	r3, [r7, #12]
 7938 0076 7A68     		ldr	r2, [r7, #4]
 7939 0078 5A64     		str	r2, [r3, #68]
1606:Drivers/STM32H7xx_HAL_Driver/Src/stm32h7xx_hal_dma.c ****       break;
 7940              		.loc 1 1606 7
 7941 007a 10E0     		b	.L308
 7942              	.L303:
1607:Drivers/STM32H7xx_HAL_Driver/Src/stm32h7xx_hal_dma.c **** 
1608:Drivers/STM32H7xx_HAL_Driver/Src/stm32h7xx_hal_dma.c ****     case  HAL_DMA_XFER_M1HALFCPLT_CB_ID:
1609:Drivers/STM32H7xx_HAL_Driver/Src/stm32h7xx_hal_dma.c ****       hdma->XferM1HalfCpltCallback = pCallback;
 7943              		.loc 1 1609 36
 7944 007c FB68     		ldr	r3, [r7, #12]
 7945 007e 7A68     		ldr	r2, [r7, #4]
 7946 0080 9A64     		str	r2, [r3, #72]
1610:Drivers/STM32H7xx_HAL_Driver/Src/stm32h7xx_hal_dma.c ****       break;
 7947              		.loc 1 1610 7
 7948 0082 0CE0     		b	.L308
 7949              	.L302:
1611:Drivers/STM32H7xx_HAL_Driver/Src/stm32h7xx_hal_dma.c **** 
1612:Drivers/STM32H7xx_HAL_Driver/Src/stm32h7xx_hal_dma.c ****     case  HAL_DMA_XFER_ERROR_CB_ID:
1613:Drivers/STM32H7xx_HAL_Driver/Src/stm32h7xx_hal_dma.c ****       hdma->XferErrorCallback = pCallback;
ARM GAS  /var/folders/g1/j12m_ky910s3_sv7d4yrsdn00000gn/T//ccliMUVd.s 			page 169


 7950              		.loc 1 1613 31
 7951 0084 FB68     		ldr	r3, [r7, #12]
 7952 0086 7A68     		ldr	r2, [r7, #4]
 7953 0088 DA64     		str	r2, [r3, #76]
1614:Drivers/STM32H7xx_HAL_Driver/Src/stm32h7xx_hal_dma.c ****       break;
 7954              		.loc 1 1614 7
 7955 008a 08E0     		b	.L308
 7956              	.L300:
1615:Drivers/STM32H7xx_HAL_Driver/Src/stm32h7xx_hal_dma.c **** 
1616:Drivers/STM32H7xx_HAL_Driver/Src/stm32h7xx_hal_dma.c ****     case  HAL_DMA_XFER_ABORT_CB_ID:
1617:Drivers/STM32H7xx_HAL_Driver/Src/stm32h7xx_hal_dma.c ****       hdma->XferAbortCallback = pCallback;
 7957              		.loc 1 1617 31
 7958 008c FB68     		ldr	r3, [r7, #12]
 7959 008e 7A68     		ldr	r2, [r7, #4]
 7960 0090 1A65     		str	r2, [r3, #80]
1618:Drivers/STM32H7xx_HAL_Driver/Src/stm32h7xx_hal_dma.c ****       break;
 7961              		.loc 1 1618 7
 7962 0092 04E0     		b	.L308
 7963              	.L299:
1619:Drivers/STM32H7xx_HAL_Driver/Src/stm32h7xx_hal_dma.c **** 
1620:Drivers/STM32H7xx_HAL_Driver/Src/stm32h7xx_hal_dma.c ****     default:
1621:Drivers/STM32H7xx_HAL_Driver/Src/stm32h7xx_hal_dma.c ****       status =  HAL_ERROR;
 7964              		.loc 1 1621 14
 7965 0094 0123     		movs	r3, #1
 7966 0096 FB75     		strb	r3, [r7, #23]
1622:Drivers/STM32H7xx_HAL_Driver/Src/stm32h7xx_hal_dma.c ****       break;
 7967              		.loc 1 1622 7
 7968 0098 01E0     		b	.L308
 7969              	.L298:
1623:Drivers/STM32H7xx_HAL_Driver/Src/stm32h7xx_hal_dma.c ****     }
1624:Drivers/STM32H7xx_HAL_Driver/Src/stm32h7xx_hal_dma.c ****   }
1625:Drivers/STM32H7xx_HAL_Driver/Src/stm32h7xx_hal_dma.c ****   else
1626:Drivers/STM32H7xx_HAL_Driver/Src/stm32h7xx_hal_dma.c ****   {
1627:Drivers/STM32H7xx_HAL_Driver/Src/stm32h7xx_hal_dma.c ****     /* Return error status */
1628:Drivers/STM32H7xx_HAL_Driver/Src/stm32h7xx_hal_dma.c ****     status =  HAL_ERROR;
 7970              		.loc 1 1628 12
 7971 009a 0123     		movs	r3, #1
 7972 009c FB75     		strb	r3, [r7, #23]
 7973              	.L308:
1629:Drivers/STM32H7xx_HAL_Driver/Src/stm32h7xx_hal_dma.c ****   }
1630:Drivers/STM32H7xx_HAL_Driver/Src/stm32h7xx_hal_dma.c **** 
1631:Drivers/STM32H7xx_HAL_Driver/Src/stm32h7xx_hal_dma.c ****   /* Release Lock */
1632:Drivers/STM32H7xx_HAL_Driver/Src/stm32h7xx_hal_dma.c ****   __HAL_UNLOCK(hdma);
 7974              		.loc 1 1632 3
 7975 009e FB68     		ldr	r3, [r7, #12]
 7976 00a0 0022     		movs	r2, #0
 7977 00a2 83F83420 		strb	r2, [r3, #52]
1633:Drivers/STM32H7xx_HAL_Driver/Src/stm32h7xx_hal_dma.c **** 
1634:Drivers/STM32H7xx_HAL_Driver/Src/stm32h7xx_hal_dma.c ****   return status;
 7978              		.loc 1 1634 10
 7979 00a6 FB7D     		ldrb	r3, [r7, #23]	@ zero_extendqisi2
 7980              	.L296:
1635:Drivers/STM32H7xx_HAL_Driver/Src/stm32h7xx_hal_dma.c **** }
 7981              		.loc 1 1635 1
 7982 00a8 1846     		mov	r0, r3
 7983 00aa 1C37     		adds	r7, r7, #28
 7984              	.LCFI43:
ARM GAS  /var/folders/g1/j12m_ky910s3_sv7d4yrsdn00000gn/T//ccliMUVd.s 			page 170


 7985              		.cfi_def_cfa_offset 4
 7986 00ac BD46     		mov	sp, r7
 7987              	.LCFI44:
 7988              		.cfi_def_cfa_register 13
 7989              		@ sp needed
 7990 00ae 5DF8047B 		ldr	r7, [sp], #4
 7991              	.LCFI45:
 7992              		.cfi_restore 7
 7993              		.cfi_def_cfa_offset 0
 7994 00b2 7047     		bx	lr
 7995              		.cfi_endproc
 7996              	.LFE152:
 7998              		.section	.text.HAL_DMA_UnRegisterCallback,"ax",%progbits
 7999              		.align	1
 8000              		.global	HAL_DMA_UnRegisterCallback
 8001              		.syntax unified
 8002              		.thumb
 8003              		.thumb_func
 8005              	HAL_DMA_UnRegisterCallback:
 8006              	.LFB153:
1636:Drivers/STM32H7xx_HAL_Driver/Src/stm32h7xx_hal_dma.c **** 
1637:Drivers/STM32H7xx_HAL_Driver/Src/stm32h7xx_hal_dma.c **** /**
1638:Drivers/STM32H7xx_HAL_Driver/Src/stm32h7xx_hal_dma.c ****   * @brief  UnRegister callbacks
1639:Drivers/STM32H7xx_HAL_Driver/Src/stm32h7xx_hal_dma.c ****   * @param  hdma:                 pointer to a DMA_HandleTypeDef structure that contains
1640:Drivers/STM32H7xx_HAL_Driver/Src/stm32h7xx_hal_dma.c ****   *                               the configuration information for the specified DMA Stream.
1641:Drivers/STM32H7xx_HAL_Driver/Src/stm32h7xx_hal_dma.c ****   * @param  CallbackID:           User Callback identifier
1642:Drivers/STM32H7xx_HAL_Driver/Src/stm32h7xx_hal_dma.c ****   *                               a HAL_DMA_CallbackIDTypeDef ENUM as parameter.
1643:Drivers/STM32H7xx_HAL_Driver/Src/stm32h7xx_hal_dma.c ****   * @retval HAL status
1644:Drivers/STM32H7xx_HAL_Driver/Src/stm32h7xx_hal_dma.c ****   */
1645:Drivers/STM32H7xx_HAL_Driver/Src/stm32h7xx_hal_dma.c **** HAL_StatusTypeDef HAL_DMA_UnRegisterCallback(DMA_HandleTypeDef *hdma, HAL_DMA_CallbackIDTypeDef Cal
1646:Drivers/STM32H7xx_HAL_Driver/Src/stm32h7xx_hal_dma.c **** {
 8007              		.loc 1 1646 1
 8008              		.cfi_startproc
 8009              		@ args = 0, pretend = 0, frame = 16
 8010              		@ frame_needed = 1, uses_anonymous_args = 0
 8011              		@ link register save eliminated.
 8012 0000 80B4     		push	{r7}
 8013              	.LCFI46:
 8014              		.cfi_def_cfa_offset 4
 8015              		.cfi_offset 7, -4
 8016 0002 85B0     		sub	sp, sp, #20
 8017              	.LCFI47:
 8018              		.cfi_def_cfa_offset 24
 8019 0004 00AF     		add	r7, sp, #0
 8020              	.LCFI48:
 8021              		.cfi_def_cfa_register 7
 8022 0006 7860     		str	r0, [r7, #4]
 8023 0008 0B46     		mov	r3, r1
 8024 000a FB70     		strb	r3, [r7, #3]
1647:Drivers/STM32H7xx_HAL_Driver/Src/stm32h7xx_hal_dma.c ****   HAL_StatusTypeDef status = HAL_OK;
 8025              		.loc 1 1647 21
 8026 000c 0023     		movs	r3, #0
 8027 000e FB73     		strb	r3, [r7, #15]
1648:Drivers/STM32H7xx_HAL_Driver/Src/stm32h7xx_hal_dma.c **** 
1649:Drivers/STM32H7xx_HAL_Driver/Src/stm32h7xx_hal_dma.c ****   /* Check the DMA peripheral handle */
1650:Drivers/STM32H7xx_HAL_Driver/Src/stm32h7xx_hal_dma.c ****   if(hdma == NULL)
 8028              		.loc 1 1650 5
ARM GAS  /var/folders/g1/j12m_ky910s3_sv7d4yrsdn00000gn/T//ccliMUVd.s 			page 171


 8029 0010 7B68     		ldr	r3, [r7, #4]
 8030 0012 002B     		cmp	r3, #0
 8031 0014 01D1     		bne	.L310
1651:Drivers/STM32H7xx_HAL_Driver/Src/stm32h7xx_hal_dma.c ****   {
1652:Drivers/STM32H7xx_HAL_Driver/Src/stm32h7xx_hal_dma.c ****     return HAL_ERROR;
 8032              		.loc 1 1652 12
 8033 0016 0123     		movs	r3, #1
 8034 0018 59E0     		b	.L311
 8035              	.L310:
1653:Drivers/STM32H7xx_HAL_Driver/Src/stm32h7xx_hal_dma.c ****   }
1654:Drivers/STM32H7xx_HAL_Driver/Src/stm32h7xx_hal_dma.c **** 
1655:Drivers/STM32H7xx_HAL_Driver/Src/stm32h7xx_hal_dma.c ****   /* Process locked */
1656:Drivers/STM32H7xx_HAL_Driver/Src/stm32h7xx_hal_dma.c ****   __HAL_LOCK(hdma);
 8036              		.loc 1 1656 3
 8037 001a 7B68     		ldr	r3, [r7, #4]
 8038 001c 93F83430 		ldrb	r3, [r3, #52]	@ zero_extendqisi2
 8039 0020 012B     		cmp	r3, #1
 8040 0022 01D1     		bne	.L312
 8041              		.loc 1 1656 3 is_stmt 0 discriminator 1
 8042 0024 0223     		movs	r3, #2
 8043              		.loc 1 1656 3
 8044 0026 52E0     		b	.L311
 8045              	.L312:
 8046              		.loc 1 1656 3 discriminator 2
 8047 0028 7B68     		ldr	r3, [r7, #4]
 8048 002a 0122     		movs	r2, #1
 8049 002c 83F83420 		strb	r2, [r3, #52]
1657:Drivers/STM32H7xx_HAL_Driver/Src/stm32h7xx_hal_dma.c **** 
1658:Drivers/STM32H7xx_HAL_Driver/Src/stm32h7xx_hal_dma.c ****   if(HAL_DMA_STATE_READY == hdma->State)
 8050              		.loc 1 1658 33 is_stmt 1
 8051 0030 7B68     		ldr	r3, [r7, #4]
 8052 0032 93F83530 		ldrb	r3, [r3, #53]
 8053 0036 DBB2     		uxtb	r3, r3
 8054              		.loc 1 1658 5
 8055 0038 012B     		cmp	r3, #1
 8056 003a 41D1     		bne	.L313
1659:Drivers/STM32H7xx_HAL_Driver/Src/stm32h7xx_hal_dma.c ****   {
1660:Drivers/STM32H7xx_HAL_Driver/Src/stm32h7xx_hal_dma.c ****     switch (CallbackID)
 8057              		.loc 1 1660 5
 8058 003c FB78     		ldrb	r3, [r7, #3]	@ zero_extendqisi2
 8059 003e 062B     		cmp	r3, #6
 8060 0040 3BD8     		bhi	.L314
 8061 0042 01A2     		adr	r2, .L316
 8062 0044 52F823F0 		ldr	pc, [r2, r3, lsl #2]
 8063              		.p2align 2
 8064              	.L316:
 8065 0048 65000000 		.word	.L322+1
 8066 004c 6D000000 		.word	.L321+1
 8067 0050 75000000 		.word	.L320+1
 8068 0054 7D000000 		.word	.L319+1
 8069 0058 85000000 		.word	.L318+1
 8070 005c 8D000000 		.word	.L317+1
 8071 0060 95000000 		.word	.L315+1
 8072              		.p2align 1
 8073              	.L322:
1661:Drivers/STM32H7xx_HAL_Driver/Src/stm32h7xx_hal_dma.c ****     {
1662:Drivers/STM32H7xx_HAL_Driver/Src/stm32h7xx_hal_dma.c ****     case  HAL_DMA_XFER_CPLT_CB_ID:
ARM GAS  /var/folders/g1/j12m_ky910s3_sv7d4yrsdn00000gn/T//ccliMUVd.s 			page 172


1663:Drivers/STM32H7xx_HAL_Driver/Src/stm32h7xx_hal_dma.c ****       hdma->XferCpltCallback = NULL;
 8074              		.loc 1 1663 30
 8075 0064 7B68     		ldr	r3, [r7, #4]
 8076 0066 0022     		movs	r2, #0
 8077 0068 DA63     		str	r2, [r3, #60]
1664:Drivers/STM32H7xx_HAL_Driver/Src/stm32h7xx_hal_dma.c ****       break;
 8078              		.loc 1 1664 7
 8079 006a 2BE0     		b	.L324
 8080              	.L321:
1665:Drivers/STM32H7xx_HAL_Driver/Src/stm32h7xx_hal_dma.c **** 
1666:Drivers/STM32H7xx_HAL_Driver/Src/stm32h7xx_hal_dma.c ****     case  HAL_DMA_XFER_HALFCPLT_CB_ID:
1667:Drivers/STM32H7xx_HAL_Driver/Src/stm32h7xx_hal_dma.c ****       hdma->XferHalfCpltCallback = NULL;
 8081              		.loc 1 1667 34
 8082 006c 7B68     		ldr	r3, [r7, #4]
 8083 006e 0022     		movs	r2, #0
 8084 0070 1A64     		str	r2, [r3, #64]
1668:Drivers/STM32H7xx_HAL_Driver/Src/stm32h7xx_hal_dma.c ****       break;
 8085              		.loc 1 1668 7
 8086 0072 27E0     		b	.L324
 8087              	.L320:
1669:Drivers/STM32H7xx_HAL_Driver/Src/stm32h7xx_hal_dma.c **** 
1670:Drivers/STM32H7xx_HAL_Driver/Src/stm32h7xx_hal_dma.c ****     case  HAL_DMA_XFER_M1CPLT_CB_ID:
1671:Drivers/STM32H7xx_HAL_Driver/Src/stm32h7xx_hal_dma.c ****       hdma->XferM1CpltCallback = NULL;
 8088              		.loc 1 1671 32
 8089 0074 7B68     		ldr	r3, [r7, #4]
 8090 0076 0022     		movs	r2, #0
 8091 0078 5A64     		str	r2, [r3, #68]
1672:Drivers/STM32H7xx_HAL_Driver/Src/stm32h7xx_hal_dma.c ****       break;
 8092              		.loc 1 1672 7
 8093 007a 23E0     		b	.L324
 8094              	.L319:
1673:Drivers/STM32H7xx_HAL_Driver/Src/stm32h7xx_hal_dma.c **** 
1674:Drivers/STM32H7xx_HAL_Driver/Src/stm32h7xx_hal_dma.c ****     case  HAL_DMA_XFER_M1HALFCPLT_CB_ID:
1675:Drivers/STM32H7xx_HAL_Driver/Src/stm32h7xx_hal_dma.c ****       hdma->XferM1HalfCpltCallback = NULL;
 8095              		.loc 1 1675 36
 8096 007c 7B68     		ldr	r3, [r7, #4]
 8097 007e 0022     		movs	r2, #0
 8098 0080 9A64     		str	r2, [r3, #72]
1676:Drivers/STM32H7xx_HAL_Driver/Src/stm32h7xx_hal_dma.c ****       break;
 8099              		.loc 1 1676 7
 8100 0082 1FE0     		b	.L324
 8101              	.L318:
1677:Drivers/STM32H7xx_HAL_Driver/Src/stm32h7xx_hal_dma.c **** 
1678:Drivers/STM32H7xx_HAL_Driver/Src/stm32h7xx_hal_dma.c ****     case  HAL_DMA_XFER_ERROR_CB_ID:
1679:Drivers/STM32H7xx_HAL_Driver/Src/stm32h7xx_hal_dma.c ****       hdma->XferErrorCallback = NULL;
 8102              		.loc 1 1679 31
 8103 0084 7B68     		ldr	r3, [r7, #4]
 8104 0086 0022     		movs	r2, #0
 8105 0088 DA64     		str	r2, [r3, #76]
1680:Drivers/STM32H7xx_HAL_Driver/Src/stm32h7xx_hal_dma.c ****       break;
 8106              		.loc 1 1680 7
 8107 008a 1BE0     		b	.L324
 8108              	.L317:
1681:Drivers/STM32H7xx_HAL_Driver/Src/stm32h7xx_hal_dma.c **** 
1682:Drivers/STM32H7xx_HAL_Driver/Src/stm32h7xx_hal_dma.c ****     case  HAL_DMA_XFER_ABORT_CB_ID:
1683:Drivers/STM32H7xx_HAL_Driver/Src/stm32h7xx_hal_dma.c ****       hdma->XferAbortCallback = NULL;
 8109              		.loc 1 1683 31
ARM GAS  /var/folders/g1/j12m_ky910s3_sv7d4yrsdn00000gn/T//ccliMUVd.s 			page 173


 8110 008c 7B68     		ldr	r3, [r7, #4]
 8111 008e 0022     		movs	r2, #0
 8112 0090 1A65     		str	r2, [r3, #80]
1684:Drivers/STM32H7xx_HAL_Driver/Src/stm32h7xx_hal_dma.c ****       break;
 8113              		.loc 1 1684 7
 8114 0092 17E0     		b	.L324
 8115              	.L315:
1685:Drivers/STM32H7xx_HAL_Driver/Src/stm32h7xx_hal_dma.c **** 
1686:Drivers/STM32H7xx_HAL_Driver/Src/stm32h7xx_hal_dma.c ****     case   HAL_DMA_XFER_ALL_CB_ID:
1687:Drivers/STM32H7xx_HAL_Driver/Src/stm32h7xx_hal_dma.c ****       hdma->XferCpltCallback = NULL;
 8116              		.loc 1 1687 30
 8117 0094 7B68     		ldr	r3, [r7, #4]
 8118 0096 0022     		movs	r2, #0
 8119 0098 DA63     		str	r2, [r3, #60]
1688:Drivers/STM32H7xx_HAL_Driver/Src/stm32h7xx_hal_dma.c ****       hdma->XferHalfCpltCallback = NULL;
 8120              		.loc 1 1688 34
 8121 009a 7B68     		ldr	r3, [r7, #4]
 8122 009c 0022     		movs	r2, #0
 8123 009e 1A64     		str	r2, [r3, #64]
1689:Drivers/STM32H7xx_HAL_Driver/Src/stm32h7xx_hal_dma.c ****       hdma->XferM1CpltCallback = NULL;
 8124              		.loc 1 1689 32
 8125 00a0 7B68     		ldr	r3, [r7, #4]
 8126 00a2 0022     		movs	r2, #0
 8127 00a4 5A64     		str	r2, [r3, #68]
1690:Drivers/STM32H7xx_HAL_Driver/Src/stm32h7xx_hal_dma.c ****       hdma->XferM1HalfCpltCallback = NULL;
 8128              		.loc 1 1690 36
 8129 00a6 7B68     		ldr	r3, [r7, #4]
 8130 00a8 0022     		movs	r2, #0
 8131 00aa 9A64     		str	r2, [r3, #72]
1691:Drivers/STM32H7xx_HAL_Driver/Src/stm32h7xx_hal_dma.c ****       hdma->XferErrorCallback = NULL;
 8132              		.loc 1 1691 31
 8133 00ac 7B68     		ldr	r3, [r7, #4]
 8134 00ae 0022     		movs	r2, #0
 8135 00b0 DA64     		str	r2, [r3, #76]
1692:Drivers/STM32H7xx_HAL_Driver/Src/stm32h7xx_hal_dma.c ****       hdma->XferAbortCallback = NULL;
 8136              		.loc 1 1692 31
 8137 00b2 7B68     		ldr	r3, [r7, #4]
 8138 00b4 0022     		movs	r2, #0
 8139 00b6 1A65     		str	r2, [r3, #80]
1693:Drivers/STM32H7xx_HAL_Driver/Src/stm32h7xx_hal_dma.c ****       break;
 8140              		.loc 1 1693 7
 8141 00b8 04E0     		b	.L324
 8142              	.L314:
1694:Drivers/STM32H7xx_HAL_Driver/Src/stm32h7xx_hal_dma.c **** 
1695:Drivers/STM32H7xx_HAL_Driver/Src/stm32h7xx_hal_dma.c ****     default:
1696:Drivers/STM32H7xx_HAL_Driver/Src/stm32h7xx_hal_dma.c ****       status = HAL_ERROR;
 8143              		.loc 1 1696 14
 8144 00ba 0123     		movs	r3, #1
 8145 00bc FB73     		strb	r3, [r7, #15]
1697:Drivers/STM32H7xx_HAL_Driver/Src/stm32h7xx_hal_dma.c ****       break;
 8146              		.loc 1 1697 7
 8147 00be 01E0     		b	.L324
 8148              	.L313:
1698:Drivers/STM32H7xx_HAL_Driver/Src/stm32h7xx_hal_dma.c ****     }
1699:Drivers/STM32H7xx_HAL_Driver/Src/stm32h7xx_hal_dma.c ****   }
1700:Drivers/STM32H7xx_HAL_Driver/Src/stm32h7xx_hal_dma.c ****   else
1701:Drivers/STM32H7xx_HAL_Driver/Src/stm32h7xx_hal_dma.c ****   {
ARM GAS  /var/folders/g1/j12m_ky910s3_sv7d4yrsdn00000gn/T//ccliMUVd.s 			page 174


1702:Drivers/STM32H7xx_HAL_Driver/Src/stm32h7xx_hal_dma.c ****     status = HAL_ERROR;
 8149              		.loc 1 1702 12
 8150 00c0 0123     		movs	r3, #1
 8151 00c2 FB73     		strb	r3, [r7, #15]
 8152              	.L324:
1703:Drivers/STM32H7xx_HAL_Driver/Src/stm32h7xx_hal_dma.c ****   }
1704:Drivers/STM32H7xx_HAL_Driver/Src/stm32h7xx_hal_dma.c **** 
1705:Drivers/STM32H7xx_HAL_Driver/Src/stm32h7xx_hal_dma.c ****   /* Release Lock */
1706:Drivers/STM32H7xx_HAL_Driver/Src/stm32h7xx_hal_dma.c ****   __HAL_UNLOCK(hdma);
 8153              		.loc 1 1706 3
 8154 00c4 7B68     		ldr	r3, [r7, #4]
 8155 00c6 0022     		movs	r2, #0
 8156 00c8 83F83420 		strb	r2, [r3, #52]
1707:Drivers/STM32H7xx_HAL_Driver/Src/stm32h7xx_hal_dma.c **** 
1708:Drivers/STM32H7xx_HAL_Driver/Src/stm32h7xx_hal_dma.c ****   return status;
 8157              		.loc 1 1708 10
 8158 00cc FB7B     		ldrb	r3, [r7, #15]	@ zero_extendqisi2
 8159              	.L311:
1709:Drivers/STM32H7xx_HAL_Driver/Src/stm32h7xx_hal_dma.c **** }
 8160              		.loc 1 1709 1
 8161 00ce 1846     		mov	r0, r3
 8162 00d0 1437     		adds	r7, r7, #20
 8163              	.LCFI49:
 8164              		.cfi_def_cfa_offset 4
 8165 00d2 BD46     		mov	sp, r7
 8166              	.LCFI50:
 8167              		.cfi_def_cfa_register 13
 8168              		@ sp needed
 8169 00d4 5DF8047B 		ldr	r7, [sp], #4
 8170              	.LCFI51:
 8171              		.cfi_restore 7
 8172              		.cfi_def_cfa_offset 0
 8173 00d8 7047     		bx	lr
 8174              		.cfi_endproc
 8175              	.LFE153:
 8177 00da 00BF     		.section	.text.HAL_DMA_GetState,"ax",%progbits
 8178              		.align	1
 8179              		.global	HAL_DMA_GetState
 8180              		.syntax unified
 8181              		.thumb
 8182              		.thumb_func
 8184              	HAL_DMA_GetState:
 8185              	.LFB154:
1710:Drivers/STM32H7xx_HAL_Driver/Src/stm32h7xx_hal_dma.c **** 
1711:Drivers/STM32H7xx_HAL_Driver/Src/stm32h7xx_hal_dma.c **** /**
1712:Drivers/STM32H7xx_HAL_Driver/Src/stm32h7xx_hal_dma.c ****   * @}
1713:Drivers/STM32H7xx_HAL_Driver/Src/stm32h7xx_hal_dma.c ****   */
1714:Drivers/STM32H7xx_HAL_Driver/Src/stm32h7xx_hal_dma.c **** 
1715:Drivers/STM32H7xx_HAL_Driver/Src/stm32h7xx_hal_dma.c **** /** @addtogroup DMA_Exported_Functions_Group3
1716:Drivers/STM32H7xx_HAL_Driver/Src/stm32h7xx_hal_dma.c ****   *
1717:Drivers/STM32H7xx_HAL_Driver/Src/stm32h7xx_hal_dma.c **** @verbatim
1718:Drivers/STM32H7xx_HAL_Driver/Src/stm32h7xx_hal_dma.c ****  ===============================================================================
1719:Drivers/STM32H7xx_HAL_Driver/Src/stm32h7xx_hal_dma.c ****                     ##### State and Errors functions #####
1720:Drivers/STM32H7xx_HAL_Driver/Src/stm32h7xx_hal_dma.c ****  ===============================================================================
1721:Drivers/STM32H7xx_HAL_Driver/Src/stm32h7xx_hal_dma.c ****     [..]
1722:Drivers/STM32H7xx_HAL_Driver/Src/stm32h7xx_hal_dma.c ****     This subsection provides functions allowing to
1723:Drivers/STM32H7xx_HAL_Driver/Src/stm32h7xx_hal_dma.c ****       (+) Check the DMA state
ARM GAS  /var/folders/g1/j12m_ky910s3_sv7d4yrsdn00000gn/T//ccliMUVd.s 			page 175


1724:Drivers/STM32H7xx_HAL_Driver/Src/stm32h7xx_hal_dma.c ****       (+) Get error code
1725:Drivers/STM32H7xx_HAL_Driver/Src/stm32h7xx_hal_dma.c **** 
1726:Drivers/STM32H7xx_HAL_Driver/Src/stm32h7xx_hal_dma.c **** @endverbatim
1727:Drivers/STM32H7xx_HAL_Driver/Src/stm32h7xx_hal_dma.c ****   * @{
1728:Drivers/STM32H7xx_HAL_Driver/Src/stm32h7xx_hal_dma.c ****   */
1729:Drivers/STM32H7xx_HAL_Driver/Src/stm32h7xx_hal_dma.c **** 
1730:Drivers/STM32H7xx_HAL_Driver/Src/stm32h7xx_hal_dma.c **** /**
1731:Drivers/STM32H7xx_HAL_Driver/Src/stm32h7xx_hal_dma.c ****   * @brief  Returns the DMA state.
1732:Drivers/STM32H7xx_HAL_Driver/Src/stm32h7xx_hal_dma.c ****   * @param  hdma: pointer to a DMA_HandleTypeDef structure that contains
1733:Drivers/STM32H7xx_HAL_Driver/Src/stm32h7xx_hal_dma.c ****   *               the configuration information for the specified DMA Stream.
1734:Drivers/STM32H7xx_HAL_Driver/Src/stm32h7xx_hal_dma.c ****   * @retval HAL state
1735:Drivers/STM32H7xx_HAL_Driver/Src/stm32h7xx_hal_dma.c ****   */
1736:Drivers/STM32H7xx_HAL_Driver/Src/stm32h7xx_hal_dma.c **** HAL_DMA_StateTypeDef HAL_DMA_GetState(const DMA_HandleTypeDef *hdma)
1737:Drivers/STM32H7xx_HAL_Driver/Src/stm32h7xx_hal_dma.c **** {
 8186              		.loc 1 1737 1
 8187              		.cfi_startproc
 8188              		@ args = 0, pretend = 0, frame = 8
 8189              		@ frame_needed = 1, uses_anonymous_args = 0
 8190              		@ link register save eliminated.
 8191 0000 80B4     		push	{r7}
 8192              	.LCFI52:
 8193              		.cfi_def_cfa_offset 4
 8194              		.cfi_offset 7, -4
 8195 0002 83B0     		sub	sp, sp, #12
 8196              	.LCFI53:
 8197              		.cfi_def_cfa_offset 16
 8198 0004 00AF     		add	r7, sp, #0
 8199              	.LCFI54:
 8200              		.cfi_def_cfa_register 7
 8201 0006 7860     		str	r0, [r7, #4]
1738:Drivers/STM32H7xx_HAL_Driver/Src/stm32h7xx_hal_dma.c ****   return hdma->State;
 8202              		.loc 1 1738 14
 8203 0008 7B68     		ldr	r3, [r7, #4]
 8204 000a 93F83530 		ldrb	r3, [r3, #53]
 8205 000e DBB2     		uxtb	r3, r3
1739:Drivers/STM32H7xx_HAL_Driver/Src/stm32h7xx_hal_dma.c **** }
 8206              		.loc 1 1739 1
 8207 0010 1846     		mov	r0, r3
 8208 0012 0C37     		adds	r7, r7, #12
 8209              	.LCFI55:
 8210              		.cfi_def_cfa_offset 4
 8211 0014 BD46     		mov	sp, r7
 8212              	.LCFI56:
 8213              		.cfi_def_cfa_register 13
 8214              		@ sp needed
 8215 0016 5DF8047B 		ldr	r7, [sp], #4
 8216              	.LCFI57:
 8217              		.cfi_restore 7
 8218              		.cfi_def_cfa_offset 0
 8219 001a 7047     		bx	lr
 8220              		.cfi_endproc
 8221              	.LFE154:
 8223              		.section	.text.HAL_DMA_GetError,"ax",%progbits
 8224              		.align	1
 8225              		.global	HAL_DMA_GetError
 8226              		.syntax unified
 8227              		.thumb
ARM GAS  /var/folders/g1/j12m_ky910s3_sv7d4yrsdn00000gn/T//ccliMUVd.s 			page 176


 8228              		.thumb_func
 8230              	HAL_DMA_GetError:
 8231              	.LFB155:
1740:Drivers/STM32H7xx_HAL_Driver/Src/stm32h7xx_hal_dma.c **** 
1741:Drivers/STM32H7xx_HAL_Driver/Src/stm32h7xx_hal_dma.c **** /**
1742:Drivers/STM32H7xx_HAL_Driver/Src/stm32h7xx_hal_dma.c ****   * @brief  Return the DMA error code
1743:Drivers/STM32H7xx_HAL_Driver/Src/stm32h7xx_hal_dma.c ****   * @param  hdma : pointer to a DMA_HandleTypeDef structure that contains
1744:Drivers/STM32H7xx_HAL_Driver/Src/stm32h7xx_hal_dma.c ****   *              the configuration information for the specified DMA Stream.
1745:Drivers/STM32H7xx_HAL_Driver/Src/stm32h7xx_hal_dma.c ****   * @retval DMA Error Code
1746:Drivers/STM32H7xx_HAL_Driver/Src/stm32h7xx_hal_dma.c ****   */
1747:Drivers/STM32H7xx_HAL_Driver/Src/stm32h7xx_hal_dma.c **** uint32_t HAL_DMA_GetError(const DMA_HandleTypeDef *hdma)
1748:Drivers/STM32H7xx_HAL_Driver/Src/stm32h7xx_hal_dma.c **** {
 8232              		.loc 1 1748 1
 8233              		.cfi_startproc
 8234              		@ args = 0, pretend = 0, frame = 8
 8235              		@ frame_needed = 1, uses_anonymous_args = 0
 8236              		@ link register save eliminated.
 8237 0000 80B4     		push	{r7}
 8238              	.LCFI58:
 8239              		.cfi_def_cfa_offset 4
 8240              		.cfi_offset 7, -4
 8241 0002 83B0     		sub	sp, sp, #12
 8242              	.LCFI59:
 8243              		.cfi_def_cfa_offset 16
 8244 0004 00AF     		add	r7, sp, #0
 8245              	.LCFI60:
 8246              		.cfi_def_cfa_register 7
 8247 0006 7860     		str	r0, [r7, #4]
1749:Drivers/STM32H7xx_HAL_Driver/Src/stm32h7xx_hal_dma.c ****   return hdma->ErrorCode;
 8248              		.loc 1 1749 14
 8249 0008 7B68     		ldr	r3, [r7, #4]
 8250 000a 5B6D     		ldr	r3, [r3, #84]
1750:Drivers/STM32H7xx_HAL_Driver/Src/stm32h7xx_hal_dma.c **** }
 8251              		.loc 1 1750 1
 8252 000c 1846     		mov	r0, r3
 8253 000e 0C37     		adds	r7, r7, #12
 8254              	.LCFI61:
 8255              		.cfi_def_cfa_offset 4
 8256 0010 BD46     		mov	sp, r7
 8257              	.LCFI62:
 8258              		.cfi_def_cfa_register 13
 8259              		@ sp needed
 8260 0012 5DF8047B 		ldr	r7, [sp], #4
 8261              	.LCFI63:
 8262              		.cfi_restore 7
 8263              		.cfi_def_cfa_offset 0
 8264 0016 7047     		bx	lr
 8265              		.cfi_endproc
 8266              	.LFE155:
 8268              		.section	.text.DMA_SetConfig,"ax",%progbits
 8269              		.align	1
 8270              		.syntax unified
 8271              		.thumb
 8272              		.thumb_func
 8274              	DMA_SetConfig:
 8275              	.LFB156:
1751:Drivers/STM32H7xx_HAL_Driver/Src/stm32h7xx_hal_dma.c **** 
ARM GAS  /var/folders/g1/j12m_ky910s3_sv7d4yrsdn00000gn/T//ccliMUVd.s 			page 177


1752:Drivers/STM32H7xx_HAL_Driver/Src/stm32h7xx_hal_dma.c **** /**
1753:Drivers/STM32H7xx_HAL_Driver/Src/stm32h7xx_hal_dma.c ****   * @}
1754:Drivers/STM32H7xx_HAL_Driver/Src/stm32h7xx_hal_dma.c ****   */
1755:Drivers/STM32H7xx_HAL_Driver/Src/stm32h7xx_hal_dma.c **** 
1756:Drivers/STM32H7xx_HAL_Driver/Src/stm32h7xx_hal_dma.c **** /**
1757:Drivers/STM32H7xx_HAL_Driver/Src/stm32h7xx_hal_dma.c ****   * @}
1758:Drivers/STM32H7xx_HAL_Driver/Src/stm32h7xx_hal_dma.c ****   */
1759:Drivers/STM32H7xx_HAL_Driver/Src/stm32h7xx_hal_dma.c **** 
1760:Drivers/STM32H7xx_HAL_Driver/Src/stm32h7xx_hal_dma.c **** /** @addtogroup DMA_Private_Functions
1761:Drivers/STM32H7xx_HAL_Driver/Src/stm32h7xx_hal_dma.c ****   * @{
1762:Drivers/STM32H7xx_HAL_Driver/Src/stm32h7xx_hal_dma.c ****   */
1763:Drivers/STM32H7xx_HAL_Driver/Src/stm32h7xx_hal_dma.c **** 
1764:Drivers/STM32H7xx_HAL_Driver/Src/stm32h7xx_hal_dma.c **** /**
1765:Drivers/STM32H7xx_HAL_Driver/Src/stm32h7xx_hal_dma.c ****   * @brief  Sets the DMA Transfer parameter.
1766:Drivers/STM32H7xx_HAL_Driver/Src/stm32h7xx_hal_dma.c ****   * @param  hdma:       pointer to a DMA_HandleTypeDef structure that contains
1767:Drivers/STM32H7xx_HAL_Driver/Src/stm32h7xx_hal_dma.c ****   *                     the configuration information for the specified DMA Stream.
1768:Drivers/STM32H7xx_HAL_Driver/Src/stm32h7xx_hal_dma.c ****   * @param  SrcAddress: The source memory Buffer address
1769:Drivers/STM32H7xx_HAL_Driver/Src/stm32h7xx_hal_dma.c ****   * @param  DstAddress: The destination memory Buffer address
1770:Drivers/STM32H7xx_HAL_Driver/Src/stm32h7xx_hal_dma.c ****   * @param  DataLength: The length of data to be transferred from source to destination
1771:Drivers/STM32H7xx_HAL_Driver/Src/stm32h7xx_hal_dma.c ****   * @retval None
1772:Drivers/STM32H7xx_HAL_Driver/Src/stm32h7xx_hal_dma.c ****   */
1773:Drivers/STM32H7xx_HAL_Driver/Src/stm32h7xx_hal_dma.c **** static void DMA_SetConfig(DMA_HandleTypeDef *hdma, uint32_t SrcAddress, uint32_t DstAddress, uint32
1774:Drivers/STM32H7xx_HAL_Driver/Src/stm32h7xx_hal_dma.c **** {
 8276              		.loc 1 1774 1
 8277              		.cfi_startproc
 8278              		@ args = 0, pretend = 0, frame = 24
 8279              		@ frame_needed = 1, uses_anonymous_args = 0
 8280              		@ link register save eliminated.
 8281 0000 80B4     		push	{r7}
 8282              	.LCFI64:
 8283              		.cfi_def_cfa_offset 4
 8284              		.cfi_offset 7, -4
 8285 0002 87B0     		sub	sp, sp, #28
 8286              	.LCFI65:
 8287              		.cfi_def_cfa_offset 32
 8288 0004 00AF     		add	r7, sp, #0
 8289              	.LCFI66:
 8290              		.cfi_def_cfa_register 7
 8291 0006 F860     		str	r0, [r7, #12]
 8292 0008 B960     		str	r1, [r7, #8]
 8293 000a 7A60     		str	r2, [r7, #4]
 8294 000c 3B60     		str	r3, [r7]
1775:Drivers/STM32H7xx_HAL_Driver/Src/stm32h7xx_hal_dma.c ****   /* calculate DMA base and stream number */
1776:Drivers/STM32H7xx_HAL_Driver/Src/stm32h7xx_hal_dma.c ****   DMA_Base_Registers  *regs_dma  = (DMA_Base_Registers *)hdma->StreamBaseAddress;
 8295              		.loc 1 1776 62
 8296 000e FB68     		ldr	r3, [r7, #12]
 8297 0010 9B6D     		ldr	r3, [r3, #88]
 8298              		.loc 1 1776 24
 8299 0012 7B61     		str	r3, [r7, #20]
1777:Drivers/STM32H7xx_HAL_Driver/Src/stm32h7xx_hal_dma.c ****   BDMA_Base_Registers *regs_bdma = (BDMA_Base_Registers *)hdma->StreamBaseAddress;
 8300              		.loc 1 1777 63
 8301 0014 FB68     		ldr	r3, [r7, #12]
 8302 0016 9B6D     		ldr	r3, [r3, #88]
 8303              		.loc 1 1777 24
 8304 0018 3B61     		str	r3, [r7, #16]
1778:Drivers/STM32H7xx_HAL_Driver/Src/stm32h7xx_hal_dma.c **** 
1779:Drivers/STM32H7xx_HAL_Driver/Src/stm32h7xx_hal_dma.c ****   if(IS_DMA_DMAMUX_ALL_INSTANCE(hdma->Instance) != 0U) /* No DMAMUX available for BDMA1 */
ARM GAS  /var/folders/g1/j12m_ky910s3_sv7d4yrsdn00000gn/T//ccliMUVd.s 			page 178


 8305              		.loc 1 1779 6
 8306 001a FB68     		ldr	r3, [r7, #12]
 8307 001c 1B68     		ldr	r3, [r3]
 8308 001e 7F4A     		ldr	r2, .L345
 8309 0020 9342     		cmp	r3, r2
 8310 0022 72D0     		beq	.L330
 8311              		.loc 1 1779 6 is_stmt 0 discriminator 2
 8312 0024 FB68     		ldr	r3, [r7, #12]
 8313 0026 1B68     		ldr	r3, [r3]
 8314 0028 7D4A     		ldr	r2, .L345+4
 8315 002a 9342     		cmp	r3, r2
 8316 002c 6DD0     		beq	.L330
 8317              		.loc 1 1779 6 discriminator 4
 8318 002e FB68     		ldr	r3, [r7, #12]
 8319 0030 1B68     		ldr	r3, [r3]
 8320 0032 7C4A     		ldr	r2, .L345+8
 8321 0034 9342     		cmp	r3, r2
 8322 0036 68D0     		beq	.L330
 8323              		.loc 1 1779 6 discriminator 6
 8324 0038 FB68     		ldr	r3, [r7, #12]
 8325 003a 1B68     		ldr	r3, [r3]
 8326 003c 7A4A     		ldr	r2, .L345+12
 8327 003e 9342     		cmp	r3, r2
 8328 0040 63D0     		beq	.L330
 8329              		.loc 1 1779 6 discriminator 8
 8330 0042 FB68     		ldr	r3, [r7, #12]
 8331 0044 1B68     		ldr	r3, [r3]
 8332 0046 794A     		ldr	r2, .L345+16
 8333 0048 9342     		cmp	r3, r2
 8334 004a 5ED0     		beq	.L330
 8335              		.loc 1 1779 6 discriminator 10
 8336 004c FB68     		ldr	r3, [r7, #12]
 8337 004e 1B68     		ldr	r3, [r3]
 8338 0050 774A     		ldr	r2, .L345+20
 8339 0052 9342     		cmp	r3, r2
 8340 0054 59D0     		beq	.L330
 8341              		.loc 1 1779 6 discriminator 12
 8342 0056 FB68     		ldr	r3, [r7, #12]
 8343 0058 1B68     		ldr	r3, [r3]
 8344 005a 764A     		ldr	r2, .L345+24
 8345 005c 9342     		cmp	r3, r2
 8346 005e 54D0     		beq	.L330
 8347              		.loc 1 1779 6 discriminator 14
 8348 0060 FB68     		ldr	r3, [r7, #12]
 8349 0062 1B68     		ldr	r3, [r3]
 8350 0064 744A     		ldr	r2, .L345+28
 8351 0066 9342     		cmp	r3, r2
 8352 0068 4FD0     		beq	.L330
 8353              		.loc 1 1779 6 discriminator 16
 8354 006a FB68     		ldr	r3, [r7, #12]
 8355 006c 1B68     		ldr	r3, [r3]
 8356 006e 734A     		ldr	r2, .L345+32
 8357 0070 9342     		cmp	r3, r2
 8358 0072 4AD0     		beq	.L330
 8359              		.loc 1 1779 6 discriminator 18
 8360 0074 FB68     		ldr	r3, [r7, #12]
 8361 0076 1B68     		ldr	r3, [r3]
ARM GAS  /var/folders/g1/j12m_ky910s3_sv7d4yrsdn00000gn/T//ccliMUVd.s 			page 179


 8362 0078 714A     		ldr	r2, .L345+36
 8363 007a 9342     		cmp	r3, r2
 8364 007c 45D0     		beq	.L330
 8365              		.loc 1 1779 6 discriminator 20
 8366 007e FB68     		ldr	r3, [r7, #12]
 8367 0080 1B68     		ldr	r3, [r3]
 8368 0082 704A     		ldr	r2, .L345+40
 8369 0084 9342     		cmp	r3, r2
 8370 0086 40D0     		beq	.L330
 8371              		.loc 1 1779 6 discriminator 22
 8372 0088 FB68     		ldr	r3, [r7, #12]
 8373 008a 1B68     		ldr	r3, [r3]
 8374 008c 6E4A     		ldr	r2, .L345+44
 8375 008e 9342     		cmp	r3, r2
 8376 0090 3BD0     		beq	.L330
 8377              		.loc 1 1779 6 discriminator 24
 8378 0092 FB68     		ldr	r3, [r7, #12]
 8379 0094 1B68     		ldr	r3, [r3]
 8380 0096 6D4A     		ldr	r2, .L345+48
 8381 0098 9342     		cmp	r3, r2
 8382 009a 36D0     		beq	.L330
 8383              		.loc 1 1779 6 discriminator 26
 8384 009c FB68     		ldr	r3, [r7, #12]
 8385 009e 1B68     		ldr	r3, [r3]
 8386 00a0 6B4A     		ldr	r2, .L345+52
 8387 00a2 9342     		cmp	r3, r2
 8388 00a4 31D0     		beq	.L330
 8389              		.loc 1 1779 6 discriminator 28
 8390 00a6 FB68     		ldr	r3, [r7, #12]
 8391 00a8 1B68     		ldr	r3, [r3]
 8392 00aa 6A4A     		ldr	r2, .L345+56
 8393 00ac 9342     		cmp	r3, r2
 8394 00ae 2CD0     		beq	.L330
 8395              		.loc 1 1779 6 discriminator 30
 8396 00b0 FB68     		ldr	r3, [r7, #12]
 8397 00b2 1B68     		ldr	r3, [r3]
 8398 00b4 684A     		ldr	r2, .L345+60
 8399 00b6 9342     		cmp	r3, r2
 8400 00b8 27D0     		beq	.L330
 8401              		.loc 1 1779 6 discriminator 32
 8402 00ba FB68     		ldr	r3, [r7, #12]
 8403 00bc 1B68     		ldr	r3, [r3]
 8404 00be 674A     		ldr	r2, .L345+64
 8405 00c0 9342     		cmp	r3, r2
 8406 00c2 22D0     		beq	.L330
 8407              		.loc 1 1779 6 discriminator 34
 8408 00c4 FB68     		ldr	r3, [r7, #12]
 8409 00c6 1B68     		ldr	r3, [r3]
 8410 00c8 654A     		ldr	r2, .L345+68
 8411 00ca 9342     		cmp	r3, r2
 8412 00cc 1DD0     		beq	.L330
 8413              		.loc 1 1779 6 discriminator 36
 8414 00ce FB68     		ldr	r3, [r7, #12]
 8415 00d0 1B68     		ldr	r3, [r3]
 8416 00d2 644A     		ldr	r2, .L345+72
 8417 00d4 9342     		cmp	r3, r2
 8418 00d6 18D0     		beq	.L330
ARM GAS  /var/folders/g1/j12m_ky910s3_sv7d4yrsdn00000gn/T//ccliMUVd.s 			page 180


 8419              		.loc 1 1779 6 discriminator 38
 8420 00d8 FB68     		ldr	r3, [r7, #12]
 8421 00da 1B68     		ldr	r3, [r3]
 8422 00dc 624A     		ldr	r2, .L345+76
 8423 00de 9342     		cmp	r3, r2
 8424 00e0 13D0     		beq	.L330
 8425              		.loc 1 1779 6 discriminator 40
 8426 00e2 FB68     		ldr	r3, [r7, #12]
 8427 00e4 1B68     		ldr	r3, [r3]
 8428 00e6 614A     		ldr	r2, .L345+80
 8429 00e8 9342     		cmp	r3, r2
 8430 00ea 0ED0     		beq	.L330
 8431              		.loc 1 1779 6 discriminator 42
 8432 00ec FB68     		ldr	r3, [r7, #12]
 8433 00ee 1B68     		ldr	r3, [r3]
 8434 00f0 5F4A     		ldr	r2, .L345+84
 8435 00f2 9342     		cmp	r3, r2
 8436 00f4 09D0     		beq	.L330
 8437              		.loc 1 1779 6 discriminator 44
 8438 00f6 FB68     		ldr	r3, [r7, #12]
 8439 00f8 1B68     		ldr	r3, [r3]
 8440 00fa 5E4A     		ldr	r2, .L345+88
 8441 00fc 9342     		cmp	r3, r2
 8442 00fe 04D0     		beq	.L330
 8443              		.loc 1 1779 6 discriminator 46
 8444 0100 FB68     		ldr	r3, [r7, #12]
 8445 0102 1B68     		ldr	r3, [r3]
 8446 0104 5C4A     		ldr	r2, .L345+92
 8447 0106 9342     		cmp	r3, r2
 8448 0108 01D1     		bne	.L331
 8449              	.L330:
 8450              		.loc 1 1779 6 discriminator 47
 8451 010a 0123     		movs	r3, #1
 8452              		.loc 1 1779 6
 8453 010c 00E0     		b	.L332
 8454              	.L331:
 8455              		.loc 1 1779 6 discriminator 48
 8456 010e 0023     		movs	r3, #0
 8457              	.L332:
 8458              		.loc 1 1779 5 is_stmt 1 discriminator 50
 8459 0110 002B     		cmp	r3, #0
 8460 0112 0DD0     		beq	.L333
1780:Drivers/STM32H7xx_HAL_Driver/Src/stm32h7xx_hal_dma.c ****   {
1781:Drivers/STM32H7xx_HAL_Driver/Src/stm32h7xx_hal_dma.c ****     /* Clear the DMAMUX synchro overrun flag */
1782:Drivers/STM32H7xx_HAL_Driver/Src/stm32h7xx_hal_dma.c ****     hdma->DMAmuxChannelStatus->CFR = hdma->DMAmuxChannelStatusMask;
 8461              		.loc 1 1782 9
 8462 0114 FB68     		ldr	r3, [r7, #12]
 8463 0116 5B6E     		ldr	r3, [r3, #100]
 8464              		.loc 1 1782 42
 8465 0118 FA68     		ldr	r2, [r7, #12]
 8466 011a 926E     		ldr	r2, [r2, #104]
 8467              		.loc 1 1782 36
 8468 011c 5A60     		str	r2, [r3, #4]
1783:Drivers/STM32H7xx_HAL_Driver/Src/stm32h7xx_hal_dma.c **** 
1784:Drivers/STM32H7xx_HAL_Driver/Src/stm32h7xx_hal_dma.c ****     if(hdma->DMAmuxRequestGen != 0U)
 8469              		.loc 1 1784 12
 8470 011e FB68     		ldr	r3, [r7, #12]
ARM GAS  /var/folders/g1/j12m_ky910s3_sv7d4yrsdn00000gn/T//ccliMUVd.s 			page 181


 8471 0120 DB6E     		ldr	r3, [r3, #108]
 8472              		.loc 1 1784 7
 8473 0122 002B     		cmp	r3, #0
 8474 0124 04D0     		beq	.L333
1785:Drivers/STM32H7xx_HAL_Driver/Src/stm32h7xx_hal_dma.c ****     {
1786:Drivers/STM32H7xx_HAL_Driver/Src/stm32h7xx_hal_dma.c ****       /* Clear the DMAMUX request generator overrun flag */
1787:Drivers/STM32H7xx_HAL_Driver/Src/stm32h7xx_hal_dma.c ****       hdma->DMAmuxRequestGenStatus->RGCFR = hdma->DMAmuxRequestGenStatusMask;
 8475              		.loc 1 1787 11
 8476 0126 FB68     		ldr	r3, [r7, #12]
 8477 0128 1B6F     		ldr	r3, [r3, #112]
 8478              		.loc 1 1787 49
 8479 012a FA68     		ldr	r2, [r7, #12]
 8480 012c 526F     		ldr	r2, [r2, #116]
 8481              		.loc 1 1787 43
 8482 012e 5A60     		str	r2, [r3, #4]
 8483              	.L333:
1788:Drivers/STM32H7xx_HAL_Driver/Src/stm32h7xx_hal_dma.c ****     }
1789:Drivers/STM32H7xx_HAL_Driver/Src/stm32h7xx_hal_dma.c ****   }
1790:Drivers/STM32H7xx_HAL_Driver/Src/stm32h7xx_hal_dma.c **** 
1791:Drivers/STM32H7xx_HAL_Driver/Src/stm32h7xx_hal_dma.c ****   if(IS_DMA_STREAM_INSTANCE(hdma->Instance) != 0U) /* DMA1 or DMA2 instance */
 8484              		.loc 1 1791 6
 8485 0130 FB68     		ldr	r3, [r7, #12]
 8486 0132 1B68     		ldr	r3, [r3]
 8487 0134 394A     		ldr	r2, .L345
 8488 0136 9342     		cmp	r3, r2
 8489 0138 4AD0     		beq	.L334
 8490              		.loc 1 1791 6 is_stmt 0 discriminator 2
 8491 013a FB68     		ldr	r3, [r7, #12]
 8492 013c 1B68     		ldr	r3, [r3]
 8493 013e 384A     		ldr	r2, .L345+4
 8494 0140 9342     		cmp	r3, r2
 8495 0142 45D0     		beq	.L334
 8496              		.loc 1 1791 6 discriminator 4
 8497 0144 FB68     		ldr	r3, [r7, #12]
 8498 0146 1B68     		ldr	r3, [r3]
 8499 0148 364A     		ldr	r2, .L345+8
 8500 014a 9342     		cmp	r3, r2
 8501 014c 40D0     		beq	.L334
 8502              		.loc 1 1791 6 discriminator 6
 8503 014e FB68     		ldr	r3, [r7, #12]
 8504 0150 1B68     		ldr	r3, [r3]
 8505 0152 354A     		ldr	r2, .L345+12
 8506 0154 9342     		cmp	r3, r2
 8507 0156 3BD0     		beq	.L334
 8508              		.loc 1 1791 6 discriminator 8
 8509 0158 FB68     		ldr	r3, [r7, #12]
 8510 015a 1B68     		ldr	r3, [r3]
 8511 015c 334A     		ldr	r2, .L345+16
 8512 015e 9342     		cmp	r3, r2
 8513 0160 36D0     		beq	.L334
 8514              		.loc 1 1791 6 discriminator 10
 8515 0162 FB68     		ldr	r3, [r7, #12]
 8516 0164 1B68     		ldr	r3, [r3]
 8517 0166 324A     		ldr	r2, .L345+20
 8518 0168 9342     		cmp	r3, r2
 8519 016a 31D0     		beq	.L334
 8520              		.loc 1 1791 6 discriminator 12
ARM GAS  /var/folders/g1/j12m_ky910s3_sv7d4yrsdn00000gn/T//ccliMUVd.s 			page 182


 8521 016c FB68     		ldr	r3, [r7, #12]
 8522 016e 1B68     		ldr	r3, [r3]
 8523 0170 304A     		ldr	r2, .L345+24
 8524 0172 9342     		cmp	r3, r2
 8525 0174 2CD0     		beq	.L334
 8526              		.loc 1 1791 6 discriminator 14
 8527 0176 FB68     		ldr	r3, [r7, #12]
 8528 0178 1B68     		ldr	r3, [r3]
 8529 017a 2F4A     		ldr	r2, .L345+28
 8530 017c 9342     		cmp	r3, r2
 8531 017e 27D0     		beq	.L334
 8532              		.loc 1 1791 6 discriminator 16
 8533 0180 FB68     		ldr	r3, [r7, #12]
 8534 0182 1B68     		ldr	r3, [r3]
 8535 0184 2D4A     		ldr	r2, .L345+32
 8536 0186 9342     		cmp	r3, r2
 8537 0188 22D0     		beq	.L334
 8538              		.loc 1 1791 6 discriminator 18
 8539 018a FB68     		ldr	r3, [r7, #12]
 8540 018c 1B68     		ldr	r3, [r3]
 8541 018e 2C4A     		ldr	r2, .L345+36
 8542 0190 9342     		cmp	r3, r2
 8543 0192 1DD0     		beq	.L334
 8544              		.loc 1 1791 6 discriminator 20
 8545 0194 FB68     		ldr	r3, [r7, #12]
 8546 0196 1B68     		ldr	r3, [r3]
 8547 0198 2A4A     		ldr	r2, .L345+40
 8548 019a 9342     		cmp	r3, r2
 8549 019c 18D0     		beq	.L334
 8550              		.loc 1 1791 6 discriminator 22
 8551 019e FB68     		ldr	r3, [r7, #12]
 8552 01a0 1B68     		ldr	r3, [r3]
 8553 01a2 294A     		ldr	r2, .L345+44
 8554 01a4 9342     		cmp	r3, r2
 8555 01a6 13D0     		beq	.L334
 8556              		.loc 1 1791 6 discriminator 24
 8557 01a8 FB68     		ldr	r3, [r7, #12]
 8558 01aa 1B68     		ldr	r3, [r3]
 8559 01ac 274A     		ldr	r2, .L345+48
 8560 01ae 9342     		cmp	r3, r2
 8561 01b0 0ED0     		beq	.L334
 8562              		.loc 1 1791 6 discriminator 26
 8563 01b2 FB68     		ldr	r3, [r7, #12]
 8564 01b4 1B68     		ldr	r3, [r3]
 8565 01b6 264A     		ldr	r2, .L345+52
 8566 01b8 9342     		cmp	r3, r2
 8567 01ba 09D0     		beq	.L334
 8568              		.loc 1 1791 6 discriminator 28
 8569 01bc FB68     		ldr	r3, [r7, #12]
 8570 01be 1B68     		ldr	r3, [r3]
 8571 01c0 244A     		ldr	r2, .L345+56
 8572 01c2 9342     		cmp	r3, r2
 8573 01c4 04D0     		beq	.L334
 8574              		.loc 1 1791 6 discriminator 30
 8575 01c6 FB68     		ldr	r3, [r7, #12]
 8576 01c8 1B68     		ldr	r3, [r3]
 8577 01ca 234A     		ldr	r2, .L345+60
ARM GAS  /var/folders/g1/j12m_ky910s3_sv7d4yrsdn00000gn/T//ccliMUVd.s 			page 183


 8578 01cc 9342     		cmp	r3, r2
 8579 01ce 01D1     		bne	.L335
 8580              	.L334:
 8581              		.loc 1 1791 6 discriminator 31
 8582 01d0 0123     		movs	r3, #1
 8583              		.loc 1 1791 6
 8584 01d2 00E0     		b	.L336
 8585              	.L335:
 8586              		.loc 1 1791 6 discriminator 32
 8587 01d4 0023     		movs	r3, #0
 8588              	.L336:
 8589              		.loc 1 1791 5 is_stmt 1 discriminator 34
 8590 01d6 002B     		cmp	r3, #0
 8591 01d8 59D0     		beq	.L337
1792:Drivers/STM32H7xx_HAL_Driver/Src/stm32h7xx_hal_dma.c ****   {
1793:Drivers/STM32H7xx_HAL_Driver/Src/stm32h7xx_hal_dma.c ****     /* Clear all interrupt flags at correct offset within the register */
1794:Drivers/STM32H7xx_HAL_Driver/Src/stm32h7xx_hal_dma.c ****     regs_dma->IFCR = 0x3FUL << (hdma->StreamIndex & 0x1FU);
 8592              		.loc 1 1794 37
 8593 01da FB68     		ldr	r3, [r7, #12]
 8594 01dc DB6D     		ldr	r3, [r3, #92]
 8595              		.loc 1 1794 51
 8596 01de 03F01F03 		and	r3, r3, #31
 8597              		.loc 1 1794 29
 8598 01e2 3F22     		movs	r2, #63
 8599 01e4 9A40     		lsls	r2, r2, r3
 8600              		.loc 1 1794 20
 8601 01e6 7B69     		ldr	r3, [r7, #20]
 8602 01e8 9A60     		str	r2, [r3, #8]
1795:Drivers/STM32H7xx_HAL_Driver/Src/stm32h7xx_hal_dma.c **** 
1796:Drivers/STM32H7xx_HAL_Driver/Src/stm32h7xx_hal_dma.c ****     /* Clear DBM bit */
1797:Drivers/STM32H7xx_HAL_Driver/Src/stm32h7xx_hal_dma.c ****     ((DMA_Stream_TypeDef *)hdma->Instance)->CR &= (uint32_t)(~DMA_SxCR_DBM);
 8603              		.loc 1 1797 32
 8604 01ea FB68     		ldr	r3, [r7, #12]
 8605 01ec 1B68     		ldr	r3, [r3]
 8606              		.loc 1 1797 43
 8607 01ee 1A68     		ldr	r2, [r3]
 8608              		.loc 1 1797 32
 8609 01f0 FB68     		ldr	r3, [r7, #12]
 8610 01f2 1B68     		ldr	r3, [r3]
 8611              		.loc 1 1797 48
 8612 01f4 22F48022 		bic	r2, r2, #262144
 8613 01f8 1A60     		str	r2, [r3]
1798:Drivers/STM32H7xx_HAL_Driver/Src/stm32h7xx_hal_dma.c **** 
1799:Drivers/STM32H7xx_HAL_Driver/Src/stm32h7xx_hal_dma.c ****     /* Configure DMA Stream data length */
1800:Drivers/STM32H7xx_HAL_Driver/Src/stm32h7xx_hal_dma.c ****     ((DMA_Stream_TypeDef *)hdma->Instance)->NDTR = DataLength;
 8614              		.loc 1 1800 32
 8615 01fa FB68     		ldr	r3, [r7, #12]
 8616 01fc 1B68     		ldr	r3, [r3]
 8617              		.loc 1 1800 50
 8618 01fe 3A68     		ldr	r2, [r7]
 8619 0200 5A60     		str	r2, [r3, #4]
1801:Drivers/STM32H7xx_HAL_Driver/Src/stm32h7xx_hal_dma.c **** 
1802:Drivers/STM32H7xx_HAL_Driver/Src/stm32h7xx_hal_dma.c ****     /* Peripheral to Memory */
1803:Drivers/STM32H7xx_HAL_Driver/Src/stm32h7xx_hal_dma.c ****     if((hdma->Init.Direction) == DMA_MEMORY_TO_PERIPH)
 8620              		.loc 1 1803 19
 8621 0202 FB68     		ldr	r3, [r7, #12]
 8622 0204 9B68     		ldr	r3, [r3, #8]
ARM GAS  /var/folders/g1/j12m_ky910s3_sv7d4yrsdn00000gn/T//ccliMUVd.s 			page 184


 8623              		.loc 1 1803 7
 8624 0206 402B     		cmp	r3, #64
 8625 0208 38D1     		bne	.L338
1804:Drivers/STM32H7xx_HAL_Driver/Src/stm32h7xx_hal_dma.c ****     {
1805:Drivers/STM32H7xx_HAL_Driver/Src/stm32h7xx_hal_dma.c ****       /* Configure DMA Stream destination address */
1806:Drivers/STM32H7xx_HAL_Driver/Src/stm32h7xx_hal_dma.c ****       ((DMA_Stream_TypeDef *)hdma->Instance)->PAR = DstAddress;
 8626              		.loc 1 1806 34
 8627 020a FB68     		ldr	r3, [r7, #12]
 8628 020c 1B68     		ldr	r3, [r3]
 8629              		.loc 1 1806 51
 8630 020e 7A68     		ldr	r2, [r7, #4]
 8631 0210 9A60     		str	r2, [r3, #8]
1807:Drivers/STM32H7xx_HAL_Driver/Src/stm32h7xx_hal_dma.c **** 
1808:Drivers/STM32H7xx_HAL_Driver/Src/stm32h7xx_hal_dma.c ****       /* Configure DMA Stream source address */
1809:Drivers/STM32H7xx_HAL_Driver/Src/stm32h7xx_hal_dma.c ****       ((DMA_Stream_TypeDef *)hdma->Instance)->M0AR = SrcAddress;
 8632              		.loc 1 1809 34
 8633 0212 FB68     		ldr	r3, [r7, #12]
 8634 0214 1B68     		ldr	r3, [r3]
 8635              		.loc 1 1809 52
 8636 0216 BA68     		ldr	r2, [r7, #8]
 8637 0218 DA60     		str	r2, [r3, #12]
1810:Drivers/STM32H7xx_HAL_Driver/Src/stm32h7xx_hal_dma.c ****     }
1811:Drivers/STM32H7xx_HAL_Driver/Src/stm32h7xx_hal_dma.c ****     /* Memory to Peripheral */
1812:Drivers/STM32H7xx_HAL_Driver/Src/stm32h7xx_hal_dma.c ****     else
1813:Drivers/STM32H7xx_HAL_Driver/Src/stm32h7xx_hal_dma.c ****     {
1814:Drivers/STM32H7xx_HAL_Driver/Src/stm32h7xx_hal_dma.c ****       /* Configure DMA Stream source address */
1815:Drivers/STM32H7xx_HAL_Driver/Src/stm32h7xx_hal_dma.c ****       ((DMA_Stream_TypeDef *)hdma->Instance)->PAR = SrcAddress;
1816:Drivers/STM32H7xx_HAL_Driver/Src/stm32h7xx_hal_dma.c **** 
1817:Drivers/STM32H7xx_HAL_Driver/Src/stm32h7xx_hal_dma.c ****       /* Configure DMA Stream destination address */
1818:Drivers/STM32H7xx_HAL_Driver/Src/stm32h7xx_hal_dma.c ****       ((DMA_Stream_TypeDef *)hdma->Instance)->M0AR = DstAddress;
1819:Drivers/STM32H7xx_HAL_Driver/Src/stm32h7xx_hal_dma.c ****     }
1820:Drivers/STM32H7xx_HAL_Driver/Src/stm32h7xx_hal_dma.c ****   }
1821:Drivers/STM32H7xx_HAL_Driver/Src/stm32h7xx_hal_dma.c ****   else if(IS_BDMA_CHANNEL_INSTANCE(hdma->Instance) != 0U) /* BDMA instance(s) */
1822:Drivers/STM32H7xx_HAL_Driver/Src/stm32h7xx_hal_dma.c ****   {
1823:Drivers/STM32H7xx_HAL_Driver/Src/stm32h7xx_hal_dma.c ****     /* Clear all flags */
1824:Drivers/STM32H7xx_HAL_Driver/Src/stm32h7xx_hal_dma.c ****     regs_bdma->IFCR = (BDMA_ISR_GIF0) << (hdma->StreamIndex & 0x1FU);
1825:Drivers/STM32H7xx_HAL_Driver/Src/stm32h7xx_hal_dma.c **** 
1826:Drivers/STM32H7xx_HAL_Driver/Src/stm32h7xx_hal_dma.c ****     /* Configure DMA Channel data length */
1827:Drivers/STM32H7xx_HAL_Driver/Src/stm32h7xx_hal_dma.c ****     ((BDMA_Channel_TypeDef *)hdma->Instance)->CNDTR = DataLength;
1828:Drivers/STM32H7xx_HAL_Driver/Src/stm32h7xx_hal_dma.c **** 
1829:Drivers/STM32H7xx_HAL_Driver/Src/stm32h7xx_hal_dma.c ****     /* Peripheral to Memory */
1830:Drivers/STM32H7xx_HAL_Driver/Src/stm32h7xx_hal_dma.c ****     if((hdma->Init.Direction) == DMA_MEMORY_TO_PERIPH)
1831:Drivers/STM32H7xx_HAL_Driver/Src/stm32h7xx_hal_dma.c ****     {
1832:Drivers/STM32H7xx_HAL_Driver/Src/stm32h7xx_hal_dma.c ****       /* Configure DMA Channel destination address */
1833:Drivers/STM32H7xx_HAL_Driver/Src/stm32h7xx_hal_dma.c ****       ((BDMA_Channel_TypeDef *)hdma->Instance)->CPAR = DstAddress;
1834:Drivers/STM32H7xx_HAL_Driver/Src/stm32h7xx_hal_dma.c **** 
1835:Drivers/STM32H7xx_HAL_Driver/Src/stm32h7xx_hal_dma.c ****       /* Configure DMA Channel source address */
1836:Drivers/STM32H7xx_HAL_Driver/Src/stm32h7xx_hal_dma.c ****       ((BDMA_Channel_TypeDef *)hdma->Instance)->CM0AR = SrcAddress;
1837:Drivers/STM32H7xx_HAL_Driver/Src/stm32h7xx_hal_dma.c ****     }
1838:Drivers/STM32H7xx_HAL_Driver/Src/stm32h7xx_hal_dma.c ****     /* Memory to Peripheral */
1839:Drivers/STM32H7xx_HAL_Driver/Src/stm32h7xx_hal_dma.c ****     else
1840:Drivers/STM32H7xx_HAL_Driver/Src/stm32h7xx_hal_dma.c ****     {
1841:Drivers/STM32H7xx_HAL_Driver/Src/stm32h7xx_hal_dma.c ****       /* Configure DMA Channel source address */
1842:Drivers/STM32H7xx_HAL_Driver/Src/stm32h7xx_hal_dma.c ****       ((BDMA_Channel_TypeDef *)hdma->Instance)->CPAR = SrcAddress;
1843:Drivers/STM32H7xx_HAL_Driver/Src/stm32h7xx_hal_dma.c **** 
1844:Drivers/STM32H7xx_HAL_Driver/Src/stm32h7xx_hal_dma.c ****       /* Configure DMA Channel destination address */
1845:Drivers/STM32H7xx_HAL_Driver/Src/stm32h7xx_hal_dma.c ****       ((BDMA_Channel_TypeDef *)hdma->Instance)->CM0AR = DstAddress;
ARM GAS  /var/folders/g1/j12m_ky910s3_sv7d4yrsdn00000gn/T//ccliMUVd.s 			page 185


1846:Drivers/STM32H7xx_HAL_Driver/Src/stm32h7xx_hal_dma.c ****     }
1847:Drivers/STM32H7xx_HAL_Driver/Src/stm32h7xx_hal_dma.c ****   }
1848:Drivers/STM32H7xx_HAL_Driver/Src/stm32h7xx_hal_dma.c ****   else
1849:Drivers/STM32H7xx_HAL_Driver/Src/stm32h7xx_hal_dma.c ****   {
1850:Drivers/STM32H7xx_HAL_Driver/Src/stm32h7xx_hal_dma.c ****     /* Nothing To Do */
1851:Drivers/STM32H7xx_HAL_Driver/Src/stm32h7xx_hal_dma.c ****   }
1852:Drivers/STM32H7xx_HAL_Driver/Src/stm32h7xx_hal_dma.c **** }
 8638              		.loc 1 1852 1
 8639 021a 86E0     		b	.L344
 8640              	.L346:
 8641              		.align	2
 8642              	.L345:
 8643 021c 10000240 		.word	1073872912
 8644 0220 28000240 		.word	1073872936
 8645 0224 40000240 		.word	1073872960
 8646 0228 58000240 		.word	1073872984
 8647 022c 70000240 		.word	1073873008
 8648 0230 88000240 		.word	1073873032
 8649 0234 A0000240 		.word	1073873056
 8650 0238 B8000240 		.word	1073873080
 8651 023c 10040240 		.word	1073873936
 8652 0240 28040240 		.word	1073873960
 8653 0244 40040240 		.word	1073873984
 8654 0248 58040240 		.word	1073874008
 8655 024c 70040240 		.word	1073874032
 8656 0250 88040240 		.word	1073874056
 8657 0254 A0040240 		.word	1073874080
 8658 0258 B8040240 		.word	1073874104
 8659 025c 08540258 		.word	1476547592
 8660 0260 1C540258 		.word	1476547612
 8661 0264 30540258 		.word	1476547632
 8662 0268 44540258 		.word	1476547652
 8663 026c 58540258 		.word	1476547672
 8664 0270 6C540258 		.word	1476547692
 8665 0274 80540258 		.word	1476547712
 8666 0278 94540258 		.word	1476547732
 8667              	.L338:
1815:Drivers/STM32H7xx_HAL_Driver/Src/stm32h7xx_hal_dma.c **** 
 8668              		.loc 1 1815 34
 8669 027c FB68     		ldr	r3, [r7, #12]
 8670 027e 1B68     		ldr	r3, [r3]
1815:Drivers/STM32H7xx_HAL_Driver/Src/stm32h7xx_hal_dma.c **** 
 8671              		.loc 1 1815 51
 8672 0280 BA68     		ldr	r2, [r7, #8]
 8673 0282 9A60     		str	r2, [r3, #8]
1818:Drivers/STM32H7xx_HAL_Driver/Src/stm32h7xx_hal_dma.c ****     }
 8674              		.loc 1 1818 34
 8675 0284 FB68     		ldr	r3, [r7, #12]
 8676 0286 1B68     		ldr	r3, [r3]
1818:Drivers/STM32H7xx_HAL_Driver/Src/stm32h7xx_hal_dma.c ****     }
 8677              		.loc 1 1818 52
 8678 0288 7A68     		ldr	r2, [r7, #4]
 8679 028a DA60     		str	r2, [r3, #12]
 8680              		.loc 1 1852 1
 8681 028c 4DE0     		b	.L344
 8682              	.L337:
1821:Drivers/STM32H7xx_HAL_Driver/Src/stm32h7xx_hal_dma.c ****   {
ARM GAS  /var/folders/g1/j12m_ky910s3_sv7d4yrsdn00000gn/T//ccliMUVd.s 			page 186


 8683              		.loc 1 1821 11
 8684 028e FB68     		ldr	r3, [r7, #12]
 8685 0290 1B68     		ldr	r3, [r3]
 8686 0292 294A     		ldr	r2, .L347
 8687 0294 9342     		cmp	r3, r2
 8688 0296 22D0     		beq	.L340
1821:Drivers/STM32H7xx_HAL_Driver/Src/stm32h7xx_hal_dma.c ****   {
 8689              		.loc 1 1821 11 is_stmt 0 discriminator 2
 8690 0298 FB68     		ldr	r3, [r7, #12]
 8691 029a 1B68     		ldr	r3, [r3]
 8692 029c 274A     		ldr	r2, .L347+4
 8693 029e 9342     		cmp	r3, r2
 8694 02a0 1DD0     		beq	.L340
1821:Drivers/STM32H7xx_HAL_Driver/Src/stm32h7xx_hal_dma.c ****   {
 8695              		.loc 1 1821 11 discriminator 4
 8696 02a2 FB68     		ldr	r3, [r7, #12]
 8697 02a4 1B68     		ldr	r3, [r3]
 8698 02a6 264A     		ldr	r2, .L347+8
 8699 02a8 9342     		cmp	r3, r2
 8700 02aa 18D0     		beq	.L340
1821:Drivers/STM32H7xx_HAL_Driver/Src/stm32h7xx_hal_dma.c ****   {
 8701              		.loc 1 1821 11 discriminator 6
 8702 02ac FB68     		ldr	r3, [r7, #12]
 8703 02ae 1B68     		ldr	r3, [r3]
 8704 02b0 244A     		ldr	r2, .L347+12
 8705 02b2 9342     		cmp	r3, r2
 8706 02b4 13D0     		beq	.L340
1821:Drivers/STM32H7xx_HAL_Driver/Src/stm32h7xx_hal_dma.c ****   {
 8707              		.loc 1 1821 11 discriminator 8
 8708 02b6 FB68     		ldr	r3, [r7, #12]
 8709 02b8 1B68     		ldr	r3, [r3]
 8710 02ba 234A     		ldr	r2, .L347+16
 8711 02bc 9342     		cmp	r3, r2
 8712 02be 0ED0     		beq	.L340
1821:Drivers/STM32H7xx_HAL_Driver/Src/stm32h7xx_hal_dma.c ****   {
 8713              		.loc 1 1821 11 discriminator 10
 8714 02c0 FB68     		ldr	r3, [r7, #12]
 8715 02c2 1B68     		ldr	r3, [r3]
 8716 02c4 214A     		ldr	r2, .L347+20
 8717 02c6 9342     		cmp	r3, r2
 8718 02c8 09D0     		beq	.L340
1821:Drivers/STM32H7xx_HAL_Driver/Src/stm32h7xx_hal_dma.c ****   {
 8719              		.loc 1 1821 11 discriminator 12
 8720 02ca FB68     		ldr	r3, [r7, #12]
 8721 02cc 1B68     		ldr	r3, [r3]
 8722 02ce 204A     		ldr	r2, .L347+24
 8723 02d0 9342     		cmp	r3, r2
 8724 02d2 04D0     		beq	.L340
1821:Drivers/STM32H7xx_HAL_Driver/Src/stm32h7xx_hal_dma.c ****   {
 8725              		.loc 1 1821 11 discriminator 14
 8726 02d4 FB68     		ldr	r3, [r7, #12]
 8727 02d6 1B68     		ldr	r3, [r3]
 8728 02d8 1E4A     		ldr	r2, .L347+28
 8729 02da 9342     		cmp	r3, r2
 8730 02dc 01D1     		bne	.L341
 8731              	.L340:
1821:Drivers/STM32H7xx_HAL_Driver/Src/stm32h7xx_hal_dma.c ****   {
ARM GAS  /var/folders/g1/j12m_ky910s3_sv7d4yrsdn00000gn/T//ccliMUVd.s 			page 187


 8732              		.loc 1 1821 11 discriminator 15
 8733 02de 0123     		movs	r3, #1
1821:Drivers/STM32H7xx_HAL_Driver/Src/stm32h7xx_hal_dma.c ****   {
 8734              		.loc 1 1821 11
 8735 02e0 00E0     		b	.L342
 8736              	.L341:
1821:Drivers/STM32H7xx_HAL_Driver/Src/stm32h7xx_hal_dma.c ****   {
 8737              		.loc 1 1821 11 discriminator 16
 8738 02e2 0023     		movs	r3, #0
 8739              	.L342:
1821:Drivers/STM32H7xx_HAL_Driver/Src/stm32h7xx_hal_dma.c ****   {
 8740              		.loc 1 1821 10 is_stmt 1 discriminator 18
 8741 02e4 002B     		cmp	r3, #0
 8742 02e6 20D0     		beq	.L344
1824:Drivers/STM32H7xx_HAL_Driver/Src/stm32h7xx_hal_dma.c **** 
 8743              		.loc 1 1824 47
 8744 02e8 FB68     		ldr	r3, [r7, #12]
 8745 02ea DB6D     		ldr	r3, [r3, #92]
1824:Drivers/STM32H7xx_HAL_Driver/Src/stm32h7xx_hal_dma.c **** 
 8746              		.loc 1 1824 61
 8747 02ec 03F01F03 		and	r3, r3, #31
1824:Drivers/STM32H7xx_HAL_Driver/Src/stm32h7xx_hal_dma.c **** 
 8748              		.loc 1 1824 39
 8749 02f0 0122     		movs	r2, #1
 8750 02f2 9A40     		lsls	r2, r2, r3
1824:Drivers/STM32H7xx_HAL_Driver/Src/stm32h7xx_hal_dma.c **** 
 8751              		.loc 1 1824 21
 8752 02f4 3B69     		ldr	r3, [r7, #16]
 8753 02f6 5A60     		str	r2, [r3, #4]
1827:Drivers/STM32H7xx_HAL_Driver/Src/stm32h7xx_hal_dma.c **** 
 8754              		.loc 1 1827 34
 8755 02f8 FB68     		ldr	r3, [r7, #12]
 8756 02fa 1B68     		ldr	r3, [r3]
1827:Drivers/STM32H7xx_HAL_Driver/Src/stm32h7xx_hal_dma.c **** 
 8757              		.loc 1 1827 53
 8758 02fc 3A68     		ldr	r2, [r7]
 8759 02fe 5A60     		str	r2, [r3, #4]
1830:Drivers/STM32H7xx_HAL_Driver/Src/stm32h7xx_hal_dma.c ****     {
 8760              		.loc 1 1830 19
 8761 0300 FB68     		ldr	r3, [r7, #12]
 8762 0302 9B68     		ldr	r3, [r3, #8]
1830:Drivers/STM32H7xx_HAL_Driver/Src/stm32h7xx_hal_dma.c ****     {
 8763              		.loc 1 1830 7
 8764 0304 402B     		cmp	r3, #64
 8765 0306 08D1     		bne	.L343
1833:Drivers/STM32H7xx_HAL_Driver/Src/stm32h7xx_hal_dma.c **** 
 8766              		.loc 1 1833 36
 8767 0308 FB68     		ldr	r3, [r7, #12]
 8768 030a 1B68     		ldr	r3, [r3]
1833:Drivers/STM32H7xx_HAL_Driver/Src/stm32h7xx_hal_dma.c **** 
 8769              		.loc 1 1833 54
 8770 030c 7A68     		ldr	r2, [r7, #4]
 8771 030e 9A60     		str	r2, [r3, #8]
1836:Drivers/STM32H7xx_HAL_Driver/Src/stm32h7xx_hal_dma.c ****     }
 8772              		.loc 1 1836 36
 8773 0310 FB68     		ldr	r3, [r7, #12]
 8774 0312 1B68     		ldr	r3, [r3]
ARM GAS  /var/folders/g1/j12m_ky910s3_sv7d4yrsdn00000gn/T//ccliMUVd.s 			page 188


1836:Drivers/STM32H7xx_HAL_Driver/Src/stm32h7xx_hal_dma.c ****     }
 8775              		.loc 1 1836 55
 8776 0314 BA68     		ldr	r2, [r7, #8]
 8777 0316 DA60     		str	r2, [r3, #12]
 8778              		.loc 1 1852 1
 8779 0318 07E0     		b	.L344
 8780              	.L343:
1842:Drivers/STM32H7xx_HAL_Driver/Src/stm32h7xx_hal_dma.c **** 
 8781              		.loc 1 1842 36
 8782 031a FB68     		ldr	r3, [r7, #12]
 8783 031c 1B68     		ldr	r3, [r3]
1842:Drivers/STM32H7xx_HAL_Driver/Src/stm32h7xx_hal_dma.c **** 
 8784              		.loc 1 1842 54
 8785 031e BA68     		ldr	r2, [r7, #8]
 8786 0320 9A60     		str	r2, [r3, #8]
1845:Drivers/STM32H7xx_HAL_Driver/Src/stm32h7xx_hal_dma.c ****     }
 8787              		.loc 1 1845 36
 8788 0322 FB68     		ldr	r3, [r7, #12]
 8789 0324 1B68     		ldr	r3, [r3]
1845:Drivers/STM32H7xx_HAL_Driver/Src/stm32h7xx_hal_dma.c ****     }
 8790              		.loc 1 1845 55
 8791 0326 7A68     		ldr	r2, [r7, #4]
 8792 0328 DA60     		str	r2, [r3, #12]
 8793              	.L344:
 8794              		.loc 1 1852 1
 8795 032a 00BF     		nop
 8796 032c 1C37     		adds	r7, r7, #28
 8797              	.LCFI67:
 8798              		.cfi_def_cfa_offset 4
 8799 032e BD46     		mov	sp, r7
 8800              	.LCFI68:
 8801              		.cfi_def_cfa_register 13
 8802              		@ sp needed
 8803 0330 5DF8047B 		ldr	r7, [sp], #4
 8804              	.LCFI69:
 8805              		.cfi_restore 7
 8806              		.cfi_def_cfa_offset 0
 8807 0334 7047     		bx	lr
 8808              	.L348:
 8809 0336 00BF     		.align	2
 8810              	.L347:
 8811 0338 08540258 		.word	1476547592
 8812 033c 1C540258 		.word	1476547612
 8813 0340 30540258 		.word	1476547632
 8814 0344 44540258 		.word	1476547652
 8815 0348 58540258 		.word	1476547672
 8816 034c 6C540258 		.word	1476547692
 8817 0350 80540258 		.word	1476547712
 8818 0354 94540258 		.word	1476547732
 8819              		.cfi_endproc
 8820              	.LFE156:
 8822              		.section	.text.DMA_CalcBaseAndBitshift,"ax",%progbits
 8823              		.align	1
 8824              		.syntax unified
 8825              		.thumb
 8826              		.thumb_func
 8828              	DMA_CalcBaseAndBitshift:
ARM GAS  /var/folders/g1/j12m_ky910s3_sv7d4yrsdn00000gn/T//ccliMUVd.s 			page 189


 8829              	.LFB157:
1853:Drivers/STM32H7xx_HAL_Driver/Src/stm32h7xx_hal_dma.c **** 
1854:Drivers/STM32H7xx_HAL_Driver/Src/stm32h7xx_hal_dma.c **** /**
1855:Drivers/STM32H7xx_HAL_Driver/Src/stm32h7xx_hal_dma.c ****   * @brief  Returns the DMA Stream base address depending on stream number
1856:Drivers/STM32H7xx_HAL_Driver/Src/stm32h7xx_hal_dma.c ****   * @param  hdma:       pointer to a DMA_HandleTypeDef structure that contains
1857:Drivers/STM32H7xx_HAL_Driver/Src/stm32h7xx_hal_dma.c ****   *                     the configuration information for the specified DMA Stream.
1858:Drivers/STM32H7xx_HAL_Driver/Src/stm32h7xx_hal_dma.c ****   * @retval Stream base address
1859:Drivers/STM32H7xx_HAL_Driver/Src/stm32h7xx_hal_dma.c ****   */
1860:Drivers/STM32H7xx_HAL_Driver/Src/stm32h7xx_hal_dma.c **** static uint32_t DMA_CalcBaseAndBitshift(DMA_HandleTypeDef *hdma)
1861:Drivers/STM32H7xx_HAL_Driver/Src/stm32h7xx_hal_dma.c **** {
 8830              		.loc 1 1861 1
 8831              		.cfi_startproc
 8832              		@ args = 0, pretend = 0, frame = 16
 8833              		@ frame_needed = 1, uses_anonymous_args = 0
 8834              		@ link register save eliminated.
 8835 0000 80B4     		push	{r7}
 8836              	.LCFI70:
 8837              		.cfi_def_cfa_offset 4
 8838              		.cfi_offset 7, -4
 8839 0002 85B0     		sub	sp, sp, #20
 8840              	.LCFI71:
 8841              		.cfi_def_cfa_offset 24
 8842 0004 00AF     		add	r7, sp, #0
 8843              	.LCFI72:
 8844              		.cfi_def_cfa_register 7
 8845 0006 7860     		str	r0, [r7, #4]
1862:Drivers/STM32H7xx_HAL_Driver/Src/stm32h7xx_hal_dma.c ****   if(IS_DMA_STREAM_INSTANCE(hdma->Instance) != 0U) /* DMA1 or DMA2 instance */
 8846              		.loc 1 1862 6
 8847 0008 7B68     		ldr	r3, [r7, #4]
 8848 000a 1B68     		ldr	r3, [r3]
 8849 000c 424A     		ldr	r2, .L357
 8850 000e 9342     		cmp	r3, r2
 8851 0010 4AD0     		beq	.L350
 8852              		.loc 1 1862 6 is_stmt 0 discriminator 2
 8853 0012 7B68     		ldr	r3, [r7, #4]
 8854 0014 1B68     		ldr	r3, [r3]
 8855 0016 414A     		ldr	r2, .L357+4
 8856 0018 9342     		cmp	r3, r2
 8857 001a 45D0     		beq	.L350
 8858              		.loc 1 1862 6 discriminator 4
 8859 001c 7B68     		ldr	r3, [r7, #4]
 8860 001e 1B68     		ldr	r3, [r3]
 8861 0020 3F4A     		ldr	r2, .L357+8
 8862 0022 9342     		cmp	r3, r2
 8863 0024 40D0     		beq	.L350
 8864              		.loc 1 1862 6 discriminator 6
 8865 0026 7B68     		ldr	r3, [r7, #4]
 8866 0028 1B68     		ldr	r3, [r3]
 8867 002a 3E4A     		ldr	r2, .L357+12
 8868 002c 9342     		cmp	r3, r2
 8869 002e 3BD0     		beq	.L350
 8870              		.loc 1 1862 6 discriminator 8
 8871 0030 7B68     		ldr	r3, [r7, #4]
 8872 0032 1B68     		ldr	r3, [r3]
 8873 0034 3C4A     		ldr	r2, .L357+16
 8874 0036 9342     		cmp	r3, r2
 8875 0038 36D0     		beq	.L350
ARM GAS  /var/folders/g1/j12m_ky910s3_sv7d4yrsdn00000gn/T//ccliMUVd.s 			page 190


 8876              		.loc 1 1862 6 discriminator 10
 8877 003a 7B68     		ldr	r3, [r7, #4]
 8878 003c 1B68     		ldr	r3, [r3]
 8879 003e 3B4A     		ldr	r2, .L357+20
 8880 0040 9342     		cmp	r3, r2
 8881 0042 31D0     		beq	.L350
 8882              		.loc 1 1862 6 discriminator 12
 8883 0044 7B68     		ldr	r3, [r7, #4]
 8884 0046 1B68     		ldr	r3, [r3]
 8885 0048 394A     		ldr	r2, .L357+24
 8886 004a 9342     		cmp	r3, r2
 8887 004c 2CD0     		beq	.L350
 8888              		.loc 1 1862 6 discriminator 14
 8889 004e 7B68     		ldr	r3, [r7, #4]
 8890 0050 1B68     		ldr	r3, [r3]
 8891 0052 384A     		ldr	r2, .L357+28
 8892 0054 9342     		cmp	r3, r2
 8893 0056 27D0     		beq	.L350
 8894              		.loc 1 1862 6 discriminator 16
 8895 0058 7B68     		ldr	r3, [r7, #4]
 8896 005a 1B68     		ldr	r3, [r3]
 8897 005c 364A     		ldr	r2, .L357+32
 8898 005e 9342     		cmp	r3, r2
 8899 0060 22D0     		beq	.L350
 8900              		.loc 1 1862 6 discriminator 18
 8901 0062 7B68     		ldr	r3, [r7, #4]
 8902 0064 1B68     		ldr	r3, [r3]
 8903 0066 354A     		ldr	r2, .L357+36
 8904 0068 9342     		cmp	r3, r2
 8905 006a 1DD0     		beq	.L350
 8906              		.loc 1 1862 6 discriminator 20
 8907 006c 7B68     		ldr	r3, [r7, #4]
 8908 006e 1B68     		ldr	r3, [r3]
 8909 0070 334A     		ldr	r2, .L357+40
 8910 0072 9342     		cmp	r3, r2
 8911 0074 18D0     		beq	.L350
 8912              		.loc 1 1862 6 discriminator 22
 8913 0076 7B68     		ldr	r3, [r7, #4]
 8914 0078 1B68     		ldr	r3, [r3]
 8915 007a 324A     		ldr	r2, .L357+44
 8916 007c 9342     		cmp	r3, r2
 8917 007e 13D0     		beq	.L350
 8918              		.loc 1 1862 6 discriminator 24
 8919 0080 7B68     		ldr	r3, [r7, #4]
 8920 0082 1B68     		ldr	r3, [r3]
 8921 0084 304A     		ldr	r2, .L357+48
 8922 0086 9342     		cmp	r3, r2
 8923 0088 0ED0     		beq	.L350
 8924              		.loc 1 1862 6 discriminator 26
 8925 008a 7B68     		ldr	r3, [r7, #4]
 8926 008c 1B68     		ldr	r3, [r3]
 8927 008e 2F4A     		ldr	r2, .L357+52
 8928 0090 9342     		cmp	r3, r2
 8929 0092 09D0     		beq	.L350
 8930              		.loc 1 1862 6 discriminator 28
 8931 0094 7B68     		ldr	r3, [r7, #4]
 8932 0096 1B68     		ldr	r3, [r3]
ARM GAS  /var/folders/g1/j12m_ky910s3_sv7d4yrsdn00000gn/T//ccliMUVd.s 			page 191


 8933 0098 2D4A     		ldr	r2, .L357+56
 8934 009a 9342     		cmp	r3, r2
 8935 009c 04D0     		beq	.L350
 8936              		.loc 1 1862 6 discriminator 30
 8937 009e 7B68     		ldr	r3, [r7, #4]
 8938 00a0 1B68     		ldr	r3, [r3]
 8939 00a2 2C4A     		ldr	r2, .L357+60
 8940 00a4 9342     		cmp	r3, r2
 8941 00a6 01D1     		bne	.L351
 8942              	.L350:
 8943              		.loc 1 1862 6 discriminator 31
 8944 00a8 0123     		movs	r3, #1
 8945              		.loc 1 1862 6
 8946 00aa 00E0     		b	.L352
 8947              	.L351:
 8948              		.loc 1 1862 6 discriminator 32
 8949 00ac 0023     		movs	r3, #0
 8950              	.L352:
 8951              		.loc 1 1862 5 is_stmt 1 discriminator 34
 8952 00ae 002B     		cmp	r3, #0
 8953 00b0 24D0     		beq	.L353
 8954              	.LBB2:
1863:Drivers/STM32H7xx_HAL_Driver/Src/stm32h7xx_hal_dma.c ****   {
1864:Drivers/STM32H7xx_HAL_Driver/Src/stm32h7xx_hal_dma.c ****     uint32_t stream_number = (((uint32_t)((uint32_t*)hdma->Instance) & 0xFFU) - 16U) / 24U;
 8955              		.loc 1 1864 58
 8956 00b2 7B68     		ldr	r3, [r7, #4]
 8957 00b4 1B68     		ldr	r3, [r3]
 8958              		.loc 1 1864 70
 8959 00b6 DBB2     		uxtb	r3, r3
 8960              		.loc 1 1864 79
 8961 00b8 103B     		subs	r3, r3, #16
 8962              		.loc 1 1864 14
 8963 00ba 274A     		ldr	r2, .L357+64
 8964 00bc A2FB0323 		umull	r2, r3, r2, r3
 8965 00c0 1B09     		lsrs	r3, r3, #4
 8966 00c2 FB60     		str	r3, [r7, #12]
1865:Drivers/STM32H7xx_HAL_Driver/Src/stm32h7xx_hal_dma.c **** 
1866:Drivers/STM32H7xx_HAL_Driver/Src/stm32h7xx_hal_dma.c ****     /* lookup table for necessary bitshift of flags within status registers */
1867:Drivers/STM32H7xx_HAL_Driver/Src/stm32h7xx_hal_dma.c ****     static const uint8_t flagBitshiftOffset[8U] = {0U, 6U, 16U, 22U, 0U, 6U, 16U, 22U};
1868:Drivers/STM32H7xx_HAL_Driver/Src/stm32h7xx_hal_dma.c ****     hdma->StreamIndex = flagBitshiftOffset[stream_number & 0x7U];
 8967              		.loc 1 1868 58
 8968 00c4 FB68     		ldr	r3, [r7, #12]
 8969 00c6 03F00703 		and	r3, r3, #7
 8970              		.loc 1 1868 43
 8971 00ca 244A     		ldr	r2, .L357+68
 8972 00cc D35C     		ldrb	r3, [r2, r3]	@ zero_extendqisi2
 8973 00ce 1A46     		mov	r2, r3
 8974              		.loc 1 1868 23
 8975 00d0 7B68     		ldr	r3, [r7, #4]
 8976 00d2 DA65     		str	r2, [r3, #92]
1869:Drivers/STM32H7xx_HAL_Driver/Src/stm32h7xx_hal_dma.c **** 
1870:Drivers/STM32H7xx_HAL_Driver/Src/stm32h7xx_hal_dma.c ****     if (stream_number > 3U)
 8977              		.loc 1 1870 8
 8978 00d4 FB68     		ldr	r3, [r7, #12]
 8979 00d6 032B     		cmp	r3, #3
 8980 00d8 08D9     		bls	.L354
1871:Drivers/STM32H7xx_HAL_Driver/Src/stm32h7xx_hal_dma.c ****     {
ARM GAS  /var/folders/g1/j12m_ky910s3_sv7d4yrsdn00000gn/T//ccliMUVd.s 			page 192


1872:Drivers/STM32H7xx_HAL_Driver/Src/stm32h7xx_hal_dma.c ****       /* return pointer to HISR and HIFCR */
1873:Drivers/STM32H7xx_HAL_Driver/Src/stm32h7xx_hal_dma.c ****       hdma->StreamBaseAddress = (((uint32_t)((uint32_t*)hdma->Instance) & (uint32_t)(~0x3FFU)) + 4U
 8981              		.loc 1 1873 61
 8982 00da 7B68     		ldr	r3, [r7, #4]
 8983 00dc 1B68     		ldr	r3, [r3]
 8984              		.loc 1 1873 35
 8985 00de 1A46     		mov	r2, r3
 8986              		.loc 1 1873 73
 8987 00e0 1F4B     		ldr	r3, .L357+72
 8988 00e2 1340     		ands	r3, r3, r2
 8989              		.loc 1 1873 96
 8990 00e4 1A1D     		adds	r2, r3, #4
 8991              		.loc 1 1873 31
 8992 00e6 7B68     		ldr	r3, [r7, #4]
 8993 00e8 9A65     		str	r2, [r3, #88]
 8994 00ea 0DE0     		b	.L355
 8995              	.L354:
1874:Drivers/STM32H7xx_HAL_Driver/Src/stm32h7xx_hal_dma.c ****     }
1875:Drivers/STM32H7xx_HAL_Driver/Src/stm32h7xx_hal_dma.c ****     else
1876:Drivers/STM32H7xx_HAL_Driver/Src/stm32h7xx_hal_dma.c ****     {
1877:Drivers/STM32H7xx_HAL_Driver/Src/stm32h7xx_hal_dma.c ****       /* return pointer to LISR and LIFCR */
1878:Drivers/STM32H7xx_HAL_Driver/Src/stm32h7xx_hal_dma.c ****       hdma->StreamBaseAddress = ((uint32_t)((uint32_t*)hdma->Instance) & (uint32_t)(~0x3FFU));
 8996              		.loc 1 1878 60
 8997 00ec 7B68     		ldr	r3, [r7, #4]
 8998 00ee 1B68     		ldr	r3, [r3]
 8999              		.loc 1 1878 34
 9000 00f0 1A46     		mov	r2, r3
 9001              		.loc 1 1878 72
 9002 00f2 1B4B     		ldr	r3, .L357+72
 9003 00f4 1340     		ands	r3, r3, r2
 9004              		.loc 1 1878 31
 9005 00f6 7A68     		ldr	r2, [r7, #4]
 9006 00f8 9365     		str	r3, [r2, #88]
 9007 00fa 05E0     		b	.L355
 9008              	.L353:
 9009              	.LBE2:
1879:Drivers/STM32H7xx_HAL_Driver/Src/stm32h7xx_hal_dma.c ****     }
1880:Drivers/STM32H7xx_HAL_Driver/Src/stm32h7xx_hal_dma.c ****   }
1881:Drivers/STM32H7xx_HAL_Driver/Src/stm32h7xx_hal_dma.c ****   else /* BDMA instance(s) */
1882:Drivers/STM32H7xx_HAL_Driver/Src/stm32h7xx_hal_dma.c ****   {
1883:Drivers/STM32H7xx_HAL_Driver/Src/stm32h7xx_hal_dma.c ****     /* return pointer to ISR and IFCR */
1884:Drivers/STM32H7xx_HAL_Driver/Src/stm32h7xx_hal_dma.c ****     hdma->StreamBaseAddress = ((uint32_t)((uint32_t*)hdma->Instance) & (uint32_t)(~0xFFU));
 9010              		.loc 1 1884 58
 9011 00fc 7B68     		ldr	r3, [r7, #4]
 9012 00fe 1B68     		ldr	r3, [r3]
 9013              		.loc 1 1884 70
 9014 0100 23F0FF02 		bic	r2, r3, #255
 9015              		.loc 1 1884 29
 9016 0104 7B68     		ldr	r3, [r7, #4]
 9017 0106 9A65     		str	r2, [r3, #88]
 9018              	.L355:
1885:Drivers/STM32H7xx_HAL_Driver/Src/stm32h7xx_hal_dma.c ****   }
1886:Drivers/STM32H7xx_HAL_Driver/Src/stm32h7xx_hal_dma.c **** 
1887:Drivers/STM32H7xx_HAL_Driver/Src/stm32h7xx_hal_dma.c ****   return hdma->StreamBaseAddress;
 9019              		.loc 1 1887 14
 9020 0108 7B68     		ldr	r3, [r7, #4]
 9021 010a 9B6D     		ldr	r3, [r3, #88]
ARM GAS  /var/folders/g1/j12m_ky910s3_sv7d4yrsdn00000gn/T//ccliMUVd.s 			page 193


1888:Drivers/STM32H7xx_HAL_Driver/Src/stm32h7xx_hal_dma.c **** }
 9022              		.loc 1 1888 1
 9023 010c 1846     		mov	r0, r3
 9024 010e 1437     		adds	r7, r7, #20
 9025              	.LCFI73:
 9026              		.cfi_def_cfa_offset 4
 9027 0110 BD46     		mov	sp, r7
 9028              	.LCFI74:
 9029              		.cfi_def_cfa_register 13
 9030              		@ sp needed
 9031 0112 5DF8047B 		ldr	r7, [sp], #4
 9032              	.LCFI75:
 9033              		.cfi_restore 7
 9034              		.cfi_def_cfa_offset 0
 9035 0116 7047     		bx	lr
 9036              	.L358:
 9037              		.align	2
 9038              	.L357:
 9039 0118 10000240 		.word	1073872912
 9040 011c 28000240 		.word	1073872936
 9041 0120 40000240 		.word	1073872960
 9042 0124 58000240 		.word	1073872984
 9043 0128 70000240 		.word	1073873008
 9044 012c 88000240 		.word	1073873032
 9045 0130 A0000240 		.word	1073873056
 9046 0134 B8000240 		.word	1073873080
 9047 0138 10040240 		.word	1073873936
 9048 013c 28040240 		.word	1073873960
 9049 0140 40040240 		.word	1073873984
 9050 0144 58040240 		.word	1073874008
 9051 0148 70040240 		.word	1073874032
 9052 014c 88040240 		.word	1073874056
 9053 0150 A0040240 		.word	1073874080
 9054 0154 B8040240 		.word	1073874104
 9055 0158 ABAAAAAA 		.word	-1431655765
 9056 015c 00000000 		.word	flagBitshiftOffset.0
 9057 0160 00FCFFFF 		.word	-1024
 9058              		.cfi_endproc
 9059              	.LFE157:
 9061              		.section	.text.DMA_CheckFifoParam,"ax",%progbits
 9062              		.align	1
 9063              		.syntax unified
 9064              		.thumb
 9065              		.thumb_func
 9067              	DMA_CheckFifoParam:
 9068              	.LFB158:
1889:Drivers/STM32H7xx_HAL_Driver/Src/stm32h7xx_hal_dma.c **** 
1890:Drivers/STM32H7xx_HAL_Driver/Src/stm32h7xx_hal_dma.c **** /**
1891:Drivers/STM32H7xx_HAL_Driver/Src/stm32h7xx_hal_dma.c ****   * @brief  Check compatibility between FIFO threshold level and size of the memory burst
1892:Drivers/STM32H7xx_HAL_Driver/Src/stm32h7xx_hal_dma.c ****   * @param  hdma:       pointer to a DMA_HandleTypeDef structure that contains
1893:Drivers/STM32H7xx_HAL_Driver/Src/stm32h7xx_hal_dma.c ****   *                     the configuration information for the specified DMA Stream.
1894:Drivers/STM32H7xx_HAL_Driver/Src/stm32h7xx_hal_dma.c ****   * @retval HAL status
1895:Drivers/STM32H7xx_HAL_Driver/Src/stm32h7xx_hal_dma.c ****   */
1896:Drivers/STM32H7xx_HAL_Driver/Src/stm32h7xx_hal_dma.c **** static HAL_StatusTypeDef DMA_CheckFifoParam(const DMA_HandleTypeDef *hdma)
1897:Drivers/STM32H7xx_HAL_Driver/Src/stm32h7xx_hal_dma.c **** {
 9069              		.loc 1 1897 1
 9070              		.cfi_startproc
ARM GAS  /var/folders/g1/j12m_ky910s3_sv7d4yrsdn00000gn/T//ccliMUVd.s 			page 194


 9071              		@ args = 0, pretend = 0, frame = 16
 9072              		@ frame_needed = 1, uses_anonymous_args = 0
 9073              		@ link register save eliminated.
 9074 0000 80B4     		push	{r7}
 9075              	.LCFI76:
 9076              		.cfi_def_cfa_offset 4
 9077              		.cfi_offset 7, -4
 9078 0002 85B0     		sub	sp, sp, #20
 9079              	.LCFI77:
 9080              		.cfi_def_cfa_offset 24
 9081 0004 00AF     		add	r7, sp, #0
 9082              	.LCFI78:
 9083              		.cfi_def_cfa_register 7
 9084 0006 7860     		str	r0, [r7, #4]
1898:Drivers/STM32H7xx_HAL_Driver/Src/stm32h7xx_hal_dma.c ****   HAL_StatusTypeDef status = HAL_OK;
 9085              		.loc 1 1898 21
 9086 0008 0023     		movs	r3, #0
 9087 000a FB73     		strb	r3, [r7, #15]
1899:Drivers/STM32H7xx_HAL_Driver/Src/stm32h7xx_hal_dma.c **** 
1900:Drivers/STM32H7xx_HAL_Driver/Src/stm32h7xx_hal_dma.c ****   /* Memory Data size equal to Byte */
1901:Drivers/STM32H7xx_HAL_Driver/Src/stm32h7xx_hal_dma.c ****   if (hdma->Init.MemDataAlignment == DMA_MDATAALIGN_BYTE)
 9088              		.loc 1 1901 17
 9089 000c 7B68     		ldr	r3, [r7, #4]
 9090 000e 9B69     		ldr	r3, [r3, #24]
 9091              		.loc 1 1901 6
 9092 0010 002B     		cmp	r3, #0
 9093 0012 20D1     		bne	.L360
1902:Drivers/STM32H7xx_HAL_Driver/Src/stm32h7xx_hal_dma.c ****   {
1903:Drivers/STM32H7xx_HAL_Driver/Src/stm32h7xx_hal_dma.c ****     switch (hdma->Init.FIFOThreshold)
 9094              		.loc 1 1903 23
 9095 0014 7B68     		ldr	r3, [r7, #4]
 9096 0016 9B6A     		ldr	r3, [r3, #40]
 9097              		.loc 1 1903 5
 9098 0018 032B     		cmp	r3, #3
 9099 001a 58D8     		bhi	.L384
 9100 001c 01A2     		adr	r2, .L363
 9101 001e 52F823F0 		ldr	pc, [r2, r3, lsl #2]
 9102 0022 00BF     		.p2align 2
 9103              	.L363:
 9104 0024 35000000 		.word	.L364+1
 9105 0028 47000000 		.word	.L365+1
 9106 002c 35000000 		.word	.L364+1
 9107 0030 CF000000 		.word	.L384+1
 9108              		.p2align 1
 9109              	.L364:
1904:Drivers/STM32H7xx_HAL_Driver/Src/stm32h7xx_hal_dma.c ****     {
1905:Drivers/STM32H7xx_HAL_Driver/Src/stm32h7xx_hal_dma.c ****       case DMA_FIFO_THRESHOLD_1QUARTERFULL:
1906:Drivers/STM32H7xx_HAL_Driver/Src/stm32h7xx_hal_dma.c ****       case DMA_FIFO_THRESHOLD_3QUARTERSFULL:
1907:Drivers/STM32H7xx_HAL_Driver/Src/stm32h7xx_hal_dma.c **** 
1908:Drivers/STM32H7xx_HAL_Driver/Src/stm32h7xx_hal_dma.c ****         if ((hdma->Init.MemBurst & DMA_SxCR_MBURST_1) == DMA_SxCR_MBURST_1)
 9110              		.loc 1 1908 24
 9111 0034 7B68     		ldr	r3, [r7, #4]
 9112 0036 DB6A     		ldr	r3, [r3, #44]
 9113              		.loc 1 1908 34
 9114 0038 03F08073 		and	r3, r3, #16777216
 9115              		.loc 1 1908 12
 9116 003c 002B     		cmp	r3, #0
ARM GAS  /var/folders/g1/j12m_ky910s3_sv7d4yrsdn00000gn/T//ccliMUVd.s 			page 195


 9117 003e 48D0     		beq	.L385
1909:Drivers/STM32H7xx_HAL_Driver/Src/stm32h7xx_hal_dma.c ****         {
1910:Drivers/STM32H7xx_HAL_Driver/Src/stm32h7xx_hal_dma.c ****           status = HAL_ERROR;
 9118              		.loc 1 1910 18
 9119 0040 0123     		movs	r3, #1
 9120 0042 FB73     		strb	r3, [r7, #15]
1911:Drivers/STM32H7xx_HAL_Driver/Src/stm32h7xx_hal_dma.c ****         }
1912:Drivers/STM32H7xx_HAL_Driver/Src/stm32h7xx_hal_dma.c ****         break;
 9121              		.loc 1 1912 9
 9122 0044 45E0     		b	.L385
 9123              	.L365:
1913:Drivers/STM32H7xx_HAL_Driver/Src/stm32h7xx_hal_dma.c **** 
1914:Drivers/STM32H7xx_HAL_Driver/Src/stm32h7xx_hal_dma.c ****       case DMA_FIFO_THRESHOLD_HALFFULL:
1915:Drivers/STM32H7xx_HAL_Driver/Src/stm32h7xx_hal_dma.c ****         if (hdma->Init.MemBurst == DMA_MBURST_INC16)
 9124              		.loc 1 1915 23
 9125 0046 7B68     		ldr	r3, [r7, #4]
 9126 0048 DB6A     		ldr	r3, [r3, #44]
 9127              		.loc 1 1915 12
 9128 004a B3F1C07F 		cmp	r3, #25165824
 9129 004e 42D1     		bne	.L386
1916:Drivers/STM32H7xx_HAL_Driver/Src/stm32h7xx_hal_dma.c ****         {
1917:Drivers/STM32H7xx_HAL_Driver/Src/stm32h7xx_hal_dma.c ****           status = HAL_ERROR;
 9130              		.loc 1 1917 18
 9131 0050 0123     		movs	r3, #1
 9132 0052 FB73     		strb	r3, [r7, #15]
1918:Drivers/STM32H7xx_HAL_Driver/Src/stm32h7xx_hal_dma.c ****         }
1919:Drivers/STM32H7xx_HAL_Driver/Src/stm32h7xx_hal_dma.c ****         break;
 9133              		.loc 1 1919 9
 9134 0054 3FE0     		b	.L386
 9135              	.L360:
1920:Drivers/STM32H7xx_HAL_Driver/Src/stm32h7xx_hal_dma.c **** 
1921:Drivers/STM32H7xx_HAL_Driver/Src/stm32h7xx_hal_dma.c ****       case DMA_FIFO_THRESHOLD_FULL:
1922:Drivers/STM32H7xx_HAL_Driver/Src/stm32h7xx_hal_dma.c ****         break;
1923:Drivers/STM32H7xx_HAL_Driver/Src/stm32h7xx_hal_dma.c **** 
1924:Drivers/STM32H7xx_HAL_Driver/Src/stm32h7xx_hal_dma.c ****       default:
1925:Drivers/STM32H7xx_HAL_Driver/Src/stm32h7xx_hal_dma.c ****         break;
1926:Drivers/STM32H7xx_HAL_Driver/Src/stm32h7xx_hal_dma.c ****     }
1927:Drivers/STM32H7xx_HAL_Driver/Src/stm32h7xx_hal_dma.c ****   }
1928:Drivers/STM32H7xx_HAL_Driver/Src/stm32h7xx_hal_dma.c **** 
1929:Drivers/STM32H7xx_HAL_Driver/Src/stm32h7xx_hal_dma.c ****   /* Memory Data size equal to Half-Word */
1930:Drivers/STM32H7xx_HAL_Driver/Src/stm32h7xx_hal_dma.c ****   else if (hdma->Init.MemDataAlignment == DMA_MDATAALIGN_HALFWORD)
 9136              		.loc 1 1930 22
 9137 0056 7B68     		ldr	r3, [r7, #4]
 9138 0058 9B69     		ldr	r3, [r3, #24]
 9139              		.loc 1 1930 11
 9140 005a B3F5005F 		cmp	r3, #8192
 9141 005e 23D1     		bne	.L370
1931:Drivers/STM32H7xx_HAL_Driver/Src/stm32h7xx_hal_dma.c ****   {
1932:Drivers/STM32H7xx_HAL_Driver/Src/stm32h7xx_hal_dma.c ****     switch (hdma->Init.FIFOThreshold)
 9142              		.loc 1 1932 23
 9143 0060 7B68     		ldr	r3, [r7, #4]
 9144 0062 9B6A     		ldr	r3, [r3, #40]
 9145              		.loc 1 1932 5
 9146 0064 032B     		cmp	r3, #3
 9147 0066 38D8     		bhi	.L387
 9148 0068 01A2     		adr	r2, .L373
 9149 006a 52F823F0 		ldr	pc, [r2, r3, lsl #2]
ARM GAS  /var/folders/g1/j12m_ky910s3_sv7d4yrsdn00000gn/T//ccliMUVd.s 			page 196


 9150 006e 00BF     		.p2align 2
 9151              	.L373:
 9152 0070 81000000 		.word	.L374+1
 9153 0074 87000000 		.word	.L375+1
 9154 0078 81000000 		.word	.L374+1
 9155 007c 99000000 		.word	.L372+1
 9156              		.p2align 1
 9157              	.L374:
1933:Drivers/STM32H7xx_HAL_Driver/Src/stm32h7xx_hal_dma.c ****     {
1934:Drivers/STM32H7xx_HAL_Driver/Src/stm32h7xx_hal_dma.c ****       case DMA_FIFO_THRESHOLD_1QUARTERFULL:
1935:Drivers/STM32H7xx_HAL_Driver/Src/stm32h7xx_hal_dma.c ****       case DMA_FIFO_THRESHOLD_3QUARTERSFULL:
1936:Drivers/STM32H7xx_HAL_Driver/Src/stm32h7xx_hal_dma.c ****         status = HAL_ERROR;
 9158              		.loc 1 1936 16
 9159 0080 0123     		movs	r3, #1
 9160 0082 FB73     		strb	r3, [r7, #15]
1937:Drivers/STM32H7xx_HAL_Driver/Src/stm32h7xx_hal_dma.c ****         break;
 9161              		.loc 1 1937 9
 9162 0084 30E0     		b	.L369
 9163              	.L375:
1938:Drivers/STM32H7xx_HAL_Driver/Src/stm32h7xx_hal_dma.c **** 
1939:Drivers/STM32H7xx_HAL_Driver/Src/stm32h7xx_hal_dma.c ****       case DMA_FIFO_THRESHOLD_HALFFULL:
1940:Drivers/STM32H7xx_HAL_Driver/Src/stm32h7xx_hal_dma.c ****         if ((hdma->Init.MemBurst & DMA_SxCR_MBURST_1) == DMA_SxCR_MBURST_1)
 9164              		.loc 1 1940 24
 9165 0086 7B68     		ldr	r3, [r7, #4]
 9166 0088 DB6A     		ldr	r3, [r3, #44]
 9167              		.loc 1 1940 34
 9168 008a 03F08073 		and	r3, r3, #16777216
 9169              		.loc 1 1940 12
 9170 008e 002B     		cmp	r3, #0
 9171 0090 25D0     		beq	.L388
1941:Drivers/STM32H7xx_HAL_Driver/Src/stm32h7xx_hal_dma.c ****         {
1942:Drivers/STM32H7xx_HAL_Driver/Src/stm32h7xx_hal_dma.c ****           status = HAL_ERROR;
 9172              		.loc 1 1942 18
 9173 0092 0123     		movs	r3, #1
 9174 0094 FB73     		strb	r3, [r7, #15]
1943:Drivers/STM32H7xx_HAL_Driver/Src/stm32h7xx_hal_dma.c ****         }
1944:Drivers/STM32H7xx_HAL_Driver/Src/stm32h7xx_hal_dma.c ****         break;
 9175              		.loc 1 1944 9
 9176 0096 22E0     		b	.L388
 9177              	.L372:
1945:Drivers/STM32H7xx_HAL_Driver/Src/stm32h7xx_hal_dma.c **** 
1946:Drivers/STM32H7xx_HAL_Driver/Src/stm32h7xx_hal_dma.c ****       case DMA_FIFO_THRESHOLD_FULL:
1947:Drivers/STM32H7xx_HAL_Driver/Src/stm32h7xx_hal_dma.c ****         if (hdma->Init.MemBurst == DMA_MBURST_INC16)
 9178              		.loc 1 1947 23
 9179 0098 7B68     		ldr	r3, [r7, #4]
 9180 009a DB6A     		ldr	r3, [r3, #44]
 9181              		.loc 1 1947 12
 9182 009c B3F1C07F 		cmp	r3, #25165824
 9183 00a0 1FD1     		bne	.L389
1948:Drivers/STM32H7xx_HAL_Driver/Src/stm32h7xx_hal_dma.c ****         {
1949:Drivers/STM32H7xx_HAL_Driver/Src/stm32h7xx_hal_dma.c ****           status = HAL_ERROR;
 9184              		.loc 1 1949 18
 9185 00a2 0123     		movs	r3, #1
 9186 00a4 FB73     		strb	r3, [r7, #15]
1950:Drivers/STM32H7xx_HAL_Driver/Src/stm32h7xx_hal_dma.c ****         }
1951:Drivers/STM32H7xx_HAL_Driver/Src/stm32h7xx_hal_dma.c ****         break;
 9187              		.loc 1 1951 9
ARM GAS  /var/folders/g1/j12m_ky910s3_sv7d4yrsdn00000gn/T//ccliMUVd.s 			page 197


 9188 00a6 1CE0     		b	.L389
 9189              	.L370:
1952:Drivers/STM32H7xx_HAL_Driver/Src/stm32h7xx_hal_dma.c **** 
1953:Drivers/STM32H7xx_HAL_Driver/Src/stm32h7xx_hal_dma.c ****       default:
1954:Drivers/STM32H7xx_HAL_Driver/Src/stm32h7xx_hal_dma.c ****         break;
1955:Drivers/STM32H7xx_HAL_Driver/Src/stm32h7xx_hal_dma.c ****     }
1956:Drivers/STM32H7xx_HAL_Driver/Src/stm32h7xx_hal_dma.c ****   }
1957:Drivers/STM32H7xx_HAL_Driver/Src/stm32h7xx_hal_dma.c **** 
1958:Drivers/STM32H7xx_HAL_Driver/Src/stm32h7xx_hal_dma.c ****   /* Memory Data size equal to Word */
1959:Drivers/STM32H7xx_HAL_Driver/Src/stm32h7xx_hal_dma.c ****   else
1960:Drivers/STM32H7xx_HAL_Driver/Src/stm32h7xx_hal_dma.c ****   {
1961:Drivers/STM32H7xx_HAL_Driver/Src/stm32h7xx_hal_dma.c ****     switch (hdma->Init.FIFOThreshold)
 9190              		.loc 1 1961 23
 9191 00a8 7B68     		ldr	r3, [r7, #4]
 9192 00aa 9B6A     		ldr	r3, [r3, #40]
 9193              		.loc 1 1961 5
 9194 00ac 022B     		cmp	r3, #2
 9195 00ae 02D9     		bls	.L379
 9196 00b0 032B     		cmp	r3, #3
 9197 00b2 03D0     		beq	.L380
1962:Drivers/STM32H7xx_HAL_Driver/Src/stm32h7xx_hal_dma.c ****     {
1963:Drivers/STM32H7xx_HAL_Driver/Src/stm32h7xx_hal_dma.c ****       case DMA_FIFO_THRESHOLD_1QUARTERFULL:
1964:Drivers/STM32H7xx_HAL_Driver/Src/stm32h7xx_hal_dma.c ****       case DMA_FIFO_THRESHOLD_HALFFULL:
1965:Drivers/STM32H7xx_HAL_Driver/Src/stm32h7xx_hal_dma.c ****       case DMA_FIFO_THRESHOLD_3QUARTERSFULL:
1966:Drivers/STM32H7xx_HAL_Driver/Src/stm32h7xx_hal_dma.c ****         status = HAL_ERROR;
1967:Drivers/STM32H7xx_HAL_Driver/Src/stm32h7xx_hal_dma.c ****         break;
1968:Drivers/STM32H7xx_HAL_Driver/Src/stm32h7xx_hal_dma.c **** 
1969:Drivers/STM32H7xx_HAL_Driver/Src/stm32h7xx_hal_dma.c ****       case DMA_FIFO_THRESHOLD_FULL:
1970:Drivers/STM32H7xx_HAL_Driver/Src/stm32h7xx_hal_dma.c ****         if ((hdma->Init.MemBurst & DMA_SxCR_MBURST_1) == DMA_SxCR_MBURST_1)
1971:Drivers/STM32H7xx_HAL_Driver/Src/stm32h7xx_hal_dma.c ****         {
1972:Drivers/STM32H7xx_HAL_Driver/Src/stm32h7xx_hal_dma.c ****           status = HAL_ERROR;
1973:Drivers/STM32H7xx_HAL_Driver/Src/stm32h7xx_hal_dma.c ****         }
1974:Drivers/STM32H7xx_HAL_Driver/Src/stm32h7xx_hal_dma.c ****     break;
1975:Drivers/STM32H7xx_HAL_Driver/Src/stm32h7xx_hal_dma.c **** 
1976:Drivers/STM32H7xx_HAL_Driver/Src/stm32h7xx_hal_dma.c ****       default:
1977:Drivers/STM32H7xx_HAL_Driver/Src/stm32h7xx_hal_dma.c ****         break;
 9198              		.loc 1 1977 9
 9199 00b4 18E0     		b	.L369
 9200              	.L379:
1966:Drivers/STM32H7xx_HAL_Driver/Src/stm32h7xx_hal_dma.c ****         break;
 9201              		.loc 1 1966 16
 9202 00b6 0123     		movs	r3, #1
 9203 00b8 FB73     		strb	r3, [r7, #15]
1967:Drivers/STM32H7xx_HAL_Driver/Src/stm32h7xx_hal_dma.c **** 
 9204              		.loc 1 1967 9
 9205 00ba 15E0     		b	.L369
 9206              	.L380:
1970:Drivers/STM32H7xx_HAL_Driver/Src/stm32h7xx_hal_dma.c ****         {
 9207              		.loc 1 1970 24
 9208 00bc 7B68     		ldr	r3, [r7, #4]
 9209 00be DB6A     		ldr	r3, [r3, #44]
1970:Drivers/STM32H7xx_HAL_Driver/Src/stm32h7xx_hal_dma.c ****         {
 9210              		.loc 1 1970 34
 9211 00c0 03F08073 		and	r3, r3, #16777216
1970:Drivers/STM32H7xx_HAL_Driver/Src/stm32h7xx_hal_dma.c ****         {
 9212              		.loc 1 1970 12
 9213 00c4 002B     		cmp	r3, #0
ARM GAS  /var/folders/g1/j12m_ky910s3_sv7d4yrsdn00000gn/T//ccliMUVd.s 			page 198


 9214 00c6 0ED0     		beq	.L390
1972:Drivers/STM32H7xx_HAL_Driver/Src/stm32h7xx_hal_dma.c ****         }
 9215              		.loc 1 1972 18
 9216 00c8 0123     		movs	r3, #1
 9217 00ca FB73     		strb	r3, [r7, #15]
1974:Drivers/STM32H7xx_HAL_Driver/Src/stm32h7xx_hal_dma.c **** 
 9218              		.loc 1 1974 5
 9219 00cc 0BE0     		b	.L390
 9220              	.L384:
1925:Drivers/STM32H7xx_HAL_Driver/Src/stm32h7xx_hal_dma.c ****     }
 9221              		.loc 1 1925 9
 9222 00ce 00BF     		nop
 9223 00d0 0AE0     		b	.L369
 9224              	.L385:
1912:Drivers/STM32H7xx_HAL_Driver/Src/stm32h7xx_hal_dma.c **** 
 9225              		.loc 1 1912 9
 9226 00d2 00BF     		nop
 9227 00d4 08E0     		b	.L369
 9228              	.L386:
1919:Drivers/STM32H7xx_HAL_Driver/Src/stm32h7xx_hal_dma.c **** 
 9229              		.loc 1 1919 9
 9230 00d6 00BF     		nop
 9231 00d8 06E0     		b	.L369
 9232              	.L387:
1954:Drivers/STM32H7xx_HAL_Driver/Src/stm32h7xx_hal_dma.c ****     }
 9233              		.loc 1 1954 9
 9234 00da 00BF     		nop
 9235 00dc 04E0     		b	.L369
 9236              	.L388:
1944:Drivers/STM32H7xx_HAL_Driver/Src/stm32h7xx_hal_dma.c **** 
 9237              		.loc 1 1944 9
 9238 00de 00BF     		nop
 9239 00e0 02E0     		b	.L369
 9240              	.L389:
1951:Drivers/STM32H7xx_HAL_Driver/Src/stm32h7xx_hal_dma.c **** 
 9241              		.loc 1 1951 9
 9242 00e2 00BF     		nop
 9243 00e4 00E0     		b	.L369
 9244              	.L390:
1974:Drivers/STM32H7xx_HAL_Driver/Src/stm32h7xx_hal_dma.c **** 
 9245              		.loc 1 1974 5
 9246 00e6 00BF     		nop
 9247              	.L369:
1978:Drivers/STM32H7xx_HAL_Driver/Src/stm32h7xx_hal_dma.c ****     }
1979:Drivers/STM32H7xx_HAL_Driver/Src/stm32h7xx_hal_dma.c ****   }
1980:Drivers/STM32H7xx_HAL_Driver/Src/stm32h7xx_hal_dma.c **** 
1981:Drivers/STM32H7xx_HAL_Driver/Src/stm32h7xx_hal_dma.c ****   return status;
 9248              		.loc 1 1981 10
 9249 00e8 FB7B     		ldrb	r3, [r7, #15]	@ zero_extendqisi2
1982:Drivers/STM32H7xx_HAL_Driver/Src/stm32h7xx_hal_dma.c **** }
 9250              		.loc 1 1982 1
 9251 00ea 1846     		mov	r0, r3
 9252 00ec 1437     		adds	r7, r7, #20
 9253              	.LCFI79:
 9254              		.cfi_def_cfa_offset 4
 9255 00ee BD46     		mov	sp, r7
 9256              	.LCFI80:
ARM GAS  /var/folders/g1/j12m_ky910s3_sv7d4yrsdn00000gn/T//ccliMUVd.s 			page 199


 9257              		.cfi_def_cfa_register 13
 9258              		@ sp needed
 9259 00f0 5DF8047B 		ldr	r7, [sp], #4
 9260              	.LCFI81:
 9261              		.cfi_restore 7
 9262              		.cfi_def_cfa_offset 0
 9263 00f4 7047     		bx	lr
 9264              		.cfi_endproc
 9265              	.LFE158:
 9267 00f6 00BF     		.section	.text.DMA_CalcDMAMUXChannelBaseAndMask,"ax",%progbits
 9268              		.align	1
 9269              		.syntax unified
 9270              		.thumb
 9271              		.thumb_func
 9273              	DMA_CalcDMAMUXChannelBaseAndMask:
 9274              	.LFB159:
1983:Drivers/STM32H7xx_HAL_Driver/Src/stm32h7xx_hal_dma.c **** 
1984:Drivers/STM32H7xx_HAL_Driver/Src/stm32h7xx_hal_dma.c **** /**
1985:Drivers/STM32H7xx_HAL_Driver/Src/stm32h7xx_hal_dma.c ****   * @brief  Updates the DMA handle with the DMAMUX  channel and status mask depending on stream num
1986:Drivers/STM32H7xx_HAL_Driver/Src/stm32h7xx_hal_dma.c ****   * @param  hdma:       pointer to a DMA_HandleTypeDef structure that contains
1987:Drivers/STM32H7xx_HAL_Driver/Src/stm32h7xx_hal_dma.c ****   *                     the configuration information for the specified DMA Stream.
1988:Drivers/STM32H7xx_HAL_Driver/Src/stm32h7xx_hal_dma.c ****   * @retval HAL status
1989:Drivers/STM32H7xx_HAL_Driver/Src/stm32h7xx_hal_dma.c ****   */
1990:Drivers/STM32H7xx_HAL_Driver/Src/stm32h7xx_hal_dma.c **** static void DMA_CalcDMAMUXChannelBaseAndMask(DMA_HandleTypeDef *hdma)
1991:Drivers/STM32H7xx_HAL_Driver/Src/stm32h7xx_hal_dma.c **** {
 9275              		.loc 1 1991 1
 9276              		.cfi_startproc
 9277              		@ args = 0, pretend = 0, frame = 16
 9278              		@ frame_needed = 1, uses_anonymous_args = 0
 9279              		@ link register save eliminated.
 9280 0000 80B4     		push	{r7}
 9281              	.LCFI82:
 9282              		.cfi_def_cfa_offset 4
 9283              		.cfi_offset 7, -4
 9284 0002 85B0     		sub	sp, sp, #20
 9285              	.LCFI83:
 9286              		.cfi_def_cfa_offset 24
 9287 0004 00AF     		add	r7, sp, #0
 9288              	.LCFI84:
 9289              		.cfi_def_cfa_register 7
 9290 0006 7860     		str	r0, [r7, #4]
1992:Drivers/STM32H7xx_HAL_Driver/Src/stm32h7xx_hal_dma.c ****   uint32_t stream_number;
1993:Drivers/STM32H7xx_HAL_Driver/Src/stm32h7xx_hal_dma.c ****   uint32_t stream_baseaddress = (uint32_t)((uint32_t*)hdma->Instance);
 9291              		.loc 1 1993 59
 9292 0008 7B68     		ldr	r3, [r7, #4]
 9293 000a 1B68     		ldr	r3, [r3]
 9294              		.loc 1 1993 12
 9295 000c BB60     		str	r3, [r7, #8]
1994:Drivers/STM32H7xx_HAL_Driver/Src/stm32h7xx_hal_dma.c **** 
1995:Drivers/STM32H7xx_HAL_Driver/Src/stm32h7xx_hal_dma.c ****   if(IS_BDMA_CHANNEL_DMAMUX_INSTANCE(hdma->Instance) != 0U)
 9296              		.loc 1 1995 6
 9297 000e 7B68     		ldr	r3, [r7, #4]
 9298 0010 1B68     		ldr	r3, [r3]
 9299 0012 384A     		ldr	r2, .L399
 9300 0014 9342     		cmp	r3, r2
 9301 0016 22D0     		beq	.L392
 9302              		.loc 1 1995 6 is_stmt 0 discriminator 2
ARM GAS  /var/folders/g1/j12m_ky910s3_sv7d4yrsdn00000gn/T//ccliMUVd.s 			page 200


 9303 0018 7B68     		ldr	r3, [r7, #4]
 9304 001a 1B68     		ldr	r3, [r3]
 9305 001c 364A     		ldr	r2, .L399+4
 9306 001e 9342     		cmp	r3, r2
 9307 0020 1DD0     		beq	.L392
 9308              		.loc 1 1995 6 discriminator 4
 9309 0022 7B68     		ldr	r3, [r7, #4]
 9310 0024 1B68     		ldr	r3, [r3]
 9311 0026 354A     		ldr	r2, .L399+8
 9312 0028 9342     		cmp	r3, r2
 9313 002a 18D0     		beq	.L392
 9314              		.loc 1 1995 6 discriminator 6
 9315 002c 7B68     		ldr	r3, [r7, #4]
 9316 002e 1B68     		ldr	r3, [r3]
 9317 0030 334A     		ldr	r2, .L399+12
 9318 0032 9342     		cmp	r3, r2
 9319 0034 13D0     		beq	.L392
 9320              		.loc 1 1995 6 discriminator 8
 9321 0036 7B68     		ldr	r3, [r7, #4]
 9322 0038 1B68     		ldr	r3, [r3]
 9323 003a 324A     		ldr	r2, .L399+16
 9324 003c 9342     		cmp	r3, r2
 9325 003e 0ED0     		beq	.L392
 9326              		.loc 1 1995 6 discriminator 10
 9327 0040 7B68     		ldr	r3, [r7, #4]
 9328 0042 1B68     		ldr	r3, [r3]
 9329 0044 304A     		ldr	r2, .L399+20
 9330 0046 9342     		cmp	r3, r2
 9331 0048 09D0     		beq	.L392
 9332              		.loc 1 1995 6 discriminator 12
 9333 004a 7B68     		ldr	r3, [r7, #4]
 9334 004c 1B68     		ldr	r3, [r3]
 9335 004e 2F4A     		ldr	r2, .L399+24
 9336 0050 9342     		cmp	r3, r2
 9337 0052 04D0     		beq	.L392
 9338              		.loc 1 1995 6 discriminator 14
 9339 0054 7B68     		ldr	r3, [r7, #4]
 9340 0056 1B68     		ldr	r3, [r3]
 9341 0058 2D4A     		ldr	r2, .L399+28
 9342 005a 9342     		cmp	r3, r2
 9343 005c 01D1     		bne	.L393
 9344              	.L392:
 9345              		.loc 1 1995 6 discriminator 15
 9346 005e 0123     		movs	r3, #1
 9347              		.loc 1 1995 6
 9348 0060 00E0     		b	.L394
 9349              	.L393:
 9350              		.loc 1 1995 6 discriminator 16
 9351 0062 0023     		movs	r3, #0
 9352              	.L394:
 9353              		.loc 1 1995 5 is_stmt 1 discriminator 18
 9354 0064 002B     		cmp	r3, #0
 9355 0066 1AD0     		beq	.L395
1996:Drivers/STM32H7xx_HAL_Driver/Src/stm32h7xx_hal_dma.c ****   {
1997:Drivers/STM32H7xx_HAL_Driver/Src/stm32h7xx_hal_dma.c ****     /* BDMA Channels are connected to DMAMUX2 channels */
1998:Drivers/STM32H7xx_HAL_Driver/Src/stm32h7xx_hal_dma.c ****     stream_number = (((uint32_t)((uint32_t*)hdma->Instance) & 0xFFU) - 8U) / 20U;
 9356              		.loc 1 1998 49
ARM GAS  /var/folders/g1/j12m_ky910s3_sv7d4yrsdn00000gn/T//ccliMUVd.s 			page 201


 9357 0068 7B68     		ldr	r3, [r7, #4]
 9358 006a 1B68     		ldr	r3, [r3]
 9359              		.loc 1 1998 61
 9360 006c DBB2     		uxtb	r3, r3
 9361              		.loc 1 1998 70
 9362 006e 083B     		subs	r3, r3, #8
 9363              		.loc 1 1998 19
 9364 0070 284A     		ldr	r2, .L399+32
 9365 0072 A2FB0323 		umull	r2, r3, r2, r3
 9366 0076 1B09     		lsrs	r3, r3, #4
 9367 0078 FB60     		str	r3, [r7, #12]
1999:Drivers/STM32H7xx_HAL_Driver/Src/stm32h7xx_hal_dma.c ****     hdma->DMAmuxChannel = (DMAMUX_Channel_TypeDef *)((uint32_t)(((uint32_t)DMAMUX2_Channel0) + (str
 9368              		.loc 1 1999 54
 9369 007a FA68     		ldr	r2, [r7, #12]
 9370 007c 264B     		ldr	r3, .L399+36
 9371 007e 1344     		add	r3, r3, r2
 9372 0080 9B00     		lsls	r3, r3, #2
 9373              		.loc 1 1999 27
 9374 0082 1A46     		mov	r2, r3
 9375              		.loc 1 1999 25
 9376 0084 7B68     		ldr	r3, [r7, #4]
 9377 0086 1A66     		str	r2, [r3, #96]
2000:Drivers/STM32H7xx_HAL_Driver/Src/stm32h7xx_hal_dma.c ****     hdma->DMAmuxChannelStatus = DMAMUX2_ChannelStatus;
 9378              		.loc 1 2000 31
 9379 0088 7B68     		ldr	r3, [r7, #4]
 9380 008a 244A     		ldr	r2, .L399+40
 9381 008c 5A66     		str	r2, [r3, #100]
2001:Drivers/STM32H7xx_HAL_Driver/Src/stm32h7xx_hal_dma.c ****     hdma->DMAmuxChannelStatusMask = 1UL << (stream_number & 0x1FU);
 9382              		.loc 1 2001 59
 9383 008e FB68     		ldr	r3, [r7, #12]
 9384 0090 03F01F03 		and	r3, r3, #31
 9385              		.loc 1 2001 41
 9386 0094 0122     		movs	r2, #1
 9387 0096 9A40     		lsls	r2, r2, r3
 9388              		.loc 1 2001 35
 9389 0098 7B68     		ldr	r3, [r7, #4]
 9390 009a 9A66     		str	r2, [r3, #104]
2002:Drivers/STM32H7xx_HAL_Driver/Src/stm32h7xx_hal_dma.c ****   }
2003:Drivers/STM32H7xx_HAL_Driver/Src/stm32h7xx_hal_dma.c ****   else
2004:Drivers/STM32H7xx_HAL_Driver/Src/stm32h7xx_hal_dma.c ****   {
2005:Drivers/STM32H7xx_HAL_Driver/Src/stm32h7xx_hal_dma.c ****     /* DMA1/DMA2 Streams are connected to DMAMUX1 channels */
2006:Drivers/STM32H7xx_HAL_Driver/Src/stm32h7xx_hal_dma.c ****     stream_number = (((uint32_t)((uint32_t*)hdma->Instance) & 0xFFU) - 16U) / 24U;
2007:Drivers/STM32H7xx_HAL_Driver/Src/stm32h7xx_hal_dma.c **** 
2008:Drivers/STM32H7xx_HAL_Driver/Src/stm32h7xx_hal_dma.c ****     if((stream_baseaddress <= ((uint32_t)DMA2_Stream7) ) && \
2009:Drivers/STM32H7xx_HAL_Driver/Src/stm32h7xx_hal_dma.c ****        (stream_baseaddress >= ((uint32_t)DMA2_Stream0)))
2010:Drivers/STM32H7xx_HAL_Driver/Src/stm32h7xx_hal_dma.c ****     {
2011:Drivers/STM32H7xx_HAL_Driver/Src/stm32h7xx_hal_dma.c ****       stream_number += 8U;
2012:Drivers/STM32H7xx_HAL_Driver/Src/stm32h7xx_hal_dma.c ****     }
2013:Drivers/STM32H7xx_HAL_Driver/Src/stm32h7xx_hal_dma.c ****     hdma->DMAmuxChannel = (DMAMUX_Channel_TypeDef *)((uint32_t)(((uint32_t)DMAMUX1_Channel0) + (str
2014:Drivers/STM32H7xx_HAL_Driver/Src/stm32h7xx_hal_dma.c ****     hdma->DMAmuxChannelStatus = DMAMUX1_ChannelStatus;
2015:Drivers/STM32H7xx_HAL_Driver/Src/stm32h7xx_hal_dma.c ****     hdma->DMAmuxChannelStatusMask = 1UL << (stream_number & 0x1FU);
2016:Drivers/STM32H7xx_HAL_Driver/Src/stm32h7xx_hal_dma.c ****   }
2017:Drivers/STM32H7xx_HAL_Driver/Src/stm32h7xx_hal_dma.c **** }
 9391              		.loc 1 2017 1
 9392 009c 24E0     		b	.L398
 9393              	.L395:
2006:Drivers/STM32H7xx_HAL_Driver/Src/stm32h7xx_hal_dma.c **** 
ARM GAS  /var/folders/g1/j12m_ky910s3_sv7d4yrsdn00000gn/T//ccliMUVd.s 			page 202


 9394              		.loc 1 2006 49
 9395 009e 7B68     		ldr	r3, [r7, #4]
 9396 00a0 1B68     		ldr	r3, [r3]
2006:Drivers/STM32H7xx_HAL_Driver/Src/stm32h7xx_hal_dma.c **** 
 9397              		.loc 1 2006 61
 9398 00a2 DBB2     		uxtb	r3, r3
2006:Drivers/STM32H7xx_HAL_Driver/Src/stm32h7xx_hal_dma.c **** 
 9399              		.loc 1 2006 70
 9400 00a4 103B     		subs	r3, r3, #16
2006:Drivers/STM32H7xx_HAL_Driver/Src/stm32h7xx_hal_dma.c **** 
 9401              		.loc 1 2006 19
 9402 00a6 1E4A     		ldr	r2, .L399+44
 9403 00a8 A2FB0323 		umull	r2, r3, r2, r3
 9404 00ac 1B09     		lsrs	r3, r3, #4
 9405 00ae FB60     		str	r3, [r7, #12]
2008:Drivers/STM32H7xx_HAL_Driver/Src/stm32h7xx_hal_dma.c ****        (stream_baseaddress >= ((uint32_t)DMA2_Stream0)))
 9406              		.loc 1 2008 7
 9407 00b0 BB68     		ldr	r3, [r7, #8]
 9408 00b2 1C4A     		ldr	r2, .L399+48
 9409 00b4 9342     		cmp	r3, r2
 9410 00b6 06D8     		bhi	.L397
2008:Drivers/STM32H7xx_HAL_Driver/Src/stm32h7xx_hal_dma.c ****        (stream_baseaddress >= ((uint32_t)DMA2_Stream0)))
 9411              		.loc 1 2008 58 discriminator 1
 9412 00b8 BB68     		ldr	r3, [r7, #8]
 9413 00ba 1B4A     		ldr	r2, .L399+52
 9414 00bc 9342     		cmp	r3, r2
 9415 00be 02D9     		bls	.L397
2011:Drivers/STM32H7xx_HAL_Driver/Src/stm32h7xx_hal_dma.c ****     }
 9416              		.loc 1 2011 21
 9417 00c0 FB68     		ldr	r3, [r7, #12]
 9418 00c2 0833     		adds	r3, r3, #8
 9419 00c4 FB60     		str	r3, [r7, #12]
 9420              	.L397:
2013:Drivers/STM32H7xx_HAL_Driver/Src/stm32h7xx_hal_dma.c ****     hdma->DMAmuxChannelStatus = DMAMUX1_ChannelStatus;
 9421              		.loc 1 2013 54
 9422 00c6 FA68     		ldr	r2, [r7, #12]
 9423 00c8 184B     		ldr	r3, .L399+56
 9424 00ca 1344     		add	r3, r3, r2
 9425 00cc 9B00     		lsls	r3, r3, #2
2013:Drivers/STM32H7xx_HAL_Driver/Src/stm32h7xx_hal_dma.c ****     hdma->DMAmuxChannelStatus = DMAMUX1_ChannelStatus;
 9426              		.loc 1 2013 27
 9427 00ce 1A46     		mov	r2, r3
2013:Drivers/STM32H7xx_HAL_Driver/Src/stm32h7xx_hal_dma.c ****     hdma->DMAmuxChannelStatus = DMAMUX1_ChannelStatus;
 9428              		.loc 1 2013 25
 9429 00d0 7B68     		ldr	r3, [r7, #4]
 9430 00d2 1A66     		str	r2, [r3, #96]
2014:Drivers/STM32H7xx_HAL_Driver/Src/stm32h7xx_hal_dma.c ****     hdma->DMAmuxChannelStatusMask = 1UL << (stream_number & 0x1FU);
 9431              		.loc 1 2014 31
 9432 00d4 7B68     		ldr	r3, [r7, #4]
 9433 00d6 164A     		ldr	r2, .L399+60
 9434 00d8 5A66     		str	r2, [r3, #100]
2015:Drivers/STM32H7xx_HAL_Driver/Src/stm32h7xx_hal_dma.c ****   }
 9435              		.loc 1 2015 59
 9436 00da FB68     		ldr	r3, [r7, #12]
 9437 00dc 03F01F03 		and	r3, r3, #31
2015:Drivers/STM32H7xx_HAL_Driver/Src/stm32h7xx_hal_dma.c ****   }
 9438              		.loc 1 2015 41
ARM GAS  /var/folders/g1/j12m_ky910s3_sv7d4yrsdn00000gn/T//ccliMUVd.s 			page 203


 9439 00e0 0122     		movs	r2, #1
 9440 00e2 9A40     		lsls	r2, r2, r3
2015:Drivers/STM32H7xx_HAL_Driver/Src/stm32h7xx_hal_dma.c ****   }
 9441              		.loc 1 2015 35
 9442 00e4 7B68     		ldr	r3, [r7, #4]
 9443 00e6 9A66     		str	r2, [r3, #104]
 9444              	.L398:
 9445              		.loc 1 2017 1
 9446 00e8 00BF     		nop
 9447 00ea 1437     		adds	r7, r7, #20
 9448              	.LCFI85:
 9449              		.cfi_def_cfa_offset 4
 9450 00ec BD46     		mov	sp, r7
 9451              	.LCFI86:
 9452              		.cfi_def_cfa_register 13
 9453              		@ sp needed
 9454 00ee 5DF8047B 		ldr	r7, [sp], #4
 9455              	.LCFI87:
 9456              		.cfi_restore 7
 9457              		.cfi_def_cfa_offset 0
 9458 00f2 7047     		bx	lr
 9459              	.L400:
 9460              		.align	2
 9461              	.L399:
 9462 00f4 08540258 		.word	1476547592
 9463 00f8 1C540258 		.word	1476547612
 9464 00fc 30540258 		.word	1476547632
 9465 0100 44540258 		.word	1476547652
 9466 0104 58540258 		.word	1476547672
 9467 0108 6C540258 		.word	1476547692
 9468 010c 80540258 		.word	1476547712
 9469 0110 94540258 		.word	1476547732
 9470 0114 CDCCCCCC 		.word	-858993459
 9471 0118 00960016 		.word	369137152
 9472 011c 80580258 		.word	1476548736
 9473 0120 ABAAAAAA 		.word	-1431655765
 9474 0124 B8040240 		.word	1073874104
 9475 0128 0F040240 		.word	1073873935
 9476 012c 00820010 		.word	268468736
 9477 0130 80080240 		.word	1073875072
 9478              		.cfi_endproc
 9479              	.LFE159:
 9481              		.section	.text.DMA_CalcDMAMUXRequestGenBaseAndMask,"ax",%progbits
 9482              		.align	1
 9483              		.syntax unified
 9484              		.thumb
 9485              		.thumb_func
 9487              	DMA_CalcDMAMUXRequestGenBaseAndMask:
 9488              	.LFB160:
2018:Drivers/STM32H7xx_HAL_Driver/Src/stm32h7xx_hal_dma.c **** 
2019:Drivers/STM32H7xx_HAL_Driver/Src/stm32h7xx_hal_dma.c **** /**
2020:Drivers/STM32H7xx_HAL_Driver/Src/stm32h7xx_hal_dma.c ****   * @brief  Updates the DMA handle with the DMAMUX  request generator params
2021:Drivers/STM32H7xx_HAL_Driver/Src/stm32h7xx_hal_dma.c ****   * @param  hdma:       pointer to a DMA_HandleTypeDef structure that contains
2022:Drivers/STM32H7xx_HAL_Driver/Src/stm32h7xx_hal_dma.c ****   *                     the configuration information for the specified DMA Stream.
2023:Drivers/STM32H7xx_HAL_Driver/Src/stm32h7xx_hal_dma.c ****   * @retval HAL status
2024:Drivers/STM32H7xx_HAL_Driver/Src/stm32h7xx_hal_dma.c ****   */
2025:Drivers/STM32H7xx_HAL_Driver/Src/stm32h7xx_hal_dma.c **** static void DMA_CalcDMAMUXRequestGenBaseAndMask(DMA_HandleTypeDef *hdma)
ARM GAS  /var/folders/g1/j12m_ky910s3_sv7d4yrsdn00000gn/T//ccliMUVd.s 			page 204


2026:Drivers/STM32H7xx_HAL_Driver/Src/stm32h7xx_hal_dma.c **** {
 9489              		.loc 1 2026 1
 9490              		.cfi_startproc
 9491              		@ args = 0, pretend = 0, frame = 16
 9492              		@ frame_needed = 1, uses_anonymous_args = 0
 9493              		@ link register save eliminated.
 9494 0000 80B4     		push	{r7}
 9495              	.LCFI88:
 9496              		.cfi_def_cfa_offset 4
 9497              		.cfi_offset 7, -4
 9498 0002 85B0     		sub	sp, sp, #20
 9499              	.LCFI89:
 9500              		.cfi_def_cfa_offset 24
 9501 0004 00AF     		add	r7, sp, #0
 9502              	.LCFI90:
 9503              		.cfi_def_cfa_register 7
 9504 0006 7860     		str	r0, [r7, #4]
2027:Drivers/STM32H7xx_HAL_Driver/Src/stm32h7xx_hal_dma.c ****   uint32_t request =  hdma->Init.Request & DMAMUX_CxCR_DMAREQ_ID;
 9505              		.loc 1 2027 33
 9506 0008 7B68     		ldr	r3, [r7, #4]
 9507 000a 5B68     		ldr	r3, [r3, #4]
 9508              		.loc 1 2027 12
 9509 000c DBB2     		uxtb	r3, r3
 9510 000e FB60     		str	r3, [r7, #12]
2028:Drivers/STM32H7xx_HAL_Driver/Src/stm32h7xx_hal_dma.c **** 
2029:Drivers/STM32H7xx_HAL_Driver/Src/stm32h7xx_hal_dma.c ****   if((request >= DMA_REQUEST_GENERATOR0) && (request <= DMA_REQUEST_GENERATOR7))
 9511              		.loc 1 2029 5
 9512 0010 FB68     		ldr	r3, [r7, #12]
 9513 0012 002B     		cmp	r3, #0
 9514 0014 4AD0     		beq	.L408
 9515              		.loc 1 2029 42 discriminator 1
 9516 0016 FB68     		ldr	r3, [r7, #12]
 9517 0018 082B     		cmp	r3, #8
 9518 001a 47D8     		bhi	.L408
2030:Drivers/STM32H7xx_HAL_Driver/Src/stm32h7xx_hal_dma.c ****   {
2031:Drivers/STM32H7xx_HAL_Driver/Src/stm32h7xx_hal_dma.c ****     if(IS_BDMA_CHANNEL_DMAMUX_INSTANCE(hdma->Instance) != 0U)
 9519              		.loc 1 2031 8
 9520 001c 7B68     		ldr	r3, [r7, #4]
 9521 001e 1B68     		ldr	r3, [r3]
 9522 0020 254A     		ldr	r2, .L409
 9523 0022 9342     		cmp	r3, r2
 9524 0024 22D0     		beq	.L403
 9525              		.loc 1 2031 8 is_stmt 0 discriminator 2
 9526 0026 7B68     		ldr	r3, [r7, #4]
 9527 0028 1B68     		ldr	r3, [r3]
 9528 002a 244A     		ldr	r2, .L409+4
 9529 002c 9342     		cmp	r3, r2
 9530 002e 1DD0     		beq	.L403
 9531              		.loc 1 2031 8 discriminator 4
 9532 0030 7B68     		ldr	r3, [r7, #4]
 9533 0032 1B68     		ldr	r3, [r3]
 9534 0034 224A     		ldr	r2, .L409+8
 9535 0036 9342     		cmp	r3, r2
 9536 0038 18D0     		beq	.L403
 9537              		.loc 1 2031 8 discriminator 6
 9538 003a 7B68     		ldr	r3, [r7, #4]
 9539 003c 1B68     		ldr	r3, [r3]
ARM GAS  /var/folders/g1/j12m_ky910s3_sv7d4yrsdn00000gn/T//ccliMUVd.s 			page 205


 9540 003e 214A     		ldr	r2, .L409+12
 9541 0040 9342     		cmp	r3, r2
 9542 0042 13D0     		beq	.L403
 9543              		.loc 1 2031 8 discriminator 8
 9544 0044 7B68     		ldr	r3, [r7, #4]
 9545 0046 1B68     		ldr	r3, [r3]
 9546 0048 1F4A     		ldr	r2, .L409+16
 9547 004a 9342     		cmp	r3, r2
 9548 004c 0ED0     		beq	.L403
 9549              		.loc 1 2031 8 discriminator 10
 9550 004e 7B68     		ldr	r3, [r7, #4]
 9551 0050 1B68     		ldr	r3, [r3]
 9552 0052 1E4A     		ldr	r2, .L409+20
 9553 0054 9342     		cmp	r3, r2
 9554 0056 09D0     		beq	.L403
 9555              		.loc 1 2031 8 discriminator 12
 9556 0058 7B68     		ldr	r3, [r7, #4]
 9557 005a 1B68     		ldr	r3, [r3]
 9558 005c 1C4A     		ldr	r2, .L409+24
 9559 005e 9342     		cmp	r3, r2
 9560 0060 04D0     		beq	.L403
 9561              		.loc 1 2031 8 discriminator 14
 9562 0062 7B68     		ldr	r3, [r7, #4]
 9563 0064 1B68     		ldr	r3, [r3]
 9564 0066 1B4A     		ldr	r2, .L409+28
 9565 0068 9342     		cmp	r3, r2
 9566 006a 01D1     		bne	.L404
 9567              	.L403:
 9568              		.loc 1 2031 8 discriminator 15
 9569 006c 0123     		movs	r3, #1
 9570              		.loc 1 2031 8
 9571 006e 00E0     		b	.L405
 9572              	.L404:
 9573              		.loc 1 2031 8 discriminator 16
 9574 0070 0023     		movs	r3, #0
 9575              	.L405:
 9576              		.loc 1 2031 7 is_stmt 1 discriminator 18
 9577 0072 002B     		cmp	r3, #0
 9578 0074 0AD0     		beq	.L406
2032:Drivers/STM32H7xx_HAL_Driver/Src/stm32h7xx_hal_dma.c ****     {
2033:Drivers/STM32H7xx_HAL_Driver/Src/stm32h7xx_hal_dma.c ****       /* BDMA Channels are connected to DMAMUX2 request generator blocks */
2034:Drivers/STM32H7xx_HAL_Driver/Src/stm32h7xx_hal_dma.c ****       hdma->DMAmuxRequestGen = (DMAMUX_RequestGen_TypeDef *)((uint32_t)(((uint32_t)DMAMUX2_RequestG
 9579              		.loc 1 2034 62
 9580 0076 FA68     		ldr	r2, [r7, #12]
 9581 0078 174B     		ldr	r3, .L409+32
 9582 007a 1344     		add	r3, r3, r2
 9583 007c 9B00     		lsls	r3, r3, #2
 9584              		.loc 1 2034 32
 9585 007e 1A46     		mov	r2, r3
 9586              		.loc 1 2034 30
 9587 0080 7B68     		ldr	r3, [r7, #4]
 9588 0082 DA66     		str	r2, [r3, #108]
2035:Drivers/STM32H7xx_HAL_Driver/Src/stm32h7xx_hal_dma.c **** 
2036:Drivers/STM32H7xx_HAL_Driver/Src/stm32h7xx_hal_dma.c ****       hdma->DMAmuxRequestGenStatus = DMAMUX2_RequestGenStatus;
 9589              		.loc 1 2036 36
 9590 0084 7B68     		ldr	r3, [r7, #4]
 9591 0086 154A     		ldr	r2, .L409+36
ARM GAS  /var/folders/g1/j12m_ky910s3_sv7d4yrsdn00000gn/T//ccliMUVd.s 			page 206


 9592 0088 1A67     		str	r2, [r3, #112]
 9593 008a 09E0     		b	.L407
 9594              	.L406:
2037:Drivers/STM32H7xx_HAL_Driver/Src/stm32h7xx_hal_dma.c ****     }
2038:Drivers/STM32H7xx_HAL_Driver/Src/stm32h7xx_hal_dma.c ****     else
2039:Drivers/STM32H7xx_HAL_Driver/Src/stm32h7xx_hal_dma.c ****     {
2040:Drivers/STM32H7xx_HAL_Driver/Src/stm32h7xx_hal_dma.c ****       /* DMA1 and DMA2 Streams use DMAMUX1 request generator blocks */
2041:Drivers/STM32H7xx_HAL_Driver/Src/stm32h7xx_hal_dma.c ****       hdma->DMAmuxRequestGen = (DMAMUX_RequestGen_TypeDef *)((uint32_t)(((uint32_t)DMAMUX1_RequestG
 9595              		.loc 1 2041 62
 9596 008c FA68     		ldr	r2, [r7, #12]
 9597 008e 144B     		ldr	r3, .L409+40
 9598 0090 1344     		add	r3, r3, r2
 9599 0092 9B00     		lsls	r3, r3, #2
 9600              		.loc 1 2041 32
 9601 0094 1A46     		mov	r2, r3
 9602              		.loc 1 2041 30
 9603 0096 7B68     		ldr	r3, [r7, #4]
 9604 0098 DA66     		str	r2, [r3, #108]
2042:Drivers/STM32H7xx_HAL_Driver/Src/stm32h7xx_hal_dma.c **** 
2043:Drivers/STM32H7xx_HAL_Driver/Src/stm32h7xx_hal_dma.c ****       hdma->DMAmuxRequestGenStatus = DMAMUX1_RequestGenStatus;
 9605              		.loc 1 2043 36
 9606 009a 7B68     		ldr	r3, [r7, #4]
 9607 009c 114A     		ldr	r2, .L409+44
 9608 009e 1A67     		str	r2, [r3, #112]
 9609              	.L407:
2044:Drivers/STM32H7xx_HAL_Driver/Src/stm32h7xx_hal_dma.c ****     }
2045:Drivers/STM32H7xx_HAL_Driver/Src/stm32h7xx_hal_dma.c **** 
2046:Drivers/STM32H7xx_HAL_Driver/Src/stm32h7xx_hal_dma.c ****     hdma->DMAmuxRequestGenStatusMask = 1UL << (request - 1U);
 9610              		.loc 1 2046 56
 9611 00a0 FB68     		ldr	r3, [r7, #12]
 9612 00a2 013B     		subs	r3, r3, #1
 9613              		.loc 1 2046 44
 9614 00a4 0122     		movs	r2, #1
 9615 00a6 9A40     		lsls	r2, r2, r3
 9616              		.loc 1 2046 38
 9617 00a8 7B68     		ldr	r3, [r7, #4]
 9618 00aa 5A67     		str	r2, [r3, #116]
 9619              	.L408:
2047:Drivers/STM32H7xx_HAL_Driver/Src/stm32h7xx_hal_dma.c ****   }
2048:Drivers/STM32H7xx_HAL_Driver/Src/stm32h7xx_hal_dma.c **** }
 9620              		.loc 1 2048 1
 9621 00ac 00BF     		nop
 9622 00ae 1437     		adds	r7, r7, #20
 9623              	.LCFI91:
 9624              		.cfi_def_cfa_offset 4
 9625 00b0 BD46     		mov	sp, r7
 9626              	.LCFI92:
 9627              		.cfi_def_cfa_register 13
 9628              		@ sp needed
 9629 00b2 5DF8047B 		ldr	r7, [sp], #4
 9630              	.LCFI93:
 9631              		.cfi_restore 7
 9632              		.cfi_def_cfa_offset 0
 9633 00b6 7047     		bx	lr
 9634              	.L410:
 9635              		.align	2
 9636              	.L409:
ARM GAS  /var/folders/g1/j12m_ky910s3_sv7d4yrsdn00000gn/T//ccliMUVd.s 			page 207


 9637 00b8 08540258 		.word	1476547592
 9638 00bc 1C540258 		.word	1476547612
 9639 00c0 30540258 		.word	1476547632
 9640 00c4 44540258 		.word	1476547652
 9641 00c8 58540258 		.word	1476547672
 9642 00cc 6C540258 		.word	1476547692
 9643 00d0 80540258 		.word	1476547712
 9644 00d4 94540258 		.word	1476547732
 9645 00d8 3F960016 		.word	369137215
 9646 00dc 40590258 		.word	1476548928
 9647 00e0 3F820010 		.word	268468799
 9648 00e4 40090240 		.word	1073875264
 9649              		.cfi_endproc
 9650              	.LFE160:
 9652              		.section	.rodata.flagBitshiftOffset.0,"a"
 9653              		.align	2
 9656              	flagBitshiftOffset.0:
 9657 0000 00061016 		.ascii	"\000\006\020\026\000\006\020\026"
 9657      00061016 
 9658              		.text
 9659              	.Letext0:
 9660              		.file 2 "/Users/zhy/Tools/xpack-arm-none-eabi-gcc-14.2.1-1.1/arm-none-eabi/include/machine/_defaul
 9661              		.file 3 "/Users/zhy/Tools/xpack-arm-none-eabi-gcc-14.2.1-1.1/arm-none-eabi/include/sys/_stdint.h"
 9662              		.file 4 "Drivers/CMSIS/Device/ST/STM32H7xx/Include/stm32h743xx.h"
 9663              		.file 5 "Drivers/STM32H7xx_HAL_Driver/Inc/stm32h7xx_hal_def.h"
 9664              		.file 6 "Drivers/STM32H7xx_HAL_Driver/Inc/stm32h7xx_hal_dma.h"
 9665              		.file 7 "Drivers/CMSIS/Device/ST/STM32H7xx/Include/system_stm32h7xx.h"
 9666              		.file 8 "Drivers/STM32H7xx_HAL_Driver/Inc/stm32h7xx_hal.h"
ARM GAS  /var/folders/g1/j12m_ky910s3_sv7d4yrsdn00000gn/T//ccliMUVd.s 			page 208


DEFINED SYMBOLS
                            *ABS*:00000000 stm32h7xx_hal_dma.c
/var/folders/g1/j12m_ky910s3_sv7d4yrsdn00000gn/T//ccliMUVd.s:20     .text.HAL_DMA_Init:00000000 $t
/var/folders/g1/j12m_ky910s3_sv7d4yrsdn00000gn/T//ccliMUVd.s:26     .text.HAL_DMA_Init:00000000 HAL_DMA_Init
/var/folders/g1/j12m_ky910s3_sv7d4yrsdn00000gn/T//ccliMUVd.s:314    .text.HAL_DMA_Init:000001b8 $d
/var/folders/g1/j12m_ky910s3_sv7d4yrsdn00000gn/T//ccliMUVd.s:332    .text.HAL_DMA_Init:000001f8 $t
/var/folders/g1/j12m_ky910s3_sv7d4yrsdn00000gn/T//ccliMUVd.s:9067   .text.DMA_CheckFifoParam:00000000 DMA_CheckFifoParam
/var/folders/g1/j12m_ky910s3_sv7d4yrsdn00000gn/T//ccliMUVd.s:8828   .text.DMA_CalcBaseAndBitshift:00000000 DMA_CalcBaseAndBitshift
/var/folders/g1/j12m_ky910s3_sv7d4yrsdn00000gn/T//ccliMUVd.s:710    .text.HAL_DMA_Init:00000420 $d
/var/folders/g1/j12m_ky910s3_sv7d4yrsdn00000gn/T//ccliMUVd.s:724    .text.HAL_DMA_Init:00000450 $t
/var/folders/g1/j12m_ky910s3_sv7d4yrsdn00000gn/T//ccliMUVd.s:9273   .text.DMA_CalcDMAMUXChannelBaseAndMask:00000000 DMA_CalcDMAMUXChannelBaseAndMask
/var/folders/g1/j12m_ky910s3_sv7d4yrsdn00000gn/T//ccliMUVd.s:9487   .text.DMA_CalcDMAMUXRequestGenBaseAndMask:00000000 DMA_CalcDMAMUXRequestGenBaseAndMask
/var/folders/g1/j12m_ky910s3_sv7d4yrsdn00000gn/T//ccliMUVd.s:1076   .text.HAL_DMA_Init:00000650 $d
/var/folders/g1/j12m_ky910s3_sv7d4yrsdn00000gn/T//ccliMUVd.s:1106   .text.HAL_DMA_DeInit:00000000 $t
/var/folders/g1/j12m_ky910s3_sv7d4yrsdn00000gn/T//ccliMUVd.s:1112   .text.HAL_DMA_DeInit:00000000 HAL_DMA_DeInit
/var/folders/g1/j12m_ky910s3_sv7d4yrsdn00000gn/T//ccliMUVd.s:1474   .text.HAL_DMA_DeInit:00000220 $d
/var/folders/g1/j12m_ky910s3_sv7d4yrsdn00000gn/T//ccliMUVd.s:1500   .text.HAL_DMA_DeInit:00000280 $t
/var/folders/g1/j12m_ky910s3_sv7d4yrsdn00000gn/T//ccliMUVd.s:1677   .text.HAL_DMA_Start:00000000 $t
/var/folders/g1/j12m_ky910s3_sv7d4yrsdn00000gn/T//ccliMUVd.s:1683   .text.HAL_DMA_Start:00000000 HAL_DMA_Start
/var/folders/g1/j12m_ky910s3_sv7d4yrsdn00000gn/T//ccliMUVd.s:8274   .text.DMA_SetConfig:00000000 DMA_SetConfig
/var/folders/g1/j12m_ky910s3_sv7d4yrsdn00000gn/T//ccliMUVd.s:2013   .text.HAL_DMA_Start:00000200 $d
/var/folders/g1/j12m_ky910s3_sv7d4yrsdn00000gn/T//ccliMUVd.s:2033   .text.HAL_DMA_Start_IT:00000000 $t
/var/folders/g1/j12m_ky910s3_sv7d4yrsdn00000gn/T//ccliMUVd.s:2039   .text.HAL_DMA_Start_IT:00000000 HAL_DMA_Start_IT
/var/folders/g1/j12m_ky910s3_sv7d4yrsdn00000gn/T//ccliMUVd.s:2361   .text.HAL_DMA_Start_IT:000001f4 $d
/var/folders/g1/j12m_ky910s3_sv7d4yrsdn00000gn/T//ccliMUVd.s:2379   .text.HAL_DMA_Start_IT:00000234 $t
/var/folders/g1/j12m_ky910s3_sv7d4yrsdn00000gn/T//ccliMUVd.s:2747   .text.HAL_DMA_Start_IT:00000474 $d
/var/folders/g1/j12m_ky910s3_sv7d4yrsdn00000gn/T//ccliMUVd.s:2775   .text.HAL_DMA_Abort:00000000 $t
/var/folders/g1/j12m_ky910s3_sv7d4yrsdn00000gn/T//ccliMUVd.s:2781   .text.HAL_DMA_Abort:00000000 HAL_DMA_Abort
/var/folders/g1/j12m_ky910s3_sv7d4yrsdn00000gn/T//ccliMUVd.s:3135   .text.HAL_DMA_Abort:00000214 $d
/var/folders/g1/j12m_ky910s3_sv7d4yrsdn00000gn/T//ccliMUVd.s:3161   .text.HAL_DMA_Abort:00000274 $t
/var/folders/g1/j12m_ky910s3_sv7d4yrsdn00000gn/T//ccliMUVd.s:3459   .text.HAL_DMA_Abort:00000444 $d
/var/folders/g1/j12m_ky910s3_sv7d4yrsdn00000gn/T//ccliMUVd.s:3477   .text.HAL_DMA_Abort:00000484 $t
/var/folders/g1/j12m_ky910s3_sv7d4yrsdn00000gn/T//ccliMUVd.s:3707   .text.HAL_DMA_Abort:000005dc $d
/var/folders/g1/j12m_ky910s3_sv7d4yrsdn00000gn/T//ccliMUVd.s:3735   .text.HAL_DMA_Abort_IT:00000000 $t
/var/folders/g1/j12m_ky910s3_sv7d4yrsdn00000gn/T//ccliMUVd.s:3741   .text.HAL_DMA_Abort_IT:00000000 HAL_DMA_Abort_IT
/var/folders/g1/j12m_ky910s3_sv7d4yrsdn00000gn/T//ccliMUVd.s:4014   .text.HAL_DMA_Abort_IT:000001a0 $d
/var/folders/g1/j12m_ky910s3_sv7d4yrsdn00000gn/T//ccliMUVd.s:4032   .text.HAL_DMA_Abort_IT:000001e0 $t
/var/folders/g1/j12m_ky910s3_sv7d4yrsdn00000gn/T//ccliMUVd.s:4311   .text.HAL_DMA_Abort_IT:000003a8 $d
/var/folders/g1/j12m_ky910s3_sv7d4yrsdn00000gn/T//ccliMUVd.s:4337   .text.HAL_DMA_Abort_IT:00000408 $t
/var/folders/g1/j12m_ky910s3_sv7d4yrsdn00000gn/T//ccliMUVd.s:4442   .text.HAL_DMA_PollForTransfer:00000000 $t
/var/folders/g1/j12m_ky910s3_sv7d4yrsdn00000gn/T//ccliMUVd.s:4448   .text.HAL_DMA_PollForTransfer:00000000 HAL_DMA_PollForTransfer
/var/folders/g1/j12m_ky910s3_sv7d4yrsdn00000gn/T//ccliMUVd.s:4827   .text.HAL_DMA_PollForTransfer:00000234 $d
/var/folders/g1/j12m_ky910s3_sv7d4yrsdn00000gn/T//ccliMUVd.s:4845   .text.HAL_DMA_PollForTransfer:00000274 $t
/var/folders/g1/j12m_ky910s3_sv7d4yrsdn00000gn/T//ccliMUVd.s:5374   .text.HAL_DMA_PollForTransfer:000005a4 $d
/var/folders/g1/j12m_ky910s3_sv7d4yrsdn00000gn/T//ccliMUVd.s:5400   .text.HAL_DMA_PollForTransfer:00000604 $t
/var/folders/g1/j12m_ky910s3_sv7d4yrsdn00000gn/T//ccliMUVd.s:5589   .text.HAL_DMA_PollForTransfer:00000714 $d
/var/folders/g1/j12m_ky910s3_sv7d4yrsdn00000gn/T//ccliMUVd.s:5609   .text.HAL_DMA_IRQHandler:00000000 $t
/var/folders/g1/j12m_ky910s3_sv7d4yrsdn00000gn/T//ccliMUVd.s:5615   .text.HAL_DMA_IRQHandler:00000000 HAL_DMA_IRQHandler
/var/folders/g1/j12m_ky910s3_sv7d4yrsdn00000gn/T//ccliMUVd.s:5898   .text.HAL_DMA_IRQHandler:000001ac $d
/var/folders/g1/j12m_ky910s3_sv7d4yrsdn00000gn/T//ccliMUVd.s:5918   .text.HAL_DMA_IRQHandler:000001f4 $t
/var/folders/g1/j12m_ky910s3_sv7d4yrsdn00000gn/T//ccliMUVd.s:6243   .text.HAL_DMA_IRQHandler:000003f8 $d
/var/folders/g1/j12m_ky910s3_sv7d4yrsdn00000gn/T//ccliMUVd.s:6261   .text.HAL_DMA_IRQHandler:00000438 $t
/var/folders/g1/j12m_ky910s3_sv7d4yrsdn00000gn/T//ccliMUVd.s:6655   .text.HAL_DMA_IRQHandler:00000690 $d
/var/folders/g1/j12m_ky910s3_sv7d4yrsdn00000gn/T//ccliMUVd.s:6673   .text.HAL_DMA_IRQHandler:000006d0 $t
/var/folders/g1/j12m_ky910s3_sv7d4yrsdn00000gn/T//ccliMUVd.s:7223   .text.HAL_DMA_IRQHandler:00000a08 $d
/var/folders/g1/j12m_ky910s3_sv7d4yrsdn00000gn/T//ccliMUVd.s:7249   .text.HAL_DMA_IRQHandler:00000a68 $t
/var/folders/g1/j12m_ky910s3_sv7d4yrsdn00000gn/T//ccliMUVd.s:7578   .text.HAL_DMA_IRQHandler:00000c74 $d
ARM GAS  /var/folders/g1/j12m_ky910s3_sv7d4yrsdn00000gn/T//ccliMUVd.s 			page 209


/var/folders/g1/j12m_ky910s3_sv7d4yrsdn00000gn/T//ccliMUVd.s:7596   .text.HAL_DMA_IRQHandler:00000cb4 $t
/var/folders/g1/j12m_ky910s3_sv7d4yrsdn00000gn/T//ccliMUVd.s:7827   .text.HAL_DMA_IRQHandler:00000e14 $d
/var/folders/g1/j12m_ky910s3_sv7d4yrsdn00000gn/T//ccliMUVd.s:7847   .text.HAL_DMA_RegisterCallback:00000000 $t
/var/folders/g1/j12m_ky910s3_sv7d4yrsdn00000gn/T//ccliMUVd.s:7853   .text.HAL_DMA_RegisterCallback:00000000 HAL_DMA_RegisterCallback
/var/folders/g1/j12m_ky910s3_sv7d4yrsdn00000gn/T//ccliMUVd.s:7914   .text.HAL_DMA_RegisterCallback:0000004c $d
/var/folders/g1/j12m_ky910s3_sv7d4yrsdn00000gn/T//ccliMUVd.s:7920   .text.HAL_DMA_RegisterCallback:00000064 $t
/var/folders/g1/j12m_ky910s3_sv7d4yrsdn00000gn/T//ccliMUVd.s:7999   .text.HAL_DMA_UnRegisterCallback:00000000 $t
/var/folders/g1/j12m_ky910s3_sv7d4yrsdn00000gn/T//ccliMUVd.s:8005   .text.HAL_DMA_UnRegisterCallback:00000000 HAL_DMA_UnRegisterCallback
/var/folders/g1/j12m_ky910s3_sv7d4yrsdn00000gn/T//ccliMUVd.s:8065   .text.HAL_DMA_UnRegisterCallback:00000048 $d
/var/folders/g1/j12m_ky910s3_sv7d4yrsdn00000gn/T//ccliMUVd.s:8072   .text.HAL_DMA_UnRegisterCallback:00000064 $t
/var/folders/g1/j12m_ky910s3_sv7d4yrsdn00000gn/T//ccliMUVd.s:8178   .text.HAL_DMA_GetState:00000000 $t
/var/folders/g1/j12m_ky910s3_sv7d4yrsdn00000gn/T//ccliMUVd.s:8184   .text.HAL_DMA_GetState:00000000 HAL_DMA_GetState
/var/folders/g1/j12m_ky910s3_sv7d4yrsdn00000gn/T//ccliMUVd.s:8224   .text.HAL_DMA_GetError:00000000 $t
/var/folders/g1/j12m_ky910s3_sv7d4yrsdn00000gn/T//ccliMUVd.s:8230   .text.HAL_DMA_GetError:00000000 HAL_DMA_GetError
/var/folders/g1/j12m_ky910s3_sv7d4yrsdn00000gn/T//ccliMUVd.s:8269   .text.DMA_SetConfig:00000000 $t
/var/folders/g1/j12m_ky910s3_sv7d4yrsdn00000gn/T//ccliMUVd.s:8643   .text.DMA_SetConfig:0000021c $d
/var/folders/g1/j12m_ky910s3_sv7d4yrsdn00000gn/T//ccliMUVd.s:8669   .text.DMA_SetConfig:0000027c $t
/var/folders/g1/j12m_ky910s3_sv7d4yrsdn00000gn/T//ccliMUVd.s:8811   .text.DMA_SetConfig:00000338 $d
/var/folders/g1/j12m_ky910s3_sv7d4yrsdn00000gn/T//ccliMUVd.s:8823   .text.DMA_CalcBaseAndBitshift:00000000 $t
/var/folders/g1/j12m_ky910s3_sv7d4yrsdn00000gn/T//ccliMUVd.s:9039   .text.DMA_CalcBaseAndBitshift:00000118 $d
/var/folders/g1/j12m_ky910s3_sv7d4yrsdn00000gn/T//ccliMUVd.s:9656   .rodata.flagBitshiftOffset.0:00000000 flagBitshiftOffset.0
/var/folders/g1/j12m_ky910s3_sv7d4yrsdn00000gn/T//ccliMUVd.s:9062   .text.DMA_CheckFifoParam:00000000 $t
/var/folders/g1/j12m_ky910s3_sv7d4yrsdn00000gn/T//ccliMUVd.s:9104   .text.DMA_CheckFifoParam:00000024 $d
/var/folders/g1/j12m_ky910s3_sv7d4yrsdn00000gn/T//ccliMUVd.s:9108   .text.DMA_CheckFifoParam:00000034 $t
/var/folders/g1/j12m_ky910s3_sv7d4yrsdn00000gn/T//ccliMUVd.s:9152   .text.DMA_CheckFifoParam:00000070 $d
/var/folders/g1/j12m_ky910s3_sv7d4yrsdn00000gn/T//ccliMUVd.s:9156   .text.DMA_CheckFifoParam:00000080 $t
/var/folders/g1/j12m_ky910s3_sv7d4yrsdn00000gn/T//ccliMUVd.s:9268   .text.DMA_CalcDMAMUXChannelBaseAndMask:00000000 $t
/var/folders/g1/j12m_ky910s3_sv7d4yrsdn00000gn/T//ccliMUVd.s:9462   .text.DMA_CalcDMAMUXChannelBaseAndMask:000000f4 $d
/var/folders/g1/j12m_ky910s3_sv7d4yrsdn00000gn/T//ccliMUVd.s:9482   .text.DMA_CalcDMAMUXRequestGenBaseAndMask:00000000 $t
/var/folders/g1/j12m_ky910s3_sv7d4yrsdn00000gn/T//ccliMUVd.s:9637   .text.DMA_CalcDMAMUXRequestGenBaseAndMask:000000b8 $d
/var/folders/g1/j12m_ky910s3_sv7d4yrsdn00000gn/T//ccliMUVd.s:9653   .rodata.flagBitshiftOffset.0:00000000 $d

UNDEFINED SYMBOLS
HAL_GetTick
SystemCoreClock
