ARM GAS  /var/folders/g1/j12m_ky910s3_sv7d4yrsdn00000gn/T//ccvnHeju.s 			page 1


   1              		.cpu cortex-m7
   2              		.arch armv7e-m
   3              		.fpu fpv5-d16
   4              		.eabi_attribute 28, 1
   5              		.eabi_attribute 20, 1
   6              		.eabi_attribute 21, 1
   7              		.eabi_attribute 23, 3
   8              		.eabi_attribute 24, 1
   9              		.eabi_attribute 25, 1
  10              		.eabi_attribute 26, 1
  11              		.eabi_attribute 30, 6
  12              		.eabi_attribute 34, 1
  13              		.eabi_attribute 18, 4
  14              		.file	"stm32h7xx_hal.c"
  15              		.text
  16              	.Ltext0:
  17              		.cfi_sections	.debug_frame
  18              		.file 1 "Drivers/STM32H7xx_HAL_Driver/Src/stm32h7xx_hal.c"
  19              		.global	uwTick
  20              		.section	.bss.uwTick,"aw",%nobits
  21              		.align	2
  24              	uwTick:
  25 0000 00000000 		.space	4
  26              		.global	uwTickPrio
  27              		.section	.data.uwTickPrio,"aw"
  28              		.align	2
  31              	uwTickPrio:
  32 0000 10000000 		.word	16
  33              		.global	uwTickFreq
  34              		.section	.data.uwTickFreq,"aw"
  37              	uwTickFreq:
  38 0000 01       		.byte	1
  39              		.section	.text.HAL_Init,"ax",%progbits
  40              		.align	1
  41              		.global	HAL_Init
  42              		.syntax unified
  43              		.thumb
  44              		.thumb_func
  46              	HAL_Init:
  47              	.LFB144:
   1:Drivers/STM32H7xx_HAL_Driver/Src/stm32h7xx_hal.c **** /**
   2:Drivers/STM32H7xx_HAL_Driver/Src/stm32h7xx_hal.c ****   ******************************************************************************
   3:Drivers/STM32H7xx_HAL_Driver/Src/stm32h7xx_hal.c ****   * @file    stm32h7xx_hal.c
   4:Drivers/STM32H7xx_HAL_Driver/Src/stm32h7xx_hal.c ****   * @author  MCD Application Team
   5:Drivers/STM32H7xx_HAL_Driver/Src/stm32h7xx_hal.c ****   * @brief   HAL module driver.
   6:Drivers/STM32H7xx_HAL_Driver/Src/stm32h7xx_hal.c ****   *          This is the common part of the HAL initialization
   7:Drivers/STM32H7xx_HAL_Driver/Src/stm32h7xx_hal.c ****   *
   8:Drivers/STM32H7xx_HAL_Driver/Src/stm32h7xx_hal.c ****   ******************************************************************************
   9:Drivers/STM32H7xx_HAL_Driver/Src/stm32h7xx_hal.c ****   * @attention
  10:Drivers/STM32H7xx_HAL_Driver/Src/stm32h7xx_hal.c ****   *
  11:Drivers/STM32H7xx_HAL_Driver/Src/stm32h7xx_hal.c ****   * Copyright (c) 2017 STMicroelectronics.
  12:Drivers/STM32H7xx_HAL_Driver/Src/stm32h7xx_hal.c ****   * All rights reserved.
  13:Drivers/STM32H7xx_HAL_Driver/Src/stm32h7xx_hal.c ****   *
  14:Drivers/STM32H7xx_HAL_Driver/Src/stm32h7xx_hal.c ****   * This software is licensed under terms that can be found in the LICENSE file
  15:Drivers/STM32H7xx_HAL_Driver/Src/stm32h7xx_hal.c ****   * in the root directory of this software component.
  16:Drivers/STM32H7xx_HAL_Driver/Src/stm32h7xx_hal.c ****   * If no LICENSE file comes with this software, it is provided AS-IS.
  17:Drivers/STM32H7xx_HAL_Driver/Src/stm32h7xx_hal.c ****   *
ARM GAS  /var/folders/g1/j12m_ky910s3_sv7d4yrsdn00000gn/T//ccvnHeju.s 			page 2


  18:Drivers/STM32H7xx_HAL_Driver/Src/stm32h7xx_hal.c ****   ******************************************************************************
  19:Drivers/STM32H7xx_HAL_Driver/Src/stm32h7xx_hal.c ****   @verbatim
  20:Drivers/STM32H7xx_HAL_Driver/Src/stm32h7xx_hal.c ****   ==============================================================================
  21:Drivers/STM32H7xx_HAL_Driver/Src/stm32h7xx_hal.c ****                      ##### How to use this driver #####
  22:Drivers/STM32H7xx_HAL_Driver/Src/stm32h7xx_hal.c ****   ==============================================================================
  23:Drivers/STM32H7xx_HAL_Driver/Src/stm32h7xx_hal.c ****     [..]
  24:Drivers/STM32H7xx_HAL_Driver/Src/stm32h7xx_hal.c ****     The common HAL driver contains a set of generic and common APIs that can be
  25:Drivers/STM32H7xx_HAL_Driver/Src/stm32h7xx_hal.c ****     used by the PPP peripheral drivers and the user to start using the HAL.
  26:Drivers/STM32H7xx_HAL_Driver/Src/stm32h7xx_hal.c ****     [..]
  27:Drivers/STM32H7xx_HAL_Driver/Src/stm32h7xx_hal.c ****     The HAL contains two APIs' categories:
  28:Drivers/STM32H7xx_HAL_Driver/Src/stm32h7xx_hal.c ****          (+) Common HAL APIs
  29:Drivers/STM32H7xx_HAL_Driver/Src/stm32h7xx_hal.c ****          (+) Services HAL APIs
  30:Drivers/STM32H7xx_HAL_Driver/Src/stm32h7xx_hal.c **** 
  31:Drivers/STM32H7xx_HAL_Driver/Src/stm32h7xx_hal.c ****   @endverbatim
  32:Drivers/STM32H7xx_HAL_Driver/Src/stm32h7xx_hal.c ****   ******************************************************************************
  33:Drivers/STM32H7xx_HAL_Driver/Src/stm32h7xx_hal.c ****   */
  34:Drivers/STM32H7xx_HAL_Driver/Src/stm32h7xx_hal.c **** 
  35:Drivers/STM32H7xx_HAL_Driver/Src/stm32h7xx_hal.c **** /* Includes ------------------------------------------------------------------*/
  36:Drivers/STM32H7xx_HAL_Driver/Src/stm32h7xx_hal.c **** #include "stm32h7xx_hal.h"
  37:Drivers/STM32H7xx_HAL_Driver/Src/stm32h7xx_hal.c **** 
  38:Drivers/STM32H7xx_HAL_Driver/Src/stm32h7xx_hal.c **** /** @addtogroup STM32H7xx_HAL_Driver
  39:Drivers/STM32H7xx_HAL_Driver/Src/stm32h7xx_hal.c ****   * @{
  40:Drivers/STM32H7xx_HAL_Driver/Src/stm32h7xx_hal.c ****   */
  41:Drivers/STM32H7xx_HAL_Driver/Src/stm32h7xx_hal.c **** 
  42:Drivers/STM32H7xx_HAL_Driver/Src/stm32h7xx_hal.c **** /** @defgroup HAL  HAL
  43:Drivers/STM32H7xx_HAL_Driver/Src/stm32h7xx_hal.c ****   * @brief HAL module driver.
  44:Drivers/STM32H7xx_HAL_Driver/Src/stm32h7xx_hal.c ****   * @{
  45:Drivers/STM32H7xx_HAL_Driver/Src/stm32h7xx_hal.c ****   */
  46:Drivers/STM32H7xx_HAL_Driver/Src/stm32h7xx_hal.c **** 
  47:Drivers/STM32H7xx_HAL_Driver/Src/stm32h7xx_hal.c **** /* Private typedef -----------------------------------------------------------*/
  48:Drivers/STM32H7xx_HAL_Driver/Src/stm32h7xx_hal.c **** /* Private define ------------------------------------------------------------*/
  49:Drivers/STM32H7xx_HAL_Driver/Src/stm32h7xx_hal.c **** /**
  50:Drivers/STM32H7xx_HAL_Driver/Src/stm32h7xx_hal.c ****  * @brief STM32H7xx HAL Driver version number
  51:Drivers/STM32H7xx_HAL_Driver/Src/stm32h7xx_hal.c ****    */
  52:Drivers/STM32H7xx_HAL_Driver/Src/stm32h7xx_hal.c **** #define __STM32H7xx_HAL_VERSION_MAIN   (0x01UL) /*!< [31:24] main version */
  53:Drivers/STM32H7xx_HAL_Driver/Src/stm32h7xx_hal.c **** #define __STM32H7xx_HAL_VERSION_SUB1   (0x0BUL) /*!< [23:16] sub1 version */
  54:Drivers/STM32H7xx_HAL_Driver/Src/stm32h7xx_hal.c **** #define __STM32H7xx_HAL_VERSION_SUB2   (0x05UL) /*!< [15:8]  sub2 version */
  55:Drivers/STM32H7xx_HAL_Driver/Src/stm32h7xx_hal.c **** #define __STM32H7xx_HAL_VERSION_RC     (0x00UL) /*!< [7:0]  release candidate */
  56:Drivers/STM32H7xx_HAL_Driver/Src/stm32h7xx_hal.c **** #define __STM32H7xx_HAL_VERSION         ((__STM32H7xx_HAL_VERSION_MAIN << 24)\
  57:Drivers/STM32H7xx_HAL_Driver/Src/stm32h7xx_hal.c ****                                         |(__STM32H7xx_HAL_VERSION_SUB1 << 16)\
  58:Drivers/STM32H7xx_HAL_Driver/Src/stm32h7xx_hal.c ****                                         |(__STM32H7xx_HAL_VERSION_SUB2 << 8 )\
  59:Drivers/STM32H7xx_HAL_Driver/Src/stm32h7xx_hal.c ****                                         |(__STM32H7xx_HAL_VERSION_RC))
  60:Drivers/STM32H7xx_HAL_Driver/Src/stm32h7xx_hal.c **** 
  61:Drivers/STM32H7xx_HAL_Driver/Src/stm32h7xx_hal.c **** #define IDCODE_DEVID_MASK    ((uint32_t)0x00000FFF)
  62:Drivers/STM32H7xx_HAL_Driver/Src/stm32h7xx_hal.c **** #define VREFBUF_TIMEOUT_VALUE     (uint32_t)10   /* 10 ms  */
  63:Drivers/STM32H7xx_HAL_Driver/Src/stm32h7xx_hal.c **** 
  64:Drivers/STM32H7xx_HAL_Driver/Src/stm32h7xx_hal.c **** /* Private macro -------------------------------------------------------------*/
  65:Drivers/STM32H7xx_HAL_Driver/Src/stm32h7xx_hal.c **** /* Private variables ---------------------------------------------------------*/
  66:Drivers/STM32H7xx_HAL_Driver/Src/stm32h7xx_hal.c **** /* Exported variables --------------------------------------------------------*/
  67:Drivers/STM32H7xx_HAL_Driver/Src/stm32h7xx_hal.c **** 
  68:Drivers/STM32H7xx_HAL_Driver/Src/stm32h7xx_hal.c **** /** @defgroup HAL_Exported_Variables HAL Exported Variables
  69:Drivers/STM32H7xx_HAL_Driver/Src/stm32h7xx_hal.c ****   * @{
  70:Drivers/STM32H7xx_HAL_Driver/Src/stm32h7xx_hal.c ****   */
  71:Drivers/STM32H7xx_HAL_Driver/Src/stm32h7xx_hal.c **** __IO uint32_t uwTick;
  72:Drivers/STM32H7xx_HAL_Driver/Src/stm32h7xx_hal.c **** uint32_t uwTickPrio   = (1UL << __NVIC_PRIO_BITS); /* Invalid PRIO */
  73:Drivers/STM32H7xx_HAL_Driver/Src/stm32h7xx_hal.c **** HAL_TickFreqTypeDef uwTickFreq = HAL_TICK_FREQ_DEFAULT;  /* 1KHz */
  74:Drivers/STM32H7xx_HAL_Driver/Src/stm32h7xx_hal.c **** /**
ARM GAS  /var/folders/g1/j12m_ky910s3_sv7d4yrsdn00000gn/T//ccvnHeju.s 			page 3


  75:Drivers/STM32H7xx_HAL_Driver/Src/stm32h7xx_hal.c ****   * @}
  76:Drivers/STM32H7xx_HAL_Driver/Src/stm32h7xx_hal.c ****   */
  77:Drivers/STM32H7xx_HAL_Driver/Src/stm32h7xx_hal.c **** 
  78:Drivers/STM32H7xx_HAL_Driver/Src/stm32h7xx_hal.c **** /* Private function prototypes -----------------------------------------------*/
  79:Drivers/STM32H7xx_HAL_Driver/Src/stm32h7xx_hal.c **** /* Private functions ---------------------------------------------------------*/
  80:Drivers/STM32H7xx_HAL_Driver/Src/stm32h7xx_hal.c **** 
  81:Drivers/STM32H7xx_HAL_Driver/Src/stm32h7xx_hal.c **** /** @addtogroup HAL_Exported_Functions
  82:Drivers/STM32H7xx_HAL_Driver/Src/stm32h7xx_hal.c ****   * @{
  83:Drivers/STM32H7xx_HAL_Driver/Src/stm32h7xx_hal.c ****   */
  84:Drivers/STM32H7xx_HAL_Driver/Src/stm32h7xx_hal.c **** 
  85:Drivers/STM32H7xx_HAL_Driver/Src/stm32h7xx_hal.c **** /** @addtogroup HAL_Group1
  86:Drivers/STM32H7xx_HAL_Driver/Src/stm32h7xx_hal.c ****  *  @brief    Initialization and de-initialization functions
  87:Drivers/STM32H7xx_HAL_Driver/Src/stm32h7xx_hal.c ****  *
  88:Drivers/STM32H7xx_HAL_Driver/Src/stm32h7xx_hal.c **** @verbatim
  89:Drivers/STM32H7xx_HAL_Driver/Src/stm32h7xx_hal.c ****  ===============================================================================
  90:Drivers/STM32H7xx_HAL_Driver/Src/stm32h7xx_hal.c ****               ##### Initialization and de-initialization functions #####
  91:Drivers/STM32H7xx_HAL_Driver/Src/stm32h7xx_hal.c ****  ===============================================================================
  92:Drivers/STM32H7xx_HAL_Driver/Src/stm32h7xx_hal.c ****     [..]  This section provides functions allowing to:
  93:Drivers/STM32H7xx_HAL_Driver/Src/stm32h7xx_hal.c ****       (+) Initializes the Flash interface the NVIC allocation and initial clock
  94:Drivers/STM32H7xx_HAL_Driver/Src/stm32h7xx_hal.c ****           configuration. It initializes the systick also when timeout is needed
  95:Drivers/STM32H7xx_HAL_Driver/Src/stm32h7xx_hal.c ****           and the backup domain when enabled.
  96:Drivers/STM32H7xx_HAL_Driver/Src/stm32h7xx_hal.c ****       (+) De-Initializes common part of the HAL.
  97:Drivers/STM32H7xx_HAL_Driver/Src/stm32h7xx_hal.c ****       (+) Configure The time base source to have 1ms time base with a dedicated
  98:Drivers/STM32H7xx_HAL_Driver/Src/stm32h7xx_hal.c ****           Tick interrupt priority.
  99:Drivers/STM32H7xx_HAL_Driver/Src/stm32h7xx_hal.c ****         (++) SysTick timer is used by default as source of time base, but user
 100:Drivers/STM32H7xx_HAL_Driver/Src/stm32h7xx_hal.c ****              can eventually implement his proper time base source (a general purpose
 101:Drivers/STM32H7xx_HAL_Driver/Src/stm32h7xx_hal.c ****              timer for example or other time source), keeping in mind that Time base
 102:Drivers/STM32H7xx_HAL_Driver/Src/stm32h7xx_hal.c ****              duration should be kept 1ms since PPP_TIMEOUT_VALUEs are defined and
 103:Drivers/STM32H7xx_HAL_Driver/Src/stm32h7xx_hal.c ****              handled in milliseconds basis.
 104:Drivers/STM32H7xx_HAL_Driver/Src/stm32h7xx_hal.c ****         (++) Time base configuration function (HAL_InitTick ()) is called automatically
 105:Drivers/STM32H7xx_HAL_Driver/Src/stm32h7xx_hal.c ****              at the beginning of the program after reset by HAL_Init() or at any time
 106:Drivers/STM32H7xx_HAL_Driver/Src/stm32h7xx_hal.c ****              when clock is configured, by HAL_RCC_ClockConfig().
 107:Drivers/STM32H7xx_HAL_Driver/Src/stm32h7xx_hal.c ****         (++) Source of time base is configured  to generate interrupts at regular
 108:Drivers/STM32H7xx_HAL_Driver/Src/stm32h7xx_hal.c ****              time intervals. Care must be taken if HAL_Delay() is called from a
 109:Drivers/STM32H7xx_HAL_Driver/Src/stm32h7xx_hal.c ****              peripheral ISR process, the Tick interrupt line must have higher priority
 110:Drivers/STM32H7xx_HAL_Driver/Src/stm32h7xx_hal.c ****             (numerically lower) than the peripheral interrupt. Otherwise the caller
 111:Drivers/STM32H7xx_HAL_Driver/Src/stm32h7xx_hal.c ****             ISR process will be blocked.
 112:Drivers/STM32H7xx_HAL_Driver/Src/stm32h7xx_hal.c ****        (++) functions affecting time base configurations are declared as __weak
 113:Drivers/STM32H7xx_HAL_Driver/Src/stm32h7xx_hal.c ****              to make  override possible  in case of other  implementations in user file.
 114:Drivers/STM32H7xx_HAL_Driver/Src/stm32h7xx_hal.c **** @endverbatim
 115:Drivers/STM32H7xx_HAL_Driver/Src/stm32h7xx_hal.c ****   * @{
 116:Drivers/STM32H7xx_HAL_Driver/Src/stm32h7xx_hal.c ****   */
 117:Drivers/STM32H7xx_HAL_Driver/Src/stm32h7xx_hal.c **** 
 118:Drivers/STM32H7xx_HAL_Driver/Src/stm32h7xx_hal.c **** /**
 119:Drivers/STM32H7xx_HAL_Driver/Src/stm32h7xx_hal.c ****   * @brief  This function is used to initialize the HAL Library; it must be the first
 120:Drivers/STM32H7xx_HAL_Driver/Src/stm32h7xx_hal.c ****   *         instruction to be executed in the main program (before to call any other
 121:Drivers/STM32H7xx_HAL_Driver/Src/stm32h7xx_hal.c ****   *         HAL function), it performs the following:
 122:Drivers/STM32H7xx_HAL_Driver/Src/stm32h7xx_hal.c ****   *           Configures the SysTick to generate an interrupt each 1 millisecond,
 123:Drivers/STM32H7xx_HAL_Driver/Src/stm32h7xx_hal.c ****   *           which is clocked by the HSI (at this stage, the clock is not yet
 124:Drivers/STM32H7xx_HAL_Driver/Src/stm32h7xx_hal.c ****   *           configured and thus the system is running from the internal HSI at 16 MHz).
 125:Drivers/STM32H7xx_HAL_Driver/Src/stm32h7xx_hal.c ****   *           Set NVIC Group Priority to 4.
 126:Drivers/STM32H7xx_HAL_Driver/Src/stm32h7xx_hal.c ****   *           Calls the HAL_MspInit() callback function defined in user file
 127:Drivers/STM32H7xx_HAL_Driver/Src/stm32h7xx_hal.c ****   *           "stm32h7xx_hal_msp.c" to do the global low level hardware initialization
 128:Drivers/STM32H7xx_HAL_Driver/Src/stm32h7xx_hal.c ****   *
 129:Drivers/STM32H7xx_HAL_Driver/Src/stm32h7xx_hal.c ****   * @note   SysTick is used as time base for the HAL_Delay() function, the application
 130:Drivers/STM32H7xx_HAL_Driver/Src/stm32h7xx_hal.c ****   *         need to ensure that the SysTick time base is always set to 1 millisecond
 131:Drivers/STM32H7xx_HAL_Driver/Src/stm32h7xx_hal.c ****   *         to have correct HAL operation.
ARM GAS  /var/folders/g1/j12m_ky910s3_sv7d4yrsdn00000gn/T//ccvnHeju.s 			page 4


 132:Drivers/STM32H7xx_HAL_Driver/Src/stm32h7xx_hal.c ****   * @retval HAL status
 133:Drivers/STM32H7xx_HAL_Driver/Src/stm32h7xx_hal.c ****   */
 134:Drivers/STM32H7xx_HAL_Driver/Src/stm32h7xx_hal.c **** HAL_StatusTypeDef HAL_Init(void)
 135:Drivers/STM32H7xx_HAL_Driver/Src/stm32h7xx_hal.c **** {
  48              		.loc 1 135 1
  49              		.cfi_startproc
  50              		@ args = 0, pretend = 0, frame = 8
  51              		@ frame_needed = 1, uses_anonymous_args = 0
  52 0000 80B5     		push	{r7, lr}
  53              	.LCFI0:
  54              		.cfi_def_cfa_offset 8
  55              		.cfi_offset 7, -8
  56              		.cfi_offset 14, -4
  57 0002 82B0     		sub	sp, sp, #8
  58              	.LCFI1:
  59              		.cfi_def_cfa_offset 16
  60 0004 00AF     		add	r7, sp, #0
  61              	.LCFI2:
  62              		.cfi_def_cfa_register 7
 136:Drivers/STM32H7xx_HAL_Driver/Src/stm32h7xx_hal.c **** 
 137:Drivers/STM32H7xx_HAL_Driver/Src/stm32h7xx_hal.c **** uint32_t common_system_clock;
 138:Drivers/STM32H7xx_HAL_Driver/Src/stm32h7xx_hal.c **** 
 139:Drivers/STM32H7xx_HAL_Driver/Src/stm32h7xx_hal.c **** #if defined(DUAL_CORE) && defined(CORE_CM4)
 140:Drivers/STM32H7xx_HAL_Driver/Src/stm32h7xx_hal.c ****    /* Configure Cortex-M4 Instruction cache through ART accelerator */
 141:Drivers/STM32H7xx_HAL_Driver/Src/stm32h7xx_hal.c ****    __HAL_RCC_ART_CLK_ENABLE();                   /* Enable the Cortex-M4 ART Clock */
 142:Drivers/STM32H7xx_HAL_Driver/Src/stm32h7xx_hal.c ****    __HAL_ART_CONFIG_BASE_ADDRESS(0x08100000UL);  /* Configure the Cortex-M4 ART Base address to the
 143:Drivers/STM32H7xx_HAL_Driver/Src/stm32h7xx_hal.c ****    __HAL_ART_ENABLE();                           /* Enable the Cortex-M4 ART */
 144:Drivers/STM32H7xx_HAL_Driver/Src/stm32h7xx_hal.c **** #endif /* DUAL_CORE &&  CORE_CM4 */
 145:Drivers/STM32H7xx_HAL_Driver/Src/stm32h7xx_hal.c **** 
 146:Drivers/STM32H7xx_HAL_Driver/Src/stm32h7xx_hal.c ****   /* Set Interrupt Group Priority */
 147:Drivers/STM32H7xx_HAL_Driver/Src/stm32h7xx_hal.c ****   HAL_NVIC_SetPriorityGrouping(NVIC_PRIORITYGROUP_4);
  63              		.loc 1 147 3
  64 0006 0320     		movs	r0, #3
  65 0008 FFF7FEFF 		bl	HAL_NVIC_SetPriorityGrouping
 148:Drivers/STM32H7xx_HAL_Driver/Src/stm32h7xx_hal.c **** 
 149:Drivers/STM32H7xx_HAL_Driver/Src/stm32h7xx_hal.c ****   /* Update the SystemCoreClock global variable */
 150:Drivers/STM32H7xx_HAL_Driver/Src/stm32h7xx_hal.c **** #if defined(RCC_D1CFGR_D1CPRE)
 151:Drivers/STM32H7xx_HAL_Driver/Src/stm32h7xx_hal.c ****   common_system_clock = HAL_RCC_GetSysClockFreq() >> ((D1CorePrescTable[(RCC->D1CFGR & RCC_D1CFGR_D
  66              		.loc 1 151 25
  67 000c FFF7FEFF 		bl	HAL_RCC_GetSysClockFreq
  68 0010 0246     		mov	r2, r0
  69              		.loc 1 151 77 discriminator 1
  70 0012 154B     		ldr	r3, .L4
  71 0014 9B69     		ldr	r3, [r3, #24]
  72              		.loc 1 151 106 discriminator 1
  73 0016 1B0A     		lsrs	r3, r3, #8
  74 0018 03F00F03 		and	r3, r3, #15
  75              		.loc 1 151 72 discriminator 1
  76 001c 1349     		ldr	r1, .L4+4
  77 001e CB5C     		ldrb	r3, [r1, r3]	@ zero_extendqisi2
  78              		.loc 1 151 133 discriminator 1
  79 0020 03F01F03 		and	r3, r3, #31
  80              		.loc 1 151 23 discriminator 1
  81 0024 22FA03F3 		lsr	r3, r2, r3
  82 0028 7B60     		str	r3, [r7, #4]
 152:Drivers/STM32H7xx_HAL_Driver/Src/stm32h7xx_hal.c **** #else
 153:Drivers/STM32H7xx_HAL_Driver/Src/stm32h7xx_hal.c ****   common_system_clock = HAL_RCC_GetSysClockFreq() >> ((D1CorePrescTable[(RCC->CDCFGR1 & RCC_CDCFGR1
ARM GAS  /var/folders/g1/j12m_ky910s3_sv7d4yrsdn00000gn/T//ccvnHeju.s 			page 5


 154:Drivers/STM32H7xx_HAL_Driver/Src/stm32h7xx_hal.c **** #endif
 155:Drivers/STM32H7xx_HAL_Driver/Src/stm32h7xx_hal.c **** 
 156:Drivers/STM32H7xx_HAL_Driver/Src/stm32h7xx_hal.c ****   /* Update the SystemD2Clock global variable */
 157:Drivers/STM32H7xx_HAL_Driver/Src/stm32h7xx_hal.c **** #if defined(RCC_D1CFGR_HPRE)
 158:Drivers/STM32H7xx_HAL_Driver/Src/stm32h7xx_hal.c ****   SystemD2Clock = (common_system_clock >> ((D1CorePrescTable[(RCC->D1CFGR & RCC_D1CFGR_HPRE)>> RCC_
  83              		.loc 1 158 66
  84 002a 0F4B     		ldr	r3, .L4
  85 002c 9B69     		ldr	r3, [r3, #24]
  86              		.loc 1 158 93
  87 002e 03F00F03 		and	r3, r3, #15
  88              		.loc 1 158 61
  89 0032 0E4A     		ldr	r2, .L4+4
  90 0034 D35C     		ldrb	r3, [r2, r3]	@ zero_extendqisi2
  91              		.loc 1 158 118
  92 0036 03F01F03 		and	r3, r3, #31
  93              		.loc 1 158 40
  94 003a 7A68     		ldr	r2, [r7, #4]
  95 003c 22FA03F3 		lsr	r3, r2, r3
  96              		.loc 1 158 17
  97 0040 0B4A     		ldr	r2, .L4+8
  98 0042 1360     		str	r3, [r2]
 159:Drivers/STM32H7xx_HAL_Driver/Src/stm32h7xx_hal.c **** #else
 160:Drivers/STM32H7xx_HAL_Driver/Src/stm32h7xx_hal.c ****   SystemD2Clock = (common_system_clock >> ((D1CorePrescTable[(RCC->CDCFGR1 & RCC_CDCFGR1_HPRE)>> RC
 161:Drivers/STM32H7xx_HAL_Driver/Src/stm32h7xx_hal.c **** #endif
 162:Drivers/STM32H7xx_HAL_Driver/Src/stm32h7xx_hal.c **** 
 163:Drivers/STM32H7xx_HAL_Driver/Src/stm32h7xx_hal.c **** #if defined(DUAL_CORE) && defined(CORE_CM4)
 164:Drivers/STM32H7xx_HAL_Driver/Src/stm32h7xx_hal.c ****   SystemCoreClock = SystemD2Clock;
 165:Drivers/STM32H7xx_HAL_Driver/Src/stm32h7xx_hal.c **** #else
 166:Drivers/STM32H7xx_HAL_Driver/Src/stm32h7xx_hal.c ****   SystemCoreClock = common_system_clock;
  99              		.loc 1 166 19
 100 0044 0B4A     		ldr	r2, .L4+12
 101 0046 7B68     		ldr	r3, [r7, #4]
 102 0048 1360     		str	r3, [r2]
 167:Drivers/STM32H7xx_HAL_Driver/Src/stm32h7xx_hal.c **** #endif /* DUAL_CORE && CORE_CM4 */
 168:Drivers/STM32H7xx_HAL_Driver/Src/stm32h7xx_hal.c **** 
 169:Drivers/STM32H7xx_HAL_Driver/Src/stm32h7xx_hal.c ****   /* Use systick as time base source and configure 1ms tick (default clock after Reset is HSI) */
 170:Drivers/STM32H7xx_HAL_Driver/Src/stm32h7xx_hal.c ****   if(HAL_InitTick(TICK_INT_PRIORITY) != HAL_OK)
 103              		.loc 1 170 6
 104 004a 0F20     		movs	r0, #15
 105 004c FFF7FEFF 		bl	HAL_InitTick
 106 0050 0346     		mov	r3, r0
 107              		.loc 1 170 5 discriminator 1
 108 0052 002B     		cmp	r3, #0
 109 0054 01D0     		beq	.L2
 171:Drivers/STM32H7xx_HAL_Driver/Src/stm32h7xx_hal.c ****   {
 172:Drivers/STM32H7xx_HAL_Driver/Src/stm32h7xx_hal.c ****     return HAL_ERROR;
 110              		.loc 1 172 12
 111 0056 0123     		movs	r3, #1
 112 0058 02E0     		b	.L3
 113              	.L2:
 173:Drivers/STM32H7xx_HAL_Driver/Src/stm32h7xx_hal.c ****   }
 174:Drivers/STM32H7xx_HAL_Driver/Src/stm32h7xx_hal.c **** 
 175:Drivers/STM32H7xx_HAL_Driver/Src/stm32h7xx_hal.c ****   /* Init the low level hardware */
 176:Drivers/STM32H7xx_HAL_Driver/Src/stm32h7xx_hal.c ****   HAL_MspInit();
 114              		.loc 1 176 3
 115 005a FFF7FEFF 		bl	HAL_MspInit
 177:Drivers/STM32H7xx_HAL_Driver/Src/stm32h7xx_hal.c **** 
ARM GAS  /var/folders/g1/j12m_ky910s3_sv7d4yrsdn00000gn/T//ccvnHeju.s 			page 6


 178:Drivers/STM32H7xx_HAL_Driver/Src/stm32h7xx_hal.c ****   /* Return function status */
 179:Drivers/STM32H7xx_HAL_Driver/Src/stm32h7xx_hal.c ****   return HAL_OK;
 116              		.loc 1 179 10
 117 005e 0023     		movs	r3, #0
 118              	.L3:
 180:Drivers/STM32H7xx_HAL_Driver/Src/stm32h7xx_hal.c **** }
 119              		.loc 1 180 1
 120 0060 1846     		mov	r0, r3
 121 0062 0837     		adds	r7, r7, #8
 122              	.LCFI3:
 123              		.cfi_def_cfa_offset 8
 124 0064 BD46     		mov	sp, r7
 125              	.LCFI4:
 126              		.cfi_def_cfa_register 13
 127              		@ sp needed
 128 0066 80BD     		pop	{r7, pc}
 129              	.L5:
 130              		.align	2
 131              	.L4:
 132 0068 00440258 		.word	1476543488
 133 006c 00000000 		.word	D1CorePrescTable
 134 0070 00000000 		.word	SystemD2Clock
 135 0074 00000000 		.word	SystemCoreClock
 136              		.cfi_endproc
 137              	.LFE144:
 139              		.section	.text.HAL_DeInit,"ax",%progbits
 140              		.align	1
 141              		.global	HAL_DeInit
 142              		.syntax unified
 143              		.thumb
 144              		.thumb_func
 146              	HAL_DeInit:
 147              	.LFB145:
 181:Drivers/STM32H7xx_HAL_Driver/Src/stm32h7xx_hal.c **** 
 182:Drivers/STM32H7xx_HAL_Driver/Src/stm32h7xx_hal.c **** /**
 183:Drivers/STM32H7xx_HAL_Driver/Src/stm32h7xx_hal.c ****   * @brief  This function de-Initializes common part of the HAL and stops the systick.
 184:Drivers/STM32H7xx_HAL_Driver/Src/stm32h7xx_hal.c ****   *         This function is optional.
 185:Drivers/STM32H7xx_HAL_Driver/Src/stm32h7xx_hal.c ****   * @retval HAL status
 186:Drivers/STM32H7xx_HAL_Driver/Src/stm32h7xx_hal.c ****   */
 187:Drivers/STM32H7xx_HAL_Driver/Src/stm32h7xx_hal.c **** HAL_StatusTypeDef HAL_DeInit(void)
 188:Drivers/STM32H7xx_HAL_Driver/Src/stm32h7xx_hal.c **** {
 148              		.loc 1 188 1
 149              		.cfi_startproc
 150              		@ args = 0, pretend = 0, frame = 0
 151              		@ frame_needed = 1, uses_anonymous_args = 0
 152 0000 80B5     		push	{r7, lr}
 153              	.LCFI5:
 154              		.cfi_def_cfa_offset 8
 155              		.cfi_offset 7, -8
 156              		.cfi_offset 14, -4
 157 0002 00AF     		add	r7, sp, #0
 158              	.LCFI6:
 159              		.cfi_def_cfa_register 7
 189:Drivers/STM32H7xx_HAL_Driver/Src/stm32h7xx_hal.c ****   /* Reset of all peripherals */
 190:Drivers/STM32H7xx_HAL_Driver/Src/stm32h7xx_hal.c ****   __HAL_RCC_AHB3_FORCE_RESET();
 160              		.loc 1 190 3
 161 0004 264B     		ldr	r3, .L8
ARM GAS  /var/folders/g1/j12m_ky910s3_sv7d4yrsdn00000gn/T//ccvnHeju.s 			page 7


 162 0006 274A     		ldr	r2, .L8+4
 163 0008 DA67     		str	r2, [r3, #124]
 191:Drivers/STM32H7xx_HAL_Driver/Src/stm32h7xx_hal.c ****   __HAL_RCC_AHB3_RELEASE_RESET();
 164              		.loc 1 191 3
 165 000a 254B     		ldr	r3, .L8
 166 000c 0022     		movs	r2, #0
 167 000e DA67     		str	r2, [r3, #124]
 192:Drivers/STM32H7xx_HAL_Driver/Src/stm32h7xx_hal.c **** 
 193:Drivers/STM32H7xx_HAL_Driver/Src/stm32h7xx_hal.c ****   __HAL_RCC_AHB1_FORCE_RESET();
 168              		.loc 1 193 3
 169 0010 234B     		ldr	r3, .L8
 170 0012 254A     		ldr	r2, .L8+8
 171 0014 C3F88020 		str	r2, [r3, #128]
 194:Drivers/STM32H7xx_HAL_Driver/Src/stm32h7xx_hal.c ****   __HAL_RCC_AHB1_RELEASE_RESET();
 172              		.loc 1 194 3
 173 0018 214B     		ldr	r3, .L8
 174 001a 0022     		movs	r2, #0
 175 001c C3F88020 		str	r2, [r3, #128]
 195:Drivers/STM32H7xx_HAL_Driver/Src/stm32h7xx_hal.c **** 
 196:Drivers/STM32H7xx_HAL_Driver/Src/stm32h7xx_hal.c ****   __HAL_RCC_AHB2_FORCE_RESET();
 176              		.loc 1 196 3
 177 0020 1F4B     		ldr	r3, .L8
 178 0022 40F27122 		movw	r2, #625
 179 0026 C3F88420 		str	r2, [r3, #132]
 197:Drivers/STM32H7xx_HAL_Driver/Src/stm32h7xx_hal.c ****   __HAL_RCC_AHB2_RELEASE_RESET();
 180              		.loc 1 197 3
 181 002a 1D4B     		ldr	r3, .L8
 182 002c 0022     		movs	r2, #0
 183 002e C3F88420 		str	r2, [r3, #132]
 198:Drivers/STM32H7xx_HAL_Driver/Src/stm32h7xx_hal.c **** 
 199:Drivers/STM32H7xx_HAL_Driver/Src/stm32h7xx_hal.c ****   __HAL_RCC_AHB4_FORCE_RESET();
 184              		.loc 1 199 3
 185 0032 1B4B     		ldr	r3, .L8
 186 0034 1D4A     		ldr	r2, .L8+12
 187 0036 C3F88820 		str	r2, [r3, #136]
 200:Drivers/STM32H7xx_HAL_Driver/Src/stm32h7xx_hal.c ****  __HAL_RCC_AHB4_RELEASE_RESET();
 188              		.loc 1 200 2
 189 003a 194B     		ldr	r3, .L8
 190 003c 0022     		movs	r2, #0
 191 003e C3F88820 		str	r2, [r3, #136]
 201:Drivers/STM32H7xx_HAL_Driver/Src/stm32h7xx_hal.c **** 
 202:Drivers/STM32H7xx_HAL_Driver/Src/stm32h7xx_hal.c ****   __HAL_RCC_APB3_FORCE_RESET();
 192              		.loc 1 202 3
 193 0042 174B     		ldr	r3, .L8
 194 0044 1822     		movs	r2, #24
 195 0046 C3F88C20 		str	r2, [r3, #140]
 203:Drivers/STM32H7xx_HAL_Driver/Src/stm32h7xx_hal.c ****   __HAL_RCC_APB3_RELEASE_RESET();
 196              		.loc 1 203 3
 197 004a 154B     		ldr	r3, .L8
 198 004c 0022     		movs	r2, #0
 199 004e C3F88C20 		str	r2, [r3, #140]
 204:Drivers/STM32H7xx_HAL_Driver/Src/stm32h7xx_hal.c **** 
 205:Drivers/STM32H7xx_HAL_Driver/Src/stm32h7xx_hal.c ****   __HAL_RCC_APB1L_FORCE_RESET();
 200              		.loc 1 205 3
 201 0052 134B     		ldr	r3, .L8
 202 0054 164A     		ldr	r2, .L8+16
 203 0056 C3F89020 		str	r2, [r3, #144]
ARM GAS  /var/folders/g1/j12m_ky910s3_sv7d4yrsdn00000gn/T//ccvnHeju.s 			page 8


 206:Drivers/STM32H7xx_HAL_Driver/Src/stm32h7xx_hal.c ****   __HAL_RCC_APB1L_RELEASE_RESET();
 204              		.loc 1 206 3
 205 005a 114B     		ldr	r3, .L8
 206 005c 0022     		movs	r2, #0
 207 005e C3F89020 		str	r2, [r3, #144]
 207:Drivers/STM32H7xx_HAL_Driver/Src/stm32h7xx_hal.c **** 
 208:Drivers/STM32H7xx_HAL_Driver/Src/stm32h7xx_hal.c ****   __HAL_RCC_APB1H_FORCE_RESET();
 208              		.loc 1 208 3
 209 0062 0F4B     		ldr	r3, .L8
 210 0064 4FF49B72 		mov	r2, #310
 211 0068 C3F89420 		str	r2, [r3, #148]
 209:Drivers/STM32H7xx_HAL_Driver/Src/stm32h7xx_hal.c ****   __HAL_RCC_APB1H_RELEASE_RESET();
 212              		.loc 1 209 3
 213 006c 0C4B     		ldr	r3, .L8
 214 006e 0022     		movs	r2, #0
 215 0070 C3F89420 		str	r2, [r3, #148]
 210:Drivers/STM32H7xx_HAL_Driver/Src/stm32h7xx_hal.c **** 
 211:Drivers/STM32H7xx_HAL_Driver/Src/stm32h7xx_hal.c ****    __HAL_RCC_APB2_FORCE_RESET();
 216              		.loc 1 211 4
 217 0074 0A4B     		ldr	r3, .L8
 218 0076 0F4A     		ldr	r2, .L8+20
 219 0078 C3F89820 		str	r2, [r3, #152]
 212:Drivers/STM32H7xx_HAL_Driver/Src/stm32h7xx_hal.c ****    __HAL_RCC_APB2_RELEASE_RESET();
 220              		.loc 1 212 4
 221 007c 084B     		ldr	r3, .L8
 222 007e 0022     		movs	r2, #0
 223 0080 C3F89820 		str	r2, [r3, #152]
 213:Drivers/STM32H7xx_HAL_Driver/Src/stm32h7xx_hal.c **** 
 214:Drivers/STM32H7xx_HAL_Driver/Src/stm32h7xx_hal.c ****   __HAL_RCC_APB4_FORCE_RESET();
 224              		.loc 1 214 3
 225 0084 064B     		ldr	r3, .L8
 226 0086 0C4A     		ldr	r2, .L8+24
 227 0088 C3F89C20 		str	r2, [r3, #156]
 215:Drivers/STM32H7xx_HAL_Driver/Src/stm32h7xx_hal.c ****   __HAL_RCC_APB4_RELEASE_RESET();
 228              		.loc 1 215 3
 229 008c 044B     		ldr	r3, .L8
 230 008e 0022     		movs	r2, #0
 231 0090 C3F89C20 		str	r2, [r3, #156]
 216:Drivers/STM32H7xx_HAL_Driver/Src/stm32h7xx_hal.c **** 
 217:Drivers/STM32H7xx_HAL_Driver/Src/stm32h7xx_hal.c ****   /* De-Init the low level hardware */
 218:Drivers/STM32H7xx_HAL_Driver/Src/stm32h7xx_hal.c ****   HAL_MspDeInit();
 232              		.loc 1 218 3
 233 0094 FFF7FEFF 		bl	HAL_MspDeInit
 219:Drivers/STM32H7xx_HAL_Driver/Src/stm32h7xx_hal.c **** 
 220:Drivers/STM32H7xx_HAL_Driver/Src/stm32h7xx_hal.c ****   /* Return function status */
 221:Drivers/STM32H7xx_HAL_Driver/Src/stm32h7xx_hal.c ****   return HAL_OK;
 234              		.loc 1 221 10
 235 0098 0023     		movs	r3, #0
 222:Drivers/STM32H7xx_HAL_Driver/Src/stm32h7xx_hal.c **** }
 236              		.loc 1 222 1
 237 009a 1846     		mov	r0, r3
 238 009c 80BD     		pop	{r7, pc}
 239              	.L9:
 240 009e 00BF     		.align	2
 241              	.L8:
 242 00a0 00440258 		.word	1476543488
 243 00a4 31500100 		.word	86065
ARM GAS  /var/folders/g1/j12m_ky910s3_sv7d4yrsdn00000gn/T//ccvnHeju.s 			page 9


 244 00a8 23C0000A 		.word	167821347
 245 00ac FF072803 		.word	52955135
 246 00b0 FFC3FFE8 		.word	-385891329
 247 00b4 3330D731 		.word	836186163
 248 00b8 AADE2000 		.word	2154154
 249              		.cfi_endproc
 250              	.LFE145:
 252              		.section	.text.HAL_MspInit,"ax",%progbits
 253              		.align	1
 254              		.weak	HAL_MspInit
 255              		.syntax unified
 256              		.thumb
 257              		.thumb_func
 259              	HAL_MspInit:
 260              	.LFB146:
 223:Drivers/STM32H7xx_HAL_Driver/Src/stm32h7xx_hal.c **** 
 224:Drivers/STM32H7xx_HAL_Driver/Src/stm32h7xx_hal.c **** /**
 225:Drivers/STM32H7xx_HAL_Driver/Src/stm32h7xx_hal.c ****   * @brief  Initializes the MSP.
 226:Drivers/STM32H7xx_HAL_Driver/Src/stm32h7xx_hal.c ****   * @retval None
 227:Drivers/STM32H7xx_HAL_Driver/Src/stm32h7xx_hal.c ****   */
 228:Drivers/STM32H7xx_HAL_Driver/Src/stm32h7xx_hal.c **** __weak void HAL_MspInit(void)
 229:Drivers/STM32H7xx_HAL_Driver/Src/stm32h7xx_hal.c **** {
 261              		.loc 1 229 1
 262              		.cfi_startproc
 263              		@ args = 0, pretend = 0, frame = 0
 264              		@ frame_needed = 1, uses_anonymous_args = 0
 265              		@ link register save eliminated.
 266 0000 80B4     		push	{r7}
 267              	.LCFI7:
 268              		.cfi_def_cfa_offset 4
 269              		.cfi_offset 7, -4
 270 0002 00AF     		add	r7, sp, #0
 271              	.LCFI8:
 272              		.cfi_def_cfa_register 7
 230:Drivers/STM32H7xx_HAL_Driver/Src/stm32h7xx_hal.c ****   /* NOTE : This function Should not be modified, when the callback is needed,
 231:Drivers/STM32H7xx_HAL_Driver/Src/stm32h7xx_hal.c ****             the HAL_MspInit could be implemented in the user file
 232:Drivers/STM32H7xx_HAL_Driver/Src/stm32h7xx_hal.c ****    */
 233:Drivers/STM32H7xx_HAL_Driver/Src/stm32h7xx_hal.c **** }
 273              		.loc 1 233 1
 274 0004 00BF     		nop
 275 0006 BD46     		mov	sp, r7
 276              	.LCFI9:
 277              		.cfi_def_cfa_register 13
 278              		@ sp needed
 279 0008 5DF8047B 		ldr	r7, [sp], #4
 280              	.LCFI10:
 281              		.cfi_restore 7
 282              		.cfi_def_cfa_offset 0
 283 000c 7047     		bx	lr
 284              		.cfi_endproc
 285              	.LFE146:
 287              		.section	.text.HAL_MspDeInit,"ax",%progbits
 288              		.align	1
 289              		.weak	HAL_MspDeInit
 290              		.syntax unified
 291              		.thumb
 292              		.thumb_func
ARM GAS  /var/folders/g1/j12m_ky910s3_sv7d4yrsdn00000gn/T//ccvnHeju.s 			page 10


 294              	HAL_MspDeInit:
 295              	.LFB147:
 234:Drivers/STM32H7xx_HAL_Driver/Src/stm32h7xx_hal.c **** 
 235:Drivers/STM32H7xx_HAL_Driver/Src/stm32h7xx_hal.c **** /**
 236:Drivers/STM32H7xx_HAL_Driver/Src/stm32h7xx_hal.c ****   * @brief  DeInitializes the MSP.
 237:Drivers/STM32H7xx_HAL_Driver/Src/stm32h7xx_hal.c ****   * @retval None
 238:Drivers/STM32H7xx_HAL_Driver/Src/stm32h7xx_hal.c ****   */
 239:Drivers/STM32H7xx_HAL_Driver/Src/stm32h7xx_hal.c **** __weak void HAL_MspDeInit(void)
 240:Drivers/STM32H7xx_HAL_Driver/Src/stm32h7xx_hal.c **** {
 296              		.loc 1 240 1
 297              		.cfi_startproc
 298              		@ args = 0, pretend = 0, frame = 0
 299              		@ frame_needed = 1, uses_anonymous_args = 0
 300              		@ link register save eliminated.
 301 0000 80B4     		push	{r7}
 302              	.LCFI11:
 303              		.cfi_def_cfa_offset 4
 304              		.cfi_offset 7, -4
 305 0002 00AF     		add	r7, sp, #0
 306              	.LCFI12:
 307              		.cfi_def_cfa_register 7
 241:Drivers/STM32H7xx_HAL_Driver/Src/stm32h7xx_hal.c ****   /* NOTE : This function Should not be modified, when the callback is needed,
 242:Drivers/STM32H7xx_HAL_Driver/Src/stm32h7xx_hal.c ****             the HAL_MspDeInit could be implemented in the user file
 243:Drivers/STM32H7xx_HAL_Driver/Src/stm32h7xx_hal.c ****    */
 244:Drivers/STM32H7xx_HAL_Driver/Src/stm32h7xx_hal.c **** }
 308              		.loc 1 244 1
 309 0004 00BF     		nop
 310 0006 BD46     		mov	sp, r7
 311              	.LCFI13:
 312              		.cfi_def_cfa_register 13
 313              		@ sp needed
 314 0008 5DF8047B 		ldr	r7, [sp], #4
 315              	.LCFI14:
 316              		.cfi_restore 7
 317              		.cfi_def_cfa_offset 0
 318 000c 7047     		bx	lr
 319              		.cfi_endproc
 320              	.LFE147:
 322              		.section	.text.HAL_InitTick,"ax",%progbits
 323              		.align	1
 324              		.weak	HAL_InitTick
 325              		.syntax unified
 326              		.thumb
 327              		.thumb_func
 329              	HAL_InitTick:
 330              	.LFB148:
 245:Drivers/STM32H7xx_HAL_Driver/Src/stm32h7xx_hal.c **** 
 246:Drivers/STM32H7xx_HAL_Driver/Src/stm32h7xx_hal.c **** /**
 247:Drivers/STM32H7xx_HAL_Driver/Src/stm32h7xx_hal.c ****   * @brief This function configures the source of the time base.
 248:Drivers/STM32H7xx_HAL_Driver/Src/stm32h7xx_hal.c ****   *        The time source is configured  to have 1ms time base with a dedicated
 249:Drivers/STM32H7xx_HAL_Driver/Src/stm32h7xx_hal.c ****   *        Tick interrupt priority.
 250:Drivers/STM32H7xx_HAL_Driver/Src/stm32h7xx_hal.c ****   * @note This function is called  automatically at the beginning of program after
 251:Drivers/STM32H7xx_HAL_Driver/Src/stm32h7xx_hal.c ****   *       reset by HAL_Init() or at any time when clock is reconfigured  by HAL_RCC_ClockConfig().
 252:Drivers/STM32H7xx_HAL_Driver/Src/stm32h7xx_hal.c ****   * @note In the default implementation, SysTick timer is the source of time base.
 253:Drivers/STM32H7xx_HAL_Driver/Src/stm32h7xx_hal.c ****   *       It is used to generate interrupts at regular time intervals.
 254:Drivers/STM32H7xx_HAL_Driver/Src/stm32h7xx_hal.c ****   *       Care must be taken if HAL_Delay() is called from a peripheral ISR process,
 255:Drivers/STM32H7xx_HAL_Driver/Src/stm32h7xx_hal.c ****   *       the SysTick interrupt must have higher priority (numerically lower)
ARM GAS  /var/folders/g1/j12m_ky910s3_sv7d4yrsdn00000gn/T//ccvnHeju.s 			page 11


 256:Drivers/STM32H7xx_HAL_Driver/Src/stm32h7xx_hal.c ****   *       than the peripheral interrupt. Otherwise the caller ISR process will be blocked.
 257:Drivers/STM32H7xx_HAL_Driver/Src/stm32h7xx_hal.c ****   *       The function is declared as __weak  to be overwritten  in case of other
 258:Drivers/STM32H7xx_HAL_Driver/Src/stm32h7xx_hal.c ****   *       implementation  in user file.
 259:Drivers/STM32H7xx_HAL_Driver/Src/stm32h7xx_hal.c ****   * @param TickPriority: Tick interrupt priority.
 260:Drivers/STM32H7xx_HAL_Driver/Src/stm32h7xx_hal.c ****   * @retval HAL status
 261:Drivers/STM32H7xx_HAL_Driver/Src/stm32h7xx_hal.c ****   */
 262:Drivers/STM32H7xx_HAL_Driver/Src/stm32h7xx_hal.c **** __weak HAL_StatusTypeDef HAL_InitTick(uint32_t TickPriority)
 263:Drivers/STM32H7xx_HAL_Driver/Src/stm32h7xx_hal.c **** {
 331              		.loc 1 263 1
 332              		.cfi_startproc
 333              		@ args = 0, pretend = 0, frame = 8
 334              		@ frame_needed = 1, uses_anonymous_args = 0
 335 0000 80B5     		push	{r7, lr}
 336              	.LCFI15:
 337              		.cfi_def_cfa_offset 8
 338              		.cfi_offset 7, -8
 339              		.cfi_offset 14, -4
 340 0002 82B0     		sub	sp, sp, #8
 341              	.LCFI16:
 342              		.cfi_def_cfa_offset 16
 343 0004 00AF     		add	r7, sp, #0
 344              	.LCFI17:
 345              		.cfi_def_cfa_register 7
 346 0006 7860     		str	r0, [r7, #4]
 264:Drivers/STM32H7xx_HAL_Driver/Src/stm32h7xx_hal.c ****   /* Check uwTickFreq for MisraC 2012 (even if uwTickFreq is a enum type that don't take the value 
 265:Drivers/STM32H7xx_HAL_Driver/Src/stm32h7xx_hal.c ****   if((uint32_t)uwTickFreq == 0UL)
 347              		.loc 1 265 27
 348 0008 154B     		ldr	r3, .L18
 349 000a 1B78     		ldrb	r3, [r3]	@ zero_extendqisi2
 350              		.loc 1 265 5
 351 000c 002B     		cmp	r3, #0
 352 000e 01D1     		bne	.L13
 266:Drivers/STM32H7xx_HAL_Driver/Src/stm32h7xx_hal.c ****   {
 267:Drivers/STM32H7xx_HAL_Driver/Src/stm32h7xx_hal.c ****     return HAL_ERROR;
 353              		.loc 1 267 12
 354 0010 0123     		movs	r3, #1
 355 0012 21E0     		b	.L14
 356              	.L13:
 268:Drivers/STM32H7xx_HAL_Driver/Src/stm32h7xx_hal.c ****   }
 269:Drivers/STM32H7xx_HAL_Driver/Src/stm32h7xx_hal.c **** 
 270:Drivers/STM32H7xx_HAL_Driver/Src/stm32h7xx_hal.c ****     /* Configure the SysTick to have interrupt in 1ms time basis*/
 271:Drivers/STM32H7xx_HAL_Driver/Src/stm32h7xx_hal.c ****     if (HAL_SYSTICK_Config(SystemCoreClock / (1000UL / (uint32_t)uwTickFreq)) > 0U)
 357              		.loc 1 271 9
 358 0014 134B     		ldr	r3, .L18+4
 359 0016 1A68     		ldr	r2, [r3]
 360              		.loc 1 271 56
 361 0018 114B     		ldr	r3, .L18
 362 001a 1B78     		ldrb	r3, [r3]	@ zero_extendqisi2
 363 001c 1946     		mov	r1, r3
 364              		.loc 1 271 54
 365 001e 4FF47A73 		mov	r3, #1000
 366 0022 B3FBF1F3 		udiv	r3, r3, r1
 367              		.loc 1 271 9
 368 0026 B2FBF3F3 		udiv	r3, r2, r3
 369 002a 1846     		mov	r0, r3
 370 002c FFF7FEFF 		bl	HAL_SYSTICK_Config
 371 0030 0346     		mov	r3, r0
ARM GAS  /var/folders/g1/j12m_ky910s3_sv7d4yrsdn00000gn/T//ccvnHeju.s 			page 12


 372              		.loc 1 271 8 discriminator 1
 373 0032 002B     		cmp	r3, #0
 374 0034 01D0     		beq	.L15
 272:Drivers/STM32H7xx_HAL_Driver/Src/stm32h7xx_hal.c ****     {
 273:Drivers/STM32H7xx_HAL_Driver/Src/stm32h7xx_hal.c ****       return HAL_ERROR;
 375              		.loc 1 273 14
 376 0036 0123     		movs	r3, #1
 377 0038 0EE0     		b	.L14
 378              	.L15:
 274:Drivers/STM32H7xx_HAL_Driver/Src/stm32h7xx_hal.c ****     }
 275:Drivers/STM32H7xx_HAL_Driver/Src/stm32h7xx_hal.c **** 
 276:Drivers/STM32H7xx_HAL_Driver/Src/stm32h7xx_hal.c ****   /* Configure the SysTick IRQ priority */
 277:Drivers/STM32H7xx_HAL_Driver/Src/stm32h7xx_hal.c ****   if (TickPriority < (1UL << __NVIC_PRIO_BITS))
 379              		.loc 1 277 6
 380 003a 7B68     		ldr	r3, [r7, #4]
 381 003c 0F2B     		cmp	r3, #15
 382 003e 0AD8     		bhi	.L16
 278:Drivers/STM32H7xx_HAL_Driver/Src/stm32h7xx_hal.c ****   {
 279:Drivers/STM32H7xx_HAL_Driver/Src/stm32h7xx_hal.c ****     HAL_NVIC_SetPriority(SysTick_IRQn, TickPriority, 0U);
 383              		.loc 1 279 5
 384 0040 0022     		movs	r2, #0
 385 0042 7968     		ldr	r1, [r7, #4]
 386 0044 4FF0FF30 		mov	r0, #-1
 387 0048 FFF7FEFF 		bl	HAL_NVIC_SetPriority
 280:Drivers/STM32H7xx_HAL_Driver/Src/stm32h7xx_hal.c ****     uwTickPrio = TickPriority;
 388              		.loc 1 280 16
 389 004c 064A     		ldr	r2, .L18+8
 390 004e 7B68     		ldr	r3, [r7, #4]
 391 0050 1360     		str	r3, [r2]
 281:Drivers/STM32H7xx_HAL_Driver/Src/stm32h7xx_hal.c ****   }
 282:Drivers/STM32H7xx_HAL_Driver/Src/stm32h7xx_hal.c ****   else
 283:Drivers/STM32H7xx_HAL_Driver/Src/stm32h7xx_hal.c ****   {
 284:Drivers/STM32H7xx_HAL_Driver/Src/stm32h7xx_hal.c ****     return HAL_ERROR;
 285:Drivers/STM32H7xx_HAL_Driver/Src/stm32h7xx_hal.c ****   }
 286:Drivers/STM32H7xx_HAL_Driver/Src/stm32h7xx_hal.c **** 
 287:Drivers/STM32H7xx_HAL_Driver/Src/stm32h7xx_hal.c ****   /* Return function status */
 288:Drivers/STM32H7xx_HAL_Driver/Src/stm32h7xx_hal.c ****   return HAL_OK;
 392              		.loc 1 288 10
 393 0052 0023     		movs	r3, #0
 394 0054 00E0     		b	.L14
 395              	.L16:
 284:Drivers/STM32H7xx_HAL_Driver/Src/stm32h7xx_hal.c ****   }
 396              		.loc 1 284 12
 397 0056 0123     		movs	r3, #1
 398              	.L14:
 289:Drivers/STM32H7xx_HAL_Driver/Src/stm32h7xx_hal.c **** }
 399              		.loc 1 289 1
 400 0058 1846     		mov	r0, r3
 401 005a 0837     		adds	r7, r7, #8
 402              	.LCFI18:
 403              		.cfi_def_cfa_offset 8
 404 005c BD46     		mov	sp, r7
 405              	.LCFI19:
 406              		.cfi_def_cfa_register 13
 407              		@ sp needed
 408 005e 80BD     		pop	{r7, pc}
 409              	.L19:
ARM GAS  /var/folders/g1/j12m_ky910s3_sv7d4yrsdn00000gn/T//ccvnHeju.s 			page 13


 410              		.align	2
 411              	.L18:
 412 0060 00000000 		.word	uwTickFreq
 413 0064 00000000 		.word	SystemCoreClock
 414 0068 00000000 		.word	uwTickPrio
 415              		.cfi_endproc
 416              	.LFE148:
 418              		.section	.text.HAL_IncTick,"ax",%progbits
 419              		.align	1
 420              		.weak	HAL_IncTick
 421              		.syntax unified
 422              		.thumb
 423              		.thumb_func
 425              	HAL_IncTick:
 426              	.LFB149:
 290:Drivers/STM32H7xx_HAL_Driver/Src/stm32h7xx_hal.c **** 
 291:Drivers/STM32H7xx_HAL_Driver/Src/stm32h7xx_hal.c **** /**
 292:Drivers/STM32H7xx_HAL_Driver/Src/stm32h7xx_hal.c ****   * @}
 293:Drivers/STM32H7xx_HAL_Driver/Src/stm32h7xx_hal.c ****   */
 294:Drivers/STM32H7xx_HAL_Driver/Src/stm32h7xx_hal.c **** 
 295:Drivers/STM32H7xx_HAL_Driver/Src/stm32h7xx_hal.c **** /** @addtogroup HAL_Group2
 296:Drivers/STM32H7xx_HAL_Driver/Src/stm32h7xx_hal.c ****  *  @brief    HAL Control functions
 297:Drivers/STM32H7xx_HAL_Driver/Src/stm32h7xx_hal.c ****  *
 298:Drivers/STM32H7xx_HAL_Driver/Src/stm32h7xx_hal.c **** @verbatim
 299:Drivers/STM32H7xx_HAL_Driver/Src/stm32h7xx_hal.c ****  ===============================================================================
 300:Drivers/STM32H7xx_HAL_Driver/Src/stm32h7xx_hal.c ****                       ##### HAL Control functions #####
 301:Drivers/STM32H7xx_HAL_Driver/Src/stm32h7xx_hal.c ****  ===============================================================================
 302:Drivers/STM32H7xx_HAL_Driver/Src/stm32h7xx_hal.c ****     [..]  This section provides functions allowing to:
 303:Drivers/STM32H7xx_HAL_Driver/Src/stm32h7xx_hal.c ****       (+) Provide a tick value in millisecond
 304:Drivers/STM32H7xx_HAL_Driver/Src/stm32h7xx_hal.c ****       (+) Provide a blocking delay in millisecond
 305:Drivers/STM32H7xx_HAL_Driver/Src/stm32h7xx_hal.c ****       (+) Suspend the time base source interrupt
 306:Drivers/STM32H7xx_HAL_Driver/Src/stm32h7xx_hal.c ****       (+) Resume the time base source interrupt
 307:Drivers/STM32H7xx_HAL_Driver/Src/stm32h7xx_hal.c ****       (+) Get the HAL API driver version
 308:Drivers/STM32H7xx_HAL_Driver/Src/stm32h7xx_hal.c ****       (+) Get the device identifier
 309:Drivers/STM32H7xx_HAL_Driver/Src/stm32h7xx_hal.c ****       (+) Get the device revision identifier
 310:Drivers/STM32H7xx_HAL_Driver/Src/stm32h7xx_hal.c ****       (+) Enable/Disable Debug module during SLEEP mode
 311:Drivers/STM32H7xx_HAL_Driver/Src/stm32h7xx_hal.c ****       (+) Enable/Disable Debug module during STOP mode
 312:Drivers/STM32H7xx_HAL_Driver/Src/stm32h7xx_hal.c ****       (+) Enable/Disable Debug module during STANDBY mode
 313:Drivers/STM32H7xx_HAL_Driver/Src/stm32h7xx_hal.c **** 
 314:Drivers/STM32H7xx_HAL_Driver/Src/stm32h7xx_hal.c **** @endverbatim
 315:Drivers/STM32H7xx_HAL_Driver/Src/stm32h7xx_hal.c ****   * @{
 316:Drivers/STM32H7xx_HAL_Driver/Src/stm32h7xx_hal.c ****   */
 317:Drivers/STM32H7xx_HAL_Driver/Src/stm32h7xx_hal.c **** 
 318:Drivers/STM32H7xx_HAL_Driver/Src/stm32h7xx_hal.c **** /**
 319:Drivers/STM32H7xx_HAL_Driver/Src/stm32h7xx_hal.c ****   * @brief This function is called to increment  a global variable "uwTick"
 320:Drivers/STM32H7xx_HAL_Driver/Src/stm32h7xx_hal.c ****   *        used as application time base.
 321:Drivers/STM32H7xx_HAL_Driver/Src/stm32h7xx_hal.c ****   * @note In the default implementation, this variable is incremented each 1ms
 322:Drivers/STM32H7xx_HAL_Driver/Src/stm32h7xx_hal.c ****   *       in Systick ISR.
 323:Drivers/STM32H7xx_HAL_Driver/Src/stm32h7xx_hal.c ****  * @note This function is declared as __weak to be overwritten in case of other
 324:Drivers/STM32H7xx_HAL_Driver/Src/stm32h7xx_hal.c ****   *      implementations in user file.
 325:Drivers/STM32H7xx_HAL_Driver/Src/stm32h7xx_hal.c ****   * @retval None
 326:Drivers/STM32H7xx_HAL_Driver/Src/stm32h7xx_hal.c ****   */
 327:Drivers/STM32H7xx_HAL_Driver/Src/stm32h7xx_hal.c **** __weak void HAL_IncTick(void)
 328:Drivers/STM32H7xx_HAL_Driver/Src/stm32h7xx_hal.c **** {
 427              		.loc 1 328 1
 428              		.cfi_startproc
 429              		@ args = 0, pretend = 0, frame = 0
ARM GAS  /var/folders/g1/j12m_ky910s3_sv7d4yrsdn00000gn/T//ccvnHeju.s 			page 14


 430              		@ frame_needed = 1, uses_anonymous_args = 0
 431              		@ link register save eliminated.
 432 0000 80B4     		push	{r7}
 433              	.LCFI20:
 434              		.cfi_def_cfa_offset 4
 435              		.cfi_offset 7, -4
 436 0002 00AF     		add	r7, sp, #0
 437              	.LCFI21:
 438              		.cfi_def_cfa_register 7
 329:Drivers/STM32H7xx_HAL_Driver/Src/stm32h7xx_hal.c ****   uwTick += (uint32_t)uwTickFreq;
 439              		.loc 1 329 13
 440 0004 064B     		ldr	r3, .L21
 441 0006 1B78     		ldrb	r3, [r3]	@ zero_extendqisi2
 442 0008 1A46     		mov	r2, r3
 443              		.loc 1 329 10
 444 000a 064B     		ldr	r3, .L21+4
 445 000c 1B68     		ldr	r3, [r3]
 446 000e 1344     		add	r3, r3, r2
 447 0010 044A     		ldr	r2, .L21+4
 448 0012 1360     		str	r3, [r2]
 330:Drivers/STM32H7xx_HAL_Driver/Src/stm32h7xx_hal.c **** }
 449              		.loc 1 330 1
 450 0014 00BF     		nop
 451 0016 BD46     		mov	sp, r7
 452              	.LCFI22:
 453              		.cfi_def_cfa_register 13
 454              		@ sp needed
 455 0018 5DF8047B 		ldr	r7, [sp], #4
 456              	.LCFI23:
 457              		.cfi_restore 7
 458              		.cfi_def_cfa_offset 0
 459 001c 7047     		bx	lr
 460              	.L22:
 461 001e 00BF     		.align	2
 462              	.L21:
 463 0020 00000000 		.word	uwTickFreq
 464 0024 00000000 		.word	uwTick
 465              		.cfi_endproc
 466              	.LFE149:
 468              		.section	.text.HAL_GetTick,"ax",%progbits
 469              		.align	1
 470              		.weak	HAL_GetTick
 471              		.syntax unified
 472              		.thumb
 473              		.thumb_func
 475              	HAL_GetTick:
 476              	.LFB150:
 331:Drivers/STM32H7xx_HAL_Driver/Src/stm32h7xx_hal.c **** 
 332:Drivers/STM32H7xx_HAL_Driver/Src/stm32h7xx_hal.c **** /**
 333:Drivers/STM32H7xx_HAL_Driver/Src/stm32h7xx_hal.c ****   * @brief Provides a tick value in millisecond.
 334:Drivers/STM32H7xx_HAL_Driver/Src/stm32h7xx_hal.c ****   * @note This function is declared as __weak to be overwritten in case of other
 335:Drivers/STM32H7xx_HAL_Driver/Src/stm32h7xx_hal.c ****   *       implementations in user file.
 336:Drivers/STM32H7xx_HAL_Driver/Src/stm32h7xx_hal.c ****   * @retval tick value
 337:Drivers/STM32H7xx_HAL_Driver/Src/stm32h7xx_hal.c ****   */
 338:Drivers/STM32H7xx_HAL_Driver/Src/stm32h7xx_hal.c **** __weak uint32_t HAL_GetTick(void)
 339:Drivers/STM32H7xx_HAL_Driver/Src/stm32h7xx_hal.c **** {
 477              		.loc 1 339 1
ARM GAS  /var/folders/g1/j12m_ky910s3_sv7d4yrsdn00000gn/T//ccvnHeju.s 			page 15


 478              		.cfi_startproc
 479              		@ args = 0, pretend = 0, frame = 0
 480              		@ frame_needed = 1, uses_anonymous_args = 0
 481              		@ link register save eliminated.
 482 0000 80B4     		push	{r7}
 483              	.LCFI24:
 484              		.cfi_def_cfa_offset 4
 485              		.cfi_offset 7, -4
 486 0002 00AF     		add	r7, sp, #0
 487              	.LCFI25:
 488              		.cfi_def_cfa_register 7
 340:Drivers/STM32H7xx_HAL_Driver/Src/stm32h7xx_hal.c ****   return uwTick;
 489              		.loc 1 340 10
 490 0004 034B     		ldr	r3, .L25
 491 0006 1B68     		ldr	r3, [r3]
 341:Drivers/STM32H7xx_HAL_Driver/Src/stm32h7xx_hal.c **** }
 492              		.loc 1 341 1
 493 0008 1846     		mov	r0, r3
 494 000a BD46     		mov	sp, r7
 495              	.LCFI26:
 496              		.cfi_def_cfa_register 13
 497              		@ sp needed
 498 000c 5DF8047B 		ldr	r7, [sp], #4
 499              	.LCFI27:
 500              		.cfi_restore 7
 501              		.cfi_def_cfa_offset 0
 502 0010 7047     		bx	lr
 503              	.L26:
 504 0012 00BF     		.align	2
 505              	.L25:
 506 0014 00000000 		.word	uwTick
 507              		.cfi_endproc
 508              	.LFE150:
 510              		.section	.text.HAL_GetTickPrio,"ax",%progbits
 511              		.align	1
 512              		.global	HAL_GetTickPrio
 513              		.syntax unified
 514              		.thumb
 515              		.thumb_func
 517              	HAL_GetTickPrio:
 518              	.LFB151:
 342:Drivers/STM32H7xx_HAL_Driver/Src/stm32h7xx_hal.c **** 
 343:Drivers/STM32H7xx_HAL_Driver/Src/stm32h7xx_hal.c **** /**
 344:Drivers/STM32H7xx_HAL_Driver/Src/stm32h7xx_hal.c ****   * @brief This function returns a tick priority.
 345:Drivers/STM32H7xx_HAL_Driver/Src/stm32h7xx_hal.c ****   * @retval tick priority
 346:Drivers/STM32H7xx_HAL_Driver/Src/stm32h7xx_hal.c ****   */
 347:Drivers/STM32H7xx_HAL_Driver/Src/stm32h7xx_hal.c **** uint32_t HAL_GetTickPrio(void)
 348:Drivers/STM32H7xx_HAL_Driver/Src/stm32h7xx_hal.c **** {
 519              		.loc 1 348 1
 520              		.cfi_startproc
 521              		@ args = 0, pretend = 0, frame = 0
 522              		@ frame_needed = 1, uses_anonymous_args = 0
 523              		@ link register save eliminated.
 524 0000 80B4     		push	{r7}
 525              	.LCFI28:
 526              		.cfi_def_cfa_offset 4
 527              		.cfi_offset 7, -4
ARM GAS  /var/folders/g1/j12m_ky910s3_sv7d4yrsdn00000gn/T//ccvnHeju.s 			page 16


 528 0002 00AF     		add	r7, sp, #0
 529              	.LCFI29:
 530              		.cfi_def_cfa_register 7
 349:Drivers/STM32H7xx_HAL_Driver/Src/stm32h7xx_hal.c ****   return uwTickPrio;
 531              		.loc 1 349 10
 532 0004 034B     		ldr	r3, .L29
 533 0006 1B68     		ldr	r3, [r3]
 350:Drivers/STM32H7xx_HAL_Driver/Src/stm32h7xx_hal.c **** }
 534              		.loc 1 350 1
 535 0008 1846     		mov	r0, r3
 536 000a BD46     		mov	sp, r7
 537              	.LCFI30:
 538              		.cfi_def_cfa_register 13
 539              		@ sp needed
 540 000c 5DF8047B 		ldr	r7, [sp], #4
 541              	.LCFI31:
 542              		.cfi_restore 7
 543              		.cfi_def_cfa_offset 0
 544 0010 7047     		bx	lr
 545              	.L30:
 546 0012 00BF     		.align	2
 547              	.L29:
 548 0014 00000000 		.word	uwTickPrio
 549              		.cfi_endproc
 550              	.LFE151:
 552              		.section	.text.HAL_SetTickFreq,"ax",%progbits
 553              		.align	1
 554              		.global	HAL_SetTickFreq
 555              		.syntax unified
 556              		.thumb
 557              		.thumb_func
 559              	HAL_SetTickFreq:
 560              	.LFB152:
 351:Drivers/STM32H7xx_HAL_Driver/Src/stm32h7xx_hal.c **** 
 352:Drivers/STM32H7xx_HAL_Driver/Src/stm32h7xx_hal.c **** /**
 353:Drivers/STM32H7xx_HAL_Driver/Src/stm32h7xx_hal.c ****   * @brief Set new tick Freq.
 354:Drivers/STM32H7xx_HAL_Driver/Src/stm32h7xx_hal.c ****   * @retval Status
 355:Drivers/STM32H7xx_HAL_Driver/Src/stm32h7xx_hal.c ****   */
 356:Drivers/STM32H7xx_HAL_Driver/Src/stm32h7xx_hal.c **** HAL_StatusTypeDef HAL_SetTickFreq(HAL_TickFreqTypeDef Freq)
 357:Drivers/STM32H7xx_HAL_Driver/Src/stm32h7xx_hal.c **** {
 561              		.loc 1 357 1
 562              		.cfi_startproc
 563              		@ args = 0, pretend = 0, frame = 16
 564              		@ frame_needed = 1, uses_anonymous_args = 0
 565 0000 80B5     		push	{r7, lr}
 566              	.LCFI32:
 567              		.cfi_def_cfa_offset 8
 568              		.cfi_offset 7, -8
 569              		.cfi_offset 14, -4
 570 0002 84B0     		sub	sp, sp, #16
 571              	.LCFI33:
 572              		.cfi_def_cfa_offset 24
 573 0004 00AF     		add	r7, sp, #0
 574              	.LCFI34:
 575              		.cfi_def_cfa_register 7
 576 0006 0346     		mov	r3, r0
 577 0008 FB71     		strb	r3, [r7, #7]
ARM GAS  /var/folders/g1/j12m_ky910s3_sv7d4yrsdn00000gn/T//ccvnHeju.s 			page 17


 358:Drivers/STM32H7xx_HAL_Driver/Src/stm32h7xx_hal.c ****   HAL_StatusTypeDef status  = HAL_OK;
 578              		.loc 1 358 21
 579 000a 0023     		movs	r3, #0
 580 000c FB73     		strb	r3, [r7, #15]
 359:Drivers/STM32H7xx_HAL_Driver/Src/stm32h7xx_hal.c ****   HAL_TickFreqTypeDef prevTickFreq;
 360:Drivers/STM32H7xx_HAL_Driver/Src/stm32h7xx_hal.c **** 
 361:Drivers/STM32H7xx_HAL_Driver/Src/stm32h7xx_hal.c ****   assert_param(IS_TICKFREQ(Freq));
 362:Drivers/STM32H7xx_HAL_Driver/Src/stm32h7xx_hal.c **** 
 363:Drivers/STM32H7xx_HAL_Driver/Src/stm32h7xx_hal.c ****   if (uwTickFreq != Freq)
 581              		.loc 1 363 18
 582 000e 0E4B     		ldr	r3, .L34
 583 0010 1B78     		ldrb	r3, [r3]	@ zero_extendqisi2
 584              		.loc 1 363 6
 585 0012 FA79     		ldrb	r2, [r7, #7]	@ zero_extendqisi2
 586 0014 9A42     		cmp	r2, r3
 587 0016 12D0     		beq	.L32
 364:Drivers/STM32H7xx_HAL_Driver/Src/stm32h7xx_hal.c ****   {
 365:Drivers/STM32H7xx_HAL_Driver/Src/stm32h7xx_hal.c **** 
 366:Drivers/STM32H7xx_HAL_Driver/Src/stm32h7xx_hal.c ****     /* Back up uwTickFreq frequency */
 367:Drivers/STM32H7xx_HAL_Driver/Src/stm32h7xx_hal.c ****     prevTickFreq = uwTickFreq;
 588              		.loc 1 367 18
 589 0018 0B4B     		ldr	r3, .L34
 590 001a 1B78     		ldrb	r3, [r3]
 591 001c BB73     		strb	r3, [r7, #14]
 368:Drivers/STM32H7xx_HAL_Driver/Src/stm32h7xx_hal.c **** 
 369:Drivers/STM32H7xx_HAL_Driver/Src/stm32h7xx_hal.c ****     /* Update uwTickFreq global variable used by HAL_InitTick() */
 370:Drivers/STM32H7xx_HAL_Driver/Src/stm32h7xx_hal.c ****     uwTickFreq = Freq;
 592              		.loc 1 370 16
 593 001e 0A4A     		ldr	r2, .L34
 594 0020 FB79     		ldrb	r3, [r7, #7]
 595 0022 1370     		strb	r3, [r2]
 371:Drivers/STM32H7xx_HAL_Driver/Src/stm32h7xx_hal.c **** 
 372:Drivers/STM32H7xx_HAL_Driver/Src/stm32h7xx_hal.c ****     /* Apply the new tick Freq  */
 373:Drivers/STM32H7xx_HAL_Driver/Src/stm32h7xx_hal.c ****     status = HAL_InitTick(uwTickPrio);
 596              		.loc 1 373 14
 597 0024 094B     		ldr	r3, .L34+4
 598 0026 1B68     		ldr	r3, [r3]
 599 0028 1846     		mov	r0, r3
 600 002a FFF7FEFF 		bl	HAL_InitTick
 601 002e 0346     		mov	r3, r0
 602 0030 FB73     		strb	r3, [r7, #15]
 374:Drivers/STM32H7xx_HAL_Driver/Src/stm32h7xx_hal.c ****     if (status != HAL_OK)
 603              		.loc 1 374 8
 604 0032 FB7B     		ldrb	r3, [r7, #15]	@ zero_extendqisi2
 605 0034 002B     		cmp	r3, #0
 606 0036 02D0     		beq	.L32
 375:Drivers/STM32H7xx_HAL_Driver/Src/stm32h7xx_hal.c ****     {
 376:Drivers/STM32H7xx_HAL_Driver/Src/stm32h7xx_hal.c ****       /* Restore previous tick frequency */
 377:Drivers/STM32H7xx_HAL_Driver/Src/stm32h7xx_hal.c ****       uwTickFreq = prevTickFreq;
 607              		.loc 1 377 18
 608 0038 034A     		ldr	r2, .L34
 609 003a BB7B     		ldrb	r3, [r7, #14]
 610 003c 1370     		strb	r3, [r2]
 611              	.L32:
 378:Drivers/STM32H7xx_HAL_Driver/Src/stm32h7xx_hal.c ****     }
 379:Drivers/STM32H7xx_HAL_Driver/Src/stm32h7xx_hal.c ****   }
 380:Drivers/STM32H7xx_HAL_Driver/Src/stm32h7xx_hal.c **** 
ARM GAS  /var/folders/g1/j12m_ky910s3_sv7d4yrsdn00000gn/T//ccvnHeju.s 			page 18


 381:Drivers/STM32H7xx_HAL_Driver/Src/stm32h7xx_hal.c ****   return status;
 612              		.loc 1 381 10
 613 003e FB7B     		ldrb	r3, [r7, #15]	@ zero_extendqisi2
 382:Drivers/STM32H7xx_HAL_Driver/Src/stm32h7xx_hal.c **** }
 614              		.loc 1 382 1
 615 0040 1846     		mov	r0, r3
 616 0042 1037     		adds	r7, r7, #16
 617              	.LCFI35:
 618              		.cfi_def_cfa_offset 8
 619 0044 BD46     		mov	sp, r7
 620              	.LCFI36:
 621              		.cfi_def_cfa_register 13
 622              		@ sp needed
 623 0046 80BD     		pop	{r7, pc}
 624              	.L35:
 625              		.align	2
 626              	.L34:
 627 0048 00000000 		.word	uwTickFreq
 628 004c 00000000 		.word	uwTickPrio
 629              		.cfi_endproc
 630              	.LFE152:
 632              		.section	.text.HAL_GetTickFreq,"ax",%progbits
 633              		.align	1
 634              		.global	HAL_GetTickFreq
 635              		.syntax unified
 636              		.thumb
 637              		.thumb_func
 639              	HAL_GetTickFreq:
 640              	.LFB153:
 383:Drivers/STM32H7xx_HAL_Driver/Src/stm32h7xx_hal.c **** 
 384:Drivers/STM32H7xx_HAL_Driver/Src/stm32h7xx_hal.c **** /**
 385:Drivers/STM32H7xx_HAL_Driver/Src/stm32h7xx_hal.c ****   * @brief Return tick frequency.
 386:Drivers/STM32H7xx_HAL_Driver/Src/stm32h7xx_hal.c ****   * @retval Tick frequency.
 387:Drivers/STM32H7xx_HAL_Driver/Src/stm32h7xx_hal.c ****   *         Value of @ref HAL_TickFreqTypeDef.
 388:Drivers/STM32H7xx_HAL_Driver/Src/stm32h7xx_hal.c ****   */
 389:Drivers/STM32H7xx_HAL_Driver/Src/stm32h7xx_hal.c **** HAL_TickFreqTypeDef HAL_GetTickFreq(void)
 390:Drivers/STM32H7xx_HAL_Driver/Src/stm32h7xx_hal.c **** {
 641              		.loc 1 390 1
 642              		.cfi_startproc
 643              		@ args = 0, pretend = 0, frame = 0
 644              		@ frame_needed = 1, uses_anonymous_args = 0
 645              		@ link register save eliminated.
 646 0000 80B4     		push	{r7}
 647              	.LCFI37:
 648              		.cfi_def_cfa_offset 4
 649              		.cfi_offset 7, -4
 650 0002 00AF     		add	r7, sp, #0
 651              	.LCFI38:
 652              		.cfi_def_cfa_register 7
 391:Drivers/STM32H7xx_HAL_Driver/Src/stm32h7xx_hal.c ****   return uwTickFreq;
 653              		.loc 1 391 10
 654 0004 034B     		ldr	r3, .L38
 655 0006 1B78     		ldrb	r3, [r3]	@ zero_extendqisi2
 392:Drivers/STM32H7xx_HAL_Driver/Src/stm32h7xx_hal.c **** }
 656              		.loc 1 392 1
 657 0008 1846     		mov	r0, r3
 658 000a BD46     		mov	sp, r7
ARM GAS  /var/folders/g1/j12m_ky910s3_sv7d4yrsdn00000gn/T//ccvnHeju.s 			page 19


 659              	.LCFI39:
 660              		.cfi_def_cfa_register 13
 661              		@ sp needed
 662 000c 5DF8047B 		ldr	r7, [sp], #4
 663              	.LCFI40:
 664              		.cfi_restore 7
 665              		.cfi_def_cfa_offset 0
 666 0010 7047     		bx	lr
 667              	.L39:
 668 0012 00BF     		.align	2
 669              	.L38:
 670 0014 00000000 		.word	uwTickFreq
 671              		.cfi_endproc
 672              	.LFE153:
 674              		.section	.text.HAL_Delay,"ax",%progbits
 675              		.align	1
 676              		.weak	HAL_Delay
 677              		.syntax unified
 678              		.thumb
 679              		.thumb_func
 681              	HAL_Delay:
 682              	.LFB154:
 393:Drivers/STM32H7xx_HAL_Driver/Src/stm32h7xx_hal.c **** 
 394:Drivers/STM32H7xx_HAL_Driver/Src/stm32h7xx_hal.c **** /**
 395:Drivers/STM32H7xx_HAL_Driver/Src/stm32h7xx_hal.c ****   * @brief This function provides minimum delay (in milliseconds) based
 396:Drivers/STM32H7xx_HAL_Driver/Src/stm32h7xx_hal.c ****   *        on variable incremented.
 397:Drivers/STM32H7xx_HAL_Driver/Src/stm32h7xx_hal.c ****   * @note In the default implementation , SysTick timer is the source of time base.
 398:Drivers/STM32H7xx_HAL_Driver/Src/stm32h7xx_hal.c ****   *       It is used to generate interrupts at regular time intervals where uwTick
 399:Drivers/STM32H7xx_HAL_Driver/Src/stm32h7xx_hal.c ****   *       is incremented.
 400:Drivers/STM32H7xx_HAL_Driver/Src/stm32h7xx_hal.c ****   * @note This function is declared as __weak to be overwritten in case of other
 401:Drivers/STM32H7xx_HAL_Driver/Src/stm32h7xx_hal.c ****   *       implementations in user file.
 402:Drivers/STM32H7xx_HAL_Driver/Src/stm32h7xx_hal.c ****   * @param Delay  specifies the delay time length, in milliseconds.
 403:Drivers/STM32H7xx_HAL_Driver/Src/stm32h7xx_hal.c ****   * @retval None
 404:Drivers/STM32H7xx_HAL_Driver/Src/stm32h7xx_hal.c ****   */
 405:Drivers/STM32H7xx_HAL_Driver/Src/stm32h7xx_hal.c **** __weak void HAL_Delay(uint32_t Delay)
 406:Drivers/STM32H7xx_HAL_Driver/Src/stm32h7xx_hal.c **** {
 683              		.loc 1 406 1
 684              		.cfi_startproc
 685              		@ args = 0, pretend = 0, frame = 16
 686              		@ frame_needed = 1, uses_anonymous_args = 0
 687 0000 80B5     		push	{r7, lr}
 688              	.LCFI41:
 689              		.cfi_def_cfa_offset 8
 690              		.cfi_offset 7, -8
 691              		.cfi_offset 14, -4
 692 0002 84B0     		sub	sp, sp, #16
 693              	.LCFI42:
 694              		.cfi_def_cfa_offset 24
 695 0004 00AF     		add	r7, sp, #0
 696              	.LCFI43:
 697              		.cfi_def_cfa_register 7
 698 0006 7860     		str	r0, [r7, #4]
 407:Drivers/STM32H7xx_HAL_Driver/Src/stm32h7xx_hal.c ****   uint32_t tickstart = HAL_GetTick();
 699              		.loc 1 407 24
 700 0008 FFF7FEFF 		bl	HAL_GetTick
 701 000c B860     		str	r0, [r7, #8]
 408:Drivers/STM32H7xx_HAL_Driver/Src/stm32h7xx_hal.c ****   uint32_t wait = Delay;
ARM GAS  /var/folders/g1/j12m_ky910s3_sv7d4yrsdn00000gn/T//ccvnHeju.s 			page 20


 702              		.loc 1 408 12
 703 000e 7B68     		ldr	r3, [r7, #4]
 704 0010 FB60     		str	r3, [r7, #12]
 409:Drivers/STM32H7xx_HAL_Driver/Src/stm32h7xx_hal.c **** 
 410:Drivers/STM32H7xx_HAL_Driver/Src/stm32h7xx_hal.c ****   /* Add a freq to guarantee minimum wait */
 411:Drivers/STM32H7xx_HAL_Driver/Src/stm32h7xx_hal.c ****   if (wait < HAL_MAX_DELAY)
 705              		.loc 1 411 6
 706 0012 FB68     		ldr	r3, [r7, #12]
 707 0014 B3F1FF3F 		cmp	r3, #-1
 708 0018 05D0     		beq	.L43
 412:Drivers/STM32H7xx_HAL_Driver/Src/stm32h7xx_hal.c ****   {
 413:Drivers/STM32H7xx_HAL_Driver/Src/stm32h7xx_hal.c ****     wait += (uint32_t)(uwTickFreq);
 709              		.loc 1 413 13
 710 001a 0A4B     		ldr	r3, .L44
 711 001c 1B78     		ldrb	r3, [r3]	@ zero_extendqisi2
 712 001e 1A46     		mov	r2, r3
 713              		.loc 1 413 10
 714 0020 FB68     		ldr	r3, [r7, #12]
 715 0022 1344     		add	r3, r3, r2
 716 0024 FB60     		str	r3, [r7, #12]
 717              	.L43:
 414:Drivers/STM32H7xx_HAL_Driver/Src/stm32h7xx_hal.c ****   }
 415:Drivers/STM32H7xx_HAL_Driver/Src/stm32h7xx_hal.c **** 
 416:Drivers/STM32H7xx_HAL_Driver/Src/stm32h7xx_hal.c ****   while ((HAL_GetTick() - tickstart) < wait)
 718              		.loc 1 416 9
 719 0026 00BF     		nop
 720              	.L42:
 721              		.loc 1 416 11 discriminator 1
 722 0028 FFF7FEFF 		bl	HAL_GetTick
 723 002c 0246     		mov	r2, r0
 724              		.loc 1 416 25 discriminator 1
 725 002e BB68     		ldr	r3, [r7, #8]
 726 0030 D31A     		subs	r3, r2, r3
 727              		.loc 1 416 38 discriminator 1
 728 0032 FA68     		ldr	r2, [r7, #12]
 729 0034 9A42     		cmp	r2, r3
 730 0036 F7D8     		bhi	.L42
 417:Drivers/STM32H7xx_HAL_Driver/Src/stm32h7xx_hal.c ****   {
 418:Drivers/STM32H7xx_HAL_Driver/Src/stm32h7xx_hal.c ****   }
 419:Drivers/STM32H7xx_HAL_Driver/Src/stm32h7xx_hal.c **** }
 731              		.loc 1 419 1
 732 0038 00BF     		nop
 733 003a 00BF     		nop
 734 003c 1037     		adds	r7, r7, #16
 735              	.LCFI44:
 736              		.cfi_def_cfa_offset 8
 737 003e BD46     		mov	sp, r7
 738              	.LCFI45:
 739              		.cfi_def_cfa_register 13
 740              		@ sp needed
 741 0040 80BD     		pop	{r7, pc}
 742              	.L45:
 743 0042 00BF     		.align	2
 744              	.L44:
 745 0044 00000000 		.word	uwTickFreq
 746              		.cfi_endproc
 747              	.LFE154:
ARM GAS  /var/folders/g1/j12m_ky910s3_sv7d4yrsdn00000gn/T//ccvnHeju.s 			page 21


 749              		.section	.text.HAL_SuspendTick,"ax",%progbits
 750              		.align	1
 751              		.weak	HAL_SuspendTick
 752              		.syntax unified
 753              		.thumb
 754              		.thumb_func
 756              	HAL_SuspendTick:
 757              	.LFB155:
 420:Drivers/STM32H7xx_HAL_Driver/Src/stm32h7xx_hal.c **** 
 421:Drivers/STM32H7xx_HAL_Driver/Src/stm32h7xx_hal.c **** /**
 422:Drivers/STM32H7xx_HAL_Driver/Src/stm32h7xx_hal.c ****   * @brief Suspend Tick increment.
 423:Drivers/STM32H7xx_HAL_Driver/Src/stm32h7xx_hal.c ****   * @note In the default implementation , SysTick timer is the source of time base. It is
 424:Drivers/STM32H7xx_HAL_Driver/Src/stm32h7xx_hal.c ****   *       used to generate interrupts at regular time intervals. Once HAL_SuspendTick()
 425:Drivers/STM32H7xx_HAL_Driver/Src/stm32h7xx_hal.c ****   *       is called, the SysTick interrupt will be disabled and so Tick increment
 426:Drivers/STM32H7xx_HAL_Driver/Src/stm32h7xx_hal.c ****   *       is suspended.
 427:Drivers/STM32H7xx_HAL_Driver/Src/stm32h7xx_hal.c ****   * @note This function is declared as __weak to be overwritten in case of other
 428:Drivers/STM32H7xx_HAL_Driver/Src/stm32h7xx_hal.c ****   *       implementations in user file.
 429:Drivers/STM32H7xx_HAL_Driver/Src/stm32h7xx_hal.c ****   * @retval None
 430:Drivers/STM32H7xx_HAL_Driver/Src/stm32h7xx_hal.c ****   */
 431:Drivers/STM32H7xx_HAL_Driver/Src/stm32h7xx_hal.c **** __weak void HAL_SuspendTick(void)
 432:Drivers/STM32H7xx_HAL_Driver/Src/stm32h7xx_hal.c **** {
 758              		.loc 1 432 1
 759              		.cfi_startproc
 760              		@ args = 0, pretend = 0, frame = 0
 761              		@ frame_needed = 1, uses_anonymous_args = 0
 762              		@ link register save eliminated.
 763 0000 80B4     		push	{r7}
 764              	.LCFI46:
 765              		.cfi_def_cfa_offset 4
 766              		.cfi_offset 7, -4
 767 0002 00AF     		add	r7, sp, #0
 768              	.LCFI47:
 769              		.cfi_def_cfa_register 7
 433:Drivers/STM32H7xx_HAL_Driver/Src/stm32h7xx_hal.c ****   /* Disable SysTick Interrupt */
 434:Drivers/STM32H7xx_HAL_Driver/Src/stm32h7xx_hal.c ****   SysTick->CTRL &= ~SysTick_CTRL_TICKINT_Msk;
 770              		.loc 1 434 10
 771 0004 054B     		ldr	r3, .L47
 772 0006 1B68     		ldr	r3, [r3]
 773 0008 044A     		ldr	r2, .L47
 774              		.loc 1 434 17
 775 000a 23F00203 		bic	r3, r3, #2
 776 000e 1360     		str	r3, [r2]
 435:Drivers/STM32H7xx_HAL_Driver/Src/stm32h7xx_hal.c **** }
 777              		.loc 1 435 1
 778 0010 00BF     		nop
 779 0012 BD46     		mov	sp, r7
 780              	.LCFI48:
 781              		.cfi_def_cfa_register 13
 782              		@ sp needed
 783 0014 5DF8047B 		ldr	r7, [sp], #4
 784              	.LCFI49:
 785              		.cfi_restore 7
 786              		.cfi_def_cfa_offset 0
 787 0018 7047     		bx	lr
 788              	.L48:
 789 001a 00BF     		.align	2
 790              	.L47:
ARM GAS  /var/folders/g1/j12m_ky910s3_sv7d4yrsdn00000gn/T//ccvnHeju.s 			page 22


 791 001c 10E000E0 		.word	-536813552
 792              		.cfi_endproc
 793              	.LFE155:
 795              		.section	.text.HAL_ResumeTick,"ax",%progbits
 796              		.align	1
 797              		.weak	HAL_ResumeTick
 798              		.syntax unified
 799              		.thumb
 800              		.thumb_func
 802              	HAL_ResumeTick:
 803              	.LFB156:
 436:Drivers/STM32H7xx_HAL_Driver/Src/stm32h7xx_hal.c **** 
 437:Drivers/STM32H7xx_HAL_Driver/Src/stm32h7xx_hal.c **** /**
 438:Drivers/STM32H7xx_HAL_Driver/Src/stm32h7xx_hal.c ****   * @brief Resume Tick increment.
 439:Drivers/STM32H7xx_HAL_Driver/Src/stm32h7xx_hal.c ****   * @note In the default implementation , SysTick timer is the source of time base. It is
 440:Drivers/STM32H7xx_HAL_Driver/Src/stm32h7xx_hal.c ****   *       used to generate interrupts at regular time intervals. Once HAL_ResumeTick()
 441:Drivers/STM32H7xx_HAL_Driver/Src/stm32h7xx_hal.c ****   *       is called, the SysTick interrupt will be enabled and so Tick increment
 442:Drivers/STM32H7xx_HAL_Driver/Src/stm32h7xx_hal.c ****   *       is resumed.
 443:Drivers/STM32H7xx_HAL_Driver/Src/stm32h7xx_hal.c ****   * @note This function is declared as __weak to be overwritten in case of other
 444:Drivers/STM32H7xx_HAL_Driver/Src/stm32h7xx_hal.c ****   *       implementations in user file.
 445:Drivers/STM32H7xx_HAL_Driver/Src/stm32h7xx_hal.c ****   * @retval None
 446:Drivers/STM32H7xx_HAL_Driver/Src/stm32h7xx_hal.c ****   */
 447:Drivers/STM32H7xx_HAL_Driver/Src/stm32h7xx_hal.c **** __weak void HAL_ResumeTick(void)
 448:Drivers/STM32H7xx_HAL_Driver/Src/stm32h7xx_hal.c **** {
 804              		.loc 1 448 1
 805              		.cfi_startproc
 806              		@ args = 0, pretend = 0, frame = 0
 807              		@ frame_needed = 1, uses_anonymous_args = 0
 808              		@ link register save eliminated.
 809 0000 80B4     		push	{r7}
 810              	.LCFI50:
 811              		.cfi_def_cfa_offset 4
 812              		.cfi_offset 7, -4
 813 0002 00AF     		add	r7, sp, #0
 814              	.LCFI51:
 815              		.cfi_def_cfa_register 7
 449:Drivers/STM32H7xx_HAL_Driver/Src/stm32h7xx_hal.c ****   /* Enable SysTick Interrupt */
 450:Drivers/STM32H7xx_HAL_Driver/Src/stm32h7xx_hal.c ****   SysTick->CTRL  |= SysTick_CTRL_TICKINT_Msk;
 816              		.loc 1 450 10
 817 0004 054B     		ldr	r3, .L50
 818 0006 1B68     		ldr	r3, [r3]
 819 0008 044A     		ldr	r2, .L50
 820              		.loc 1 450 18
 821 000a 43F00203 		orr	r3, r3, #2
 822 000e 1360     		str	r3, [r2]
 451:Drivers/STM32H7xx_HAL_Driver/Src/stm32h7xx_hal.c **** }
 823              		.loc 1 451 1
 824 0010 00BF     		nop
 825 0012 BD46     		mov	sp, r7
 826              	.LCFI52:
 827              		.cfi_def_cfa_register 13
 828              		@ sp needed
 829 0014 5DF8047B 		ldr	r7, [sp], #4
 830              	.LCFI53:
 831              		.cfi_restore 7
 832              		.cfi_def_cfa_offset 0
 833 0018 7047     		bx	lr
ARM GAS  /var/folders/g1/j12m_ky910s3_sv7d4yrsdn00000gn/T//ccvnHeju.s 			page 23


 834              	.L51:
 835 001a 00BF     		.align	2
 836              	.L50:
 837 001c 10E000E0 		.word	-536813552
 838              		.cfi_endproc
 839              	.LFE156:
 841              		.section	.text.HAL_GetHalVersion,"ax",%progbits
 842              		.align	1
 843              		.global	HAL_GetHalVersion
 844              		.syntax unified
 845              		.thumb
 846              		.thumb_func
 848              	HAL_GetHalVersion:
 849              	.LFB157:
 452:Drivers/STM32H7xx_HAL_Driver/Src/stm32h7xx_hal.c **** 
 453:Drivers/STM32H7xx_HAL_Driver/Src/stm32h7xx_hal.c **** /**
 454:Drivers/STM32H7xx_HAL_Driver/Src/stm32h7xx_hal.c ****   * @brief  Returns the HAL revision
 455:Drivers/STM32H7xx_HAL_Driver/Src/stm32h7xx_hal.c ****   * @retval version : 0xXYZR (8bits for each decimal, R for RC)
 456:Drivers/STM32H7xx_HAL_Driver/Src/stm32h7xx_hal.c ****   */
 457:Drivers/STM32H7xx_HAL_Driver/Src/stm32h7xx_hal.c **** uint32_t HAL_GetHalVersion(void)
 458:Drivers/STM32H7xx_HAL_Driver/Src/stm32h7xx_hal.c **** {
 850              		.loc 1 458 1
 851              		.cfi_startproc
 852              		@ args = 0, pretend = 0, frame = 0
 853              		@ frame_needed = 1, uses_anonymous_args = 0
 854              		@ link register save eliminated.
 855 0000 80B4     		push	{r7}
 856              	.LCFI54:
 857              		.cfi_def_cfa_offset 4
 858              		.cfi_offset 7, -4
 859 0002 00AF     		add	r7, sp, #0
 860              	.LCFI55:
 861              		.cfi_def_cfa_register 7
 459:Drivers/STM32H7xx_HAL_Driver/Src/stm32h7xx_hal.c ****  return __STM32H7xx_HAL_VERSION;
 862              		.loc 1 459 9
 863 0004 024B     		ldr	r3, .L54
 460:Drivers/STM32H7xx_HAL_Driver/Src/stm32h7xx_hal.c **** }
 864              		.loc 1 460 1
 865 0006 1846     		mov	r0, r3
 866 0008 BD46     		mov	sp, r7
 867              	.LCFI56:
 868              		.cfi_def_cfa_register 13
 869              		@ sp needed
 870 000a 5DF8047B 		ldr	r7, [sp], #4
 871              	.LCFI57:
 872              		.cfi_restore 7
 873              		.cfi_def_cfa_offset 0
 874 000e 7047     		bx	lr
 875              	.L55:
 876              		.align	2
 877              	.L54:
 878 0010 00050B01 		.word	17499392
 879              		.cfi_endproc
 880              	.LFE157:
 882              		.section	.text.HAL_GetREVID,"ax",%progbits
 883              		.align	1
 884              		.global	HAL_GetREVID
ARM GAS  /var/folders/g1/j12m_ky910s3_sv7d4yrsdn00000gn/T//ccvnHeju.s 			page 24


 885              		.syntax unified
 886              		.thumb
 887              		.thumb_func
 889              	HAL_GetREVID:
 890              	.LFB158:
 461:Drivers/STM32H7xx_HAL_Driver/Src/stm32h7xx_hal.c **** 
 462:Drivers/STM32H7xx_HAL_Driver/Src/stm32h7xx_hal.c **** /**
 463:Drivers/STM32H7xx_HAL_Driver/Src/stm32h7xx_hal.c ****   * @brief  Returns the device revision identifier.
 464:Drivers/STM32H7xx_HAL_Driver/Src/stm32h7xx_hal.c ****   * @retval Device revision identifier
 465:Drivers/STM32H7xx_HAL_Driver/Src/stm32h7xx_hal.c ****   */
 466:Drivers/STM32H7xx_HAL_Driver/Src/stm32h7xx_hal.c **** uint32_t HAL_GetREVID(void)
 467:Drivers/STM32H7xx_HAL_Driver/Src/stm32h7xx_hal.c **** {
 891              		.loc 1 467 1
 892              		.cfi_startproc
 893              		@ args = 0, pretend = 0, frame = 0
 894              		@ frame_needed = 1, uses_anonymous_args = 0
 895              		@ link register save eliminated.
 896 0000 80B4     		push	{r7}
 897              	.LCFI58:
 898              		.cfi_def_cfa_offset 4
 899              		.cfi_offset 7, -4
 900 0002 00AF     		add	r7, sp, #0
 901              	.LCFI59:
 902              		.cfi_def_cfa_register 7
 468:Drivers/STM32H7xx_HAL_Driver/Src/stm32h7xx_hal.c ****    return((DBGMCU->IDCODE) >> 16);
 903              		.loc 1 468 18
 904 0004 034B     		ldr	r3, .L58
 905 0006 1B68     		ldr	r3, [r3]
 906              		.loc 1 468 28
 907 0008 1B0C     		lsrs	r3, r3, #16
 469:Drivers/STM32H7xx_HAL_Driver/Src/stm32h7xx_hal.c **** }
 908              		.loc 1 469 1
 909 000a 1846     		mov	r0, r3
 910 000c BD46     		mov	sp, r7
 911              	.LCFI60:
 912              		.cfi_def_cfa_register 13
 913              		@ sp needed
 914 000e 5DF8047B 		ldr	r7, [sp], #4
 915              	.LCFI61:
 916              		.cfi_restore 7
 917              		.cfi_def_cfa_offset 0
 918 0012 7047     		bx	lr
 919              	.L59:
 920              		.align	2
 921              	.L58:
 922 0014 0010005C 		.word	1543507968
 923              		.cfi_endproc
 924              	.LFE158:
 926              		.section	.text.HAL_GetDEVID,"ax",%progbits
 927              		.align	1
 928              		.global	HAL_GetDEVID
 929              		.syntax unified
 930              		.thumb
 931              		.thumb_func
 933              	HAL_GetDEVID:
 934              	.LFB159:
 470:Drivers/STM32H7xx_HAL_Driver/Src/stm32h7xx_hal.c **** 
ARM GAS  /var/folders/g1/j12m_ky910s3_sv7d4yrsdn00000gn/T//ccvnHeju.s 			page 25


 471:Drivers/STM32H7xx_HAL_Driver/Src/stm32h7xx_hal.c **** /**
 472:Drivers/STM32H7xx_HAL_Driver/Src/stm32h7xx_hal.c ****   * @brief  Returns the device identifier.
 473:Drivers/STM32H7xx_HAL_Driver/Src/stm32h7xx_hal.c ****   * @retval Device identifier
 474:Drivers/STM32H7xx_HAL_Driver/Src/stm32h7xx_hal.c ****   */
 475:Drivers/STM32H7xx_HAL_Driver/Src/stm32h7xx_hal.c **** uint32_t HAL_GetDEVID(void)
 476:Drivers/STM32H7xx_HAL_Driver/Src/stm32h7xx_hal.c **** {
 935              		.loc 1 476 1
 936              		.cfi_startproc
 937              		@ args = 0, pretend = 0, frame = 0
 938              		@ frame_needed = 1, uses_anonymous_args = 0
 939              		@ link register save eliminated.
 940 0000 80B4     		push	{r7}
 941              	.LCFI62:
 942              		.cfi_def_cfa_offset 4
 943              		.cfi_offset 7, -4
 944 0002 00AF     		add	r7, sp, #0
 945              	.LCFI63:
 946              		.cfi_def_cfa_register 7
 477:Drivers/STM32H7xx_HAL_Driver/Src/stm32h7xx_hal.c ****    return((DBGMCU->IDCODE) & IDCODE_DEVID_MASK);
 947              		.loc 1 477 18
 948 0004 044B     		ldr	r3, .L62
 949 0006 1B68     		ldr	r3, [r3]
 950              		.loc 1 477 28
 951 0008 C3F30B03 		ubfx	r3, r3, #0, #12
 478:Drivers/STM32H7xx_HAL_Driver/Src/stm32h7xx_hal.c **** }
 952              		.loc 1 478 1
 953 000c 1846     		mov	r0, r3
 954 000e BD46     		mov	sp, r7
 955              	.LCFI64:
 956              		.cfi_def_cfa_register 13
 957              		@ sp needed
 958 0010 5DF8047B 		ldr	r7, [sp], #4
 959              	.LCFI65:
 960              		.cfi_restore 7
 961              		.cfi_def_cfa_offset 0
 962 0014 7047     		bx	lr
 963              	.L63:
 964 0016 00BF     		.align	2
 965              	.L62:
 966 0018 0010005C 		.word	1543507968
 967              		.cfi_endproc
 968              	.LFE159:
 970              		.section	.text.HAL_GetUIDw0,"ax",%progbits
 971              		.align	1
 972              		.global	HAL_GetUIDw0
 973              		.syntax unified
 974              		.thumb
 975              		.thumb_func
 977              	HAL_GetUIDw0:
 978              	.LFB160:
 479:Drivers/STM32H7xx_HAL_Driver/Src/stm32h7xx_hal.c **** 
 480:Drivers/STM32H7xx_HAL_Driver/Src/stm32h7xx_hal.c **** /**
 481:Drivers/STM32H7xx_HAL_Driver/Src/stm32h7xx_hal.c ****   * @brief  Return the first word of the unique device identifier (UID based on 96 bits)
 482:Drivers/STM32H7xx_HAL_Driver/Src/stm32h7xx_hal.c ****   * @retval Device identifier
 483:Drivers/STM32H7xx_HAL_Driver/Src/stm32h7xx_hal.c ****   */
 484:Drivers/STM32H7xx_HAL_Driver/Src/stm32h7xx_hal.c **** uint32_t HAL_GetUIDw0(void)
 485:Drivers/STM32H7xx_HAL_Driver/Src/stm32h7xx_hal.c **** {
ARM GAS  /var/folders/g1/j12m_ky910s3_sv7d4yrsdn00000gn/T//ccvnHeju.s 			page 26


 979              		.loc 1 485 1
 980              		.cfi_startproc
 981              		@ args = 0, pretend = 0, frame = 0
 982              		@ frame_needed = 1, uses_anonymous_args = 0
 983              		@ link register save eliminated.
 984 0000 80B4     		push	{r7}
 985              	.LCFI66:
 986              		.cfi_def_cfa_offset 4
 987              		.cfi_offset 7, -4
 988 0002 00AF     		add	r7, sp, #0
 989              	.LCFI67:
 990              		.cfi_def_cfa_register 7
 486:Drivers/STM32H7xx_HAL_Driver/Src/stm32h7xx_hal.c ****   return(READ_REG(*((uint32_t *)UID_BASE)));
 991              		.loc 1 486 10
 992 0004 034B     		ldr	r3, .L66
 993 0006 1B68     		ldr	r3, [r3]
 487:Drivers/STM32H7xx_HAL_Driver/Src/stm32h7xx_hal.c **** }
 994              		.loc 1 487 1
 995 0008 1846     		mov	r0, r3
 996 000a BD46     		mov	sp, r7
 997              	.LCFI68:
 998              		.cfi_def_cfa_register 13
 999              		@ sp needed
 1000 000c 5DF8047B 		ldr	r7, [sp], #4
 1001              	.LCFI69:
 1002              		.cfi_restore 7
 1003              		.cfi_def_cfa_offset 0
 1004 0010 7047     		bx	lr
 1005              	.L67:
 1006 0012 00BF     		.align	2
 1007              	.L66:
 1008 0014 00E8F11F 		.word	535947264
 1009              		.cfi_endproc
 1010              	.LFE160:
 1012              		.section	.text.HAL_GetUIDw1,"ax",%progbits
 1013              		.align	1
 1014              		.global	HAL_GetUIDw1
 1015              		.syntax unified
 1016              		.thumb
 1017              		.thumb_func
 1019              	HAL_GetUIDw1:
 1020              	.LFB161:
 488:Drivers/STM32H7xx_HAL_Driver/Src/stm32h7xx_hal.c **** 
 489:Drivers/STM32H7xx_HAL_Driver/Src/stm32h7xx_hal.c **** /**
 490:Drivers/STM32H7xx_HAL_Driver/Src/stm32h7xx_hal.c ****   * @brief  Return the second word of the unique device identifier (UID based on 96 bits)
 491:Drivers/STM32H7xx_HAL_Driver/Src/stm32h7xx_hal.c ****   * @retval Device identifier
 492:Drivers/STM32H7xx_HAL_Driver/Src/stm32h7xx_hal.c ****   */
 493:Drivers/STM32H7xx_HAL_Driver/Src/stm32h7xx_hal.c **** uint32_t HAL_GetUIDw1(void)
 494:Drivers/STM32H7xx_HAL_Driver/Src/stm32h7xx_hal.c **** {
 1021              		.loc 1 494 1
 1022              		.cfi_startproc
 1023              		@ args = 0, pretend = 0, frame = 0
 1024              		@ frame_needed = 1, uses_anonymous_args = 0
 1025              		@ link register save eliminated.
 1026 0000 80B4     		push	{r7}
 1027              	.LCFI70:
 1028              		.cfi_def_cfa_offset 4
ARM GAS  /var/folders/g1/j12m_ky910s3_sv7d4yrsdn00000gn/T//ccvnHeju.s 			page 27


 1029              		.cfi_offset 7, -4
 1030 0002 00AF     		add	r7, sp, #0
 1031              	.LCFI71:
 1032              		.cfi_def_cfa_register 7
 495:Drivers/STM32H7xx_HAL_Driver/Src/stm32h7xx_hal.c ****   return(READ_REG(*((uint32_t *)(UID_BASE + 4U))));
 1033              		.loc 1 495 10
 1034 0004 034B     		ldr	r3, .L70
 1035 0006 1B68     		ldr	r3, [r3]
 496:Drivers/STM32H7xx_HAL_Driver/Src/stm32h7xx_hal.c **** }
 1036              		.loc 1 496 1
 1037 0008 1846     		mov	r0, r3
 1038 000a BD46     		mov	sp, r7
 1039              	.LCFI72:
 1040              		.cfi_def_cfa_register 13
 1041              		@ sp needed
 1042 000c 5DF8047B 		ldr	r7, [sp], #4
 1043              	.LCFI73:
 1044              		.cfi_restore 7
 1045              		.cfi_def_cfa_offset 0
 1046 0010 7047     		bx	lr
 1047              	.L71:
 1048 0012 00BF     		.align	2
 1049              	.L70:
 1050 0014 04E8F11F 		.word	535947268
 1051              		.cfi_endproc
 1052              	.LFE161:
 1054              		.section	.text.HAL_GetUIDw2,"ax",%progbits
 1055              		.align	1
 1056              		.global	HAL_GetUIDw2
 1057              		.syntax unified
 1058              		.thumb
 1059              		.thumb_func
 1061              	HAL_GetUIDw2:
 1062              	.LFB162:
 497:Drivers/STM32H7xx_HAL_Driver/Src/stm32h7xx_hal.c **** 
 498:Drivers/STM32H7xx_HAL_Driver/Src/stm32h7xx_hal.c **** /**
 499:Drivers/STM32H7xx_HAL_Driver/Src/stm32h7xx_hal.c ****   * @brief  Return the third word of the unique device identifier (UID based on 96 bits)
 500:Drivers/STM32H7xx_HAL_Driver/Src/stm32h7xx_hal.c ****   * @retval Device identifier
 501:Drivers/STM32H7xx_HAL_Driver/Src/stm32h7xx_hal.c ****   */
 502:Drivers/STM32H7xx_HAL_Driver/Src/stm32h7xx_hal.c **** uint32_t HAL_GetUIDw2(void)
 503:Drivers/STM32H7xx_HAL_Driver/Src/stm32h7xx_hal.c **** {
 1063              		.loc 1 503 1
 1064              		.cfi_startproc
 1065              		@ args = 0, pretend = 0, frame = 0
 1066              		@ frame_needed = 1, uses_anonymous_args = 0
 1067              		@ link register save eliminated.
 1068 0000 80B4     		push	{r7}
 1069              	.LCFI74:
 1070              		.cfi_def_cfa_offset 4
 1071              		.cfi_offset 7, -4
 1072 0002 00AF     		add	r7, sp, #0
 1073              	.LCFI75:
 1074              		.cfi_def_cfa_register 7
 504:Drivers/STM32H7xx_HAL_Driver/Src/stm32h7xx_hal.c ****   return(READ_REG(*((uint32_t *)(UID_BASE + 8U))));
 1075              		.loc 1 504 10
 1076 0004 034B     		ldr	r3, .L74
 1077 0006 1B68     		ldr	r3, [r3]
ARM GAS  /var/folders/g1/j12m_ky910s3_sv7d4yrsdn00000gn/T//ccvnHeju.s 			page 28


 505:Drivers/STM32H7xx_HAL_Driver/Src/stm32h7xx_hal.c **** }
 1078              		.loc 1 505 1
 1079 0008 1846     		mov	r0, r3
 1080 000a BD46     		mov	sp, r7
 1081              	.LCFI76:
 1082              		.cfi_def_cfa_register 13
 1083              		@ sp needed
 1084 000c 5DF8047B 		ldr	r7, [sp], #4
 1085              	.LCFI77:
 1086              		.cfi_restore 7
 1087              		.cfi_def_cfa_offset 0
 1088 0010 7047     		bx	lr
 1089              	.L75:
 1090 0012 00BF     		.align	2
 1091              	.L74:
 1092 0014 08E8F11F 		.word	535947272
 1093              		.cfi_endproc
 1094              	.LFE162:
 1096              		.section	.text.HAL_SYSCFG_VREFBUF_VoltageScalingConfig,"ax",%progbits
 1097              		.align	1
 1098              		.global	HAL_SYSCFG_VREFBUF_VoltageScalingConfig
 1099              		.syntax unified
 1100              		.thumb
 1101              		.thumb_func
 1103              	HAL_SYSCFG_VREFBUF_VoltageScalingConfig:
 1104              	.LFB163:
 506:Drivers/STM32H7xx_HAL_Driver/Src/stm32h7xx_hal.c **** 
 507:Drivers/STM32H7xx_HAL_Driver/Src/stm32h7xx_hal.c **** /**
 508:Drivers/STM32H7xx_HAL_Driver/Src/stm32h7xx_hal.c ****   * @brief Configure the internal voltage reference buffer voltage scale.
 509:Drivers/STM32H7xx_HAL_Driver/Src/stm32h7xx_hal.c ****   * @param VoltageScaling  specifies the output voltage to achieve
 510:Drivers/STM32H7xx_HAL_Driver/Src/stm32h7xx_hal.c ****   *          This parameter can be one of the following values:
 511:Drivers/STM32H7xx_HAL_Driver/Src/stm32h7xx_hal.c ****   *            @arg SYSCFG_VREFBUF_VOLTAGE_SCALE0: VREF_OUT1 around 2.5 V.
 512:Drivers/STM32H7xx_HAL_Driver/Src/stm32h7xx_hal.c ****   *                                                This requires VDDA equal to or higher than 2.8 V
 513:Drivers/STM32H7xx_HAL_Driver/Src/stm32h7xx_hal.c ****   *            @arg SYSCFG_VREFBUF_VOLTAGE_SCALE1: VREF_OUT2 around 2.048 V.
 514:Drivers/STM32H7xx_HAL_Driver/Src/stm32h7xx_hal.c ****   *                                                This requires VDDA equal to or higher than 2.4 V
 515:Drivers/STM32H7xx_HAL_Driver/Src/stm32h7xx_hal.c ****   *            @arg SYSCFG_VREFBUF_VOLTAGE_SCALE2: VREF_OUT3 around 1.8 V.
 516:Drivers/STM32H7xx_HAL_Driver/Src/stm32h7xx_hal.c ****   *                                                This requires VDDA equal to or higher than 2.1 V
 517:Drivers/STM32H7xx_HAL_Driver/Src/stm32h7xx_hal.c ****   *            @arg SYSCFG_VREFBUF_VOLTAGE_SCALE3: VREF_OUT4 around 1.5 V.
 518:Drivers/STM32H7xx_HAL_Driver/Src/stm32h7xx_hal.c ****   *                                                This requires VDDA equal to or higher than 1.8 V
 519:Drivers/STM32H7xx_HAL_Driver/Src/stm32h7xx_hal.c ****   * @retval None
 520:Drivers/STM32H7xx_HAL_Driver/Src/stm32h7xx_hal.c ****   */
 521:Drivers/STM32H7xx_HAL_Driver/Src/stm32h7xx_hal.c **** void HAL_SYSCFG_VREFBUF_VoltageScalingConfig(uint32_t VoltageScaling)
 522:Drivers/STM32H7xx_HAL_Driver/Src/stm32h7xx_hal.c **** {
 1105              		.loc 1 522 1
 1106              		.cfi_startproc
 1107              		@ args = 0, pretend = 0, frame = 8
 1108              		@ frame_needed = 1, uses_anonymous_args = 0
 1109              		@ link register save eliminated.
 1110 0000 80B4     		push	{r7}
 1111              	.LCFI78:
 1112              		.cfi_def_cfa_offset 4
 1113              		.cfi_offset 7, -4
 1114 0002 83B0     		sub	sp, sp, #12
 1115              	.LCFI79:
 1116              		.cfi_def_cfa_offset 16
 1117 0004 00AF     		add	r7, sp, #0
 1118              	.LCFI80:
ARM GAS  /var/folders/g1/j12m_ky910s3_sv7d4yrsdn00000gn/T//ccvnHeju.s 			page 29


 1119              		.cfi_def_cfa_register 7
 1120 0006 7860     		str	r0, [r7, #4]
 523:Drivers/STM32H7xx_HAL_Driver/Src/stm32h7xx_hal.c ****   /* Check the parameters */
 524:Drivers/STM32H7xx_HAL_Driver/Src/stm32h7xx_hal.c ****   assert_param(IS_SYSCFG_VREFBUF_VOLTAGE_SCALE(VoltageScaling));
 525:Drivers/STM32H7xx_HAL_Driver/Src/stm32h7xx_hal.c **** 
 526:Drivers/STM32H7xx_HAL_Driver/Src/stm32h7xx_hal.c ****   MODIFY_REG(VREFBUF->CSR, VREFBUF_CSR_VRS, VoltageScaling);
 1121              		.loc 1 526 3
 1122 0008 064B     		ldr	r3, .L77
 1123 000a 1B68     		ldr	r3, [r3]
 1124 000c 23F07002 		bic	r2, r3, #112
 1125 0010 0449     		ldr	r1, .L77
 1126 0012 7B68     		ldr	r3, [r7, #4]
 1127 0014 1343     		orrs	r3, r3, r2
 1128 0016 0B60     		str	r3, [r1]
 527:Drivers/STM32H7xx_HAL_Driver/Src/stm32h7xx_hal.c **** }
 1129              		.loc 1 527 1
 1130 0018 00BF     		nop
 1131 001a 0C37     		adds	r7, r7, #12
 1132              	.LCFI81:
 1133              		.cfi_def_cfa_offset 4
 1134 001c BD46     		mov	sp, r7
 1135              	.LCFI82:
 1136              		.cfi_def_cfa_register 13
 1137              		@ sp needed
 1138 001e 5DF8047B 		ldr	r7, [sp], #4
 1139              	.LCFI83:
 1140              		.cfi_restore 7
 1141              		.cfi_def_cfa_offset 0
 1142 0022 7047     		bx	lr
 1143              	.L78:
 1144              		.align	2
 1145              	.L77:
 1146 0024 003C0058 		.word	1476410368
 1147              		.cfi_endproc
 1148              	.LFE163:
 1150              		.section	.text.HAL_SYSCFG_VREFBUF_HighImpedanceConfig,"ax",%progbits
 1151              		.align	1
 1152              		.global	HAL_SYSCFG_VREFBUF_HighImpedanceConfig
 1153              		.syntax unified
 1154              		.thumb
 1155              		.thumb_func
 1157              	HAL_SYSCFG_VREFBUF_HighImpedanceConfig:
 1158              	.LFB164:
 528:Drivers/STM32H7xx_HAL_Driver/Src/stm32h7xx_hal.c **** 
 529:Drivers/STM32H7xx_HAL_Driver/Src/stm32h7xx_hal.c **** /**
 530:Drivers/STM32H7xx_HAL_Driver/Src/stm32h7xx_hal.c ****   * @brief Configure the internal voltage reference buffer high impedance mode.
 531:Drivers/STM32H7xx_HAL_Driver/Src/stm32h7xx_hal.c ****   * @param Mode  specifies the high impedance mode
 532:Drivers/STM32H7xx_HAL_Driver/Src/stm32h7xx_hal.c ****   *          This parameter can be one of the following values:
 533:Drivers/STM32H7xx_HAL_Driver/Src/stm32h7xx_hal.c ****   *            @arg SYSCFG_VREFBUF_HIGH_IMPEDANCE_DISABLE: VREF+ pin is internally connect to VREFI
 534:Drivers/STM32H7xx_HAL_Driver/Src/stm32h7xx_hal.c ****   *            @arg SYSCFG_VREFBUF_HIGH_IMPEDANCE_ENABLE: VREF+ pin is high impedance.
 535:Drivers/STM32H7xx_HAL_Driver/Src/stm32h7xx_hal.c ****   * @retval None
 536:Drivers/STM32H7xx_HAL_Driver/Src/stm32h7xx_hal.c ****   */
 537:Drivers/STM32H7xx_HAL_Driver/Src/stm32h7xx_hal.c **** void HAL_SYSCFG_VREFBUF_HighImpedanceConfig(uint32_t Mode)
 538:Drivers/STM32H7xx_HAL_Driver/Src/stm32h7xx_hal.c **** {
 1159              		.loc 1 538 1
 1160              		.cfi_startproc
 1161              		@ args = 0, pretend = 0, frame = 8
ARM GAS  /var/folders/g1/j12m_ky910s3_sv7d4yrsdn00000gn/T//ccvnHeju.s 			page 30


 1162              		@ frame_needed = 1, uses_anonymous_args = 0
 1163              		@ link register save eliminated.
 1164 0000 80B4     		push	{r7}
 1165              	.LCFI84:
 1166              		.cfi_def_cfa_offset 4
 1167              		.cfi_offset 7, -4
 1168 0002 83B0     		sub	sp, sp, #12
 1169              	.LCFI85:
 1170              		.cfi_def_cfa_offset 16
 1171 0004 00AF     		add	r7, sp, #0
 1172              	.LCFI86:
 1173              		.cfi_def_cfa_register 7
 1174 0006 7860     		str	r0, [r7, #4]
 539:Drivers/STM32H7xx_HAL_Driver/Src/stm32h7xx_hal.c ****   /* Check the parameters */
 540:Drivers/STM32H7xx_HAL_Driver/Src/stm32h7xx_hal.c ****   assert_param(IS_SYSCFG_VREFBUF_HIGH_IMPEDANCE(Mode));
 541:Drivers/STM32H7xx_HAL_Driver/Src/stm32h7xx_hal.c **** 
 542:Drivers/STM32H7xx_HAL_Driver/Src/stm32h7xx_hal.c ****   MODIFY_REG(VREFBUF->CSR, VREFBUF_CSR_HIZ, Mode);
 1175              		.loc 1 542 3
 1176 0008 064B     		ldr	r3, .L80
 1177 000a 1B68     		ldr	r3, [r3]
 1178 000c 23F00202 		bic	r2, r3, #2
 1179 0010 0449     		ldr	r1, .L80
 1180 0012 7B68     		ldr	r3, [r7, #4]
 1181 0014 1343     		orrs	r3, r3, r2
 1182 0016 0B60     		str	r3, [r1]
 543:Drivers/STM32H7xx_HAL_Driver/Src/stm32h7xx_hal.c **** }
 1183              		.loc 1 543 1
 1184 0018 00BF     		nop
 1185 001a 0C37     		adds	r7, r7, #12
 1186              	.LCFI87:
 1187              		.cfi_def_cfa_offset 4
 1188 001c BD46     		mov	sp, r7
 1189              	.LCFI88:
 1190              		.cfi_def_cfa_register 13
 1191              		@ sp needed
 1192 001e 5DF8047B 		ldr	r7, [sp], #4
 1193              	.LCFI89:
 1194              		.cfi_restore 7
 1195              		.cfi_def_cfa_offset 0
 1196 0022 7047     		bx	lr
 1197              	.L81:
 1198              		.align	2
 1199              	.L80:
 1200 0024 003C0058 		.word	1476410368
 1201              		.cfi_endproc
 1202              	.LFE164:
 1204              		.section	.text.HAL_SYSCFG_VREFBUF_TrimmingConfig,"ax",%progbits
 1205              		.align	1
 1206              		.global	HAL_SYSCFG_VREFBUF_TrimmingConfig
 1207              		.syntax unified
 1208              		.thumb
 1209              		.thumb_func
 1211              	HAL_SYSCFG_VREFBUF_TrimmingConfig:
 1212              	.LFB165:
 544:Drivers/STM32H7xx_HAL_Driver/Src/stm32h7xx_hal.c **** 
 545:Drivers/STM32H7xx_HAL_Driver/Src/stm32h7xx_hal.c **** /**
 546:Drivers/STM32H7xx_HAL_Driver/Src/stm32h7xx_hal.c ****   * @brief  Tune the Internal Voltage Reference buffer (VREFBUF).
ARM GAS  /var/folders/g1/j12m_ky910s3_sv7d4yrsdn00000gn/T//ccvnHeju.s 			page 31


 547:Drivers/STM32H7xx_HAL_Driver/Src/stm32h7xx_hal.c ****   * @retval None
 548:Drivers/STM32H7xx_HAL_Driver/Src/stm32h7xx_hal.c ****   */
 549:Drivers/STM32H7xx_HAL_Driver/Src/stm32h7xx_hal.c **** void HAL_SYSCFG_VREFBUF_TrimmingConfig(uint32_t TrimmingValue)
 550:Drivers/STM32H7xx_HAL_Driver/Src/stm32h7xx_hal.c **** {
 1213              		.loc 1 550 1
 1214              		.cfi_startproc
 1215              		@ args = 0, pretend = 0, frame = 8
 1216              		@ frame_needed = 1, uses_anonymous_args = 0
 1217              		@ link register save eliminated.
 1218 0000 80B4     		push	{r7}
 1219              	.LCFI90:
 1220              		.cfi_def_cfa_offset 4
 1221              		.cfi_offset 7, -4
 1222 0002 83B0     		sub	sp, sp, #12
 1223              	.LCFI91:
 1224              		.cfi_def_cfa_offset 16
 1225 0004 00AF     		add	r7, sp, #0
 1226              	.LCFI92:
 1227              		.cfi_def_cfa_register 7
 1228 0006 7860     		str	r0, [r7, #4]
 551:Drivers/STM32H7xx_HAL_Driver/Src/stm32h7xx_hal.c ****   /* Check the parameters */
 552:Drivers/STM32H7xx_HAL_Driver/Src/stm32h7xx_hal.c ****   assert_param(IS_SYSCFG_VREFBUF_TRIMMING(TrimmingValue));
 553:Drivers/STM32H7xx_HAL_Driver/Src/stm32h7xx_hal.c **** 
 554:Drivers/STM32H7xx_HAL_Driver/Src/stm32h7xx_hal.c ****   MODIFY_REG(VREFBUF->CCR, VREFBUF_CCR_TRIM, TrimmingValue);
 1229              		.loc 1 554 3
 1230 0008 064B     		ldr	r3, .L83
 1231 000a 5B68     		ldr	r3, [r3, #4]
 1232 000c 23F03F02 		bic	r2, r3, #63
 1233 0010 0449     		ldr	r1, .L83
 1234 0012 7B68     		ldr	r3, [r7, #4]
 1235 0014 1343     		orrs	r3, r3, r2
 1236 0016 4B60     		str	r3, [r1, #4]
 555:Drivers/STM32H7xx_HAL_Driver/Src/stm32h7xx_hal.c **** }
 1237              		.loc 1 555 1
 1238 0018 00BF     		nop
 1239 001a 0C37     		adds	r7, r7, #12
 1240              	.LCFI93:
 1241              		.cfi_def_cfa_offset 4
 1242 001c BD46     		mov	sp, r7
 1243              	.LCFI94:
 1244              		.cfi_def_cfa_register 13
 1245              		@ sp needed
 1246 001e 5DF8047B 		ldr	r7, [sp], #4
 1247              	.LCFI95:
 1248              		.cfi_restore 7
 1249              		.cfi_def_cfa_offset 0
 1250 0022 7047     		bx	lr
 1251              	.L84:
 1252              		.align	2
 1253              	.L83:
 1254 0024 003C0058 		.word	1476410368
 1255              		.cfi_endproc
 1256              	.LFE165:
 1258              		.section	.text.HAL_SYSCFG_EnableVREFBUF,"ax",%progbits
 1259              		.align	1
 1260              		.global	HAL_SYSCFG_EnableVREFBUF
 1261              		.syntax unified
ARM GAS  /var/folders/g1/j12m_ky910s3_sv7d4yrsdn00000gn/T//ccvnHeju.s 			page 32


 1262              		.thumb
 1263              		.thumb_func
 1265              	HAL_SYSCFG_EnableVREFBUF:
 1266              	.LFB166:
 556:Drivers/STM32H7xx_HAL_Driver/Src/stm32h7xx_hal.c **** 
 557:Drivers/STM32H7xx_HAL_Driver/Src/stm32h7xx_hal.c **** /**
 558:Drivers/STM32H7xx_HAL_Driver/Src/stm32h7xx_hal.c ****   * @brief  Enable the Internal Voltage Reference buffer (VREFBUF).
 559:Drivers/STM32H7xx_HAL_Driver/Src/stm32h7xx_hal.c ****   * @retval HAL_OK/HAL_TIMEOUT
 560:Drivers/STM32H7xx_HAL_Driver/Src/stm32h7xx_hal.c ****   */
 561:Drivers/STM32H7xx_HAL_Driver/Src/stm32h7xx_hal.c **** HAL_StatusTypeDef HAL_SYSCFG_EnableVREFBUF(void)
 562:Drivers/STM32H7xx_HAL_Driver/Src/stm32h7xx_hal.c **** {
 1267              		.loc 1 562 1
 1268              		.cfi_startproc
 1269              		@ args = 0, pretend = 0, frame = 8
 1270              		@ frame_needed = 1, uses_anonymous_args = 0
 1271 0000 80B5     		push	{r7, lr}
 1272              	.LCFI96:
 1273              		.cfi_def_cfa_offset 8
 1274              		.cfi_offset 7, -8
 1275              		.cfi_offset 14, -4
 1276 0002 82B0     		sub	sp, sp, #8
 1277              	.LCFI97:
 1278              		.cfi_def_cfa_offset 16
 1279 0004 00AF     		add	r7, sp, #0
 1280              	.LCFI98:
 1281              		.cfi_def_cfa_register 7
 563:Drivers/STM32H7xx_HAL_Driver/Src/stm32h7xx_hal.c ****   uint32_t  tickstart;
 564:Drivers/STM32H7xx_HAL_Driver/Src/stm32h7xx_hal.c **** 
 565:Drivers/STM32H7xx_HAL_Driver/Src/stm32h7xx_hal.c ****   SET_BIT(VREFBUF->CSR, VREFBUF_CSR_ENVR);
 1282              		.loc 1 565 3
 1283 0006 0F4B     		ldr	r3, .L89
 1284 0008 1B68     		ldr	r3, [r3]
 1285 000a 0E4A     		ldr	r2, .L89
 1286 000c 43F00103 		orr	r3, r3, #1
 1287 0010 1360     		str	r3, [r2]
 566:Drivers/STM32H7xx_HAL_Driver/Src/stm32h7xx_hal.c **** 
 567:Drivers/STM32H7xx_HAL_Driver/Src/stm32h7xx_hal.c ****   /* Get Start Tick*/
 568:Drivers/STM32H7xx_HAL_Driver/Src/stm32h7xx_hal.c ****   tickstart = HAL_GetTick();
 1288              		.loc 1 568 15
 1289 0012 FFF7FEFF 		bl	HAL_GetTick
 1290 0016 7860     		str	r0, [r7, #4]
 569:Drivers/STM32H7xx_HAL_Driver/Src/stm32h7xx_hal.c **** 
 570:Drivers/STM32H7xx_HAL_Driver/Src/stm32h7xx_hal.c ****   /* Wait for VRR bit  */
 571:Drivers/STM32H7xx_HAL_Driver/Src/stm32h7xx_hal.c ****   while(READ_BIT(VREFBUF->CSR, VREFBUF_CSR_VRR) == 0UL)
 1291              		.loc 1 571 8
 1292 0018 08E0     		b	.L86
 1293              	.L88:
 572:Drivers/STM32H7xx_HAL_Driver/Src/stm32h7xx_hal.c ****   {
 573:Drivers/STM32H7xx_HAL_Driver/Src/stm32h7xx_hal.c ****     if((HAL_GetTick() - tickstart) > VREFBUF_TIMEOUT_VALUE)
 1294              		.loc 1 573 9
 1295 001a FFF7FEFF 		bl	HAL_GetTick
 1296 001e 0246     		mov	r2, r0
 1297              		.loc 1 573 23 discriminator 1
 1298 0020 7B68     		ldr	r3, [r7, #4]
 1299 0022 D31A     		subs	r3, r2, r3
 1300              		.loc 1 573 7 discriminator 1
 1301 0024 0A2B     		cmp	r3, #10
ARM GAS  /var/folders/g1/j12m_ky910s3_sv7d4yrsdn00000gn/T//ccvnHeju.s 			page 33


 1302 0026 01D9     		bls	.L86
 574:Drivers/STM32H7xx_HAL_Driver/Src/stm32h7xx_hal.c ****     {
 575:Drivers/STM32H7xx_HAL_Driver/Src/stm32h7xx_hal.c ****       return HAL_TIMEOUT;
 1303              		.loc 1 575 14
 1304 0028 0323     		movs	r3, #3
 1305 002a 06E0     		b	.L87
 1306              	.L86:
 571:Drivers/STM32H7xx_HAL_Driver/Src/stm32h7xx_hal.c ****   {
 1307              		.loc 1 571 9
 1308 002c 054B     		ldr	r3, .L89
 1309 002e 1B68     		ldr	r3, [r3]
 1310 0030 03F00803 		and	r3, r3, #8
 571:Drivers/STM32H7xx_HAL_Driver/Src/stm32h7xx_hal.c ****   {
 1311              		.loc 1 571 49
 1312 0034 002B     		cmp	r3, #0
 1313 0036 F0D0     		beq	.L88
 576:Drivers/STM32H7xx_HAL_Driver/Src/stm32h7xx_hal.c ****     }
 577:Drivers/STM32H7xx_HAL_Driver/Src/stm32h7xx_hal.c ****   }
 578:Drivers/STM32H7xx_HAL_Driver/Src/stm32h7xx_hal.c **** 
 579:Drivers/STM32H7xx_HAL_Driver/Src/stm32h7xx_hal.c ****   return HAL_OK;
 1314              		.loc 1 579 10
 1315 0038 0023     		movs	r3, #0
 1316              	.L87:
 580:Drivers/STM32H7xx_HAL_Driver/Src/stm32h7xx_hal.c **** }
 1317              		.loc 1 580 1
 1318 003a 1846     		mov	r0, r3
 1319 003c 0837     		adds	r7, r7, #8
 1320              	.LCFI99:
 1321              		.cfi_def_cfa_offset 8
 1322 003e BD46     		mov	sp, r7
 1323              	.LCFI100:
 1324              		.cfi_def_cfa_register 13
 1325              		@ sp needed
 1326 0040 80BD     		pop	{r7, pc}
 1327              	.L90:
 1328 0042 00BF     		.align	2
 1329              	.L89:
 1330 0044 003C0058 		.word	1476410368
 1331              		.cfi_endproc
 1332              	.LFE166:
 1334              		.section	.text.HAL_SYSCFG_DisableVREFBUF,"ax",%progbits
 1335              		.align	1
 1336              		.global	HAL_SYSCFG_DisableVREFBUF
 1337              		.syntax unified
 1338              		.thumb
 1339              		.thumb_func
 1341              	HAL_SYSCFG_DisableVREFBUF:
 1342              	.LFB167:
 581:Drivers/STM32H7xx_HAL_Driver/Src/stm32h7xx_hal.c **** 
 582:Drivers/STM32H7xx_HAL_Driver/Src/stm32h7xx_hal.c **** /**
 583:Drivers/STM32H7xx_HAL_Driver/Src/stm32h7xx_hal.c ****   * @brief  Disable the Internal Voltage Reference buffer (VREFBUF).
 584:Drivers/STM32H7xx_HAL_Driver/Src/stm32h7xx_hal.c ****   *
 585:Drivers/STM32H7xx_HAL_Driver/Src/stm32h7xx_hal.c ****   * @retval None
 586:Drivers/STM32H7xx_HAL_Driver/Src/stm32h7xx_hal.c ****   */
 587:Drivers/STM32H7xx_HAL_Driver/Src/stm32h7xx_hal.c **** void HAL_SYSCFG_DisableVREFBUF(void)
 588:Drivers/STM32H7xx_HAL_Driver/Src/stm32h7xx_hal.c **** {
 1343              		.loc 1 588 1
ARM GAS  /var/folders/g1/j12m_ky910s3_sv7d4yrsdn00000gn/T//ccvnHeju.s 			page 34


 1344              		.cfi_startproc
 1345              		@ args = 0, pretend = 0, frame = 0
 1346              		@ frame_needed = 1, uses_anonymous_args = 0
 1347              		@ link register save eliminated.
 1348 0000 80B4     		push	{r7}
 1349              	.LCFI101:
 1350              		.cfi_def_cfa_offset 4
 1351              		.cfi_offset 7, -4
 1352 0002 00AF     		add	r7, sp, #0
 1353              	.LCFI102:
 1354              		.cfi_def_cfa_register 7
 589:Drivers/STM32H7xx_HAL_Driver/Src/stm32h7xx_hal.c ****   CLEAR_BIT(VREFBUF->CSR, VREFBUF_CSR_ENVR);
 1355              		.loc 1 589 3
 1356 0004 054B     		ldr	r3, .L92
 1357 0006 1B68     		ldr	r3, [r3]
 1358 0008 044A     		ldr	r2, .L92
 1359 000a 23F00103 		bic	r3, r3, #1
 1360 000e 1360     		str	r3, [r2]
 590:Drivers/STM32H7xx_HAL_Driver/Src/stm32h7xx_hal.c **** }
 1361              		.loc 1 590 1
 1362 0010 00BF     		nop
 1363 0012 BD46     		mov	sp, r7
 1364              	.LCFI103:
 1365              		.cfi_def_cfa_register 13
 1366              		@ sp needed
 1367 0014 5DF8047B 		ldr	r7, [sp], #4
 1368              	.LCFI104:
 1369              		.cfi_restore 7
 1370              		.cfi_def_cfa_offset 0
 1371 0018 7047     		bx	lr
 1372              	.L93:
 1373 001a 00BF     		.align	2
 1374              	.L92:
 1375 001c 003C0058 		.word	1476410368
 1376              		.cfi_endproc
 1377              	.LFE167:
 1379              		.section	.text.HAL_SYSCFG_ETHInterfaceSelect,"ax",%progbits
 1380              		.align	1
 1381              		.global	HAL_SYSCFG_ETHInterfaceSelect
 1382              		.syntax unified
 1383              		.thumb
 1384              		.thumb_func
 1386              	HAL_SYSCFG_ETHInterfaceSelect:
 1387              	.LFB168:
 591:Drivers/STM32H7xx_HAL_Driver/Src/stm32h7xx_hal.c **** 
 592:Drivers/STM32H7xx_HAL_Driver/Src/stm32h7xx_hal.c **** #if defined(SYSCFG_PMCR_EPIS_SEL)
 593:Drivers/STM32H7xx_HAL_Driver/Src/stm32h7xx_hal.c **** /**
 594:Drivers/STM32H7xx_HAL_Driver/Src/stm32h7xx_hal.c ****   * @brief  Ethernet PHY Interface Selection either MII or RMII
 595:Drivers/STM32H7xx_HAL_Driver/Src/stm32h7xx_hal.c ****   * @param  SYSCFG_ETHInterface: Selects the Ethernet PHY interface
 596:Drivers/STM32H7xx_HAL_Driver/Src/stm32h7xx_hal.c ****   *   This parameter can be one of the following values:
 597:Drivers/STM32H7xx_HAL_Driver/Src/stm32h7xx_hal.c ****   *   @arg SYSCFG_ETH_MII : Select the Media Independent Interface
 598:Drivers/STM32H7xx_HAL_Driver/Src/stm32h7xx_hal.c ****   *   @arg SYSCFG_ETH_RMII: Select the Reduced Media Independent Interface
 599:Drivers/STM32H7xx_HAL_Driver/Src/stm32h7xx_hal.c ****   * @retval None
 600:Drivers/STM32H7xx_HAL_Driver/Src/stm32h7xx_hal.c ****   */
 601:Drivers/STM32H7xx_HAL_Driver/Src/stm32h7xx_hal.c **** void HAL_SYSCFG_ETHInterfaceSelect(uint32_t SYSCFG_ETHInterface)
 602:Drivers/STM32H7xx_HAL_Driver/Src/stm32h7xx_hal.c **** {
 1388              		.loc 1 602 1
ARM GAS  /var/folders/g1/j12m_ky910s3_sv7d4yrsdn00000gn/T//ccvnHeju.s 			page 35


 1389              		.cfi_startproc
 1390              		@ args = 0, pretend = 0, frame = 8
 1391              		@ frame_needed = 1, uses_anonymous_args = 0
 1392              		@ link register save eliminated.
 1393 0000 80B4     		push	{r7}
 1394              	.LCFI105:
 1395              		.cfi_def_cfa_offset 4
 1396              		.cfi_offset 7, -4
 1397 0002 83B0     		sub	sp, sp, #12
 1398              	.LCFI106:
 1399              		.cfi_def_cfa_offset 16
 1400 0004 00AF     		add	r7, sp, #0
 1401              	.LCFI107:
 1402              		.cfi_def_cfa_register 7
 1403 0006 7860     		str	r0, [r7, #4]
 603:Drivers/STM32H7xx_HAL_Driver/Src/stm32h7xx_hal.c ****   /* Check the parameter */
 604:Drivers/STM32H7xx_HAL_Driver/Src/stm32h7xx_hal.c ****   assert_param(IS_SYSCFG_ETHERNET_CONFIG(SYSCFG_ETHInterface));
 605:Drivers/STM32H7xx_HAL_Driver/Src/stm32h7xx_hal.c **** 
 606:Drivers/STM32H7xx_HAL_Driver/Src/stm32h7xx_hal.c ****   MODIFY_REG(SYSCFG->PMCR, SYSCFG_PMCR_EPIS_SEL, (uint32_t)(SYSCFG_ETHInterface));
 1404              		.loc 1 606 3
 1405 0008 064B     		ldr	r3, .L95
 1406 000a 5B68     		ldr	r3, [r3, #4]
 1407 000c 23F46002 		bic	r2, r3, #14680064
 1408 0010 0449     		ldr	r1, .L95
 1409 0012 7B68     		ldr	r3, [r7, #4]
 1410 0014 1343     		orrs	r3, r3, r2
 1411 0016 4B60     		str	r3, [r1, #4]
 607:Drivers/STM32H7xx_HAL_Driver/Src/stm32h7xx_hal.c **** }
 1412              		.loc 1 607 1
 1413 0018 00BF     		nop
 1414 001a 0C37     		adds	r7, r7, #12
 1415              	.LCFI108:
 1416              		.cfi_def_cfa_offset 4
 1417 001c BD46     		mov	sp, r7
 1418              	.LCFI109:
 1419              		.cfi_def_cfa_register 13
 1420              		@ sp needed
 1421 001e 5DF8047B 		ldr	r7, [sp], #4
 1422              	.LCFI110:
 1423              		.cfi_restore 7
 1424              		.cfi_def_cfa_offset 0
 1425 0022 7047     		bx	lr
 1426              	.L96:
 1427              		.align	2
 1428              	.L95:
 1429 0024 00040058 		.word	1476396032
 1430              		.cfi_endproc
 1431              	.LFE168:
 1433              		.section	.text.HAL_SYSCFG_AnalogSwitchConfig,"ax",%progbits
 1434              		.align	1
 1435              		.global	HAL_SYSCFG_AnalogSwitchConfig
 1436              		.syntax unified
 1437              		.thumb
 1438              		.thumb_func
 1440              	HAL_SYSCFG_AnalogSwitchConfig:
 1441              	.LFB169:
 608:Drivers/STM32H7xx_HAL_Driver/Src/stm32h7xx_hal.c **** #endif /* SYSCFG_PMCR_EPIS_SEL */
ARM GAS  /var/folders/g1/j12m_ky910s3_sv7d4yrsdn00000gn/T//ccvnHeju.s 			page 36


 609:Drivers/STM32H7xx_HAL_Driver/Src/stm32h7xx_hal.c **** 
 610:Drivers/STM32H7xx_HAL_Driver/Src/stm32h7xx_hal.c **** /**
 611:Drivers/STM32H7xx_HAL_Driver/Src/stm32h7xx_hal.c ****   * @brief  Analog Switch control for dual analog pads.
 612:Drivers/STM32H7xx_HAL_Driver/Src/stm32h7xx_hal.c ****   * @param  SYSCFG_AnalogSwitch: Selects the analog pad
 613:Drivers/STM32H7xx_HAL_Driver/Src/stm32h7xx_hal.c ****   *   This parameter can be one or a combination of the following values:
 614:Drivers/STM32H7xx_HAL_Driver/Src/stm32h7xx_hal.c ****   *   @arg SYSCFG_SWITCH_PA0 : Select PA0 analog switch
 615:Drivers/STM32H7xx_HAL_Driver/Src/stm32h7xx_hal.c ****   *   @arg SYSCFG_SWITCH_PA1:  Select PA1 analog switch
 616:Drivers/STM32H7xx_HAL_Driver/Src/stm32h7xx_hal.c ****   *   @arg SYSCFG_SWITCH_PC2 : Select PC2 analog switch
 617:Drivers/STM32H7xx_HAL_Driver/Src/stm32h7xx_hal.c ****   *   @arg SYSCFG_SWITCH_PC3:  Select PC3 analog switch
 618:Drivers/STM32H7xx_HAL_Driver/Src/stm32h7xx_hal.c ****   * @param  SYSCFG_SwitchState: Open or Close the analog switch between dual pads (PXn and PXn_C)
 619:Drivers/STM32H7xx_HAL_Driver/Src/stm32h7xx_hal.c ****   *   This parameter can be one or a combination of the following values:
 620:Drivers/STM32H7xx_HAL_Driver/Src/stm32h7xx_hal.c ****   *   @arg SYSCFG_SWITCH_PA0_OPEN
 621:Drivers/STM32H7xx_HAL_Driver/Src/stm32h7xx_hal.c ****   *   @arg SYSCFG_SWITCH_PA0_CLOSE
 622:Drivers/STM32H7xx_HAL_Driver/Src/stm32h7xx_hal.c ****   *   @arg SYSCFG_SWITCH_PA1_OPEN
 623:Drivers/STM32H7xx_HAL_Driver/Src/stm32h7xx_hal.c ****   *   @arg SYSCFG_SWITCH_PA1_CLOSE
 624:Drivers/STM32H7xx_HAL_Driver/Src/stm32h7xx_hal.c ****   *   @arg SYSCFG_SWITCH_PC2_OPEN
 625:Drivers/STM32H7xx_HAL_Driver/Src/stm32h7xx_hal.c ****   *   @arg SYSCFG_SWITCH_PC2_CLOSE
 626:Drivers/STM32H7xx_HAL_Driver/Src/stm32h7xx_hal.c ****   *   @arg SYSCFG_SWITCH_PC3_OPEN
 627:Drivers/STM32H7xx_HAL_Driver/Src/stm32h7xx_hal.c ****   *   @arg SYSCFG_SWITCH_PC3_CLOSE
 628:Drivers/STM32H7xx_HAL_Driver/Src/stm32h7xx_hal.c ****   * @retval None
 629:Drivers/STM32H7xx_HAL_Driver/Src/stm32h7xx_hal.c ****   */
 630:Drivers/STM32H7xx_HAL_Driver/Src/stm32h7xx_hal.c **** 
 631:Drivers/STM32H7xx_HAL_Driver/Src/stm32h7xx_hal.c **** void HAL_SYSCFG_AnalogSwitchConfig(uint32_t SYSCFG_AnalogSwitch , uint32_t SYSCFG_SwitchState )
 632:Drivers/STM32H7xx_HAL_Driver/Src/stm32h7xx_hal.c **** {
 1442              		.loc 1 632 1
 1443              		.cfi_startproc
 1444              		@ args = 0, pretend = 0, frame = 8
 1445              		@ frame_needed = 1, uses_anonymous_args = 0
 1446              		@ link register save eliminated.
 1447 0000 80B4     		push	{r7}
 1448              	.LCFI111:
 1449              		.cfi_def_cfa_offset 4
 1450              		.cfi_offset 7, -4
 1451 0002 83B0     		sub	sp, sp, #12
 1452              	.LCFI112:
 1453              		.cfi_def_cfa_offset 16
 1454 0004 00AF     		add	r7, sp, #0
 1455              	.LCFI113:
 1456              		.cfi_def_cfa_register 7
 1457 0006 7860     		str	r0, [r7, #4]
 1458 0008 3960     		str	r1, [r7]
 633:Drivers/STM32H7xx_HAL_Driver/Src/stm32h7xx_hal.c ****   /* Check the parameter */
 634:Drivers/STM32H7xx_HAL_Driver/Src/stm32h7xx_hal.c ****   assert_param(IS_SYSCFG_ANALOG_SWITCH(SYSCFG_AnalogSwitch));
 635:Drivers/STM32H7xx_HAL_Driver/Src/stm32h7xx_hal.c ****   assert_param(IS_SYSCFG_SWITCH_STATE(SYSCFG_SwitchState));
 636:Drivers/STM32H7xx_HAL_Driver/Src/stm32h7xx_hal.c **** 
 637:Drivers/STM32H7xx_HAL_Driver/Src/stm32h7xx_hal.c ****   MODIFY_REG(SYSCFG->PMCR, (uint32_t) SYSCFG_AnalogSwitch, (uint32_t)(SYSCFG_SwitchState));
 1459              		.loc 1 637 3
 1460 000a 074B     		ldr	r3, .L98
 1461 000c 5A68     		ldr	r2, [r3, #4]
 1462 000e 7B68     		ldr	r3, [r7, #4]
 1463 0010 DB43     		mvns	r3, r3
 1464 0012 1A40     		ands	r2, r2, r3
 1465 0014 0449     		ldr	r1, .L98
 1466 0016 3B68     		ldr	r3, [r7]
 1467 0018 1343     		orrs	r3, r3, r2
 1468 001a 4B60     		str	r3, [r1, #4]
 638:Drivers/STM32H7xx_HAL_Driver/Src/stm32h7xx_hal.c **** }
ARM GAS  /var/folders/g1/j12m_ky910s3_sv7d4yrsdn00000gn/T//ccvnHeju.s 			page 37


 1469              		.loc 1 638 1
 1470 001c 00BF     		nop
 1471 001e 0C37     		adds	r7, r7, #12
 1472              	.LCFI114:
 1473              		.cfi_def_cfa_offset 4
 1474 0020 BD46     		mov	sp, r7
 1475              	.LCFI115:
 1476              		.cfi_def_cfa_register 13
 1477              		@ sp needed
 1478 0022 5DF8047B 		ldr	r7, [sp], #4
 1479              	.LCFI116:
 1480              		.cfi_restore 7
 1481              		.cfi_def_cfa_offset 0
 1482 0026 7047     		bx	lr
 1483              	.L99:
 1484              		.align	2
 1485              	.L98:
 1486 0028 00040058 		.word	1476396032
 1487              		.cfi_endproc
 1488              	.LFE169:
 1490              		.section	.text.HAL_SYSCFG_EnableBOOST,"ax",%progbits
 1491              		.align	1
 1492              		.global	HAL_SYSCFG_EnableBOOST
 1493              		.syntax unified
 1494              		.thumb
 1495              		.thumb_func
 1497              	HAL_SYSCFG_EnableBOOST:
 1498              	.LFB170:
 639:Drivers/STM32H7xx_HAL_Driver/Src/stm32h7xx_hal.c **** 
 640:Drivers/STM32H7xx_HAL_Driver/Src/stm32h7xx_hal.c **** #if defined(SYSCFG_PMCR_BOOSTEN)
 641:Drivers/STM32H7xx_HAL_Driver/Src/stm32h7xx_hal.c **** /**
 642:Drivers/STM32H7xx_HAL_Driver/Src/stm32h7xx_hal.c ****   * @brief  Enables the booster to reduce the total harmonic distortion of the analog
 643:Drivers/STM32H7xx_HAL_Driver/Src/stm32h7xx_hal.c ****   *         switch when the supply voltage is lower than 2.7 V.
 644:Drivers/STM32H7xx_HAL_Driver/Src/stm32h7xx_hal.c ****   * @note   Activating the booster allows to guaranty the analog switch AC performance
 645:Drivers/STM32H7xx_HAL_Driver/Src/stm32h7xx_hal.c ****   *         when the supply voltage is below 2.7 V: in this case, the analog switch
 646:Drivers/STM32H7xx_HAL_Driver/Src/stm32h7xx_hal.c ****   *         performance is the same on the full voltage range
 647:Drivers/STM32H7xx_HAL_Driver/Src/stm32h7xx_hal.c ****   * @retval None
 648:Drivers/STM32H7xx_HAL_Driver/Src/stm32h7xx_hal.c ****   */
 649:Drivers/STM32H7xx_HAL_Driver/Src/stm32h7xx_hal.c **** void HAL_SYSCFG_EnableBOOST(void)
 650:Drivers/STM32H7xx_HAL_Driver/Src/stm32h7xx_hal.c **** {
 1499              		.loc 1 650 1
 1500              		.cfi_startproc
 1501              		@ args = 0, pretend = 0, frame = 0
 1502              		@ frame_needed = 1, uses_anonymous_args = 0
 1503              		@ link register save eliminated.
 1504 0000 80B4     		push	{r7}
 1505              	.LCFI117:
 1506              		.cfi_def_cfa_offset 4
 1507              		.cfi_offset 7, -4
 1508 0002 00AF     		add	r7, sp, #0
 1509              	.LCFI118:
 1510              		.cfi_def_cfa_register 7
 651:Drivers/STM32H7xx_HAL_Driver/Src/stm32h7xx_hal.c ****  SET_BIT(SYSCFG->PMCR, SYSCFG_PMCR_BOOSTEN) ;
 1511              		.loc 1 651 2
 1512 0004 054B     		ldr	r3, .L101
 1513 0006 5B68     		ldr	r3, [r3, #4]
 1514 0008 044A     		ldr	r2, .L101
ARM GAS  /var/folders/g1/j12m_ky910s3_sv7d4yrsdn00000gn/T//ccvnHeju.s 			page 38


 1515 000a 43F48073 		orr	r3, r3, #256
 1516 000e 5360     		str	r3, [r2, #4]
 652:Drivers/STM32H7xx_HAL_Driver/Src/stm32h7xx_hal.c **** }
 1517              		.loc 1 652 1
 1518 0010 00BF     		nop
 1519 0012 BD46     		mov	sp, r7
 1520              	.LCFI119:
 1521              		.cfi_def_cfa_register 13
 1522              		@ sp needed
 1523 0014 5DF8047B 		ldr	r7, [sp], #4
 1524              	.LCFI120:
 1525              		.cfi_restore 7
 1526              		.cfi_def_cfa_offset 0
 1527 0018 7047     		bx	lr
 1528              	.L102:
 1529 001a 00BF     		.align	2
 1530              	.L101:
 1531 001c 00040058 		.word	1476396032
 1532              		.cfi_endproc
 1533              	.LFE170:
 1535              		.section	.text.HAL_SYSCFG_DisableBOOST,"ax",%progbits
 1536              		.align	1
 1537              		.global	HAL_SYSCFG_DisableBOOST
 1538              		.syntax unified
 1539              		.thumb
 1540              		.thumb_func
 1542              	HAL_SYSCFG_DisableBOOST:
 1543              	.LFB171:
 653:Drivers/STM32H7xx_HAL_Driver/Src/stm32h7xx_hal.c **** 
 654:Drivers/STM32H7xx_HAL_Driver/Src/stm32h7xx_hal.c **** /**
 655:Drivers/STM32H7xx_HAL_Driver/Src/stm32h7xx_hal.c ****   * @brief  Disables the booster
 656:Drivers/STM32H7xx_HAL_Driver/Src/stm32h7xx_hal.c ****   * @note   Activating the booster allows to guaranty the analog switch AC performance
 657:Drivers/STM32H7xx_HAL_Driver/Src/stm32h7xx_hal.c ****   *         when the supply voltage is below 2.7 V: in this case, the analog switch
 658:Drivers/STM32H7xx_HAL_Driver/Src/stm32h7xx_hal.c ****   *         performance is the same on the full voltage range
 659:Drivers/STM32H7xx_HAL_Driver/Src/stm32h7xx_hal.c ****   * @retval None
 660:Drivers/STM32H7xx_HAL_Driver/Src/stm32h7xx_hal.c ****   */
 661:Drivers/STM32H7xx_HAL_Driver/Src/stm32h7xx_hal.c **** void HAL_SYSCFG_DisableBOOST(void)
 662:Drivers/STM32H7xx_HAL_Driver/Src/stm32h7xx_hal.c **** {
 1544              		.loc 1 662 1
 1545              		.cfi_startproc
 1546              		@ args = 0, pretend = 0, frame = 0
 1547              		@ frame_needed = 1, uses_anonymous_args = 0
 1548              		@ link register save eliminated.
 1549 0000 80B4     		push	{r7}
 1550              	.LCFI121:
 1551              		.cfi_def_cfa_offset 4
 1552              		.cfi_offset 7, -4
 1553 0002 00AF     		add	r7, sp, #0
 1554              	.LCFI122:
 1555              		.cfi_def_cfa_register 7
 663:Drivers/STM32H7xx_HAL_Driver/Src/stm32h7xx_hal.c ****  CLEAR_BIT(SYSCFG->PMCR, SYSCFG_PMCR_BOOSTEN) ;
 1556              		.loc 1 663 2
 1557 0004 054B     		ldr	r3, .L104
 1558 0006 5B68     		ldr	r3, [r3, #4]
 1559 0008 044A     		ldr	r2, .L104
 1560 000a 23F48073 		bic	r3, r3, #256
 1561 000e 5360     		str	r3, [r2, #4]
ARM GAS  /var/folders/g1/j12m_ky910s3_sv7d4yrsdn00000gn/T//ccvnHeju.s 			page 39


 664:Drivers/STM32H7xx_HAL_Driver/Src/stm32h7xx_hal.c **** }
 1562              		.loc 1 664 1
 1563 0010 00BF     		nop
 1564 0012 BD46     		mov	sp, r7
 1565              	.LCFI123:
 1566              		.cfi_def_cfa_register 13
 1567              		@ sp needed
 1568 0014 5DF8047B 		ldr	r7, [sp], #4
 1569              	.LCFI124:
 1570              		.cfi_restore 7
 1571              		.cfi_def_cfa_offset 0
 1572 0018 7047     		bx	lr
 1573              	.L105:
 1574 001a 00BF     		.align	2
 1575              	.L104:
 1576 001c 00040058 		.word	1476396032
 1577              		.cfi_endproc
 1578              	.LFE171:
 1580              		.section	.text.HAL_SYSCFG_CM7BootAddConfig,"ax",%progbits
 1581              		.align	1
 1582              		.global	HAL_SYSCFG_CM7BootAddConfig
 1583              		.syntax unified
 1584              		.thumb
 1585              		.thumb_func
 1587              	HAL_SYSCFG_CM7BootAddConfig:
 1588              	.LFB172:
 665:Drivers/STM32H7xx_HAL_Driver/Src/stm32h7xx_hal.c **** #endif /* SYSCFG_PMCR_BOOSTEN */
 666:Drivers/STM32H7xx_HAL_Driver/Src/stm32h7xx_hal.c **** 
 667:Drivers/STM32H7xx_HAL_Driver/Src/stm32h7xx_hal.c **** #if defined (SYSCFG_UR2_BOOT_ADD0) ||  defined (SYSCFG_UR2_BCM7_ADD0)
 668:Drivers/STM32H7xx_HAL_Driver/Src/stm32h7xx_hal.c **** /**
 669:Drivers/STM32H7xx_HAL_Driver/Src/stm32h7xx_hal.c ****   * @brief  BootCM7 address 0 configuration
 670:Drivers/STM32H7xx_HAL_Driver/Src/stm32h7xx_hal.c ****   * @param  BootRegister :Specifies the Boot Address register (Address0 or Address1)
 671:Drivers/STM32H7xx_HAL_Driver/Src/stm32h7xx_hal.c ****   *   This parameter can be one of the following values:
 672:Drivers/STM32H7xx_HAL_Driver/Src/stm32h7xx_hal.c ****   *   @arg SYSCFG_BOOT_ADDR0 : Select the boot address0
 673:Drivers/STM32H7xx_HAL_Driver/Src/stm32h7xx_hal.c ****   *   @arg SYSCFG_BOOT_ADDR1:  Select the boot address1
 674:Drivers/STM32H7xx_HAL_Driver/Src/stm32h7xx_hal.c ****   * @param  BootAddress :Specifies the CM7 Boot Address to be loaded in Address0 or Address1
 675:Drivers/STM32H7xx_HAL_Driver/Src/stm32h7xx_hal.c ****   * @retval None
 676:Drivers/STM32H7xx_HAL_Driver/Src/stm32h7xx_hal.c ****   */
 677:Drivers/STM32H7xx_HAL_Driver/Src/stm32h7xx_hal.c **** void HAL_SYSCFG_CM7BootAddConfig(uint32_t BootRegister, uint32_t BootAddress)
 678:Drivers/STM32H7xx_HAL_Driver/Src/stm32h7xx_hal.c **** {
 1589              		.loc 1 678 1
 1590              		.cfi_startproc
 1591              		@ args = 0, pretend = 0, frame = 8
 1592              		@ frame_needed = 1, uses_anonymous_args = 0
 1593              		@ link register save eliminated.
 1594 0000 80B4     		push	{r7}
 1595              	.LCFI125:
 1596              		.cfi_def_cfa_offset 4
 1597              		.cfi_offset 7, -4
 1598 0002 83B0     		sub	sp, sp, #12
 1599              	.LCFI126:
 1600              		.cfi_def_cfa_offset 16
 1601 0004 00AF     		add	r7, sp, #0
 1602              	.LCFI127:
 1603              		.cfi_def_cfa_register 7
 1604 0006 7860     		str	r0, [r7, #4]
 1605 0008 3960     		str	r1, [r7]
ARM GAS  /var/folders/g1/j12m_ky910s3_sv7d4yrsdn00000gn/T//ccvnHeju.s 			page 40


 679:Drivers/STM32H7xx_HAL_Driver/Src/stm32h7xx_hal.c ****   /* Check the parameters */
 680:Drivers/STM32H7xx_HAL_Driver/Src/stm32h7xx_hal.c ****   assert_param(IS_SYSCFG_BOOT_REGISTER(BootRegister));
 681:Drivers/STM32H7xx_HAL_Driver/Src/stm32h7xx_hal.c ****   assert_param(IS_SYSCFG_BOOT_ADDRESS(BootAddress));
 682:Drivers/STM32H7xx_HAL_Driver/Src/stm32h7xx_hal.c ****   if ( BootRegister == SYSCFG_BOOT_ADDR0 )
 1606              		.loc 1 682 6
 1607 000a 7B68     		ldr	r3, [r7, #4]
 1608 000c 002B     		cmp	r3, #0
 1609 000e 0BD1     		bne	.L107
 683:Drivers/STM32H7xx_HAL_Driver/Src/stm32h7xx_hal.c ****   {
 684:Drivers/STM32H7xx_HAL_Driver/Src/stm32h7xx_hal.c ****     /* Configure CM7 BOOT ADD0 */
 685:Drivers/STM32H7xx_HAL_Driver/Src/stm32h7xx_hal.c **** #if defined(DUAL_CORE)
 686:Drivers/STM32H7xx_HAL_Driver/Src/stm32h7xx_hal.c ****     MODIFY_REG(SYSCFG->UR2, SYSCFG_UR2_BCM7_ADD0, ((BootAddress >> 16) << SYSCFG_UR2_BCM7_ADD0_Pos)
 687:Drivers/STM32H7xx_HAL_Driver/Src/stm32h7xx_hal.c **** #else
 688:Drivers/STM32H7xx_HAL_Driver/Src/stm32h7xx_hal.c ****     MODIFY_REG(SYSCFG->UR2, SYSCFG_UR2_BOOT_ADD0, ((BootAddress >> 16) << SYSCFG_UR2_BOOT_ADD0_Pos)
 1610              		.loc 1 688 5
 1611 0010 0E4B     		ldr	r3, .L110
 1612 0012 D3F80833 		ldr	r3, [r3, #776]
 1613 0016 9AB2     		uxth	r2, r3
 1614 0018 3B68     		ldr	r3, [r7]
 1615 001a 1B0C     		lsrs	r3, r3, #16
 1616 001c 1B04     		lsls	r3, r3, #16
 1617 001e 0B49     		ldr	r1, .L110
 1618 0020 1343     		orrs	r3, r3, r2
 1619 0022 C1F80833 		str	r3, [r1, #776]
 689:Drivers/STM32H7xx_HAL_Driver/Src/stm32h7xx_hal.c **** #endif /*DUAL_CORE*/
 690:Drivers/STM32H7xx_HAL_Driver/Src/stm32h7xx_hal.c ****   }
 691:Drivers/STM32H7xx_HAL_Driver/Src/stm32h7xx_hal.c ****   else
 692:Drivers/STM32H7xx_HAL_Driver/Src/stm32h7xx_hal.c ****   {
 693:Drivers/STM32H7xx_HAL_Driver/Src/stm32h7xx_hal.c ****     /* Configure CM7 BOOT ADD1 */
 694:Drivers/STM32H7xx_HAL_Driver/Src/stm32h7xx_hal.c **** #if defined(DUAL_CORE)
 695:Drivers/STM32H7xx_HAL_Driver/Src/stm32h7xx_hal.c ****     MODIFY_REG(SYSCFG->UR3, SYSCFG_UR3_BCM7_ADD1, (BootAddress >> 16));
 696:Drivers/STM32H7xx_HAL_Driver/Src/stm32h7xx_hal.c **** #else
 697:Drivers/STM32H7xx_HAL_Driver/Src/stm32h7xx_hal.c ****     MODIFY_REG(SYSCFG->UR3, SYSCFG_UR3_BOOT_ADD1, (BootAddress >> 16));
 698:Drivers/STM32H7xx_HAL_Driver/Src/stm32h7xx_hal.c **** #endif /*DUAL_CORE*/
 699:Drivers/STM32H7xx_HAL_Driver/Src/stm32h7xx_hal.c ****   }
 700:Drivers/STM32H7xx_HAL_Driver/Src/stm32h7xx_hal.c **** }
 1620              		.loc 1 700 1
 1621 0026 0AE0     		b	.L109
 1622              	.L107:
 697:Drivers/STM32H7xx_HAL_Driver/Src/stm32h7xx_hal.c **** #endif /*DUAL_CORE*/
 1623              		.loc 1 697 5
 1624 0028 084B     		ldr	r3, .L110
 1625 002a D3F80C23 		ldr	r2, [r3, #780]
 1626 002e 084B     		ldr	r3, .L110+4
 1627 0030 1340     		ands	r3, r3, r2
 1628 0032 3A68     		ldr	r2, [r7]
 1629 0034 120C     		lsrs	r2, r2, #16
 1630 0036 0549     		ldr	r1, .L110
 1631 0038 1343     		orrs	r3, r3, r2
 1632 003a C1F80C33 		str	r3, [r1, #780]
 1633              	.L109:
 1634              		.loc 1 700 1
 1635 003e 00BF     		nop
 1636 0040 0C37     		adds	r7, r7, #12
 1637              	.LCFI128:
 1638              		.cfi_def_cfa_offset 4
 1639 0042 BD46     		mov	sp, r7
ARM GAS  /var/folders/g1/j12m_ky910s3_sv7d4yrsdn00000gn/T//ccvnHeju.s 			page 41


 1640              	.LCFI129:
 1641              		.cfi_def_cfa_register 13
 1642              		@ sp needed
 1643 0044 5DF8047B 		ldr	r7, [sp], #4
 1644              	.LCFI130:
 1645              		.cfi_restore 7
 1646              		.cfi_def_cfa_offset 0
 1647 0048 7047     		bx	lr
 1648              	.L111:
 1649 004a 00BF     		.align	2
 1650              	.L110:
 1651 004c 00040058 		.word	1476396032
 1652 0050 0000FFFF 		.word	-65536
 1653              		.cfi_endproc
 1654              	.LFE172:
 1656              		.section	.text.HAL_EnableCompensationCell,"ax",%progbits
 1657              		.align	1
 1658              		.global	HAL_EnableCompensationCell
 1659              		.syntax unified
 1660              		.thumb
 1661              		.thumb_func
 1663              	HAL_EnableCompensationCell:
 1664              	.LFB173:
 701:Drivers/STM32H7xx_HAL_Driver/Src/stm32h7xx_hal.c **** #endif /* SYSCFG_UR2_BOOT_ADD0 || SYSCFG_UR2_BCM7_ADD0 */
 702:Drivers/STM32H7xx_HAL_Driver/Src/stm32h7xx_hal.c **** 
 703:Drivers/STM32H7xx_HAL_Driver/Src/stm32h7xx_hal.c **** #if defined(DUAL_CORE)
 704:Drivers/STM32H7xx_HAL_Driver/Src/stm32h7xx_hal.c **** /**
 705:Drivers/STM32H7xx_HAL_Driver/Src/stm32h7xx_hal.c ****   * @brief  BootCM4 address 0 configuration
 706:Drivers/STM32H7xx_HAL_Driver/Src/stm32h7xx_hal.c ****   * @param  BootRegister :Specifies the Boot Address register (Address0 or Address1)
 707:Drivers/STM32H7xx_HAL_Driver/Src/stm32h7xx_hal.c ****   *   This parameter can be one of the following values:
 708:Drivers/STM32H7xx_HAL_Driver/Src/stm32h7xx_hal.c ****   *   @arg SYSCFG_BOOT_ADDR0 : Select the boot address0
 709:Drivers/STM32H7xx_HAL_Driver/Src/stm32h7xx_hal.c ****   *   @arg SYSCFG_BOOT_ADDR1:  Select the boot address1
 710:Drivers/STM32H7xx_HAL_Driver/Src/stm32h7xx_hal.c ****   * @param  BootAddress :Specifies the CM4 Boot Address to be loaded in Address0 or Address1
 711:Drivers/STM32H7xx_HAL_Driver/Src/stm32h7xx_hal.c ****   * @retval None
 712:Drivers/STM32H7xx_HAL_Driver/Src/stm32h7xx_hal.c ****   */
 713:Drivers/STM32H7xx_HAL_Driver/Src/stm32h7xx_hal.c **** void HAL_SYSCFG_CM4BootAddConfig(uint32_t BootRegister, uint32_t BootAddress)
 714:Drivers/STM32H7xx_HAL_Driver/Src/stm32h7xx_hal.c **** {
 715:Drivers/STM32H7xx_HAL_Driver/Src/stm32h7xx_hal.c ****   /* Check the parameters */
 716:Drivers/STM32H7xx_HAL_Driver/Src/stm32h7xx_hal.c ****   assert_param(IS_SYSCFG_BOOT_REGISTER(BootRegister));
 717:Drivers/STM32H7xx_HAL_Driver/Src/stm32h7xx_hal.c ****   assert_param(IS_SYSCFG_BOOT_ADDRESS(BootAddress));
 718:Drivers/STM32H7xx_HAL_Driver/Src/stm32h7xx_hal.c **** 
 719:Drivers/STM32H7xx_HAL_Driver/Src/stm32h7xx_hal.c ****   if ( BootRegister == SYSCFG_BOOT_ADDR0 )
 720:Drivers/STM32H7xx_HAL_Driver/Src/stm32h7xx_hal.c ****   {
 721:Drivers/STM32H7xx_HAL_Driver/Src/stm32h7xx_hal.c ****     /* Configure CM4 BOOT ADD0 */
 722:Drivers/STM32H7xx_HAL_Driver/Src/stm32h7xx_hal.c ****     MODIFY_REG(SYSCFG->UR3, SYSCFG_UR3_BCM4_ADD0, ((BootAddress >> 16)<< SYSCFG_UR3_BCM4_ADD0_Pos))
 723:Drivers/STM32H7xx_HAL_Driver/Src/stm32h7xx_hal.c ****   }
 724:Drivers/STM32H7xx_HAL_Driver/Src/stm32h7xx_hal.c **** 
 725:Drivers/STM32H7xx_HAL_Driver/Src/stm32h7xx_hal.c ****   else
 726:Drivers/STM32H7xx_HAL_Driver/Src/stm32h7xx_hal.c ****   {
 727:Drivers/STM32H7xx_HAL_Driver/Src/stm32h7xx_hal.c ****     /* Configure CM4 BOOT ADD1 */
 728:Drivers/STM32H7xx_HAL_Driver/Src/stm32h7xx_hal.c ****     MODIFY_REG(SYSCFG->UR4, SYSCFG_UR4_BCM4_ADD1, (BootAddress >> 16));
 729:Drivers/STM32H7xx_HAL_Driver/Src/stm32h7xx_hal.c ****   }
 730:Drivers/STM32H7xx_HAL_Driver/Src/stm32h7xx_hal.c **** }
 731:Drivers/STM32H7xx_HAL_Driver/Src/stm32h7xx_hal.c **** 
 732:Drivers/STM32H7xx_HAL_Driver/Src/stm32h7xx_hal.c **** /**
 733:Drivers/STM32H7xx_HAL_Driver/Src/stm32h7xx_hal.c ****   * @brief  Enables the Cortex-M7 boot
 734:Drivers/STM32H7xx_HAL_Driver/Src/stm32h7xx_hal.c ****   * @retval None
ARM GAS  /var/folders/g1/j12m_ky910s3_sv7d4yrsdn00000gn/T//ccvnHeju.s 			page 42


 735:Drivers/STM32H7xx_HAL_Driver/Src/stm32h7xx_hal.c ****   */
 736:Drivers/STM32H7xx_HAL_Driver/Src/stm32h7xx_hal.c **** void HAL_SYSCFG_EnableCM7BOOT(void)
 737:Drivers/STM32H7xx_HAL_Driver/Src/stm32h7xx_hal.c **** {
 738:Drivers/STM32H7xx_HAL_Driver/Src/stm32h7xx_hal.c ****  SET_BIT(SYSCFG->UR1, SYSCFG_UR1_BCM7);
 739:Drivers/STM32H7xx_HAL_Driver/Src/stm32h7xx_hal.c **** }
 740:Drivers/STM32H7xx_HAL_Driver/Src/stm32h7xx_hal.c **** 
 741:Drivers/STM32H7xx_HAL_Driver/Src/stm32h7xx_hal.c **** /**
 742:Drivers/STM32H7xx_HAL_Driver/Src/stm32h7xx_hal.c ****   * @brief  Disables the Cortex-M7 boot
 743:Drivers/STM32H7xx_HAL_Driver/Src/stm32h7xx_hal.c ****   * @note   Disabling the boot will gate the CPU clock
 744:Drivers/STM32H7xx_HAL_Driver/Src/stm32h7xx_hal.c ****   * @retval None
 745:Drivers/STM32H7xx_HAL_Driver/Src/stm32h7xx_hal.c ****   */
 746:Drivers/STM32H7xx_HAL_Driver/Src/stm32h7xx_hal.c **** void HAL_SYSCFG_DisableCM7BOOT(void)
 747:Drivers/STM32H7xx_HAL_Driver/Src/stm32h7xx_hal.c **** {
 748:Drivers/STM32H7xx_HAL_Driver/Src/stm32h7xx_hal.c ****  CLEAR_BIT(SYSCFG->UR1, SYSCFG_UR1_BCM7) ;
 749:Drivers/STM32H7xx_HAL_Driver/Src/stm32h7xx_hal.c **** }
 750:Drivers/STM32H7xx_HAL_Driver/Src/stm32h7xx_hal.c **** 
 751:Drivers/STM32H7xx_HAL_Driver/Src/stm32h7xx_hal.c **** /**
 752:Drivers/STM32H7xx_HAL_Driver/Src/stm32h7xx_hal.c ****   * @brief  Enables the Cortex-M4 boot
 753:Drivers/STM32H7xx_HAL_Driver/Src/stm32h7xx_hal.c ****   * @retval None
 754:Drivers/STM32H7xx_HAL_Driver/Src/stm32h7xx_hal.c ****   */
 755:Drivers/STM32H7xx_HAL_Driver/Src/stm32h7xx_hal.c **** void HAL_SYSCFG_EnableCM4BOOT(void)
 756:Drivers/STM32H7xx_HAL_Driver/Src/stm32h7xx_hal.c **** {
 757:Drivers/STM32H7xx_HAL_Driver/Src/stm32h7xx_hal.c ****  SET_BIT(SYSCFG->UR1, SYSCFG_UR1_BCM4);
 758:Drivers/STM32H7xx_HAL_Driver/Src/stm32h7xx_hal.c **** }
 759:Drivers/STM32H7xx_HAL_Driver/Src/stm32h7xx_hal.c **** 
 760:Drivers/STM32H7xx_HAL_Driver/Src/stm32h7xx_hal.c **** /**
 761:Drivers/STM32H7xx_HAL_Driver/Src/stm32h7xx_hal.c ****   * @brief  Disables the Cortex-M4 boot
 762:Drivers/STM32H7xx_HAL_Driver/Src/stm32h7xx_hal.c ****   * @note   Disabling the boot will gate the CPU clock
 763:Drivers/STM32H7xx_HAL_Driver/Src/stm32h7xx_hal.c ****   * @retval None
 764:Drivers/STM32H7xx_HAL_Driver/Src/stm32h7xx_hal.c ****   */
 765:Drivers/STM32H7xx_HAL_Driver/Src/stm32h7xx_hal.c **** void HAL_SYSCFG_DisableCM4BOOT(void)
 766:Drivers/STM32H7xx_HAL_Driver/Src/stm32h7xx_hal.c **** {
 767:Drivers/STM32H7xx_HAL_Driver/Src/stm32h7xx_hal.c ****   CLEAR_BIT(SYSCFG->UR1, SYSCFG_UR1_BCM4);
 768:Drivers/STM32H7xx_HAL_Driver/Src/stm32h7xx_hal.c **** }
 769:Drivers/STM32H7xx_HAL_Driver/Src/stm32h7xx_hal.c **** #endif /*DUAL_CORE*/
 770:Drivers/STM32H7xx_HAL_Driver/Src/stm32h7xx_hal.c **** /**
 771:Drivers/STM32H7xx_HAL_Driver/Src/stm32h7xx_hal.c ****   * @brief  Enables the I/O Compensation Cell.
 772:Drivers/STM32H7xx_HAL_Driver/Src/stm32h7xx_hal.c ****   * @note   The I/O compensation cell can be used only when the device supply
 773:Drivers/STM32H7xx_HAL_Driver/Src/stm32h7xx_hal.c ****   *         voltage ranges from 1.62 to 2.0 V and from 2.7 to 3.6 V.
 774:Drivers/STM32H7xx_HAL_Driver/Src/stm32h7xx_hal.c ****   * @retval None
 775:Drivers/STM32H7xx_HAL_Driver/Src/stm32h7xx_hal.c ****   */
 776:Drivers/STM32H7xx_HAL_Driver/Src/stm32h7xx_hal.c **** void HAL_EnableCompensationCell(void)
 777:Drivers/STM32H7xx_HAL_Driver/Src/stm32h7xx_hal.c **** {
 1665              		.loc 1 777 1
 1666              		.cfi_startproc
 1667              		@ args = 0, pretend = 0, frame = 0
 1668              		@ frame_needed = 1, uses_anonymous_args = 0
 1669              		@ link register save eliminated.
 1670 0000 80B4     		push	{r7}
 1671              	.LCFI131:
 1672              		.cfi_def_cfa_offset 4
 1673              		.cfi_offset 7, -4
 1674 0002 00AF     		add	r7, sp, #0
 1675              	.LCFI132:
 1676              		.cfi_def_cfa_register 7
 778:Drivers/STM32H7xx_HAL_Driver/Src/stm32h7xx_hal.c ****   SET_BIT(SYSCFG->CCCSR, SYSCFG_CCCSR_EN) ;
 1677              		.loc 1 778 3
ARM GAS  /var/folders/g1/j12m_ky910s3_sv7d4yrsdn00000gn/T//ccvnHeju.s 			page 43


 1678 0004 054B     		ldr	r3, .L113
 1679 0006 1B6A     		ldr	r3, [r3, #32]
 1680 0008 044A     		ldr	r2, .L113
 1681 000a 43F00103 		orr	r3, r3, #1
 1682 000e 1362     		str	r3, [r2, #32]
 779:Drivers/STM32H7xx_HAL_Driver/Src/stm32h7xx_hal.c **** }
 1683              		.loc 1 779 1
 1684 0010 00BF     		nop
 1685 0012 BD46     		mov	sp, r7
 1686              	.LCFI133:
 1687              		.cfi_def_cfa_register 13
 1688              		@ sp needed
 1689 0014 5DF8047B 		ldr	r7, [sp], #4
 1690              	.LCFI134:
 1691              		.cfi_restore 7
 1692              		.cfi_def_cfa_offset 0
 1693 0018 7047     		bx	lr
 1694              	.L114:
 1695 001a 00BF     		.align	2
 1696              	.L113:
 1697 001c 00040058 		.word	1476396032
 1698              		.cfi_endproc
 1699              	.LFE173:
 1701              		.section	.text.HAL_DisableCompensationCell,"ax",%progbits
 1702              		.align	1
 1703              		.global	HAL_DisableCompensationCell
 1704              		.syntax unified
 1705              		.thumb
 1706              		.thumb_func
 1708              	HAL_DisableCompensationCell:
 1709              	.LFB174:
 780:Drivers/STM32H7xx_HAL_Driver/Src/stm32h7xx_hal.c **** 
 781:Drivers/STM32H7xx_HAL_Driver/Src/stm32h7xx_hal.c **** /**
 782:Drivers/STM32H7xx_HAL_Driver/Src/stm32h7xx_hal.c ****   * @brief  Power-down the I/O Compensation Cell.
 783:Drivers/STM32H7xx_HAL_Driver/Src/stm32h7xx_hal.c ****   * @note   The I/O compensation cell can be used only when the device supply
 784:Drivers/STM32H7xx_HAL_Driver/Src/stm32h7xx_hal.c ****   *         voltage ranges from 1.62 to 2.0 V and from 2.7 to 3.6 V.
 785:Drivers/STM32H7xx_HAL_Driver/Src/stm32h7xx_hal.c ****   * @retval None
 786:Drivers/STM32H7xx_HAL_Driver/Src/stm32h7xx_hal.c ****   */
 787:Drivers/STM32H7xx_HAL_Driver/Src/stm32h7xx_hal.c **** void HAL_DisableCompensationCell(void)
 788:Drivers/STM32H7xx_HAL_Driver/Src/stm32h7xx_hal.c **** {
 1710              		.loc 1 788 1
 1711              		.cfi_startproc
 1712              		@ args = 0, pretend = 0, frame = 0
 1713              		@ frame_needed = 1, uses_anonymous_args = 0
 1714              		@ link register save eliminated.
 1715 0000 80B4     		push	{r7}
 1716              	.LCFI135:
 1717              		.cfi_def_cfa_offset 4
 1718              		.cfi_offset 7, -4
 1719 0002 00AF     		add	r7, sp, #0
 1720              	.LCFI136:
 1721              		.cfi_def_cfa_register 7
 789:Drivers/STM32H7xx_HAL_Driver/Src/stm32h7xx_hal.c ****   CLEAR_BIT(SYSCFG->CCCSR, SYSCFG_CCCSR_EN);
 1722              		.loc 1 789 3
 1723 0004 054B     		ldr	r3, .L116
 1724 0006 1B6A     		ldr	r3, [r3, #32]
 1725 0008 044A     		ldr	r2, .L116
ARM GAS  /var/folders/g1/j12m_ky910s3_sv7d4yrsdn00000gn/T//ccvnHeju.s 			page 44


 1726 000a 23F00103 		bic	r3, r3, #1
 1727 000e 1362     		str	r3, [r2, #32]
 790:Drivers/STM32H7xx_HAL_Driver/Src/stm32h7xx_hal.c **** }
 1728              		.loc 1 790 1
 1729 0010 00BF     		nop
 1730 0012 BD46     		mov	sp, r7
 1731              	.LCFI137:
 1732              		.cfi_def_cfa_register 13
 1733              		@ sp needed
 1734 0014 5DF8047B 		ldr	r7, [sp], #4
 1735              	.LCFI138:
 1736              		.cfi_restore 7
 1737              		.cfi_def_cfa_offset 0
 1738 0018 7047     		bx	lr
 1739              	.L117:
 1740 001a 00BF     		.align	2
 1741              	.L116:
 1742 001c 00040058 		.word	1476396032
 1743              		.cfi_endproc
 1744              	.LFE174:
 1746              		.section	.text.HAL_SYSCFG_EnableIOSpeedOptimize,"ax",%progbits
 1747              		.align	1
 1748              		.global	HAL_SYSCFG_EnableIOSpeedOptimize
 1749              		.syntax unified
 1750              		.thumb
 1751              		.thumb_func
 1753              	HAL_SYSCFG_EnableIOSpeedOptimize:
 1754              	.LFB175:
 791:Drivers/STM32H7xx_HAL_Driver/Src/stm32h7xx_hal.c **** 
 792:Drivers/STM32H7xx_HAL_Driver/Src/stm32h7xx_hal.c **** 
 793:Drivers/STM32H7xx_HAL_Driver/Src/stm32h7xx_hal.c **** /**
 794:Drivers/STM32H7xx_HAL_Driver/Src/stm32h7xx_hal.c ****   * @brief  To Enable optimize the I/O speed when the product voltage is low.
 795:Drivers/STM32H7xx_HAL_Driver/Src/stm32h7xx_hal.c ****   * @note   This bit is active only if PRODUCT_BELOW_25V user option bit is set. It must be
 796:Drivers/STM32H7xx_HAL_Driver/Src/stm32h7xx_hal.c ****   *         used only if the product supply voltage is below 2.5 V. Setting this bit when VDD is
 797:Drivers/STM32H7xx_HAL_Driver/Src/stm32h7xx_hal.c ****   *         higher than 2.5 V might be destructive.
 798:Drivers/STM32H7xx_HAL_Driver/Src/stm32h7xx_hal.c ****   * @retval None
 799:Drivers/STM32H7xx_HAL_Driver/Src/stm32h7xx_hal.c ****   */
 800:Drivers/STM32H7xx_HAL_Driver/Src/stm32h7xx_hal.c **** void HAL_SYSCFG_EnableIOSpeedOptimize(void)
 801:Drivers/STM32H7xx_HAL_Driver/Src/stm32h7xx_hal.c **** {
 1755              		.loc 1 801 1
 1756              		.cfi_startproc
 1757              		@ args = 0, pretend = 0, frame = 0
 1758              		@ frame_needed = 1, uses_anonymous_args = 0
 1759              		@ link register save eliminated.
 1760 0000 80B4     		push	{r7}
 1761              	.LCFI139:
 1762              		.cfi_def_cfa_offset 4
 1763              		.cfi_offset 7, -4
 1764 0002 00AF     		add	r7, sp, #0
 1765              	.LCFI140:
 1766              		.cfi_def_cfa_register 7
 802:Drivers/STM32H7xx_HAL_Driver/Src/stm32h7xx_hal.c **** #if defined(SYSCFG_CCCSR_HSLV)
 803:Drivers/STM32H7xx_HAL_Driver/Src/stm32h7xx_hal.c ****   SET_BIT(SYSCFG->CCCSR, SYSCFG_CCCSR_HSLV);
 1767              		.loc 1 803 3
 1768 0004 054B     		ldr	r3, .L119
 1769 0006 1B6A     		ldr	r3, [r3, #32]
 1770 0008 044A     		ldr	r2, .L119
ARM GAS  /var/folders/g1/j12m_ky910s3_sv7d4yrsdn00000gn/T//ccvnHeju.s 			page 45


 1771 000a 43F48033 		orr	r3, r3, #65536
 1772 000e 1362     		str	r3, [r2, #32]
 804:Drivers/STM32H7xx_HAL_Driver/Src/stm32h7xx_hal.c **** #else
 805:Drivers/STM32H7xx_HAL_Driver/Src/stm32h7xx_hal.c ****   SET_BIT(SYSCFG->CCCSR, (SYSCFG_CCCSR_HSLV0| SYSCFG_CCCSR_HSLV1 | SYSCFG_CCCSR_HSLV2  | SYSCFG_CCC
 806:Drivers/STM32H7xx_HAL_Driver/Src/stm32h7xx_hal.c **** #endif   /* SYSCFG_CCCSR_HSLV */
 807:Drivers/STM32H7xx_HAL_Driver/Src/stm32h7xx_hal.c **** }
 1773              		.loc 1 807 1
 1774 0010 00BF     		nop
 1775 0012 BD46     		mov	sp, r7
 1776              	.LCFI141:
 1777              		.cfi_def_cfa_register 13
 1778              		@ sp needed
 1779 0014 5DF8047B 		ldr	r7, [sp], #4
 1780              	.LCFI142:
 1781              		.cfi_restore 7
 1782              		.cfi_def_cfa_offset 0
 1783 0018 7047     		bx	lr
 1784              	.L120:
 1785 001a 00BF     		.align	2
 1786              	.L119:
 1787 001c 00040058 		.word	1476396032
 1788              		.cfi_endproc
 1789              	.LFE175:
 1791              		.section	.text.HAL_SYSCFG_DisableIOSpeedOptimize,"ax",%progbits
 1792              		.align	1
 1793              		.global	HAL_SYSCFG_DisableIOSpeedOptimize
 1794              		.syntax unified
 1795              		.thumb
 1796              		.thumb_func
 1798              	HAL_SYSCFG_DisableIOSpeedOptimize:
 1799              	.LFB176:
 808:Drivers/STM32H7xx_HAL_Driver/Src/stm32h7xx_hal.c **** 
 809:Drivers/STM32H7xx_HAL_Driver/Src/stm32h7xx_hal.c **** /**
 810:Drivers/STM32H7xx_HAL_Driver/Src/stm32h7xx_hal.c ****   * @brief  To Disable optimize the I/O speed when the product voltage is low.
 811:Drivers/STM32H7xx_HAL_Driver/Src/stm32h7xx_hal.c ****   * @note   This bit is active only if PRODUCT_BELOW_25V user option bit is set. It must be
 812:Drivers/STM32H7xx_HAL_Driver/Src/stm32h7xx_hal.c ****   *         used only if the product supply voltage is below 2.5 V. Setting this bit when VDD is
 813:Drivers/STM32H7xx_HAL_Driver/Src/stm32h7xx_hal.c ****   *         higher than 2.5 V might be destructive.
 814:Drivers/STM32H7xx_HAL_Driver/Src/stm32h7xx_hal.c ****   * @retval None
 815:Drivers/STM32H7xx_HAL_Driver/Src/stm32h7xx_hal.c ****   */
 816:Drivers/STM32H7xx_HAL_Driver/Src/stm32h7xx_hal.c **** void HAL_SYSCFG_DisableIOSpeedOptimize(void)
 817:Drivers/STM32H7xx_HAL_Driver/Src/stm32h7xx_hal.c **** {
 1800              		.loc 1 817 1
 1801              		.cfi_startproc
 1802              		@ args = 0, pretend = 0, frame = 0
 1803              		@ frame_needed = 1, uses_anonymous_args = 0
 1804              		@ link register save eliminated.
 1805 0000 80B4     		push	{r7}
 1806              	.LCFI143:
 1807              		.cfi_def_cfa_offset 4
 1808              		.cfi_offset 7, -4
 1809 0002 00AF     		add	r7, sp, #0
 1810              	.LCFI144:
 1811              		.cfi_def_cfa_register 7
 818:Drivers/STM32H7xx_HAL_Driver/Src/stm32h7xx_hal.c **** #if defined(SYSCFG_CCCSR_HSLV)
 819:Drivers/STM32H7xx_HAL_Driver/Src/stm32h7xx_hal.c ****   CLEAR_BIT(SYSCFG->CCCSR, SYSCFG_CCCSR_HSLV);
 1812              		.loc 1 819 3
 1813 0004 054B     		ldr	r3, .L122
ARM GAS  /var/folders/g1/j12m_ky910s3_sv7d4yrsdn00000gn/T//ccvnHeju.s 			page 46


 1814 0006 1B6A     		ldr	r3, [r3, #32]
 1815 0008 044A     		ldr	r2, .L122
 1816 000a 23F48033 		bic	r3, r3, #65536
 1817 000e 1362     		str	r3, [r2, #32]
 820:Drivers/STM32H7xx_HAL_Driver/Src/stm32h7xx_hal.c **** #else
 821:Drivers/STM32H7xx_HAL_Driver/Src/stm32h7xx_hal.c ****   CLEAR_BIT(SYSCFG->CCCSR, (SYSCFG_CCCSR_HSLV0| SYSCFG_CCCSR_HSLV1 | SYSCFG_CCCSR_HSLV2  | SYSCFG_C
 822:Drivers/STM32H7xx_HAL_Driver/Src/stm32h7xx_hal.c **** #endif   /* SYSCFG_CCCSR_HSLV */
 823:Drivers/STM32H7xx_HAL_Driver/Src/stm32h7xx_hal.c **** }
 1818              		.loc 1 823 1
 1819 0010 00BF     		nop
 1820 0012 BD46     		mov	sp, r7
 1821              	.LCFI145:
 1822              		.cfi_def_cfa_register 13
 1823              		@ sp needed
 1824 0014 5DF8047B 		ldr	r7, [sp], #4
 1825              	.LCFI146:
 1826              		.cfi_restore 7
 1827              		.cfi_def_cfa_offset 0
 1828 0018 7047     		bx	lr
 1829              	.L123:
 1830 001a 00BF     		.align	2
 1831              	.L122:
 1832 001c 00040058 		.word	1476396032
 1833              		.cfi_endproc
 1834              	.LFE176:
 1836              		.section	.text.HAL_SYSCFG_CompensationCodeSelect,"ax",%progbits
 1837              		.align	1
 1838              		.global	HAL_SYSCFG_CompensationCodeSelect
 1839              		.syntax unified
 1840              		.thumb
 1841              		.thumb_func
 1843              	HAL_SYSCFG_CompensationCodeSelect:
 1844              	.LFB177:
 824:Drivers/STM32H7xx_HAL_Driver/Src/stm32h7xx_hal.c **** 
 825:Drivers/STM32H7xx_HAL_Driver/Src/stm32h7xx_hal.c **** /**
 826:Drivers/STM32H7xx_HAL_Driver/Src/stm32h7xx_hal.c ****   * @brief  Code selection for the I/O Compensation cell
 827:Drivers/STM32H7xx_HAL_Driver/Src/stm32h7xx_hal.c ****   * @param  SYSCFG_CompCode: Selects the code to be applied for the I/O compensation cell
 828:Drivers/STM32H7xx_HAL_Driver/Src/stm32h7xx_hal.c ****   *   This parameter can be one of the following values:
 829:Drivers/STM32H7xx_HAL_Driver/Src/stm32h7xx_hal.c ****   *   @arg SYSCFG_CELL_CODE : Select Code from the cell (available in the SYSCFG_CCVR)
 830:Drivers/STM32H7xx_HAL_Driver/Src/stm32h7xx_hal.c ****   *   @arg SYSCFG_REGISTER_CODE: Select Code from the SYSCFG compensation cell code register (SYSCF
 831:Drivers/STM32H7xx_HAL_Driver/Src/stm32h7xx_hal.c ****   * @retval None
 832:Drivers/STM32H7xx_HAL_Driver/Src/stm32h7xx_hal.c ****   */
 833:Drivers/STM32H7xx_HAL_Driver/Src/stm32h7xx_hal.c **** void HAL_SYSCFG_CompensationCodeSelect(uint32_t SYSCFG_CompCode)
 834:Drivers/STM32H7xx_HAL_Driver/Src/stm32h7xx_hal.c **** {
 1845              		.loc 1 834 1
 1846              		.cfi_startproc
 1847              		@ args = 0, pretend = 0, frame = 8
 1848              		@ frame_needed = 1, uses_anonymous_args = 0
 1849              		@ link register save eliminated.
 1850 0000 80B4     		push	{r7}
 1851              	.LCFI147:
 1852              		.cfi_def_cfa_offset 4
 1853              		.cfi_offset 7, -4
 1854 0002 83B0     		sub	sp, sp, #12
 1855              	.LCFI148:
 1856              		.cfi_def_cfa_offset 16
 1857 0004 00AF     		add	r7, sp, #0
ARM GAS  /var/folders/g1/j12m_ky910s3_sv7d4yrsdn00000gn/T//ccvnHeju.s 			page 47


 1858              	.LCFI149:
 1859              		.cfi_def_cfa_register 7
 1860 0006 7860     		str	r0, [r7, #4]
 835:Drivers/STM32H7xx_HAL_Driver/Src/stm32h7xx_hal.c ****   /* Check the parameter */
 836:Drivers/STM32H7xx_HAL_Driver/Src/stm32h7xx_hal.c ****   assert_param(IS_SYSCFG_CODE_SELECT(SYSCFG_CompCode));
 837:Drivers/STM32H7xx_HAL_Driver/Src/stm32h7xx_hal.c ****   MODIFY_REG(SYSCFG->CCCSR, SYSCFG_CCCSR_CS, (uint32_t)(SYSCFG_CompCode));
 1861              		.loc 1 837 3
 1862 0008 064B     		ldr	r3, .L125
 1863 000a 1B6A     		ldr	r3, [r3, #32]
 1864 000c 23F00202 		bic	r2, r3, #2
 1865 0010 0449     		ldr	r1, .L125
 1866 0012 7B68     		ldr	r3, [r7, #4]
 1867 0014 1343     		orrs	r3, r3, r2
 1868 0016 0B62     		str	r3, [r1, #32]
 838:Drivers/STM32H7xx_HAL_Driver/Src/stm32h7xx_hal.c **** }
 1869              		.loc 1 838 1
 1870 0018 00BF     		nop
 1871 001a 0C37     		adds	r7, r7, #12
 1872              	.LCFI150:
 1873              		.cfi_def_cfa_offset 4
 1874 001c BD46     		mov	sp, r7
 1875              	.LCFI151:
 1876              		.cfi_def_cfa_register 13
 1877              		@ sp needed
 1878 001e 5DF8047B 		ldr	r7, [sp], #4
 1879              	.LCFI152:
 1880              		.cfi_restore 7
 1881              		.cfi_def_cfa_offset 0
 1882 0022 7047     		bx	lr
 1883              	.L126:
 1884              		.align	2
 1885              	.L125:
 1886 0024 00040058 		.word	1476396032
 1887              		.cfi_endproc
 1888              	.LFE177:
 1890              		.section	.text.HAL_SYSCFG_CompensationCodeConfig,"ax",%progbits
 1891              		.align	1
 1892              		.global	HAL_SYSCFG_CompensationCodeConfig
 1893              		.syntax unified
 1894              		.thumb
 1895              		.thumb_func
 1897              	HAL_SYSCFG_CompensationCodeConfig:
 1898              	.LFB178:
 839:Drivers/STM32H7xx_HAL_Driver/Src/stm32h7xx_hal.c **** 
 840:Drivers/STM32H7xx_HAL_Driver/Src/stm32h7xx_hal.c **** /**
 841:Drivers/STM32H7xx_HAL_Driver/Src/stm32h7xx_hal.c ****   * @brief  Code selection for the I/O Compensation cell
 842:Drivers/STM32H7xx_HAL_Driver/Src/stm32h7xx_hal.c ****   * @param  SYSCFG_PMOSCode: PMOS compensation code
 843:Drivers/STM32H7xx_HAL_Driver/Src/stm32h7xx_hal.c ****   *         This code is applied to the I/O compensation cell when the CS bit of the
 844:Drivers/STM32H7xx_HAL_Driver/Src/stm32h7xx_hal.c ****   *          SYSCFG_CMPCR is set
 845:Drivers/STM32H7xx_HAL_Driver/Src/stm32h7xx_hal.c ****   * @param  SYSCFG_NMOSCode: NMOS compensation code
 846:Drivers/STM32H7xx_HAL_Driver/Src/stm32h7xx_hal.c ****   *         This code is applied to the I/O compensation cell when the CS bit of the
 847:Drivers/STM32H7xx_HAL_Driver/Src/stm32h7xx_hal.c ****   *          SYSCFG_CMPCR is set
 848:Drivers/STM32H7xx_HAL_Driver/Src/stm32h7xx_hal.c ****   * @retval None
 849:Drivers/STM32H7xx_HAL_Driver/Src/stm32h7xx_hal.c ****   */
 850:Drivers/STM32H7xx_HAL_Driver/Src/stm32h7xx_hal.c **** void HAL_SYSCFG_CompensationCodeConfig(uint32_t SYSCFG_PMOSCode, uint32_t SYSCFG_NMOSCode )
 851:Drivers/STM32H7xx_HAL_Driver/Src/stm32h7xx_hal.c **** {
 1899              		.loc 1 851 1
ARM GAS  /var/folders/g1/j12m_ky910s3_sv7d4yrsdn00000gn/T//ccvnHeju.s 			page 48


 1900              		.cfi_startproc
 1901              		@ args = 0, pretend = 0, frame = 8
 1902              		@ frame_needed = 1, uses_anonymous_args = 0
 1903              		@ link register save eliminated.
 1904 0000 80B4     		push	{r7}
 1905              	.LCFI153:
 1906              		.cfi_def_cfa_offset 4
 1907              		.cfi_offset 7, -4
 1908 0002 83B0     		sub	sp, sp, #12
 1909              	.LCFI154:
 1910              		.cfi_def_cfa_offset 16
 1911 0004 00AF     		add	r7, sp, #0
 1912              	.LCFI155:
 1913              		.cfi_def_cfa_register 7
 1914 0006 7860     		str	r0, [r7, #4]
 1915 0008 3960     		str	r1, [r7]
 852:Drivers/STM32H7xx_HAL_Driver/Src/stm32h7xx_hal.c ****   /* Check the parameter */
 853:Drivers/STM32H7xx_HAL_Driver/Src/stm32h7xx_hal.c ****   assert_param(IS_SYSCFG_CODE_CONFIG(SYSCFG_PMOSCode));
 854:Drivers/STM32H7xx_HAL_Driver/Src/stm32h7xx_hal.c ****   assert_param(IS_SYSCFG_CODE_CONFIG(SYSCFG_NMOSCode));
 855:Drivers/STM32H7xx_HAL_Driver/Src/stm32h7xx_hal.c ****   MODIFY_REG(SYSCFG->CCCR, SYSCFG_CCCR_NCC|SYSCFG_CCCR_PCC, (((uint32_t)(SYSCFG_PMOSCode)<< 4)|(uin
 1916              		.loc 1 855 3
 1917 000a 084B     		ldr	r3, .L128
 1918 000c 9B6A     		ldr	r3, [r3, #40]
 1919 000e 23F0FF02 		bic	r2, r3, #255
 1920 0012 7B68     		ldr	r3, [r7, #4]
 1921 0014 1901     		lsls	r1, r3, #4
 1922 0016 3B68     		ldr	r3, [r7]
 1923 0018 0B43     		orrs	r3, r3, r1
 1924 001a 0449     		ldr	r1, .L128
 1925 001c 1343     		orrs	r3, r3, r2
 1926 001e 8B62     		str	r3, [r1, #40]
 856:Drivers/STM32H7xx_HAL_Driver/Src/stm32h7xx_hal.c **** }
 1927              		.loc 1 856 1
 1928 0020 00BF     		nop
 1929 0022 0C37     		adds	r7, r7, #12
 1930              	.LCFI156:
 1931              		.cfi_def_cfa_offset 4
 1932 0024 BD46     		mov	sp, r7
 1933              	.LCFI157:
 1934              		.cfi_def_cfa_register 13
 1935              		@ sp needed
 1936 0026 5DF8047B 		ldr	r7, [sp], #4
 1937              	.LCFI158:
 1938              		.cfi_restore 7
 1939              		.cfi_def_cfa_offset 0
 1940 002a 7047     		bx	lr
 1941              	.L129:
 1942              		.align	2
 1943              	.L128:
 1944 002c 00040058 		.word	1476396032
 1945              		.cfi_endproc
 1946              	.LFE178:
 1948              		.section	.text.HAL_DBGMCU_EnableDBGSleepMode,"ax",%progbits
 1949              		.align	1
 1950              		.global	HAL_DBGMCU_EnableDBGSleepMode
 1951              		.syntax unified
 1952              		.thumb
ARM GAS  /var/folders/g1/j12m_ky910s3_sv7d4yrsdn00000gn/T//ccvnHeju.s 			page 49


 1953              		.thumb_func
 1955              	HAL_DBGMCU_EnableDBGSleepMode:
 1956              	.LFB179:
 857:Drivers/STM32H7xx_HAL_Driver/Src/stm32h7xx_hal.c **** 
 858:Drivers/STM32H7xx_HAL_Driver/Src/stm32h7xx_hal.c **** #if defined(SYSCFG_CCCR_NCC_MMC)
 859:Drivers/STM32H7xx_HAL_Driver/Src/stm32h7xx_hal.c **** /**
 860:Drivers/STM32H7xx_HAL_Driver/Src/stm32h7xx_hal.c ****   * @brief  Code selection for the I/O Compensation cell
 861:Drivers/STM32H7xx_HAL_Driver/Src/stm32h7xx_hal.c ****   * @param  SYSCFG_PMOSCode: VDDMMC PMOS compensation code
 862:Drivers/STM32H7xx_HAL_Driver/Src/stm32h7xx_hal.c ****   *         This code is applied to the I/O compensation cell when the CS bit of the
 863:Drivers/STM32H7xx_HAL_Driver/Src/stm32h7xx_hal.c ****   *          SYSCFG_CMPCR is set
 864:Drivers/STM32H7xx_HAL_Driver/Src/stm32h7xx_hal.c ****   * @param  SYSCFG_NMOSCode: VDDMMC NMOS compensation code
 865:Drivers/STM32H7xx_HAL_Driver/Src/stm32h7xx_hal.c ****   *         This code is applied to the I/O compensation cell when the CS bit of the
 866:Drivers/STM32H7xx_HAL_Driver/Src/stm32h7xx_hal.c ****   *          SYSCFG_CMPCR is set
 867:Drivers/STM32H7xx_HAL_Driver/Src/stm32h7xx_hal.c ****   * @retval None
 868:Drivers/STM32H7xx_HAL_Driver/Src/stm32h7xx_hal.c ****   */
 869:Drivers/STM32H7xx_HAL_Driver/Src/stm32h7xx_hal.c **** void HAL_SYSCFG_VDDMMC_CompensationCodeConfig(uint32_t SYSCFG_PMOSCode, uint32_t SYSCFG_NMOSCode )
 870:Drivers/STM32H7xx_HAL_Driver/Src/stm32h7xx_hal.c **** {
 871:Drivers/STM32H7xx_HAL_Driver/Src/stm32h7xx_hal.c ****   /* Check the parameter */
 872:Drivers/STM32H7xx_HAL_Driver/Src/stm32h7xx_hal.c ****   assert_param(IS_SYSCFG_CODE_CONFIG(SYSCFG_PMOSCode));
 873:Drivers/STM32H7xx_HAL_Driver/Src/stm32h7xx_hal.c ****   assert_param(IS_SYSCFG_CODE_CONFIG(SYSCFG_NMOSCode));
 874:Drivers/STM32H7xx_HAL_Driver/Src/stm32h7xx_hal.c ****   MODIFY_REG(SYSCFG->CCCR, (SYSCFG_CCCR_NCC_MMC | SYSCFG_CCCR_PCC_MMC), (((uint32_t)(SYSCFG_PMOSCod
 875:Drivers/STM32H7xx_HAL_Driver/Src/stm32h7xx_hal.c **** }
 876:Drivers/STM32H7xx_HAL_Driver/Src/stm32h7xx_hal.c **** #endif /* SYSCFG_CCCR_NCC_MMC */
 877:Drivers/STM32H7xx_HAL_Driver/Src/stm32h7xx_hal.c **** 
 878:Drivers/STM32H7xx_HAL_Driver/Src/stm32h7xx_hal.c **** #if defined(SYSCFG_ADC2ALT_ADC2_ROUT0)
 879:Drivers/STM32H7xx_HAL_Driver/Src/stm32h7xx_hal.c **** /** @brief  SYSCFG ADC2 internal input alternate connection macros
 880:Drivers/STM32H7xx_HAL_Driver/Src/stm32h7xx_hal.c ****   * @param Adc2AltRout0 This parameter can be a value of :
 881:Drivers/STM32H7xx_HAL_Driver/Src/stm32h7xx_hal.c ****   *     @arg @ref SYSCFG_ADC2_ROUT0_DAC1_1   DAC1_out1 connected to ADC2 VINP[16]
 882:Drivers/STM32H7xx_HAL_Driver/Src/stm32h7xx_hal.c ****   *     @arg @ref SYSCFG_ADC2_ROUT0_VBAT4    VBAT/4 connected to ADC2 VINP[16]
 883:Drivers/STM32H7xx_HAL_Driver/Src/stm32h7xx_hal.c ****   */
 884:Drivers/STM32H7xx_HAL_Driver/Src/stm32h7xx_hal.c **** void HAL_SYSCFG_ADC2ALT_Rout0Config(uint32_t Adc2AltRout0)
 885:Drivers/STM32H7xx_HAL_Driver/Src/stm32h7xx_hal.c **** {
 886:Drivers/STM32H7xx_HAL_Driver/Src/stm32h7xx_hal.c ****   /* Check the parameters */
 887:Drivers/STM32H7xx_HAL_Driver/Src/stm32h7xx_hal.c ****   assert_param(IS_SYSCFG_ADC2ALT_ROUT0(Adc2AltRout0));
 888:Drivers/STM32H7xx_HAL_Driver/Src/stm32h7xx_hal.c **** 
 889:Drivers/STM32H7xx_HAL_Driver/Src/stm32h7xx_hal.c ****   MODIFY_REG(SYSCFG->ADC2ALT, SYSCFG_ADC2ALT_ADC2_ROUT0, Adc2AltRout0);
 890:Drivers/STM32H7xx_HAL_Driver/Src/stm32h7xx_hal.c **** }
 891:Drivers/STM32H7xx_HAL_Driver/Src/stm32h7xx_hal.c **** #endif /*SYSCFG_ADC2ALT_ADC2_ROUT0*/
 892:Drivers/STM32H7xx_HAL_Driver/Src/stm32h7xx_hal.c **** 
 893:Drivers/STM32H7xx_HAL_Driver/Src/stm32h7xx_hal.c **** #if defined(SYSCFG_ADC2ALT_ADC2_ROUT1)
 894:Drivers/STM32H7xx_HAL_Driver/Src/stm32h7xx_hal.c **** /** @brief  SYSCFG ADC2 internal input alternate connection macros
 895:Drivers/STM32H7xx_HAL_Driver/Src/stm32h7xx_hal.c ****   * @param Adc2AltRout1  This parameter can be a value of :
 896:Drivers/STM32H7xx_HAL_Driver/Src/stm32h7xx_hal.c ****   *     @arg @ref SYSCFG_ADC2_ROUT1_DAC1_2   DAC1_out2 connected to ADC2 VINP[17]
 897:Drivers/STM32H7xx_HAL_Driver/Src/stm32h7xx_hal.c ****   *     @arg @ref SYSCFG_ADC2_ROUT1_VREFINT  VREFINT connected to ADC2 VINP[17]
 898:Drivers/STM32H7xx_HAL_Driver/Src/stm32h7xx_hal.c ****   */
 899:Drivers/STM32H7xx_HAL_Driver/Src/stm32h7xx_hal.c **** void HAL_SYSCFG_ADC2ALT_Rout1Config(uint32_t Adc2AltRout1)
 900:Drivers/STM32H7xx_HAL_Driver/Src/stm32h7xx_hal.c **** {
 901:Drivers/STM32H7xx_HAL_Driver/Src/stm32h7xx_hal.c ****   /* Check the parameters */
 902:Drivers/STM32H7xx_HAL_Driver/Src/stm32h7xx_hal.c ****   assert_param(IS_SYSCFG_ADC2ALT_ROUT1(Adc2AltRout1));
 903:Drivers/STM32H7xx_HAL_Driver/Src/stm32h7xx_hal.c **** 
 904:Drivers/STM32H7xx_HAL_Driver/Src/stm32h7xx_hal.c ****   MODIFY_REG(SYSCFG->ADC2ALT, SYSCFG_ADC2ALT_ADC2_ROUT1, Adc2AltRout1);
 905:Drivers/STM32H7xx_HAL_Driver/Src/stm32h7xx_hal.c **** }
 906:Drivers/STM32H7xx_HAL_Driver/Src/stm32h7xx_hal.c **** #endif /*SYSCFG_ADC2ALT_ADC2_ROUT1*/
 907:Drivers/STM32H7xx_HAL_Driver/Src/stm32h7xx_hal.c **** 
 908:Drivers/STM32H7xx_HAL_Driver/Src/stm32h7xx_hal.c **** /**
 909:Drivers/STM32H7xx_HAL_Driver/Src/stm32h7xx_hal.c ****   * @brief  Enable the Debug Module during Domain1/CDomain SLEEP mode
 910:Drivers/STM32H7xx_HAL_Driver/Src/stm32h7xx_hal.c ****   * @retval None
ARM GAS  /var/folders/g1/j12m_ky910s3_sv7d4yrsdn00000gn/T//ccvnHeju.s 			page 50


 911:Drivers/STM32H7xx_HAL_Driver/Src/stm32h7xx_hal.c ****   */
 912:Drivers/STM32H7xx_HAL_Driver/Src/stm32h7xx_hal.c **** void HAL_DBGMCU_EnableDBGSleepMode(void)
 913:Drivers/STM32H7xx_HAL_Driver/Src/stm32h7xx_hal.c **** {
 1957              		.loc 1 913 1
 1958              		.cfi_startproc
 1959              		@ args = 0, pretend = 0, frame = 0
 1960              		@ frame_needed = 1, uses_anonymous_args = 0
 1961              		@ link register save eliminated.
 1962 0000 80B4     		push	{r7}
 1963              	.LCFI159:
 1964              		.cfi_def_cfa_offset 4
 1965              		.cfi_offset 7, -4
 1966 0002 00AF     		add	r7, sp, #0
 1967              	.LCFI160:
 1968              		.cfi_def_cfa_register 7
 914:Drivers/STM32H7xx_HAL_Driver/Src/stm32h7xx_hal.c ****   SET_BIT(DBGMCU->CR, DBGMCU_CR_DBG_SLEEPD1);
 1969              		.loc 1 914 3
 1970 0004 054B     		ldr	r3, .L131
 1971 0006 5B68     		ldr	r3, [r3, #4]
 1972 0008 044A     		ldr	r2, .L131
 1973 000a 43F00103 		orr	r3, r3, #1
 1974 000e 5360     		str	r3, [r2, #4]
 915:Drivers/STM32H7xx_HAL_Driver/Src/stm32h7xx_hal.c **** }
 1975              		.loc 1 915 1
 1976 0010 00BF     		nop
 1977 0012 BD46     		mov	sp, r7
 1978              	.LCFI161:
 1979              		.cfi_def_cfa_register 13
 1980              		@ sp needed
 1981 0014 5DF8047B 		ldr	r7, [sp], #4
 1982              	.LCFI162:
 1983              		.cfi_restore 7
 1984              		.cfi_def_cfa_offset 0
 1985 0018 7047     		bx	lr
 1986              	.L132:
 1987 001a 00BF     		.align	2
 1988              	.L131:
 1989 001c 0010005C 		.word	1543507968
 1990              		.cfi_endproc
 1991              	.LFE179:
 1993              		.section	.text.HAL_DBGMCU_DisableDBGSleepMode,"ax",%progbits
 1994              		.align	1
 1995              		.global	HAL_DBGMCU_DisableDBGSleepMode
 1996              		.syntax unified
 1997              		.thumb
 1998              		.thumb_func
 2000              	HAL_DBGMCU_DisableDBGSleepMode:
 2001              	.LFB180:
 916:Drivers/STM32H7xx_HAL_Driver/Src/stm32h7xx_hal.c **** 
 917:Drivers/STM32H7xx_HAL_Driver/Src/stm32h7xx_hal.c **** /**
 918:Drivers/STM32H7xx_HAL_Driver/Src/stm32h7xx_hal.c ****   * @brief  Disable the Debug Module during Domain1/CDomain SLEEP mode
 919:Drivers/STM32H7xx_HAL_Driver/Src/stm32h7xx_hal.c ****   * @retval None
 920:Drivers/STM32H7xx_HAL_Driver/Src/stm32h7xx_hal.c ****   */
 921:Drivers/STM32H7xx_HAL_Driver/Src/stm32h7xx_hal.c **** void HAL_DBGMCU_DisableDBGSleepMode(void)
 922:Drivers/STM32H7xx_HAL_Driver/Src/stm32h7xx_hal.c **** {
 2002              		.loc 1 922 1
 2003              		.cfi_startproc
ARM GAS  /var/folders/g1/j12m_ky910s3_sv7d4yrsdn00000gn/T//ccvnHeju.s 			page 51


 2004              		@ args = 0, pretend = 0, frame = 0
 2005              		@ frame_needed = 1, uses_anonymous_args = 0
 2006              		@ link register save eliminated.
 2007 0000 80B4     		push	{r7}
 2008              	.LCFI163:
 2009              		.cfi_def_cfa_offset 4
 2010              		.cfi_offset 7, -4
 2011 0002 00AF     		add	r7, sp, #0
 2012              	.LCFI164:
 2013              		.cfi_def_cfa_register 7
 923:Drivers/STM32H7xx_HAL_Driver/Src/stm32h7xx_hal.c ****   CLEAR_BIT(DBGMCU->CR, DBGMCU_CR_DBG_SLEEPD1);
 2014              		.loc 1 923 3
 2015 0004 054B     		ldr	r3, .L134
 2016 0006 5B68     		ldr	r3, [r3, #4]
 2017 0008 044A     		ldr	r2, .L134
 2018 000a 23F00103 		bic	r3, r3, #1
 2019 000e 5360     		str	r3, [r2, #4]
 924:Drivers/STM32H7xx_HAL_Driver/Src/stm32h7xx_hal.c **** }
 2020              		.loc 1 924 1
 2021 0010 00BF     		nop
 2022 0012 BD46     		mov	sp, r7
 2023              	.LCFI165:
 2024              		.cfi_def_cfa_register 13
 2025              		@ sp needed
 2026 0014 5DF8047B 		ldr	r7, [sp], #4
 2027              	.LCFI166:
 2028              		.cfi_restore 7
 2029              		.cfi_def_cfa_offset 0
 2030 0018 7047     		bx	lr
 2031              	.L135:
 2032 001a 00BF     		.align	2
 2033              	.L134:
 2034 001c 0010005C 		.word	1543507968
 2035              		.cfi_endproc
 2036              	.LFE180:
 2038              		.section	.text.HAL_DBGMCU_EnableDBGStopMode,"ax",%progbits
 2039              		.align	1
 2040              		.global	HAL_DBGMCU_EnableDBGStopMode
 2041              		.syntax unified
 2042              		.thumb
 2043              		.thumb_func
 2045              	HAL_DBGMCU_EnableDBGStopMode:
 2046              	.LFB181:
 925:Drivers/STM32H7xx_HAL_Driver/Src/stm32h7xx_hal.c **** 
 926:Drivers/STM32H7xx_HAL_Driver/Src/stm32h7xx_hal.c **** 
 927:Drivers/STM32H7xx_HAL_Driver/Src/stm32h7xx_hal.c **** /**
 928:Drivers/STM32H7xx_HAL_Driver/Src/stm32h7xx_hal.c ****   * @brief  Enable the Debug Module during Domain1/CDomain STOP mode
 929:Drivers/STM32H7xx_HAL_Driver/Src/stm32h7xx_hal.c ****   * @retval None
 930:Drivers/STM32H7xx_HAL_Driver/Src/stm32h7xx_hal.c ****   */
 931:Drivers/STM32H7xx_HAL_Driver/Src/stm32h7xx_hal.c **** void HAL_DBGMCU_EnableDBGStopMode(void)
 932:Drivers/STM32H7xx_HAL_Driver/Src/stm32h7xx_hal.c **** {
 2047              		.loc 1 932 1
 2048              		.cfi_startproc
 2049              		@ args = 0, pretend = 0, frame = 0
 2050              		@ frame_needed = 1, uses_anonymous_args = 0
 2051              		@ link register save eliminated.
 2052 0000 80B4     		push	{r7}
ARM GAS  /var/folders/g1/j12m_ky910s3_sv7d4yrsdn00000gn/T//ccvnHeju.s 			page 52


 2053              	.LCFI167:
 2054              		.cfi_def_cfa_offset 4
 2055              		.cfi_offset 7, -4
 2056 0002 00AF     		add	r7, sp, #0
 2057              	.LCFI168:
 2058              		.cfi_def_cfa_register 7
 933:Drivers/STM32H7xx_HAL_Driver/Src/stm32h7xx_hal.c ****   SET_BIT(DBGMCU->CR, DBGMCU_CR_DBG_STOPD1);
 2059              		.loc 1 933 3
 2060 0004 054B     		ldr	r3, .L137
 2061 0006 5B68     		ldr	r3, [r3, #4]
 2062 0008 044A     		ldr	r2, .L137
 2063 000a 43F00203 		orr	r3, r3, #2
 2064 000e 5360     		str	r3, [r2, #4]
 934:Drivers/STM32H7xx_HAL_Driver/Src/stm32h7xx_hal.c **** }
 2065              		.loc 1 934 1
 2066 0010 00BF     		nop
 2067 0012 BD46     		mov	sp, r7
 2068              	.LCFI169:
 2069              		.cfi_def_cfa_register 13
 2070              		@ sp needed
 2071 0014 5DF8047B 		ldr	r7, [sp], #4
 2072              	.LCFI170:
 2073              		.cfi_restore 7
 2074              		.cfi_def_cfa_offset 0
 2075 0018 7047     		bx	lr
 2076              	.L138:
 2077 001a 00BF     		.align	2
 2078              	.L137:
 2079 001c 0010005C 		.word	1543507968
 2080              		.cfi_endproc
 2081              	.LFE181:
 2083              		.section	.text.HAL_DBGMCU_DisableDBGStopMode,"ax",%progbits
 2084              		.align	1
 2085              		.global	HAL_DBGMCU_DisableDBGStopMode
 2086              		.syntax unified
 2087              		.thumb
 2088              		.thumb_func
 2090              	HAL_DBGMCU_DisableDBGStopMode:
 2091              	.LFB182:
 935:Drivers/STM32H7xx_HAL_Driver/Src/stm32h7xx_hal.c **** 
 936:Drivers/STM32H7xx_HAL_Driver/Src/stm32h7xx_hal.c **** /**
 937:Drivers/STM32H7xx_HAL_Driver/Src/stm32h7xx_hal.c ****   * @brief  Disable the Debug Module during Domain1/CDomain STOP mode
 938:Drivers/STM32H7xx_HAL_Driver/Src/stm32h7xx_hal.c ****   * @retval None
 939:Drivers/STM32H7xx_HAL_Driver/Src/stm32h7xx_hal.c ****   */
 940:Drivers/STM32H7xx_HAL_Driver/Src/stm32h7xx_hal.c **** void HAL_DBGMCU_DisableDBGStopMode(void)
 941:Drivers/STM32H7xx_HAL_Driver/Src/stm32h7xx_hal.c **** {
 2092              		.loc 1 941 1
 2093              		.cfi_startproc
 2094              		@ args = 0, pretend = 0, frame = 0
 2095              		@ frame_needed = 1, uses_anonymous_args = 0
 2096              		@ link register save eliminated.
 2097 0000 80B4     		push	{r7}
 2098              	.LCFI171:
 2099              		.cfi_def_cfa_offset 4
 2100              		.cfi_offset 7, -4
 2101 0002 00AF     		add	r7, sp, #0
 2102              	.LCFI172:
ARM GAS  /var/folders/g1/j12m_ky910s3_sv7d4yrsdn00000gn/T//ccvnHeju.s 			page 53


 2103              		.cfi_def_cfa_register 7
 942:Drivers/STM32H7xx_HAL_Driver/Src/stm32h7xx_hal.c ****   CLEAR_BIT(DBGMCU->CR, DBGMCU_CR_DBG_STOPD1);
 2104              		.loc 1 942 3
 2105 0004 054B     		ldr	r3, .L140
 2106 0006 5B68     		ldr	r3, [r3, #4]
 2107 0008 044A     		ldr	r2, .L140
 2108 000a 23F00203 		bic	r3, r3, #2
 2109 000e 5360     		str	r3, [r2, #4]
 943:Drivers/STM32H7xx_HAL_Driver/Src/stm32h7xx_hal.c **** }
 2110              		.loc 1 943 1
 2111 0010 00BF     		nop
 2112 0012 BD46     		mov	sp, r7
 2113              	.LCFI173:
 2114              		.cfi_def_cfa_register 13
 2115              		@ sp needed
 2116 0014 5DF8047B 		ldr	r7, [sp], #4
 2117              	.LCFI174:
 2118              		.cfi_restore 7
 2119              		.cfi_def_cfa_offset 0
 2120 0018 7047     		bx	lr
 2121              	.L141:
 2122 001a 00BF     		.align	2
 2123              	.L140:
 2124 001c 0010005C 		.word	1543507968
 2125              		.cfi_endproc
 2126              	.LFE182:
 2128              		.section	.text.HAL_DBGMCU_EnableDBGStandbyMode,"ax",%progbits
 2129              		.align	1
 2130              		.global	HAL_DBGMCU_EnableDBGStandbyMode
 2131              		.syntax unified
 2132              		.thumb
 2133              		.thumb_func
 2135              	HAL_DBGMCU_EnableDBGStandbyMode:
 2136              	.LFB183:
 944:Drivers/STM32H7xx_HAL_Driver/Src/stm32h7xx_hal.c **** 
 945:Drivers/STM32H7xx_HAL_Driver/Src/stm32h7xx_hal.c **** /**
 946:Drivers/STM32H7xx_HAL_Driver/Src/stm32h7xx_hal.c ****   * @brief  Enable the Debug Module during Domain1/CDomain STANDBY mode
 947:Drivers/STM32H7xx_HAL_Driver/Src/stm32h7xx_hal.c ****   * @retval None
 948:Drivers/STM32H7xx_HAL_Driver/Src/stm32h7xx_hal.c ****   */
 949:Drivers/STM32H7xx_HAL_Driver/Src/stm32h7xx_hal.c **** void HAL_DBGMCU_EnableDBGStandbyMode(void)
 950:Drivers/STM32H7xx_HAL_Driver/Src/stm32h7xx_hal.c **** {
 2137              		.loc 1 950 1
 2138              		.cfi_startproc
 2139              		@ args = 0, pretend = 0, frame = 0
 2140              		@ frame_needed = 1, uses_anonymous_args = 0
 2141              		@ link register save eliminated.
 2142 0000 80B4     		push	{r7}
 2143              	.LCFI175:
 2144              		.cfi_def_cfa_offset 4
 2145              		.cfi_offset 7, -4
 2146 0002 00AF     		add	r7, sp, #0
 2147              	.LCFI176:
 2148              		.cfi_def_cfa_register 7
 951:Drivers/STM32H7xx_HAL_Driver/Src/stm32h7xx_hal.c ****   SET_BIT(DBGMCU->CR, DBGMCU_CR_DBG_STANDBYD1);
 2149              		.loc 1 951 3
 2150 0004 054B     		ldr	r3, .L143
 2151 0006 5B68     		ldr	r3, [r3, #4]
ARM GAS  /var/folders/g1/j12m_ky910s3_sv7d4yrsdn00000gn/T//ccvnHeju.s 			page 54


 2152 0008 044A     		ldr	r2, .L143
 2153 000a 43F00403 		orr	r3, r3, #4
 2154 000e 5360     		str	r3, [r2, #4]
 952:Drivers/STM32H7xx_HAL_Driver/Src/stm32h7xx_hal.c **** }
 2155              		.loc 1 952 1
 2156 0010 00BF     		nop
 2157 0012 BD46     		mov	sp, r7
 2158              	.LCFI177:
 2159              		.cfi_def_cfa_register 13
 2160              		@ sp needed
 2161 0014 5DF8047B 		ldr	r7, [sp], #4
 2162              	.LCFI178:
 2163              		.cfi_restore 7
 2164              		.cfi_def_cfa_offset 0
 2165 0018 7047     		bx	lr
 2166              	.L144:
 2167 001a 00BF     		.align	2
 2168              	.L143:
 2169 001c 0010005C 		.word	1543507968
 2170              		.cfi_endproc
 2171              	.LFE183:
 2173              		.section	.text.HAL_DBGMCU_DisableDBGStandbyMode,"ax",%progbits
 2174              		.align	1
 2175              		.global	HAL_DBGMCU_DisableDBGStandbyMode
 2176              		.syntax unified
 2177              		.thumb
 2178              		.thumb_func
 2180              	HAL_DBGMCU_DisableDBGStandbyMode:
 2181              	.LFB184:
 953:Drivers/STM32H7xx_HAL_Driver/Src/stm32h7xx_hal.c **** 
 954:Drivers/STM32H7xx_HAL_Driver/Src/stm32h7xx_hal.c **** /**
 955:Drivers/STM32H7xx_HAL_Driver/Src/stm32h7xx_hal.c ****   * @brief  Disable the Debug Module during Domain1/CDomain STANDBY mode
 956:Drivers/STM32H7xx_HAL_Driver/Src/stm32h7xx_hal.c ****   * @retval None
 957:Drivers/STM32H7xx_HAL_Driver/Src/stm32h7xx_hal.c ****   */
 958:Drivers/STM32H7xx_HAL_Driver/Src/stm32h7xx_hal.c **** void HAL_DBGMCU_DisableDBGStandbyMode(void)
 959:Drivers/STM32H7xx_HAL_Driver/Src/stm32h7xx_hal.c **** {
 2182              		.loc 1 959 1
 2183              		.cfi_startproc
 2184              		@ args = 0, pretend = 0, frame = 0
 2185              		@ frame_needed = 1, uses_anonymous_args = 0
 2186              		@ link register save eliminated.
 2187 0000 80B4     		push	{r7}
 2188              	.LCFI179:
 2189              		.cfi_def_cfa_offset 4
 2190              		.cfi_offset 7, -4
 2191 0002 00AF     		add	r7, sp, #0
 2192              	.LCFI180:
 2193              		.cfi_def_cfa_register 7
 960:Drivers/STM32H7xx_HAL_Driver/Src/stm32h7xx_hal.c ****   CLEAR_BIT(DBGMCU->CR, DBGMCU_CR_DBG_STANDBYD1);
 2194              		.loc 1 960 3
 2195 0004 054B     		ldr	r3, .L146
 2196 0006 5B68     		ldr	r3, [r3, #4]
 2197 0008 044A     		ldr	r2, .L146
 2198 000a 23F00403 		bic	r3, r3, #4
 2199 000e 5360     		str	r3, [r2, #4]
 961:Drivers/STM32H7xx_HAL_Driver/Src/stm32h7xx_hal.c **** }
 2200              		.loc 1 961 1
ARM GAS  /var/folders/g1/j12m_ky910s3_sv7d4yrsdn00000gn/T//ccvnHeju.s 			page 55


 2201 0010 00BF     		nop
 2202 0012 BD46     		mov	sp, r7
 2203              	.LCFI181:
 2204              		.cfi_def_cfa_register 13
 2205              		@ sp needed
 2206 0014 5DF8047B 		ldr	r7, [sp], #4
 2207              	.LCFI182:
 2208              		.cfi_restore 7
 2209              		.cfi_def_cfa_offset 0
 2210 0018 7047     		bx	lr
 2211              	.L147:
 2212 001a 00BF     		.align	2
 2213              	.L146:
 2214 001c 0010005C 		.word	1543507968
 2215              		.cfi_endproc
 2216              	.LFE184:
 2218              		.section	.text.HAL_SetFMCMemorySwappingConfig,"ax",%progbits
 2219              		.align	1
 2220              		.global	HAL_SetFMCMemorySwappingConfig
 2221              		.syntax unified
 2222              		.thumb
 2223              		.thumb_func
 2225              	HAL_SetFMCMemorySwappingConfig:
 2226              	.LFB185:
 962:Drivers/STM32H7xx_HAL_Driver/Src/stm32h7xx_hal.c **** 
 963:Drivers/STM32H7xx_HAL_Driver/Src/stm32h7xx_hal.c **** #if defined(DUAL_CORE)
 964:Drivers/STM32H7xx_HAL_Driver/Src/stm32h7xx_hal.c **** /**
 965:Drivers/STM32H7xx_HAL_Driver/Src/stm32h7xx_hal.c ****   * @brief  Enable the Debug Module during Domain1 SLEEP mode
 966:Drivers/STM32H7xx_HAL_Driver/Src/stm32h7xx_hal.c ****   * @retval None
 967:Drivers/STM32H7xx_HAL_Driver/Src/stm32h7xx_hal.c ****   */
 968:Drivers/STM32H7xx_HAL_Driver/Src/stm32h7xx_hal.c **** void HAL_EnableDomain2DBGSleepMode(void)
 969:Drivers/STM32H7xx_HAL_Driver/Src/stm32h7xx_hal.c **** {
 970:Drivers/STM32H7xx_HAL_Driver/Src/stm32h7xx_hal.c ****   SET_BIT(DBGMCU->CR, DBGMCU_CR_DBG_SLEEPD2);
 971:Drivers/STM32H7xx_HAL_Driver/Src/stm32h7xx_hal.c **** }
 972:Drivers/STM32H7xx_HAL_Driver/Src/stm32h7xx_hal.c **** 
 973:Drivers/STM32H7xx_HAL_Driver/Src/stm32h7xx_hal.c **** /**
 974:Drivers/STM32H7xx_HAL_Driver/Src/stm32h7xx_hal.c ****   * @brief  Disable the Debug Module during Domain2 SLEEP mode
 975:Drivers/STM32H7xx_HAL_Driver/Src/stm32h7xx_hal.c ****   * @retval None
 976:Drivers/STM32H7xx_HAL_Driver/Src/stm32h7xx_hal.c ****   */
 977:Drivers/STM32H7xx_HAL_Driver/Src/stm32h7xx_hal.c **** void HAL_DisableDomain2DBGSleepMode(void)
 978:Drivers/STM32H7xx_HAL_Driver/Src/stm32h7xx_hal.c **** {
 979:Drivers/STM32H7xx_HAL_Driver/Src/stm32h7xx_hal.c ****   CLEAR_BIT(DBGMCU->CR, DBGMCU_CR_DBG_SLEEPD2);
 980:Drivers/STM32H7xx_HAL_Driver/Src/stm32h7xx_hal.c **** }
 981:Drivers/STM32H7xx_HAL_Driver/Src/stm32h7xx_hal.c **** 
 982:Drivers/STM32H7xx_HAL_Driver/Src/stm32h7xx_hal.c **** /**
 983:Drivers/STM32H7xx_HAL_Driver/Src/stm32h7xx_hal.c ****   * @brief  Enable the Debug Module during Domain2 STOP mode
 984:Drivers/STM32H7xx_HAL_Driver/Src/stm32h7xx_hal.c ****   * @retval None
 985:Drivers/STM32H7xx_HAL_Driver/Src/stm32h7xx_hal.c ****   */
 986:Drivers/STM32H7xx_HAL_Driver/Src/stm32h7xx_hal.c **** void HAL_EnableDomain2DBGStopMode(void)
 987:Drivers/STM32H7xx_HAL_Driver/Src/stm32h7xx_hal.c **** {
 988:Drivers/STM32H7xx_HAL_Driver/Src/stm32h7xx_hal.c ****   SET_BIT(DBGMCU->CR, DBGMCU_CR_DBG_STOPD2);
 989:Drivers/STM32H7xx_HAL_Driver/Src/stm32h7xx_hal.c **** }
 990:Drivers/STM32H7xx_HAL_Driver/Src/stm32h7xx_hal.c **** 
 991:Drivers/STM32H7xx_HAL_Driver/Src/stm32h7xx_hal.c **** /**
 992:Drivers/STM32H7xx_HAL_Driver/Src/stm32h7xx_hal.c ****   * @brief  Disable the Debug Module during Domain2 STOP mode
 993:Drivers/STM32H7xx_HAL_Driver/Src/stm32h7xx_hal.c ****   * @retval None
 994:Drivers/STM32H7xx_HAL_Driver/Src/stm32h7xx_hal.c ****   */
ARM GAS  /var/folders/g1/j12m_ky910s3_sv7d4yrsdn00000gn/T//ccvnHeju.s 			page 56


 995:Drivers/STM32H7xx_HAL_Driver/Src/stm32h7xx_hal.c **** void HAL_DisableDomain2DBGStopMode(void)
 996:Drivers/STM32H7xx_HAL_Driver/Src/stm32h7xx_hal.c **** {
 997:Drivers/STM32H7xx_HAL_Driver/Src/stm32h7xx_hal.c ****   CLEAR_BIT(DBGMCU->CR, DBGMCU_CR_DBG_STOPD2);
 998:Drivers/STM32H7xx_HAL_Driver/Src/stm32h7xx_hal.c **** }
 999:Drivers/STM32H7xx_HAL_Driver/Src/stm32h7xx_hal.c **** 
1000:Drivers/STM32H7xx_HAL_Driver/Src/stm32h7xx_hal.c **** /**
1001:Drivers/STM32H7xx_HAL_Driver/Src/stm32h7xx_hal.c ****   * @brief  Enable the Debug Module during Domain2 STANDBY mode
1002:Drivers/STM32H7xx_HAL_Driver/Src/stm32h7xx_hal.c ****   * @retval None
1003:Drivers/STM32H7xx_HAL_Driver/Src/stm32h7xx_hal.c ****   */
1004:Drivers/STM32H7xx_HAL_Driver/Src/stm32h7xx_hal.c **** void HAL_EnableDomain2DBGStandbyMode(void)
1005:Drivers/STM32H7xx_HAL_Driver/Src/stm32h7xx_hal.c **** {
1006:Drivers/STM32H7xx_HAL_Driver/Src/stm32h7xx_hal.c ****   SET_BIT(DBGMCU->CR, DBGMCU_CR_DBG_STANDBYD2);
1007:Drivers/STM32H7xx_HAL_Driver/Src/stm32h7xx_hal.c **** }
1008:Drivers/STM32H7xx_HAL_Driver/Src/stm32h7xx_hal.c **** 
1009:Drivers/STM32H7xx_HAL_Driver/Src/stm32h7xx_hal.c **** /**
1010:Drivers/STM32H7xx_HAL_Driver/Src/stm32h7xx_hal.c ****   * @brief  Disable the Debug Module during Domain2 STANDBY mode
1011:Drivers/STM32H7xx_HAL_Driver/Src/stm32h7xx_hal.c ****   * @retval None
1012:Drivers/STM32H7xx_HAL_Driver/Src/stm32h7xx_hal.c ****   */
1013:Drivers/STM32H7xx_HAL_Driver/Src/stm32h7xx_hal.c **** void HAL_DisableDomain2DBGStandbyMode(void)
1014:Drivers/STM32H7xx_HAL_Driver/Src/stm32h7xx_hal.c **** {
1015:Drivers/STM32H7xx_HAL_Driver/Src/stm32h7xx_hal.c ****   CLEAR_BIT(DBGMCU->CR, DBGMCU_CR_DBG_STANDBYD2);
1016:Drivers/STM32H7xx_HAL_Driver/Src/stm32h7xx_hal.c **** }
1017:Drivers/STM32H7xx_HAL_Driver/Src/stm32h7xx_hal.c **** #endif /*DUAL_CORE*/
1018:Drivers/STM32H7xx_HAL_Driver/Src/stm32h7xx_hal.c **** 
1019:Drivers/STM32H7xx_HAL_Driver/Src/stm32h7xx_hal.c **** #if defined(DBGMCU_CR_DBG_STOPD3)
1020:Drivers/STM32H7xx_HAL_Driver/Src/stm32h7xx_hal.c **** /**
1021:Drivers/STM32H7xx_HAL_Driver/Src/stm32h7xx_hal.c ****   * @brief  Enable the Debug Module during Domain3/SRDomain STOP mode
1022:Drivers/STM32H7xx_HAL_Driver/Src/stm32h7xx_hal.c ****   * @retval None
1023:Drivers/STM32H7xx_HAL_Driver/Src/stm32h7xx_hal.c ****   */
1024:Drivers/STM32H7xx_HAL_Driver/Src/stm32h7xx_hal.c **** void HAL_EnableDomain3DBGStopMode(void)
1025:Drivers/STM32H7xx_HAL_Driver/Src/stm32h7xx_hal.c **** {
1026:Drivers/STM32H7xx_HAL_Driver/Src/stm32h7xx_hal.c ****   SET_BIT(DBGMCU->CR, DBGMCU_CR_DBG_STOPD3);
1027:Drivers/STM32H7xx_HAL_Driver/Src/stm32h7xx_hal.c **** }
1028:Drivers/STM32H7xx_HAL_Driver/Src/stm32h7xx_hal.c **** 
1029:Drivers/STM32H7xx_HAL_Driver/Src/stm32h7xx_hal.c **** /**
1030:Drivers/STM32H7xx_HAL_Driver/Src/stm32h7xx_hal.c ****   * @brief  Disable the Debug Module during Domain3/SRDomain STOP mode
1031:Drivers/STM32H7xx_HAL_Driver/Src/stm32h7xx_hal.c ****   * @retval None
1032:Drivers/STM32H7xx_HAL_Driver/Src/stm32h7xx_hal.c ****   */
1033:Drivers/STM32H7xx_HAL_Driver/Src/stm32h7xx_hal.c **** void HAL_DisableDomain3DBGStopMode(void)
1034:Drivers/STM32H7xx_HAL_Driver/Src/stm32h7xx_hal.c **** {
1035:Drivers/STM32H7xx_HAL_Driver/Src/stm32h7xx_hal.c ****   CLEAR_BIT(DBGMCU->CR, DBGMCU_CR_DBG_STOPD3);
1036:Drivers/STM32H7xx_HAL_Driver/Src/stm32h7xx_hal.c **** }
1037:Drivers/STM32H7xx_HAL_Driver/Src/stm32h7xx_hal.c **** #endif /*DBGMCU_CR_DBG_STOPD3*/
1038:Drivers/STM32H7xx_HAL_Driver/Src/stm32h7xx_hal.c **** 
1039:Drivers/STM32H7xx_HAL_Driver/Src/stm32h7xx_hal.c **** #if defined(DBGMCU_CR_DBG_STANDBYD3)
1040:Drivers/STM32H7xx_HAL_Driver/Src/stm32h7xx_hal.c **** /**
1041:Drivers/STM32H7xx_HAL_Driver/Src/stm32h7xx_hal.c ****   * @brief  Enable the Debug Module during Domain3/SRDomain STANDBY mode
1042:Drivers/STM32H7xx_HAL_Driver/Src/stm32h7xx_hal.c ****   * @retval None
1043:Drivers/STM32H7xx_HAL_Driver/Src/stm32h7xx_hal.c ****   */
1044:Drivers/STM32H7xx_HAL_Driver/Src/stm32h7xx_hal.c **** void HAL_EnableDomain3DBGStandbyMode(void)
1045:Drivers/STM32H7xx_HAL_Driver/Src/stm32h7xx_hal.c **** {
1046:Drivers/STM32H7xx_HAL_Driver/Src/stm32h7xx_hal.c ****   SET_BIT(DBGMCU->CR, DBGMCU_CR_DBG_STANDBYD3);
1047:Drivers/STM32H7xx_HAL_Driver/Src/stm32h7xx_hal.c **** }
1048:Drivers/STM32H7xx_HAL_Driver/Src/stm32h7xx_hal.c **** 
1049:Drivers/STM32H7xx_HAL_Driver/Src/stm32h7xx_hal.c **** /**
1050:Drivers/STM32H7xx_HAL_Driver/Src/stm32h7xx_hal.c ****   * @brief  Disable the Debug Module during Domain3/SRDomain STANDBY mode
1051:Drivers/STM32H7xx_HAL_Driver/Src/stm32h7xx_hal.c ****   * @retval None
ARM GAS  /var/folders/g1/j12m_ky910s3_sv7d4yrsdn00000gn/T//ccvnHeju.s 			page 57


1052:Drivers/STM32H7xx_HAL_Driver/Src/stm32h7xx_hal.c ****   */
1053:Drivers/STM32H7xx_HAL_Driver/Src/stm32h7xx_hal.c **** void HAL_DisableDomain3DBGStandbyMode(void)
1054:Drivers/STM32H7xx_HAL_Driver/Src/stm32h7xx_hal.c **** {
1055:Drivers/STM32H7xx_HAL_Driver/Src/stm32h7xx_hal.c ****   CLEAR_BIT(DBGMCU->CR, DBGMCU_CR_DBG_STANDBYD3);
1056:Drivers/STM32H7xx_HAL_Driver/Src/stm32h7xx_hal.c **** }
1057:Drivers/STM32H7xx_HAL_Driver/Src/stm32h7xx_hal.c **** #endif /*DBGMCU_CR_DBG_STANDBYD3*/
1058:Drivers/STM32H7xx_HAL_Driver/Src/stm32h7xx_hal.c **** 
1059:Drivers/STM32H7xx_HAL_Driver/Src/stm32h7xx_hal.c **** /**
1060:Drivers/STM32H7xx_HAL_Driver/Src/stm32h7xx_hal.c ****   * @brief  Set the FMC Memory Mapping Swapping config.
1061:Drivers/STM32H7xx_HAL_Driver/Src/stm32h7xx_hal.c ****   * @param  BankMapConfig: Defines the FMC Bank mapping configuration. This parameter can be
1062:Drivers/STM32H7xx_HAL_Driver/Src/stm32h7xx_hal.c ****             FMC_SWAPBMAP_DISABLE, FMC_SWAPBMAP_SDRAM_SRAM, FMC_SWAPBMAP_SDRAMB2
1063:Drivers/STM32H7xx_HAL_Driver/Src/stm32h7xx_hal.c ****   * @retval HAL state
1064:Drivers/STM32H7xx_HAL_Driver/Src/stm32h7xx_hal.c ****   */
1065:Drivers/STM32H7xx_HAL_Driver/Src/stm32h7xx_hal.c **** void HAL_SetFMCMemorySwappingConfig(uint32_t BankMapConfig)
1066:Drivers/STM32H7xx_HAL_Driver/Src/stm32h7xx_hal.c **** {
 2227              		.loc 1 1066 1
 2228              		.cfi_startproc
 2229              		@ args = 0, pretend = 0, frame = 8
 2230              		@ frame_needed = 1, uses_anonymous_args = 0
 2231              		@ link register save eliminated.
 2232 0000 80B4     		push	{r7}
 2233              	.LCFI183:
 2234              		.cfi_def_cfa_offset 4
 2235              		.cfi_offset 7, -4
 2236 0002 83B0     		sub	sp, sp, #12
 2237              	.LCFI184:
 2238              		.cfi_def_cfa_offset 16
 2239 0004 00AF     		add	r7, sp, #0
 2240              	.LCFI185:
 2241              		.cfi_def_cfa_register 7
 2242 0006 7860     		str	r0, [r7, #4]
1067:Drivers/STM32H7xx_HAL_Driver/Src/stm32h7xx_hal.c ****   /* Check the parameter */
1068:Drivers/STM32H7xx_HAL_Driver/Src/stm32h7xx_hal.c ****   assert_param(IS_FMC_SWAPBMAP_MODE(BankMapConfig));
1069:Drivers/STM32H7xx_HAL_Driver/Src/stm32h7xx_hal.c ****   MODIFY_REG(FMC_Bank1_R->BTCR[0], FMC_BCR1_BMAP, BankMapConfig);
 2243              		.loc 1 1069 3
 2244 0008 064B     		ldr	r3, .L149
 2245 000a 1B68     		ldr	r3, [r3]
 2246 000c 23F04072 		bic	r2, r3, #50331648
 2247 0010 0449     		ldr	r1, .L149
 2248 0012 7B68     		ldr	r3, [r7, #4]
 2249 0014 1343     		orrs	r3, r3, r2
 2250 0016 0B60     		str	r3, [r1]
1070:Drivers/STM32H7xx_HAL_Driver/Src/stm32h7xx_hal.c **** }
 2251              		.loc 1 1070 1
 2252 0018 00BF     		nop
 2253 001a 0C37     		adds	r7, r7, #12
 2254              	.LCFI186:
 2255              		.cfi_def_cfa_offset 4
 2256 001c BD46     		mov	sp, r7
 2257              	.LCFI187:
 2258              		.cfi_def_cfa_register 13
 2259              		@ sp needed
 2260 001e 5DF8047B 		ldr	r7, [sp], #4
 2261              	.LCFI188:
 2262              		.cfi_restore 7
 2263              		.cfi_def_cfa_offset 0
 2264 0022 7047     		bx	lr
ARM GAS  /var/folders/g1/j12m_ky910s3_sv7d4yrsdn00000gn/T//ccvnHeju.s 			page 58


 2265              	.L150:
 2266              		.align	2
 2267              	.L149:
 2268 0024 00400052 		.word	1375748096
 2269              		.cfi_endproc
 2270              	.LFE185:
 2272              		.section	.text.HAL_GetFMCMemorySwappingConfig,"ax",%progbits
 2273              		.align	1
 2274              		.global	HAL_GetFMCMemorySwappingConfig
 2275              		.syntax unified
 2276              		.thumb
 2277              		.thumb_func
 2279              	HAL_GetFMCMemorySwappingConfig:
 2280              	.LFB186:
1071:Drivers/STM32H7xx_HAL_Driver/Src/stm32h7xx_hal.c **** 
1072:Drivers/STM32H7xx_HAL_Driver/Src/stm32h7xx_hal.c **** /**
1073:Drivers/STM32H7xx_HAL_Driver/Src/stm32h7xx_hal.c ****   * @brief  Get FMC Bank mapping mode.
1074:Drivers/STM32H7xx_HAL_Driver/Src/stm32h7xx_hal.c ****   * @retval The FMC Bank mapping mode. This parameter can be
1075:Drivers/STM32H7xx_HAL_Driver/Src/stm32h7xx_hal.c ****             FMC_SWAPBMAP_DISABLE, FMC_SWAPBMAP_SDRAM_SRAM, FMC_SWAPBMAP_SDRAMB2
1076:Drivers/STM32H7xx_HAL_Driver/Src/stm32h7xx_hal.c **** */
1077:Drivers/STM32H7xx_HAL_Driver/Src/stm32h7xx_hal.c **** uint32_t HAL_GetFMCMemorySwappingConfig(void)
1078:Drivers/STM32H7xx_HAL_Driver/Src/stm32h7xx_hal.c **** {
 2281              		.loc 1 1078 1
 2282              		.cfi_startproc
 2283              		@ args = 0, pretend = 0, frame = 0
 2284              		@ frame_needed = 1, uses_anonymous_args = 0
 2285              		@ link register save eliminated.
 2286 0000 80B4     		push	{r7}
 2287              	.LCFI189:
 2288              		.cfi_def_cfa_offset 4
 2289              		.cfi_offset 7, -4
 2290 0002 00AF     		add	r7, sp, #0
 2291              	.LCFI190:
 2292              		.cfi_def_cfa_register 7
1079:Drivers/STM32H7xx_HAL_Driver/Src/stm32h7xx_hal.c ****   return READ_BIT(FMC_Bank1_R->BTCR[0], FMC_BCR1_BMAP);
 2293              		.loc 1 1079 10
 2294 0004 044B     		ldr	r3, .L153
 2295 0006 1B68     		ldr	r3, [r3]
 2296 0008 03F04073 		and	r3, r3, #50331648
1080:Drivers/STM32H7xx_HAL_Driver/Src/stm32h7xx_hal.c **** }
 2297              		.loc 1 1080 1
 2298 000c 1846     		mov	r0, r3
 2299 000e BD46     		mov	sp, r7
 2300              	.LCFI191:
 2301              		.cfi_def_cfa_register 13
 2302              		@ sp needed
 2303 0010 5DF8047B 		ldr	r7, [sp], #4
 2304              	.LCFI192:
 2305              		.cfi_restore 7
 2306              		.cfi_def_cfa_offset 0
 2307 0014 7047     		bx	lr
 2308              	.L154:
 2309 0016 00BF     		.align	2
 2310              	.L153:
 2311 0018 00400052 		.word	1375748096
 2312              		.cfi_endproc
 2313              	.LFE186:
ARM GAS  /var/folders/g1/j12m_ky910s3_sv7d4yrsdn00000gn/T//ccvnHeju.s 			page 59


 2315              		.section	.text.HAL_EXTI_EdgeConfig,"ax",%progbits
 2316              		.align	1
 2317              		.global	HAL_EXTI_EdgeConfig
 2318              		.syntax unified
 2319              		.thumb
 2320              		.thumb_func
 2322              	HAL_EXTI_EdgeConfig:
 2323              	.LFB187:
1081:Drivers/STM32H7xx_HAL_Driver/Src/stm32h7xx_hal.c **** 
1082:Drivers/STM32H7xx_HAL_Driver/Src/stm32h7xx_hal.c **** /**
1083:Drivers/STM32H7xx_HAL_Driver/Src/stm32h7xx_hal.c ****   * @brief  Configure the EXTI input event line edge
1084:Drivers/STM32H7xx_HAL_Driver/Src/stm32h7xx_hal.c ****   * @note    No edge configuration for direct lines but for configurable lines:(EXTI_LINE0..EXTI_LI
1085:Drivers/STM32H7xx_HAL_Driver/Src/stm32h7xx_hal.c ****   *          EXTI_LINE49,EXTI_LINE51,EXTI_LINE82,EXTI_LINE84,EXTI_LINE85 and EXTI_LINE86.
1086:Drivers/STM32H7xx_HAL_Driver/Src/stm32h7xx_hal.c ****   * @param   EXTI_Line: Specifies the EXTI LINE, it can be one of the following values,
1087:Drivers/STM32H7xx_HAL_Driver/Src/stm32h7xx_hal.c ****   *         (EXTI_LINE0....EXTI_LINE87)excluding :line45, line81,line83 which are reserved
1088:Drivers/STM32H7xx_HAL_Driver/Src/stm32h7xx_hal.c ****   * @param   EXTI_Edge: Specifies  EXTI line Edge used.
1089:Drivers/STM32H7xx_HAL_Driver/Src/stm32h7xx_hal.c ****   *          This parameter can be one of the following values :
1090:Drivers/STM32H7xx_HAL_Driver/Src/stm32h7xx_hal.c ****   *   @arg EXTI_RISING_EDGE : Configurable line, with Rising edge trigger detection
1091:Drivers/STM32H7xx_HAL_Driver/Src/stm32h7xx_hal.c ****   *   @arg EXTI_FALLING_EDGE: Configurable line, with Falling edge trigger detection
1092:Drivers/STM32H7xx_HAL_Driver/Src/stm32h7xx_hal.c ****   * @retval None
1093:Drivers/STM32H7xx_HAL_Driver/Src/stm32h7xx_hal.c ****   */
1094:Drivers/STM32H7xx_HAL_Driver/Src/stm32h7xx_hal.c **** void HAL_EXTI_EdgeConfig(uint32_t EXTI_Line , uint32_t EXTI_Edge )
1095:Drivers/STM32H7xx_HAL_Driver/Src/stm32h7xx_hal.c **** {
 2324              		.loc 1 1095 1
 2325              		.cfi_startproc
 2326              		@ args = 0, pretend = 0, frame = 8
 2327              		@ frame_needed = 1, uses_anonymous_args = 0
 2328              		@ link register save eliminated.
 2329 0000 80B4     		push	{r7}
 2330              	.LCFI193:
 2331              		.cfi_def_cfa_offset 4
 2332              		.cfi_offset 7, -4
 2333 0002 83B0     		sub	sp, sp, #12
 2334              	.LCFI194:
 2335              		.cfi_def_cfa_offset 16
 2336 0004 00AF     		add	r7, sp, #0
 2337              	.LCFI195:
 2338              		.cfi_def_cfa_register 7
 2339 0006 7860     		str	r0, [r7, #4]
 2340 0008 3960     		str	r1, [r7]
1096:Drivers/STM32H7xx_HAL_Driver/Src/stm32h7xx_hal.c ****   /* Check the parameter */
1097:Drivers/STM32H7xx_HAL_Driver/Src/stm32h7xx_hal.c ****   assert_param(IS_HAL_EXTI_CONFIG_LINE(EXTI_Line));
1098:Drivers/STM32H7xx_HAL_Driver/Src/stm32h7xx_hal.c ****   assert_param(IS_EXTI_EDGE_LINE(EXTI_Edge));
1099:Drivers/STM32H7xx_HAL_Driver/Src/stm32h7xx_hal.c **** 
1100:Drivers/STM32H7xx_HAL_Driver/Src/stm32h7xx_hal.c ****   /* Clear Rising Falling edge configuration */
1101:Drivers/STM32H7xx_HAL_Driver/Src/stm32h7xx_hal.c ****   CLEAR_BIT(*(__IO uint32_t *) (((uint32_t) &(EXTI->FTSR1)) + ((EXTI_Line >> 5 ) * 0x20UL)), (uint3
 2341              		.loc 1 1101 3
 2342 000a 7B68     		ldr	r3, [r7, #4]
 2343 000c 5B09     		lsrs	r3, r3, #5
 2344 000e 5A01     		lsls	r2, r3, #5
 2345 0010 2E4B     		ldr	r3, .L159
 2346 0012 1344     		add	r3, r3, r2
 2347 0014 1968     		ldr	r1, [r3]
 2348 0016 7B68     		ldr	r3, [r7, #4]
 2349 0018 03F01F03 		and	r3, r3, #31
 2350 001c 0122     		movs	r2, #1
 2351 001e 02FA03F3 		lsl	r3, r2, r3
ARM GAS  /var/folders/g1/j12m_ky910s3_sv7d4yrsdn00000gn/T//ccvnHeju.s 			page 60


 2352 0022 DA43     		mvns	r2, r3
 2353 0024 7B68     		ldr	r3, [r7, #4]
 2354 0026 5B09     		lsrs	r3, r3, #5
 2355 0028 5801     		lsls	r0, r3, #5
 2356 002a 284B     		ldr	r3, .L159
 2357 002c 0344     		add	r3, r3, r0
 2358 002e 1846     		mov	r0, r3
 2359 0030 01EA0203 		and	r3, r1, r2
 2360 0034 0360     		str	r3, [r0]
1102:Drivers/STM32H7xx_HAL_Driver/Src/stm32h7xx_hal.c ****   CLEAR_BIT( *(__IO uint32_t *) (((uint32_t) &(EXTI->RTSR1)) + ((EXTI_Line >> 5 ) * 0x20UL)), (uint
 2361              		.loc 1 1102 3
 2362 0036 7B68     		ldr	r3, [r7, #4]
 2363 0038 5B09     		lsrs	r3, r3, #5
 2364 003a 03F13073 		add	r3, r3, #46137344
 2365 003e 5B01     		lsls	r3, r3, #5
 2366 0040 1A68     		ldr	r2, [r3]
 2367 0042 7B68     		ldr	r3, [r7, #4]
 2368 0044 03F01F03 		and	r3, r3, #31
 2369 0048 0121     		movs	r1, #1
 2370 004a 01FA03F3 		lsl	r3, r1, r3
 2371 004e DB43     		mvns	r3, r3
 2372 0050 7968     		ldr	r1, [r7, #4]
 2373 0052 4909     		lsrs	r1, r1, #5
 2374 0054 01F13071 		add	r1, r1, #46137344
 2375 0058 4901     		lsls	r1, r1, #5
 2376 005a 1340     		ands	r3, r3, r2
 2377 005c 0B60     		str	r3, [r1]
1103:Drivers/STM32H7xx_HAL_Driver/Src/stm32h7xx_hal.c **** 
1104:Drivers/STM32H7xx_HAL_Driver/Src/stm32h7xx_hal.c ****   if( (EXTI_Edge & EXTI_RISING_EDGE) == EXTI_RISING_EDGE)
 2378              		.loc 1 1104 18
 2379 005e 3B68     		ldr	r3, [r7]
 2380 0060 03F48013 		and	r3, r3, #1048576
 2381              		.loc 1 1104 5
 2382 0064 002B     		cmp	r3, #0
 2383 0066 12D0     		beq	.L156
1105:Drivers/STM32H7xx_HAL_Driver/Src/stm32h7xx_hal.c ****   {
1106:Drivers/STM32H7xx_HAL_Driver/Src/stm32h7xx_hal.c ****    SET_BIT( *(__IO uint32_t *) (((uint32_t) &(EXTI->RTSR1)) + ((EXTI_Line >> 5 ) * 0x20UL)), (uint3
 2384              		.loc 1 1106 4
 2385 0068 7B68     		ldr	r3, [r7, #4]
 2386 006a 5B09     		lsrs	r3, r3, #5
 2387 006c 03F13073 		add	r3, r3, #46137344
 2388 0070 5B01     		lsls	r3, r3, #5
 2389 0072 1A68     		ldr	r2, [r3]
 2390 0074 7B68     		ldr	r3, [r7, #4]
 2391 0076 03F01F03 		and	r3, r3, #31
 2392 007a 0121     		movs	r1, #1
 2393 007c 01FA03F3 		lsl	r3, r1, r3
 2394 0080 7968     		ldr	r1, [r7, #4]
 2395 0082 4909     		lsrs	r1, r1, #5
 2396 0084 01F13071 		add	r1, r1, #46137344
 2397 0088 4901     		lsls	r1, r1, #5
 2398 008a 1343     		orrs	r3, r3, r2
 2399 008c 0B60     		str	r3, [r1]
 2400              	.L156:
1107:Drivers/STM32H7xx_HAL_Driver/Src/stm32h7xx_hal.c ****   }
1108:Drivers/STM32H7xx_HAL_Driver/Src/stm32h7xx_hal.c ****   if( (EXTI_Edge & EXTI_FALLING_EDGE) == EXTI_FALLING_EDGE)
 2401              		.loc 1 1108 18
ARM GAS  /var/folders/g1/j12m_ky910s3_sv7d4yrsdn00000gn/T//ccvnHeju.s 			page 61


 2402 008e 3B68     		ldr	r3, [r7]
 2403 0090 03F40013 		and	r3, r3, #2097152
 2404              		.loc 1 1108 5
 2405 0094 002B     		cmp	r3, #0
 2406 0096 13D0     		beq	.L158
1109:Drivers/STM32H7xx_HAL_Driver/Src/stm32h7xx_hal.c ****   {
1110:Drivers/STM32H7xx_HAL_Driver/Src/stm32h7xx_hal.c ****    SET_BIT(*(__IO uint32_t *) (((uint32_t) &(EXTI->FTSR1)) + ((EXTI_Line >> 5 ) * 0x20UL)), (uint32
 2407              		.loc 1 1110 4
 2408 0098 7B68     		ldr	r3, [r7, #4]
 2409 009a 5B09     		lsrs	r3, r3, #5
 2410 009c 5A01     		lsls	r2, r3, #5
 2411 009e 0B4B     		ldr	r3, .L159
 2412 00a0 1344     		add	r3, r3, r2
 2413 00a2 1968     		ldr	r1, [r3]
 2414 00a4 7B68     		ldr	r3, [r7, #4]
 2415 00a6 03F01F03 		and	r3, r3, #31
 2416 00aa 0122     		movs	r2, #1
 2417 00ac 9A40     		lsls	r2, r2, r3
 2418 00ae 7B68     		ldr	r3, [r7, #4]
 2419 00b0 5B09     		lsrs	r3, r3, #5
 2420 00b2 5801     		lsls	r0, r3, #5
 2421 00b4 054B     		ldr	r3, .L159
 2422 00b6 0344     		add	r3, r3, r0
 2423 00b8 1846     		mov	r0, r3
 2424 00ba 41EA0203 		orr	r3, r1, r2
 2425 00be 0360     		str	r3, [r0]
 2426              	.L158:
1111:Drivers/STM32H7xx_HAL_Driver/Src/stm32h7xx_hal.c ****   }
1112:Drivers/STM32H7xx_HAL_Driver/Src/stm32h7xx_hal.c **** }
 2427              		.loc 1 1112 1
 2428 00c0 00BF     		nop
 2429 00c2 0C37     		adds	r7, r7, #12
 2430              	.LCFI196:
 2431              		.cfi_def_cfa_offset 4
 2432 00c4 BD46     		mov	sp, r7
 2433              	.LCFI197:
 2434              		.cfi_def_cfa_register 13
 2435              		@ sp needed
 2436 00c6 5DF8047B 		ldr	r7, [sp], #4
 2437              	.LCFI198:
 2438              		.cfi_restore 7
 2439              		.cfi_def_cfa_offset 0
 2440 00ca 7047     		bx	lr
 2441              	.L160:
 2442              		.align	2
 2443              	.L159:
 2444 00cc 04000058 		.word	1476395012
 2445              		.cfi_endproc
 2446              	.LFE187:
 2448              		.section	.text.HAL_EXTI_GenerateSWInterrupt,"ax",%progbits
 2449              		.align	1
 2450              		.global	HAL_EXTI_GenerateSWInterrupt
 2451              		.syntax unified
 2452              		.thumb
 2453              		.thumb_func
 2455              	HAL_EXTI_GenerateSWInterrupt:
 2456              	.LFB188:
ARM GAS  /var/folders/g1/j12m_ky910s3_sv7d4yrsdn00000gn/T//ccvnHeju.s 			page 62


1113:Drivers/STM32H7xx_HAL_Driver/Src/stm32h7xx_hal.c **** 
1114:Drivers/STM32H7xx_HAL_Driver/Src/stm32h7xx_hal.c **** /**
1115:Drivers/STM32H7xx_HAL_Driver/Src/stm32h7xx_hal.c ****   * @brief  Generates a Software interrupt on selected EXTI line.
1116:Drivers/STM32H7xx_HAL_Driver/Src/stm32h7xx_hal.c ****   * @param   EXTI_Line: Specifies the EXTI LINE, it can be one of the following values,
1117:Drivers/STM32H7xx_HAL_Driver/Src/stm32h7xx_hal.c ****   *          (EXTI_LINE0..EXTI_LINE21),EXTI_LINE49,EXTI_LINE51,EXTI_LINE82,EXTI_LINE84,EXTI_LINE85 
1118:Drivers/STM32H7xx_HAL_Driver/Src/stm32h7xx_hal.c ****   * @retval None
1119:Drivers/STM32H7xx_HAL_Driver/Src/stm32h7xx_hal.c ****   */
1120:Drivers/STM32H7xx_HAL_Driver/Src/stm32h7xx_hal.c **** void HAL_EXTI_GenerateSWInterrupt(uint32_t EXTI_Line)
1121:Drivers/STM32H7xx_HAL_Driver/Src/stm32h7xx_hal.c **** {
 2457              		.loc 1 1121 1
 2458              		.cfi_startproc
 2459              		@ args = 0, pretend = 0, frame = 8
 2460              		@ frame_needed = 1, uses_anonymous_args = 0
 2461              		@ link register save eliminated.
 2462 0000 80B4     		push	{r7}
 2463              	.LCFI199:
 2464              		.cfi_def_cfa_offset 4
 2465              		.cfi_offset 7, -4
 2466 0002 83B0     		sub	sp, sp, #12
 2467              	.LCFI200:
 2468              		.cfi_def_cfa_offset 16
 2469 0004 00AF     		add	r7, sp, #0
 2470              	.LCFI201:
 2471              		.cfi_def_cfa_register 7
 2472 0006 7860     		str	r0, [r7, #4]
1122:Drivers/STM32H7xx_HAL_Driver/Src/stm32h7xx_hal.c ****   /* Check the parameters */
1123:Drivers/STM32H7xx_HAL_Driver/Src/stm32h7xx_hal.c ****   assert_param(IS_HAL_EXTI_CONFIG_LINE(EXTI_Line));
1124:Drivers/STM32H7xx_HAL_Driver/Src/stm32h7xx_hal.c **** 
1125:Drivers/STM32H7xx_HAL_Driver/Src/stm32h7xx_hal.c ****   SET_BIT(*(__IO uint32_t *) (((uint32_t) &(EXTI->SWIER1)) + ((EXTI_Line >> 5 ) * 0x20UL)), (uint32
 2473              		.loc 1 1125 3
 2474 0008 7B68     		ldr	r3, [r7, #4]
 2475 000a 5B09     		lsrs	r3, r3, #5
 2476 000c 5A01     		lsls	r2, r3, #5
 2477 000e 0B4B     		ldr	r3, .L162
 2478 0010 1344     		add	r3, r3, r2
 2479 0012 1968     		ldr	r1, [r3]
 2480 0014 7B68     		ldr	r3, [r7, #4]
 2481 0016 03F01F03 		and	r3, r3, #31
 2482 001a 0122     		movs	r2, #1
 2483 001c 9A40     		lsls	r2, r2, r3
 2484 001e 7B68     		ldr	r3, [r7, #4]
 2485 0020 5B09     		lsrs	r3, r3, #5
 2486 0022 5801     		lsls	r0, r3, #5
 2487 0024 054B     		ldr	r3, .L162
 2488 0026 0344     		add	r3, r3, r0
 2489 0028 1846     		mov	r0, r3
 2490 002a 41EA0203 		orr	r3, r1, r2
 2491 002e 0360     		str	r3, [r0]
1126:Drivers/STM32H7xx_HAL_Driver/Src/stm32h7xx_hal.c **** }
 2492              		.loc 1 1126 1
 2493 0030 00BF     		nop
 2494 0032 0C37     		adds	r7, r7, #12
 2495              	.LCFI202:
 2496              		.cfi_def_cfa_offset 4
 2497 0034 BD46     		mov	sp, r7
 2498              	.LCFI203:
 2499              		.cfi_def_cfa_register 13
ARM GAS  /var/folders/g1/j12m_ky910s3_sv7d4yrsdn00000gn/T//ccvnHeju.s 			page 63


 2500              		@ sp needed
 2501 0036 5DF8047B 		ldr	r7, [sp], #4
 2502              	.LCFI204:
 2503              		.cfi_restore 7
 2504              		.cfi_def_cfa_offset 0
 2505 003a 7047     		bx	lr
 2506              	.L163:
 2507              		.align	2
 2508              	.L162:
 2509 003c 08000058 		.word	1476395016
 2510              		.cfi_endproc
 2511              	.LFE188:
 2513              		.section	.text.HAL_EXTI_D1_ClearFlag,"ax",%progbits
 2514              		.align	1
 2515              		.global	HAL_EXTI_D1_ClearFlag
 2516              		.syntax unified
 2517              		.thumb
 2518              		.thumb_func
 2520              	HAL_EXTI_D1_ClearFlag:
 2521              	.LFB189:
1127:Drivers/STM32H7xx_HAL_Driver/Src/stm32h7xx_hal.c **** 
1128:Drivers/STM32H7xx_HAL_Driver/Src/stm32h7xx_hal.c **** 
1129:Drivers/STM32H7xx_HAL_Driver/Src/stm32h7xx_hal.c **** /**
1130:Drivers/STM32H7xx_HAL_Driver/Src/stm32h7xx_hal.c ****   * @brief  Clears the EXTI's line pending flags for Domain D1
1131:Drivers/STM32H7xx_HAL_Driver/Src/stm32h7xx_hal.c ****   * @param   EXTI_Line: Specifies the EXTI LINE, it can be one of the following values,
1132:Drivers/STM32H7xx_HAL_Driver/Src/stm32h7xx_hal.c ****   *         (EXTI_LINE0....EXTI_LINE87)excluding :line45, line81,line83 which are reserved
1133:Drivers/STM32H7xx_HAL_Driver/Src/stm32h7xx_hal.c ****   * @retval None
1134:Drivers/STM32H7xx_HAL_Driver/Src/stm32h7xx_hal.c ****   */
1135:Drivers/STM32H7xx_HAL_Driver/Src/stm32h7xx_hal.c **** void HAL_EXTI_D1_ClearFlag(uint32_t EXTI_Line)
1136:Drivers/STM32H7xx_HAL_Driver/Src/stm32h7xx_hal.c **** {
 2522              		.loc 1 1136 1
 2523              		.cfi_startproc
 2524              		@ args = 0, pretend = 0, frame = 8
 2525              		@ frame_needed = 1, uses_anonymous_args = 0
 2526              		@ link register save eliminated.
 2527 0000 80B4     		push	{r7}
 2528              	.LCFI205:
 2529              		.cfi_def_cfa_offset 4
 2530              		.cfi_offset 7, -4
 2531 0002 83B0     		sub	sp, sp, #12
 2532              	.LCFI206:
 2533              		.cfi_def_cfa_offset 16
 2534 0004 00AF     		add	r7, sp, #0
 2535              	.LCFI207:
 2536              		.cfi_def_cfa_register 7
 2537 0006 7860     		str	r0, [r7, #4]
1137:Drivers/STM32H7xx_HAL_Driver/Src/stm32h7xx_hal.c ****   /* Check the parameters */
1138:Drivers/STM32H7xx_HAL_Driver/Src/stm32h7xx_hal.c ****  assert_param(IS_EXTI_D1_LINE(EXTI_Line));
1139:Drivers/STM32H7xx_HAL_Driver/Src/stm32h7xx_hal.c ****  WRITE_REG(*(__IO uint32_t *) (((uint32_t) &(EXTI_D1->PR1)) + ((EXTI_Line >> 5 ) * 0x10UL)), (uint3
 2538              		.loc 1 1139 2
 2539 0008 7B68     		ldr	r3, [r7, #4]
 2540 000a 03F01F02 		and	r2, r3, #31
 2541 000e 7B68     		ldr	r3, [r7, #4]
 2542 0010 5B09     		lsrs	r3, r3, #5
 2543 0012 1901     		lsls	r1, r3, #4
 2544 0014 054B     		ldr	r3, .L165
 2545 0016 0B44     		add	r3, r3, r1
ARM GAS  /var/folders/g1/j12m_ky910s3_sv7d4yrsdn00000gn/T//ccvnHeju.s 			page 64


 2546 0018 1946     		mov	r1, r3
 2547 001a 0123     		movs	r3, #1
 2548 001c 9340     		lsls	r3, r3, r2
 2549 001e 0B60     		str	r3, [r1]
1140:Drivers/STM32H7xx_HAL_Driver/Src/stm32h7xx_hal.c **** 
1141:Drivers/STM32H7xx_HAL_Driver/Src/stm32h7xx_hal.c **** }
 2550              		.loc 1 1141 1
 2551 0020 00BF     		nop
 2552 0022 0C37     		adds	r7, r7, #12
 2553              	.LCFI208:
 2554              		.cfi_def_cfa_offset 4
 2555 0024 BD46     		mov	sp, r7
 2556              	.LCFI209:
 2557              		.cfi_def_cfa_register 13
 2558              		@ sp needed
 2559 0026 5DF8047B 		ldr	r7, [sp], #4
 2560              	.LCFI210:
 2561              		.cfi_restore 7
 2562              		.cfi_def_cfa_offset 0
 2563 002a 7047     		bx	lr
 2564              	.L166:
 2565              		.align	2
 2566              	.L165:
 2567 002c 88000058 		.word	1476395144
 2568              		.cfi_endproc
 2569              	.LFE189:
 2571              		.section	.text.HAL_EXTI_D1_EventInputConfig,"ax",%progbits
 2572              		.align	1
 2573              		.global	HAL_EXTI_D1_EventInputConfig
 2574              		.syntax unified
 2575              		.thumb
 2576              		.thumb_func
 2578              	HAL_EXTI_D1_EventInputConfig:
 2579              	.LFB190:
1142:Drivers/STM32H7xx_HAL_Driver/Src/stm32h7xx_hal.c **** 
1143:Drivers/STM32H7xx_HAL_Driver/Src/stm32h7xx_hal.c **** #if defined(DUAL_CORE)
1144:Drivers/STM32H7xx_HAL_Driver/Src/stm32h7xx_hal.c **** /**
1145:Drivers/STM32H7xx_HAL_Driver/Src/stm32h7xx_hal.c ****   * @brief  Clears the EXTI's line pending flags for Domain D2
1146:Drivers/STM32H7xx_HAL_Driver/Src/stm32h7xx_hal.c ****   * @param   EXTI_Line: Specifies the EXTI LINE, it can be one of the following values,
1147:Drivers/STM32H7xx_HAL_Driver/Src/stm32h7xx_hal.c ****   *         (EXTI_LINE0....EXTI_LINE87)excluding :line45, line81,line83 which are reserved
1148:Drivers/STM32H7xx_HAL_Driver/Src/stm32h7xx_hal.c ****   * @retval None
1149:Drivers/STM32H7xx_HAL_Driver/Src/stm32h7xx_hal.c ****   */
1150:Drivers/STM32H7xx_HAL_Driver/Src/stm32h7xx_hal.c **** void HAL_EXTI_D2_ClearFlag(uint32_t EXTI_Line)
1151:Drivers/STM32H7xx_HAL_Driver/Src/stm32h7xx_hal.c **** {
1152:Drivers/STM32H7xx_HAL_Driver/Src/stm32h7xx_hal.c ****   /* Check the parameters */
1153:Drivers/STM32H7xx_HAL_Driver/Src/stm32h7xx_hal.c ****  assert_param(IS_EXTI_D2_LINE(EXTI_Line));
1154:Drivers/STM32H7xx_HAL_Driver/Src/stm32h7xx_hal.c ****  WRITE_REG(*(__IO uint32_t *) (((uint32_t) &(EXTI_D2->PR1)) + ((EXTI_Line >> 5 ) * 0x10UL)), (uint3
1155:Drivers/STM32H7xx_HAL_Driver/Src/stm32h7xx_hal.c **** }
1156:Drivers/STM32H7xx_HAL_Driver/Src/stm32h7xx_hal.c **** 
1157:Drivers/STM32H7xx_HAL_Driver/Src/stm32h7xx_hal.c **** #endif /*DUAL_CORE*/
1158:Drivers/STM32H7xx_HAL_Driver/Src/stm32h7xx_hal.c **** /**
1159:Drivers/STM32H7xx_HAL_Driver/Src/stm32h7xx_hal.c ****   * @brief  Configure the EXTI input event line for Domain D1
1160:Drivers/STM32H7xx_HAL_Driver/Src/stm32h7xx_hal.c ****   * @param   EXTI_Line: Specifies the EXTI LINE, it can be one of the following values,
1161:Drivers/STM32H7xx_HAL_Driver/Src/stm32h7xx_hal.c ****   *         (EXTI_LINE0....EXTI_LINE87)excluding :line45, line81,line83 which are reserved
1162:Drivers/STM32H7xx_HAL_Driver/Src/stm32h7xx_hal.c ****   * @param   EXTI_Mode: Specifies which EXTI line is used as interrupt or an event.
1163:Drivers/STM32H7xx_HAL_Driver/Src/stm32h7xx_hal.c ****   *          This parameter can be one or a combination of the following values :
1164:Drivers/STM32H7xx_HAL_Driver/Src/stm32h7xx_hal.c ****   *   @arg EXTI_MODE_IT :  Interrupt Mode selected
ARM GAS  /var/folders/g1/j12m_ky910s3_sv7d4yrsdn00000gn/T//ccvnHeju.s 			page 65


1165:Drivers/STM32H7xx_HAL_Driver/Src/stm32h7xx_hal.c ****   *   @arg EXTI_MODE_EVT : Event Mode selected
1166:Drivers/STM32H7xx_HAL_Driver/Src/stm32h7xx_hal.c ****   * @param   EXTI_LineCmd controls (Enable/Disable) the EXTI line.
1167:Drivers/STM32H7xx_HAL_Driver/Src/stm32h7xx_hal.c **** 
1168:Drivers/STM32H7xx_HAL_Driver/Src/stm32h7xx_hal.c ****   * @retval None
1169:Drivers/STM32H7xx_HAL_Driver/Src/stm32h7xx_hal.c ****   */
1170:Drivers/STM32H7xx_HAL_Driver/Src/stm32h7xx_hal.c **** void HAL_EXTI_D1_EventInputConfig(uint32_t EXTI_Line , uint32_t EXTI_Mode,  uint32_t EXTI_LineCmd )
1171:Drivers/STM32H7xx_HAL_Driver/Src/stm32h7xx_hal.c **** {
 2580              		.loc 1 1171 1
 2581              		.cfi_startproc
 2582              		@ args = 0, pretend = 0, frame = 16
 2583              		@ frame_needed = 1, uses_anonymous_args = 0
 2584              		@ link register save eliminated.
 2585 0000 80B4     		push	{r7}
 2586              	.LCFI211:
 2587              		.cfi_def_cfa_offset 4
 2588              		.cfi_offset 7, -4
 2589 0002 85B0     		sub	sp, sp, #20
 2590              	.LCFI212:
 2591              		.cfi_def_cfa_offset 24
 2592 0004 00AF     		add	r7, sp, #0
 2593              	.LCFI213:
 2594              		.cfi_def_cfa_register 7
 2595 0006 F860     		str	r0, [r7, #12]
 2596 0008 B960     		str	r1, [r7, #8]
 2597 000a 7A60     		str	r2, [r7, #4]
1172:Drivers/STM32H7xx_HAL_Driver/Src/stm32h7xx_hal.c ****   /* Check the parameter */
1173:Drivers/STM32H7xx_HAL_Driver/Src/stm32h7xx_hal.c ****   assert_param(IS_EXTI_D1_LINE(EXTI_Line));
1174:Drivers/STM32H7xx_HAL_Driver/Src/stm32h7xx_hal.c ****   assert_param(IS_EXTI_MODE_LINE(EXTI_Mode));
1175:Drivers/STM32H7xx_HAL_Driver/Src/stm32h7xx_hal.c **** 
1176:Drivers/STM32H7xx_HAL_Driver/Src/stm32h7xx_hal.c ****   if( (EXTI_Mode & EXTI_MODE_IT) == EXTI_MODE_IT)
 2598              		.loc 1 1176 18
 2599 000c BB68     		ldr	r3, [r7, #8]
 2600 000e 03F48033 		and	r3, r3, #65536
 2601              		.loc 1 1176 5
 2602 0012 002B     		cmp	r3, #0
 2603 0014 2DD0     		beq	.L168
1177:Drivers/STM32H7xx_HAL_Driver/Src/stm32h7xx_hal.c ****   {
1178:Drivers/STM32H7xx_HAL_Driver/Src/stm32h7xx_hal.c ****      if( EXTI_LineCmd == 0UL)
 2604              		.loc 1 1178 8
 2605 0016 7B68     		ldr	r3, [r7, #4]
 2606 0018 002B     		cmp	r3, #0
 2607 001a 16D1     		bne	.L169
1179:Drivers/STM32H7xx_HAL_Driver/Src/stm32h7xx_hal.c ****      {
1180:Drivers/STM32H7xx_HAL_Driver/Src/stm32h7xx_hal.c ****        /* Clear EXTI line configuration */
1181:Drivers/STM32H7xx_HAL_Driver/Src/stm32h7xx_hal.c ****         CLEAR_BIT(*(__IO uint32_t *) (((uint32_t) &(EXTI_D1->IMR1)) + ((EXTI_Line >> 5 ) * 0x10UL))
 2608              		.loc 1 1181 9
 2609 001c FB68     		ldr	r3, [r7, #12]
 2610 001e 5A09     		lsrs	r2, r3, #5
 2611 0020 304B     		ldr	r3, .L173
 2612 0022 1344     		add	r3, r3, r2
 2613 0024 1B01     		lsls	r3, r3, #4
 2614 0026 1968     		ldr	r1, [r3]
 2615 0028 FB68     		ldr	r3, [r7, #12]
 2616 002a 03F01F03 		and	r3, r3, #31
 2617 002e 0122     		movs	r2, #1
 2618 0030 02FA03F3 		lsl	r3, r2, r3
 2619 0034 DA43     		mvns	r2, r3
ARM GAS  /var/folders/g1/j12m_ky910s3_sv7d4yrsdn00000gn/T//ccvnHeju.s 			page 66


 2620 0036 FB68     		ldr	r3, [r7, #12]
 2621 0038 5809     		lsrs	r0, r3, #5
 2622 003a 2A4B     		ldr	r3, .L173
 2623 003c 0344     		add	r3, r3, r0
 2624 003e 1B01     		lsls	r3, r3, #4
 2625 0040 1846     		mov	r0, r3
 2626 0042 01EA0203 		and	r3, r1, r2
 2627 0046 0360     		str	r3, [r0]
 2628 0048 13E0     		b	.L168
 2629              	.L169:
1182:Drivers/STM32H7xx_HAL_Driver/Src/stm32h7xx_hal.c ****      }
1183:Drivers/STM32H7xx_HAL_Driver/Src/stm32h7xx_hal.c ****      else
1184:Drivers/STM32H7xx_HAL_Driver/Src/stm32h7xx_hal.c ****      {
1185:Drivers/STM32H7xx_HAL_Driver/Src/stm32h7xx_hal.c ****         SET_BIT(*(__IO uint32_t *) (((uint32_t) &(EXTI_D1->IMR1)) + ((EXTI_Line >> 5 ) * 0x10UL)), 
 2630              		.loc 1 1185 9
 2631 004a FB68     		ldr	r3, [r7, #12]
 2632 004c 5A09     		lsrs	r2, r3, #5
 2633 004e 254B     		ldr	r3, .L173
 2634 0050 1344     		add	r3, r3, r2
 2635 0052 1B01     		lsls	r3, r3, #4
 2636 0054 1968     		ldr	r1, [r3]
 2637 0056 FB68     		ldr	r3, [r7, #12]
 2638 0058 03F01F03 		and	r3, r3, #31
 2639 005c 0122     		movs	r2, #1
 2640 005e 9A40     		lsls	r2, r2, r3
 2641 0060 FB68     		ldr	r3, [r7, #12]
 2642 0062 5809     		lsrs	r0, r3, #5
 2643 0064 1F4B     		ldr	r3, .L173
 2644 0066 0344     		add	r3, r3, r0
 2645 0068 1B01     		lsls	r3, r3, #4
 2646 006a 1846     		mov	r0, r3
 2647 006c 41EA0203 		orr	r3, r1, r2
 2648 0070 0360     		str	r3, [r0]
 2649              	.L168:
1186:Drivers/STM32H7xx_HAL_Driver/Src/stm32h7xx_hal.c ****      }
1187:Drivers/STM32H7xx_HAL_Driver/Src/stm32h7xx_hal.c ****   }
1188:Drivers/STM32H7xx_HAL_Driver/Src/stm32h7xx_hal.c **** 
1189:Drivers/STM32H7xx_HAL_Driver/Src/stm32h7xx_hal.c ****   if( (EXTI_Mode & EXTI_MODE_EVT) == EXTI_MODE_EVT)
 2650              		.loc 1 1189 18
 2651 0072 BB68     		ldr	r3, [r7, #8]
 2652 0074 03F40033 		and	r3, r3, #131072
 2653              		.loc 1 1189 5
 2654 0078 002B     		cmp	r3, #0
 2655 007a 2DD0     		beq	.L172
1190:Drivers/STM32H7xx_HAL_Driver/Src/stm32h7xx_hal.c ****   {
1191:Drivers/STM32H7xx_HAL_Driver/Src/stm32h7xx_hal.c ****     if( EXTI_LineCmd == 0UL)
 2656              		.loc 1 1191 7
 2657 007c 7B68     		ldr	r3, [r7, #4]
 2658 007e 002B     		cmp	r3, #0
 2659 0080 16D1     		bne	.L171
1192:Drivers/STM32H7xx_HAL_Driver/Src/stm32h7xx_hal.c ****     {
1193:Drivers/STM32H7xx_HAL_Driver/Src/stm32h7xx_hal.c ****       /* Clear EXTI line configuration */
1194:Drivers/STM32H7xx_HAL_Driver/Src/stm32h7xx_hal.c ****       CLEAR_BIT(  *(__IO uint32_t *) (((uint32_t) &(EXTI_D1->EMR1)) + ((EXTI_Line >> 5 ) * 0x10UL))
 2660              		.loc 1 1194 7
 2661 0082 FB68     		ldr	r3, [r7, #12]
 2662 0084 5B09     		lsrs	r3, r3, #5
 2663 0086 1A01     		lsls	r2, r3, #4
ARM GAS  /var/folders/g1/j12m_ky910s3_sv7d4yrsdn00000gn/T//ccvnHeju.s 			page 67


 2664 0088 174B     		ldr	r3, .L173+4
 2665 008a 1344     		add	r3, r3, r2
 2666 008c 1968     		ldr	r1, [r3]
 2667 008e FB68     		ldr	r3, [r7, #12]
 2668 0090 03F01F03 		and	r3, r3, #31
 2669 0094 0122     		movs	r2, #1
 2670 0096 02FA03F3 		lsl	r3, r2, r3
 2671 009a DA43     		mvns	r2, r3
 2672 009c FB68     		ldr	r3, [r7, #12]
 2673 009e 5B09     		lsrs	r3, r3, #5
 2674 00a0 1801     		lsls	r0, r3, #4
 2675 00a2 114B     		ldr	r3, .L173+4
 2676 00a4 0344     		add	r3, r3, r0
 2677 00a6 1846     		mov	r0, r3
 2678 00a8 01EA0203 		and	r3, r1, r2
 2679 00ac 0360     		str	r3, [r0]
1195:Drivers/STM32H7xx_HAL_Driver/Src/stm32h7xx_hal.c ****     }
1196:Drivers/STM32H7xx_HAL_Driver/Src/stm32h7xx_hal.c ****     else
1197:Drivers/STM32H7xx_HAL_Driver/Src/stm32h7xx_hal.c ****     {
1198:Drivers/STM32H7xx_HAL_Driver/Src/stm32h7xx_hal.c ****       SET_BIT(  *(__IO uint32_t *) (((uint32_t) &(EXTI_D1->EMR1)) + ((EXTI_Line >> 5 ) * 0x10UL)), 
1199:Drivers/STM32H7xx_HAL_Driver/Src/stm32h7xx_hal.c ****     }
1200:Drivers/STM32H7xx_HAL_Driver/Src/stm32h7xx_hal.c ****   }
1201:Drivers/STM32H7xx_HAL_Driver/Src/stm32h7xx_hal.c **** }
 2680              		.loc 1 1201 1
 2681 00ae 13E0     		b	.L172
 2682              	.L171:
1198:Drivers/STM32H7xx_HAL_Driver/Src/stm32h7xx_hal.c ****     }
 2683              		.loc 1 1198 7
 2684 00b0 FB68     		ldr	r3, [r7, #12]
 2685 00b2 5B09     		lsrs	r3, r3, #5
 2686 00b4 1A01     		lsls	r2, r3, #4
 2687 00b6 0C4B     		ldr	r3, .L173+4
 2688 00b8 1344     		add	r3, r3, r2
 2689 00ba 1968     		ldr	r1, [r3]
 2690 00bc FB68     		ldr	r3, [r7, #12]
 2691 00be 03F01F03 		and	r3, r3, #31
 2692 00c2 0122     		movs	r2, #1
 2693 00c4 9A40     		lsls	r2, r2, r3
 2694 00c6 FB68     		ldr	r3, [r7, #12]
 2695 00c8 5B09     		lsrs	r3, r3, #5
 2696 00ca 1801     		lsls	r0, r3, #4
 2697 00cc 064B     		ldr	r3, .L173+4
 2698 00ce 0344     		add	r3, r3, r0
 2699 00d0 1846     		mov	r0, r3
 2700 00d2 41EA0203 		orr	r3, r1, r2
 2701 00d6 0360     		str	r3, [r0]
 2702              	.L172:
 2703              		.loc 1 1201 1
 2704 00d8 00BF     		nop
 2705 00da 1437     		adds	r7, r7, #20
 2706              	.LCFI214:
 2707              		.cfi_def_cfa_offset 4
 2708 00dc BD46     		mov	sp, r7
 2709              	.LCFI215:
 2710              		.cfi_def_cfa_register 13
 2711              		@ sp needed
 2712 00de 5DF8047B 		ldr	r7, [sp], #4
ARM GAS  /var/folders/g1/j12m_ky910s3_sv7d4yrsdn00000gn/T//ccvnHeju.s 			page 68


 2713              	.LCFI216:
 2714              		.cfi_restore 7
 2715              		.cfi_def_cfa_offset 0
 2716 00e2 7047     		bx	lr
 2717              	.L174:
 2718              		.align	2
 2719              	.L173:
 2720 00e4 08008005 		.word	92274696
 2721 00e8 84000058 		.word	1476395140
 2722              		.cfi_endproc
 2723              	.LFE190:
 2725              		.section	.text.HAL_EXTI_D3_EventInputConfig,"ax",%progbits
 2726              		.align	1
 2727              		.global	HAL_EXTI_D3_EventInputConfig
 2728              		.syntax unified
 2729              		.thumb
 2730              		.thumb_func
 2732              	HAL_EXTI_D3_EventInputConfig:
 2733              	.LFB191:
1202:Drivers/STM32H7xx_HAL_Driver/Src/stm32h7xx_hal.c **** 
1203:Drivers/STM32H7xx_HAL_Driver/Src/stm32h7xx_hal.c **** #if defined(DUAL_CORE)
1204:Drivers/STM32H7xx_HAL_Driver/Src/stm32h7xx_hal.c **** /**
1205:Drivers/STM32H7xx_HAL_Driver/Src/stm32h7xx_hal.c ****   * @brief  Configure the EXTI input event line for Domain D2
1206:Drivers/STM32H7xx_HAL_Driver/Src/stm32h7xx_hal.c ****   * @param   EXTI_Line: Specifies the EXTI LINE, it can be one of the following values,
1207:Drivers/STM32H7xx_HAL_Driver/Src/stm32h7xx_hal.c ****   *         (EXTI_LINE0....EXTI_LINE87)excluding :line45, line81,line83 which are reserved
1208:Drivers/STM32H7xx_HAL_Driver/Src/stm32h7xx_hal.c ****   * @param   EXTI_Mode: Specifies which EXTI line is used as interrupt or an event.
1209:Drivers/STM32H7xx_HAL_Driver/Src/stm32h7xx_hal.c ****   *          This parameter can be one or a combination of the following values :
1210:Drivers/STM32H7xx_HAL_Driver/Src/stm32h7xx_hal.c ****   *   @arg EXTI_MODE_IT :  Interrupt Mode selected
1211:Drivers/STM32H7xx_HAL_Driver/Src/stm32h7xx_hal.c ****   *   @arg EXTI_MODE_EVT : Event Mode selected
1212:Drivers/STM32H7xx_HAL_Driver/Src/stm32h7xx_hal.c ****   * @param   EXTI_LineCmd controls (Enable/Disable) the EXTI line.
1213:Drivers/STM32H7xx_HAL_Driver/Src/stm32h7xx_hal.c **** 
1214:Drivers/STM32H7xx_HAL_Driver/Src/stm32h7xx_hal.c ****   * @retval None
1215:Drivers/STM32H7xx_HAL_Driver/Src/stm32h7xx_hal.c ****   */
1216:Drivers/STM32H7xx_HAL_Driver/Src/stm32h7xx_hal.c **** void HAL_EXTI_D2_EventInputConfig(uint32_t EXTI_Line , uint32_t EXTI_Mode,  uint32_t EXTI_LineCmd )
1217:Drivers/STM32H7xx_HAL_Driver/Src/stm32h7xx_hal.c **** {
1218:Drivers/STM32H7xx_HAL_Driver/Src/stm32h7xx_hal.c ****   /* Check the parameter */
1219:Drivers/STM32H7xx_HAL_Driver/Src/stm32h7xx_hal.c ****   assert_param(IS_EXTI_D2_LINE(EXTI_Line));
1220:Drivers/STM32H7xx_HAL_Driver/Src/stm32h7xx_hal.c ****   assert_param(IS_EXTI_MODE_LINE(EXTI_Mode));
1221:Drivers/STM32H7xx_HAL_Driver/Src/stm32h7xx_hal.c **** 
1222:Drivers/STM32H7xx_HAL_Driver/Src/stm32h7xx_hal.c ****   if( (EXTI_Mode & EXTI_MODE_IT) == EXTI_MODE_IT)
1223:Drivers/STM32H7xx_HAL_Driver/Src/stm32h7xx_hal.c ****   {
1224:Drivers/STM32H7xx_HAL_Driver/Src/stm32h7xx_hal.c ****     if( EXTI_LineCmd == 0UL)
1225:Drivers/STM32H7xx_HAL_Driver/Src/stm32h7xx_hal.c ****     {
1226:Drivers/STM32H7xx_HAL_Driver/Src/stm32h7xx_hal.c ****     /* Clear EXTI line configuration */
1227:Drivers/STM32H7xx_HAL_Driver/Src/stm32h7xx_hal.c ****      CLEAR_BIT(*(__IO uint32_t *) (((uint32_t) &(EXTI_D2->IMR1)) + ((EXTI_Line >> 5 ) * 0x10UL)),(u
1228:Drivers/STM32H7xx_HAL_Driver/Src/stm32h7xx_hal.c ****     }
1229:Drivers/STM32H7xx_HAL_Driver/Src/stm32h7xx_hal.c ****     else
1230:Drivers/STM32H7xx_HAL_Driver/Src/stm32h7xx_hal.c ****     {
1231:Drivers/STM32H7xx_HAL_Driver/Src/stm32h7xx_hal.c ****      SET_BIT(*(__IO uint32_t *) (((uint32_t) &(EXTI_D2->IMR1)) + ((EXTI_Line >> 5 ) * 0x10UL)), (ui
1232:Drivers/STM32H7xx_HAL_Driver/Src/stm32h7xx_hal.c ****     }
1233:Drivers/STM32H7xx_HAL_Driver/Src/stm32h7xx_hal.c ****   }
1234:Drivers/STM32H7xx_HAL_Driver/Src/stm32h7xx_hal.c **** 
1235:Drivers/STM32H7xx_HAL_Driver/Src/stm32h7xx_hal.c ****   if( (EXTI_Mode & EXTI_MODE_EVT) == EXTI_MODE_EVT)
1236:Drivers/STM32H7xx_HAL_Driver/Src/stm32h7xx_hal.c ****   {
1237:Drivers/STM32H7xx_HAL_Driver/Src/stm32h7xx_hal.c ****     if( EXTI_LineCmd == 0UL)
1238:Drivers/STM32H7xx_HAL_Driver/Src/stm32h7xx_hal.c ****     {
1239:Drivers/STM32H7xx_HAL_Driver/Src/stm32h7xx_hal.c ****       /* Clear EXTI line configuration */
ARM GAS  /var/folders/g1/j12m_ky910s3_sv7d4yrsdn00000gn/T//ccvnHeju.s 			page 69


1240:Drivers/STM32H7xx_HAL_Driver/Src/stm32h7xx_hal.c ****       CLEAR_BIT(  *(__IO uint32_t *) (((uint32_t) &(EXTI_D2->EMR1)) + ((EXTI_Line >> 5 ) * 0x10UL))
1241:Drivers/STM32H7xx_HAL_Driver/Src/stm32h7xx_hal.c ****     }
1242:Drivers/STM32H7xx_HAL_Driver/Src/stm32h7xx_hal.c ****     else
1243:Drivers/STM32H7xx_HAL_Driver/Src/stm32h7xx_hal.c ****     {
1244:Drivers/STM32H7xx_HAL_Driver/Src/stm32h7xx_hal.c ****       SET_BIT(  *(__IO uint32_t *) (((uint32_t) &(EXTI_D2->EMR1)) + ((EXTI_Line >> 5 ) * 0x10UL)), 
1245:Drivers/STM32H7xx_HAL_Driver/Src/stm32h7xx_hal.c ****     }
1246:Drivers/STM32H7xx_HAL_Driver/Src/stm32h7xx_hal.c ****   }
1247:Drivers/STM32H7xx_HAL_Driver/Src/stm32h7xx_hal.c **** }
1248:Drivers/STM32H7xx_HAL_Driver/Src/stm32h7xx_hal.c **** #endif /*DUAL_CORE*/
1249:Drivers/STM32H7xx_HAL_Driver/Src/stm32h7xx_hal.c **** 
1250:Drivers/STM32H7xx_HAL_Driver/Src/stm32h7xx_hal.c **** /**
1251:Drivers/STM32H7xx_HAL_Driver/Src/stm32h7xx_hal.c ****   * @brief  Configure the EXTI input event line for Domain D3
1252:Drivers/STM32H7xx_HAL_Driver/Src/stm32h7xx_hal.c ****   * @param   EXTI_Line: Specifies the EXTI LINE, it can be one of the following values,
1253:Drivers/STM32H7xx_HAL_Driver/Src/stm32h7xx_hal.c ****   *         (EXTI_LINE0...EXTI_LINE15),(EXTI_LINE19...EXTI_LINE21),EXTI_LINE25, EXTI_LINE34,
1254:Drivers/STM32H7xx_HAL_Driver/Src/stm32h7xx_hal.c ****   *          EXTI_LINE35,EXTI_LINE41,(EXTI_LINE48...EXTI_LINE53)
1255:Drivers/STM32H7xx_HAL_Driver/Src/stm32h7xx_hal.c ****   * @param   EXTI_LineCmd controls (Enable/Disable) the EXTI line.
1256:Drivers/STM32H7xx_HAL_Driver/Src/stm32h7xx_hal.c ****   * @param   EXTI_ClearSrc: Specifies the clear source of D3 pending event.
1257:Drivers/STM32H7xx_HAL_Driver/Src/stm32h7xx_hal.c ****   *          This parameter can be one of the following values :
1258:Drivers/STM32H7xx_HAL_Driver/Src/stm32h7xx_hal.c ****   *   @arg BDMA_CH6_CLEAR : BDMA ch6 event selected as D3 domain pendclear source
1259:Drivers/STM32H7xx_HAL_Driver/Src/stm32h7xx_hal.c ****   *   @arg BDMA_CH7_CLEAR : BDMA ch7 event selected as D3 domain pendclear source
1260:Drivers/STM32H7xx_HAL_Driver/Src/stm32h7xx_hal.c ****   *   @arg LPTIM4_OUT_CLEAR : LPTIM4 out selected as D3 domain pendclear source
1261:Drivers/STM32H7xx_HAL_Driver/Src/stm32h7xx_hal.c ****   *   @arg LPTIM5_OUT_CLEAR : LPTIM5 out selected as D3 domain pendclear source
1262:Drivers/STM32H7xx_HAL_Driver/Src/stm32h7xx_hal.c ****   * @retval None
1263:Drivers/STM32H7xx_HAL_Driver/Src/stm32h7xx_hal.c ****   */
1264:Drivers/STM32H7xx_HAL_Driver/Src/stm32h7xx_hal.c **** void HAL_EXTI_D3_EventInputConfig(uint32_t EXTI_Line, uint32_t EXTI_LineCmd , uint32_t EXTI_ClearSr
1265:Drivers/STM32H7xx_HAL_Driver/Src/stm32h7xx_hal.c **** {
 2734              		.loc 1 1265 1
 2735              		.cfi_startproc
 2736              		@ args = 0, pretend = 0, frame = 24
 2737              		@ frame_needed = 1, uses_anonymous_args = 0
 2738              		@ link register save eliminated.
 2739 0000 80B4     		push	{r7}
 2740              	.LCFI217:
 2741              		.cfi_def_cfa_offset 4
 2742              		.cfi_offset 7, -4
 2743 0002 87B0     		sub	sp, sp, #28
 2744              	.LCFI218:
 2745              		.cfi_def_cfa_offset 32
 2746 0004 00AF     		add	r7, sp, #0
 2747              	.LCFI219:
 2748              		.cfi_def_cfa_register 7
 2749 0006 F860     		str	r0, [r7, #12]
 2750 0008 B960     		str	r1, [r7, #8]
 2751 000a 7A60     		str	r2, [r7, #4]
1266:Drivers/STM32H7xx_HAL_Driver/Src/stm32h7xx_hal.c ****   __IO uint32_t *pRegv;
1267:Drivers/STM32H7xx_HAL_Driver/Src/stm32h7xx_hal.c **** 
1268:Drivers/STM32H7xx_HAL_Driver/Src/stm32h7xx_hal.c ****   /* Check the parameter */
1269:Drivers/STM32H7xx_HAL_Driver/Src/stm32h7xx_hal.c ****   assert_param(IS_EXTI_D3_LINE(EXTI_Line));
1270:Drivers/STM32H7xx_HAL_Driver/Src/stm32h7xx_hal.c ****   assert_param(IS_EXTI_D3_CLEAR(EXTI_ClearSrc));
1271:Drivers/STM32H7xx_HAL_Driver/Src/stm32h7xx_hal.c **** 
1272:Drivers/STM32H7xx_HAL_Driver/Src/stm32h7xx_hal.c ****   if( EXTI_LineCmd == 0UL)
 2752              		.loc 1 1272 5
 2753 000c BB68     		ldr	r3, [r7, #8]
 2754 000e 002B     		cmp	r3, #0
 2755 0010 16D1     		bne	.L176
1273:Drivers/STM32H7xx_HAL_Driver/Src/stm32h7xx_hal.c ****   {
1274:Drivers/STM32H7xx_HAL_Driver/Src/stm32h7xx_hal.c ****     /* Clear EXTI line configuration */
ARM GAS  /var/folders/g1/j12m_ky910s3_sv7d4yrsdn00000gn/T//ccvnHeju.s 			page 70


1275:Drivers/STM32H7xx_HAL_Driver/Src/stm32h7xx_hal.c ****     CLEAR_BIT(*(__IO uint32_t *) (((uint32_t) &(EXTI->D3PMR1)) + ((EXTI_Line >> 5 ) * 0x20UL)),(uin
 2756              		.loc 1 1275 5
 2757 0012 FB68     		ldr	r3, [r7, #12]
 2758 0014 5B09     		lsrs	r3, r3, #5
 2759 0016 5A01     		lsls	r2, r3, #5
 2760 0018 2A4B     		ldr	r3, .L180
 2761 001a 1344     		add	r3, r3, r2
 2762 001c 1968     		ldr	r1, [r3]
 2763 001e FB68     		ldr	r3, [r7, #12]
 2764 0020 03F01F03 		and	r3, r3, #31
 2765 0024 0122     		movs	r2, #1
 2766 0026 02FA03F3 		lsl	r3, r2, r3
 2767 002a DA43     		mvns	r2, r3
 2768 002c FB68     		ldr	r3, [r7, #12]
 2769 002e 5B09     		lsrs	r3, r3, #5
 2770 0030 5801     		lsls	r0, r3, #5
 2771 0032 244B     		ldr	r3, .L180
 2772 0034 0344     		add	r3, r3, r0
 2773 0036 1846     		mov	r0, r3
 2774 0038 01EA0203 		and	r3, r1, r2
 2775 003c 0360     		str	r3, [r0]
 2776 003e 13E0     		b	.L177
 2777              	.L176:
1276:Drivers/STM32H7xx_HAL_Driver/Src/stm32h7xx_hal.c ****   }
1277:Drivers/STM32H7xx_HAL_Driver/Src/stm32h7xx_hal.c ****   else
1278:Drivers/STM32H7xx_HAL_Driver/Src/stm32h7xx_hal.c ****   {
1279:Drivers/STM32H7xx_HAL_Driver/Src/stm32h7xx_hal.c ****     SET_BIT(*(__IO uint32_t *) (((uint32_t) &(EXTI->D3PMR1)) +((EXTI_Line >> 5 ) * 0x20UL)), (uint3
 2778              		.loc 1 1279 5
 2779 0040 FB68     		ldr	r3, [r7, #12]
 2780 0042 5B09     		lsrs	r3, r3, #5
 2781 0044 5A01     		lsls	r2, r3, #5
 2782 0046 1F4B     		ldr	r3, .L180
 2783 0048 1344     		add	r3, r3, r2
 2784 004a 1968     		ldr	r1, [r3]
 2785 004c FB68     		ldr	r3, [r7, #12]
 2786 004e 03F01F03 		and	r3, r3, #31
 2787 0052 0122     		movs	r2, #1
 2788 0054 9A40     		lsls	r2, r2, r3
 2789 0056 FB68     		ldr	r3, [r7, #12]
 2790 0058 5B09     		lsrs	r3, r3, #5
 2791 005a 5801     		lsls	r0, r3, #5
 2792 005c 194B     		ldr	r3, .L180
 2793 005e 0344     		add	r3, r3, r0
 2794 0060 1846     		mov	r0, r3
 2795 0062 41EA0203 		orr	r3, r1, r2
 2796 0066 0360     		str	r3, [r0]
 2797              	.L177:
1280:Drivers/STM32H7xx_HAL_Driver/Src/stm32h7xx_hal.c ****   }
1281:Drivers/STM32H7xx_HAL_Driver/Src/stm32h7xx_hal.c **** 
1282:Drivers/STM32H7xx_HAL_Driver/Src/stm32h7xx_hal.c ****   if(((EXTI_Line>>4)%2UL) == 0UL)
 2798              		.loc 1 1282 17
 2799 0068 FB68     		ldr	r3, [r7, #12]
 2800 006a 1B09     		lsrs	r3, r3, #4
 2801              		.loc 1 1282 21
 2802 006c 03F00103 		and	r3, r3, #1
 2803              		.loc 1 1282 5
 2804 0070 002B     		cmp	r3, #0
ARM GAS  /var/folders/g1/j12m_ky910s3_sv7d4yrsdn00000gn/T//ccvnHeju.s 			page 71


 2805 0072 06D1     		bne	.L178
1283:Drivers/STM32H7xx_HAL_Driver/Src/stm32h7xx_hal.c ****   {
1284:Drivers/STM32H7xx_HAL_Driver/Src/stm32h7xx_hal.c ****     pRegv = (__IO uint32_t *) (((uint32_t) &(EXTI->D3PCR1L)) + ((EXTI_Line >> 5 ) * 0x20UL));
 2806              		.loc 1 1284 76
 2807 0074 FB68     		ldr	r3, [r7, #12]
 2808 0076 5B09     		lsrs	r3, r3, #5
 2809              		.loc 1 1284 83
 2810 0078 5A01     		lsls	r2, r3, #5
 2811              		.loc 1 1284 62
 2812 007a 134B     		ldr	r3, .L180+4
 2813 007c 1344     		add	r3, r3, r2
 2814              		.loc 1 1284 11
 2815 007e 7B61     		str	r3, [r7, #20]
 2816 0080 05E0     		b	.L179
 2817              	.L178:
1285:Drivers/STM32H7xx_HAL_Driver/Src/stm32h7xx_hal.c ****   }
1286:Drivers/STM32H7xx_HAL_Driver/Src/stm32h7xx_hal.c ****   else
1287:Drivers/STM32H7xx_HAL_Driver/Src/stm32h7xx_hal.c ****   {
1288:Drivers/STM32H7xx_HAL_Driver/Src/stm32h7xx_hal.c ****     pRegv = (__IO uint32_t *) (((uint32_t) &(EXTI->D3PCR1H)) + ((EXTI_Line >> 5 ) * 0x20UL));
 2818              		.loc 1 1288 76
 2819 0082 FB68     		ldr	r3, [r7, #12]
 2820 0084 5B09     		lsrs	r3, r3, #5
 2821              		.loc 1 1288 83
 2822 0086 5A01     		lsls	r2, r3, #5
 2823              		.loc 1 1288 62
 2824 0088 104B     		ldr	r3, .L180+8
 2825 008a 1344     		add	r3, r3, r2
 2826              		.loc 1 1288 11
 2827 008c 7B61     		str	r3, [r7, #20]
 2828              	.L179:
1289:Drivers/STM32H7xx_HAL_Driver/Src/stm32h7xx_hal.c ****   }
1290:Drivers/STM32H7xx_HAL_Driver/Src/stm32h7xx_hal.c ****   MODIFY_REG(*pRegv, (uint32_t)(3UL << ((EXTI_Line*2UL) & 0x1FUL)), (uint32_t)(EXTI_ClearSrc << ((E
 2829              		.loc 1 1290 3
 2830 008e 7B69     		ldr	r3, [r7, #20]
 2831 0090 1A68     		ldr	r2, [r3]
 2832 0092 FB68     		ldr	r3, [r7, #12]
 2833 0094 5B00     		lsls	r3, r3, #1
 2834 0096 03F01E03 		and	r3, r3, #30
 2835 009a 0321     		movs	r1, #3
 2836 009c 01FA03F3 		lsl	r3, r1, r3
 2837 00a0 DB43     		mvns	r3, r3
 2838 00a2 1A40     		ands	r2, r2, r3
 2839 00a4 FB68     		ldr	r3, [r7, #12]
 2840 00a6 5B00     		lsls	r3, r3, #1
 2841 00a8 03F01E03 		and	r3, r3, #30
 2842 00ac 7968     		ldr	r1, [r7, #4]
 2843 00ae 01FA03F3 		lsl	r3, r1, r3
 2844 00b2 1A43     		orrs	r2, r2, r3
 2845 00b4 7B69     		ldr	r3, [r7, #20]
 2846 00b6 1A60     		str	r2, [r3]
1291:Drivers/STM32H7xx_HAL_Driver/Src/stm32h7xx_hal.c **** 
1292:Drivers/STM32H7xx_HAL_Driver/Src/stm32h7xx_hal.c **** }
 2847              		.loc 1 1292 1
 2848 00b8 00BF     		nop
 2849 00ba 1C37     		adds	r7, r7, #28
 2850              	.LCFI220:
 2851              		.cfi_def_cfa_offset 4
ARM GAS  /var/folders/g1/j12m_ky910s3_sv7d4yrsdn00000gn/T//ccvnHeju.s 			page 72


 2852 00bc BD46     		mov	sp, r7
 2853              	.LCFI221:
 2854              		.cfi_def_cfa_register 13
 2855              		@ sp needed
 2856 00be 5DF8047B 		ldr	r7, [sp], #4
 2857              	.LCFI222:
 2858              		.cfi_restore 7
 2859              		.cfi_def_cfa_offset 0
 2860 00c2 7047     		bx	lr
 2861              	.L181:
 2862              		.align	2
 2863              	.L180:
 2864 00c4 0C000058 		.word	1476395020
 2865 00c8 10000058 		.word	1476395024
 2866 00cc 14000058 		.word	1476395028
 2867              		.cfi_endproc
 2868              	.LFE191:
 2870              		.text
 2871              	.Letext0:
 2872              		.file 2 "Drivers/CMSIS/Device/ST/STM32H7xx/Include/stm32h743xx.h"
 2873              		.file 3 "/Users/zhy/Tools/xpack-arm-none-eabi-gcc-14.2.1-1.1/arm-none-eabi/include/machine/_defaul
 2874              		.file 4 "/Users/zhy/Tools/xpack-arm-none-eabi-gcc-14.2.1-1.1/arm-none-eabi/include/sys/_stdint.h"
 2875              		.file 5 "Drivers/CMSIS/Include/core_cm7.h"
 2876              		.file 6 "Drivers/CMSIS/Device/ST/STM32H7xx/Include/system_stm32h7xx.h"
 2877              		.file 7 "Drivers/STM32H7xx_HAL_Driver/Inc/stm32h7xx_hal_def.h"
 2878              		.file 8 "Drivers/STM32H7xx_HAL_Driver/Inc/stm32h7xx_hal.h"
 2879              		.file 9 "Drivers/STM32H7xx_HAL_Driver/Inc/stm32h7xx_hal_cortex.h"
 2880              		.file 10 "Drivers/STM32H7xx_HAL_Driver/Inc/stm32h7xx_hal_rcc.h"
ARM GAS  /var/folders/g1/j12m_ky910s3_sv7d4yrsdn00000gn/T//ccvnHeju.s 			page 73


DEFINED SYMBOLS
                            *ABS*:00000000 stm32h7xx_hal.c
/var/folders/g1/j12m_ky910s3_sv7d4yrsdn00000gn/T//ccvnHeju.s:24     .bss.uwTick:00000000 uwTick
/var/folders/g1/j12m_ky910s3_sv7d4yrsdn00000gn/T//ccvnHeju.s:21     .bss.uwTick:00000000 $d
/var/folders/g1/j12m_ky910s3_sv7d4yrsdn00000gn/T//ccvnHeju.s:31     .data.uwTickPrio:00000000 uwTickPrio
/var/folders/g1/j12m_ky910s3_sv7d4yrsdn00000gn/T//ccvnHeju.s:28     .data.uwTickPrio:00000000 $d
/var/folders/g1/j12m_ky910s3_sv7d4yrsdn00000gn/T//ccvnHeju.s:37     .data.uwTickFreq:00000000 uwTickFreq
/var/folders/g1/j12m_ky910s3_sv7d4yrsdn00000gn/T//ccvnHeju.s:40     .text.HAL_Init:00000000 $t
/var/folders/g1/j12m_ky910s3_sv7d4yrsdn00000gn/T//ccvnHeju.s:46     .text.HAL_Init:00000000 HAL_Init
/var/folders/g1/j12m_ky910s3_sv7d4yrsdn00000gn/T//ccvnHeju.s:329    .text.HAL_InitTick:00000000 HAL_InitTick
/var/folders/g1/j12m_ky910s3_sv7d4yrsdn00000gn/T//ccvnHeju.s:259    .text.HAL_MspInit:00000000 HAL_MspInit
/var/folders/g1/j12m_ky910s3_sv7d4yrsdn00000gn/T//ccvnHeju.s:132    .text.HAL_Init:00000068 $d
/var/folders/g1/j12m_ky910s3_sv7d4yrsdn00000gn/T//ccvnHeju.s:140    .text.HAL_DeInit:00000000 $t
/var/folders/g1/j12m_ky910s3_sv7d4yrsdn00000gn/T//ccvnHeju.s:146    .text.HAL_DeInit:00000000 HAL_DeInit
/var/folders/g1/j12m_ky910s3_sv7d4yrsdn00000gn/T//ccvnHeju.s:294    .text.HAL_MspDeInit:00000000 HAL_MspDeInit
/var/folders/g1/j12m_ky910s3_sv7d4yrsdn00000gn/T//ccvnHeju.s:242    .text.HAL_DeInit:000000a0 $d
/var/folders/g1/j12m_ky910s3_sv7d4yrsdn00000gn/T//ccvnHeju.s:253    .text.HAL_MspInit:00000000 $t
/var/folders/g1/j12m_ky910s3_sv7d4yrsdn00000gn/T//ccvnHeju.s:288    .text.HAL_MspDeInit:00000000 $t
/var/folders/g1/j12m_ky910s3_sv7d4yrsdn00000gn/T//ccvnHeju.s:323    .text.HAL_InitTick:00000000 $t
/var/folders/g1/j12m_ky910s3_sv7d4yrsdn00000gn/T//ccvnHeju.s:412    .text.HAL_InitTick:00000060 $d
/var/folders/g1/j12m_ky910s3_sv7d4yrsdn00000gn/T//ccvnHeju.s:419    .text.HAL_IncTick:00000000 $t
/var/folders/g1/j12m_ky910s3_sv7d4yrsdn00000gn/T//ccvnHeju.s:425    .text.HAL_IncTick:00000000 HAL_IncTick
/var/folders/g1/j12m_ky910s3_sv7d4yrsdn00000gn/T//ccvnHeju.s:463    .text.HAL_IncTick:00000020 $d
/var/folders/g1/j12m_ky910s3_sv7d4yrsdn00000gn/T//ccvnHeju.s:469    .text.HAL_GetTick:00000000 $t
/var/folders/g1/j12m_ky910s3_sv7d4yrsdn00000gn/T//ccvnHeju.s:475    .text.HAL_GetTick:00000000 HAL_GetTick
/var/folders/g1/j12m_ky910s3_sv7d4yrsdn00000gn/T//ccvnHeju.s:506    .text.HAL_GetTick:00000014 $d
/var/folders/g1/j12m_ky910s3_sv7d4yrsdn00000gn/T//ccvnHeju.s:511    .text.HAL_GetTickPrio:00000000 $t
/var/folders/g1/j12m_ky910s3_sv7d4yrsdn00000gn/T//ccvnHeju.s:517    .text.HAL_GetTickPrio:00000000 HAL_GetTickPrio
/var/folders/g1/j12m_ky910s3_sv7d4yrsdn00000gn/T//ccvnHeju.s:548    .text.HAL_GetTickPrio:00000014 $d
/var/folders/g1/j12m_ky910s3_sv7d4yrsdn00000gn/T//ccvnHeju.s:553    .text.HAL_SetTickFreq:00000000 $t
/var/folders/g1/j12m_ky910s3_sv7d4yrsdn00000gn/T//ccvnHeju.s:559    .text.HAL_SetTickFreq:00000000 HAL_SetTickFreq
/var/folders/g1/j12m_ky910s3_sv7d4yrsdn00000gn/T//ccvnHeju.s:627    .text.HAL_SetTickFreq:00000048 $d
/var/folders/g1/j12m_ky910s3_sv7d4yrsdn00000gn/T//ccvnHeju.s:633    .text.HAL_GetTickFreq:00000000 $t
/var/folders/g1/j12m_ky910s3_sv7d4yrsdn00000gn/T//ccvnHeju.s:639    .text.HAL_GetTickFreq:00000000 HAL_GetTickFreq
/var/folders/g1/j12m_ky910s3_sv7d4yrsdn00000gn/T//ccvnHeju.s:670    .text.HAL_GetTickFreq:00000014 $d
/var/folders/g1/j12m_ky910s3_sv7d4yrsdn00000gn/T//ccvnHeju.s:675    .text.HAL_Delay:00000000 $t
/var/folders/g1/j12m_ky910s3_sv7d4yrsdn00000gn/T//ccvnHeju.s:681    .text.HAL_Delay:00000000 HAL_Delay
/var/folders/g1/j12m_ky910s3_sv7d4yrsdn00000gn/T//ccvnHeju.s:745    .text.HAL_Delay:00000044 $d
/var/folders/g1/j12m_ky910s3_sv7d4yrsdn00000gn/T//ccvnHeju.s:750    .text.HAL_SuspendTick:00000000 $t
/var/folders/g1/j12m_ky910s3_sv7d4yrsdn00000gn/T//ccvnHeju.s:756    .text.HAL_SuspendTick:00000000 HAL_SuspendTick
/var/folders/g1/j12m_ky910s3_sv7d4yrsdn00000gn/T//ccvnHeju.s:791    .text.HAL_SuspendTick:0000001c $d
/var/folders/g1/j12m_ky910s3_sv7d4yrsdn00000gn/T//ccvnHeju.s:796    .text.HAL_ResumeTick:00000000 $t
/var/folders/g1/j12m_ky910s3_sv7d4yrsdn00000gn/T//ccvnHeju.s:802    .text.HAL_ResumeTick:00000000 HAL_ResumeTick
/var/folders/g1/j12m_ky910s3_sv7d4yrsdn00000gn/T//ccvnHeju.s:837    .text.HAL_ResumeTick:0000001c $d
/var/folders/g1/j12m_ky910s3_sv7d4yrsdn00000gn/T//ccvnHeju.s:842    .text.HAL_GetHalVersion:00000000 $t
/var/folders/g1/j12m_ky910s3_sv7d4yrsdn00000gn/T//ccvnHeju.s:848    .text.HAL_GetHalVersion:00000000 HAL_GetHalVersion
/var/folders/g1/j12m_ky910s3_sv7d4yrsdn00000gn/T//ccvnHeju.s:878    .text.HAL_GetHalVersion:00000010 $d
/var/folders/g1/j12m_ky910s3_sv7d4yrsdn00000gn/T//ccvnHeju.s:883    .text.HAL_GetREVID:00000000 $t
/var/folders/g1/j12m_ky910s3_sv7d4yrsdn00000gn/T//ccvnHeju.s:889    .text.HAL_GetREVID:00000000 HAL_GetREVID
/var/folders/g1/j12m_ky910s3_sv7d4yrsdn00000gn/T//ccvnHeju.s:922    .text.HAL_GetREVID:00000014 $d
/var/folders/g1/j12m_ky910s3_sv7d4yrsdn00000gn/T//ccvnHeju.s:927    .text.HAL_GetDEVID:00000000 $t
/var/folders/g1/j12m_ky910s3_sv7d4yrsdn00000gn/T//ccvnHeju.s:933    .text.HAL_GetDEVID:00000000 HAL_GetDEVID
/var/folders/g1/j12m_ky910s3_sv7d4yrsdn00000gn/T//ccvnHeju.s:966    .text.HAL_GetDEVID:00000018 $d
/var/folders/g1/j12m_ky910s3_sv7d4yrsdn00000gn/T//ccvnHeju.s:971    .text.HAL_GetUIDw0:00000000 $t
/var/folders/g1/j12m_ky910s3_sv7d4yrsdn00000gn/T//ccvnHeju.s:977    .text.HAL_GetUIDw0:00000000 HAL_GetUIDw0
/var/folders/g1/j12m_ky910s3_sv7d4yrsdn00000gn/T//ccvnHeju.s:1008   .text.HAL_GetUIDw0:00000014 $d
/var/folders/g1/j12m_ky910s3_sv7d4yrsdn00000gn/T//ccvnHeju.s:1013   .text.HAL_GetUIDw1:00000000 $t
ARM GAS  /var/folders/g1/j12m_ky910s3_sv7d4yrsdn00000gn/T//ccvnHeju.s 			page 74


/var/folders/g1/j12m_ky910s3_sv7d4yrsdn00000gn/T//ccvnHeju.s:1019   .text.HAL_GetUIDw1:00000000 HAL_GetUIDw1
/var/folders/g1/j12m_ky910s3_sv7d4yrsdn00000gn/T//ccvnHeju.s:1050   .text.HAL_GetUIDw1:00000014 $d
/var/folders/g1/j12m_ky910s3_sv7d4yrsdn00000gn/T//ccvnHeju.s:1055   .text.HAL_GetUIDw2:00000000 $t
/var/folders/g1/j12m_ky910s3_sv7d4yrsdn00000gn/T//ccvnHeju.s:1061   .text.HAL_GetUIDw2:00000000 HAL_GetUIDw2
/var/folders/g1/j12m_ky910s3_sv7d4yrsdn00000gn/T//ccvnHeju.s:1092   .text.HAL_GetUIDw2:00000014 $d
/var/folders/g1/j12m_ky910s3_sv7d4yrsdn00000gn/T//ccvnHeju.s:1097   .text.HAL_SYSCFG_VREFBUF_VoltageScalingConfig:00000000 $t
/var/folders/g1/j12m_ky910s3_sv7d4yrsdn00000gn/T//ccvnHeju.s:1103   .text.HAL_SYSCFG_VREFBUF_VoltageScalingConfig:00000000 HAL_SYSCFG_VREFBUF_VoltageScalingConfig
/var/folders/g1/j12m_ky910s3_sv7d4yrsdn00000gn/T//ccvnHeju.s:1146   .text.HAL_SYSCFG_VREFBUF_VoltageScalingConfig:00000024 $d
/var/folders/g1/j12m_ky910s3_sv7d4yrsdn00000gn/T//ccvnHeju.s:1151   .text.HAL_SYSCFG_VREFBUF_HighImpedanceConfig:00000000 $t
/var/folders/g1/j12m_ky910s3_sv7d4yrsdn00000gn/T//ccvnHeju.s:1157   .text.HAL_SYSCFG_VREFBUF_HighImpedanceConfig:00000000 HAL_SYSCFG_VREFBUF_HighImpedanceConfig
/var/folders/g1/j12m_ky910s3_sv7d4yrsdn00000gn/T//ccvnHeju.s:1200   .text.HAL_SYSCFG_VREFBUF_HighImpedanceConfig:00000024 $d
/var/folders/g1/j12m_ky910s3_sv7d4yrsdn00000gn/T//ccvnHeju.s:1205   .text.HAL_SYSCFG_VREFBUF_TrimmingConfig:00000000 $t
/var/folders/g1/j12m_ky910s3_sv7d4yrsdn00000gn/T//ccvnHeju.s:1211   .text.HAL_SYSCFG_VREFBUF_TrimmingConfig:00000000 HAL_SYSCFG_VREFBUF_TrimmingConfig
/var/folders/g1/j12m_ky910s3_sv7d4yrsdn00000gn/T//ccvnHeju.s:1254   .text.HAL_SYSCFG_VREFBUF_TrimmingConfig:00000024 $d
/var/folders/g1/j12m_ky910s3_sv7d4yrsdn00000gn/T//ccvnHeju.s:1259   .text.HAL_SYSCFG_EnableVREFBUF:00000000 $t
/var/folders/g1/j12m_ky910s3_sv7d4yrsdn00000gn/T//ccvnHeju.s:1265   .text.HAL_SYSCFG_EnableVREFBUF:00000000 HAL_SYSCFG_EnableVREFBUF
/var/folders/g1/j12m_ky910s3_sv7d4yrsdn00000gn/T//ccvnHeju.s:1330   .text.HAL_SYSCFG_EnableVREFBUF:00000044 $d
/var/folders/g1/j12m_ky910s3_sv7d4yrsdn00000gn/T//ccvnHeju.s:1335   .text.HAL_SYSCFG_DisableVREFBUF:00000000 $t
/var/folders/g1/j12m_ky910s3_sv7d4yrsdn00000gn/T//ccvnHeju.s:1341   .text.HAL_SYSCFG_DisableVREFBUF:00000000 HAL_SYSCFG_DisableVREFBUF
/var/folders/g1/j12m_ky910s3_sv7d4yrsdn00000gn/T//ccvnHeju.s:1375   .text.HAL_SYSCFG_DisableVREFBUF:0000001c $d
/var/folders/g1/j12m_ky910s3_sv7d4yrsdn00000gn/T//ccvnHeju.s:1380   .text.HAL_SYSCFG_ETHInterfaceSelect:00000000 $t
/var/folders/g1/j12m_ky910s3_sv7d4yrsdn00000gn/T//ccvnHeju.s:1386   .text.HAL_SYSCFG_ETHInterfaceSelect:00000000 HAL_SYSCFG_ETHInterfaceSelect
/var/folders/g1/j12m_ky910s3_sv7d4yrsdn00000gn/T//ccvnHeju.s:1429   .text.HAL_SYSCFG_ETHInterfaceSelect:00000024 $d
/var/folders/g1/j12m_ky910s3_sv7d4yrsdn00000gn/T//ccvnHeju.s:1434   .text.HAL_SYSCFG_AnalogSwitchConfig:00000000 $t
/var/folders/g1/j12m_ky910s3_sv7d4yrsdn00000gn/T//ccvnHeju.s:1440   .text.HAL_SYSCFG_AnalogSwitchConfig:00000000 HAL_SYSCFG_AnalogSwitchConfig
/var/folders/g1/j12m_ky910s3_sv7d4yrsdn00000gn/T//ccvnHeju.s:1486   .text.HAL_SYSCFG_AnalogSwitchConfig:00000028 $d
/var/folders/g1/j12m_ky910s3_sv7d4yrsdn00000gn/T//ccvnHeju.s:1491   .text.HAL_SYSCFG_EnableBOOST:00000000 $t
/var/folders/g1/j12m_ky910s3_sv7d4yrsdn00000gn/T//ccvnHeju.s:1497   .text.HAL_SYSCFG_EnableBOOST:00000000 HAL_SYSCFG_EnableBOOST
/var/folders/g1/j12m_ky910s3_sv7d4yrsdn00000gn/T//ccvnHeju.s:1531   .text.HAL_SYSCFG_EnableBOOST:0000001c $d
/var/folders/g1/j12m_ky910s3_sv7d4yrsdn00000gn/T//ccvnHeju.s:1536   .text.HAL_SYSCFG_DisableBOOST:00000000 $t
/var/folders/g1/j12m_ky910s3_sv7d4yrsdn00000gn/T//ccvnHeju.s:1542   .text.HAL_SYSCFG_DisableBOOST:00000000 HAL_SYSCFG_DisableBOOST
/var/folders/g1/j12m_ky910s3_sv7d4yrsdn00000gn/T//ccvnHeju.s:1576   .text.HAL_SYSCFG_DisableBOOST:0000001c $d
/var/folders/g1/j12m_ky910s3_sv7d4yrsdn00000gn/T//ccvnHeju.s:1581   .text.HAL_SYSCFG_CM7BootAddConfig:00000000 $t
/var/folders/g1/j12m_ky910s3_sv7d4yrsdn00000gn/T//ccvnHeju.s:1587   .text.HAL_SYSCFG_CM7BootAddConfig:00000000 HAL_SYSCFG_CM7BootAddConfig
/var/folders/g1/j12m_ky910s3_sv7d4yrsdn00000gn/T//ccvnHeju.s:1651   .text.HAL_SYSCFG_CM7BootAddConfig:0000004c $d
/var/folders/g1/j12m_ky910s3_sv7d4yrsdn00000gn/T//ccvnHeju.s:1657   .text.HAL_EnableCompensationCell:00000000 $t
/var/folders/g1/j12m_ky910s3_sv7d4yrsdn00000gn/T//ccvnHeju.s:1663   .text.HAL_EnableCompensationCell:00000000 HAL_EnableCompensationCell
/var/folders/g1/j12m_ky910s3_sv7d4yrsdn00000gn/T//ccvnHeju.s:1697   .text.HAL_EnableCompensationCell:0000001c $d
/var/folders/g1/j12m_ky910s3_sv7d4yrsdn00000gn/T//ccvnHeju.s:1702   .text.HAL_DisableCompensationCell:00000000 $t
/var/folders/g1/j12m_ky910s3_sv7d4yrsdn00000gn/T//ccvnHeju.s:1708   .text.HAL_DisableCompensationCell:00000000 HAL_DisableCompensationCell
/var/folders/g1/j12m_ky910s3_sv7d4yrsdn00000gn/T//ccvnHeju.s:1742   .text.HAL_DisableCompensationCell:0000001c $d
/var/folders/g1/j12m_ky910s3_sv7d4yrsdn00000gn/T//ccvnHeju.s:1747   .text.HAL_SYSCFG_EnableIOSpeedOptimize:00000000 $t
/var/folders/g1/j12m_ky910s3_sv7d4yrsdn00000gn/T//ccvnHeju.s:1753   .text.HAL_SYSCFG_EnableIOSpeedOptimize:00000000 HAL_SYSCFG_EnableIOSpeedOptimize
/var/folders/g1/j12m_ky910s3_sv7d4yrsdn00000gn/T//ccvnHeju.s:1787   .text.HAL_SYSCFG_EnableIOSpeedOptimize:0000001c $d
/var/folders/g1/j12m_ky910s3_sv7d4yrsdn00000gn/T//ccvnHeju.s:1792   .text.HAL_SYSCFG_DisableIOSpeedOptimize:00000000 $t
/var/folders/g1/j12m_ky910s3_sv7d4yrsdn00000gn/T//ccvnHeju.s:1798   .text.HAL_SYSCFG_DisableIOSpeedOptimize:00000000 HAL_SYSCFG_DisableIOSpeedOptimize
/var/folders/g1/j12m_ky910s3_sv7d4yrsdn00000gn/T//ccvnHeju.s:1832   .text.HAL_SYSCFG_DisableIOSpeedOptimize:0000001c $d
/var/folders/g1/j12m_ky910s3_sv7d4yrsdn00000gn/T//ccvnHeju.s:1837   .text.HAL_SYSCFG_CompensationCodeSelect:00000000 $t
/var/folders/g1/j12m_ky910s3_sv7d4yrsdn00000gn/T//ccvnHeju.s:1843   .text.HAL_SYSCFG_CompensationCodeSelect:00000000 HAL_SYSCFG_CompensationCodeSelect
/var/folders/g1/j12m_ky910s3_sv7d4yrsdn00000gn/T//ccvnHeju.s:1886   .text.HAL_SYSCFG_CompensationCodeSelect:00000024 $d
/var/folders/g1/j12m_ky910s3_sv7d4yrsdn00000gn/T//ccvnHeju.s:1891   .text.HAL_SYSCFG_CompensationCodeConfig:00000000 $t
/var/folders/g1/j12m_ky910s3_sv7d4yrsdn00000gn/T//ccvnHeju.s:1897   .text.HAL_SYSCFG_CompensationCodeConfig:00000000 HAL_SYSCFG_CompensationCodeConfig
/var/folders/g1/j12m_ky910s3_sv7d4yrsdn00000gn/T//ccvnHeju.s:1944   .text.HAL_SYSCFG_CompensationCodeConfig:0000002c $d
/var/folders/g1/j12m_ky910s3_sv7d4yrsdn00000gn/T//ccvnHeju.s:1949   .text.HAL_DBGMCU_EnableDBGSleepMode:00000000 $t
/var/folders/g1/j12m_ky910s3_sv7d4yrsdn00000gn/T//ccvnHeju.s:1955   .text.HAL_DBGMCU_EnableDBGSleepMode:00000000 HAL_DBGMCU_EnableDBGSleepMode
/var/folders/g1/j12m_ky910s3_sv7d4yrsdn00000gn/T//ccvnHeju.s:1989   .text.HAL_DBGMCU_EnableDBGSleepMode:0000001c $d
/var/folders/g1/j12m_ky910s3_sv7d4yrsdn00000gn/T//ccvnHeju.s:1994   .text.HAL_DBGMCU_DisableDBGSleepMode:00000000 $t
ARM GAS  /var/folders/g1/j12m_ky910s3_sv7d4yrsdn00000gn/T//ccvnHeju.s 			page 75


/var/folders/g1/j12m_ky910s3_sv7d4yrsdn00000gn/T//ccvnHeju.s:2000   .text.HAL_DBGMCU_DisableDBGSleepMode:00000000 HAL_DBGMCU_DisableDBGSleepMode
/var/folders/g1/j12m_ky910s3_sv7d4yrsdn00000gn/T//ccvnHeju.s:2034   .text.HAL_DBGMCU_DisableDBGSleepMode:0000001c $d
/var/folders/g1/j12m_ky910s3_sv7d4yrsdn00000gn/T//ccvnHeju.s:2039   .text.HAL_DBGMCU_EnableDBGStopMode:00000000 $t
/var/folders/g1/j12m_ky910s3_sv7d4yrsdn00000gn/T//ccvnHeju.s:2045   .text.HAL_DBGMCU_EnableDBGStopMode:00000000 HAL_DBGMCU_EnableDBGStopMode
/var/folders/g1/j12m_ky910s3_sv7d4yrsdn00000gn/T//ccvnHeju.s:2079   .text.HAL_DBGMCU_EnableDBGStopMode:0000001c $d
/var/folders/g1/j12m_ky910s3_sv7d4yrsdn00000gn/T//ccvnHeju.s:2084   .text.HAL_DBGMCU_DisableDBGStopMode:00000000 $t
/var/folders/g1/j12m_ky910s3_sv7d4yrsdn00000gn/T//ccvnHeju.s:2090   .text.HAL_DBGMCU_DisableDBGStopMode:00000000 HAL_DBGMCU_DisableDBGStopMode
/var/folders/g1/j12m_ky910s3_sv7d4yrsdn00000gn/T//ccvnHeju.s:2124   .text.HAL_DBGMCU_DisableDBGStopMode:0000001c $d
/var/folders/g1/j12m_ky910s3_sv7d4yrsdn00000gn/T//ccvnHeju.s:2129   .text.HAL_DBGMCU_EnableDBGStandbyMode:00000000 $t
/var/folders/g1/j12m_ky910s3_sv7d4yrsdn00000gn/T//ccvnHeju.s:2135   .text.HAL_DBGMCU_EnableDBGStandbyMode:00000000 HAL_DBGMCU_EnableDBGStandbyMode
/var/folders/g1/j12m_ky910s3_sv7d4yrsdn00000gn/T//ccvnHeju.s:2169   .text.HAL_DBGMCU_EnableDBGStandbyMode:0000001c $d
/var/folders/g1/j12m_ky910s3_sv7d4yrsdn00000gn/T//ccvnHeju.s:2174   .text.HAL_DBGMCU_DisableDBGStandbyMode:00000000 $t
/var/folders/g1/j12m_ky910s3_sv7d4yrsdn00000gn/T//ccvnHeju.s:2180   .text.HAL_DBGMCU_DisableDBGStandbyMode:00000000 HAL_DBGMCU_DisableDBGStandbyMode
/var/folders/g1/j12m_ky910s3_sv7d4yrsdn00000gn/T//ccvnHeju.s:2214   .text.HAL_DBGMCU_DisableDBGStandbyMode:0000001c $d
/var/folders/g1/j12m_ky910s3_sv7d4yrsdn00000gn/T//ccvnHeju.s:2219   .text.HAL_SetFMCMemorySwappingConfig:00000000 $t
/var/folders/g1/j12m_ky910s3_sv7d4yrsdn00000gn/T//ccvnHeju.s:2225   .text.HAL_SetFMCMemorySwappingConfig:00000000 HAL_SetFMCMemorySwappingConfig
/var/folders/g1/j12m_ky910s3_sv7d4yrsdn00000gn/T//ccvnHeju.s:2268   .text.HAL_SetFMCMemorySwappingConfig:00000024 $d
/var/folders/g1/j12m_ky910s3_sv7d4yrsdn00000gn/T//ccvnHeju.s:2273   .text.HAL_GetFMCMemorySwappingConfig:00000000 $t
/var/folders/g1/j12m_ky910s3_sv7d4yrsdn00000gn/T//ccvnHeju.s:2279   .text.HAL_GetFMCMemorySwappingConfig:00000000 HAL_GetFMCMemorySwappingConfig
/var/folders/g1/j12m_ky910s3_sv7d4yrsdn00000gn/T//ccvnHeju.s:2311   .text.HAL_GetFMCMemorySwappingConfig:00000018 $d
/var/folders/g1/j12m_ky910s3_sv7d4yrsdn00000gn/T//ccvnHeju.s:2316   .text.HAL_EXTI_EdgeConfig:00000000 $t
/var/folders/g1/j12m_ky910s3_sv7d4yrsdn00000gn/T//ccvnHeju.s:2322   .text.HAL_EXTI_EdgeConfig:00000000 HAL_EXTI_EdgeConfig
/var/folders/g1/j12m_ky910s3_sv7d4yrsdn00000gn/T//ccvnHeju.s:2444   .text.HAL_EXTI_EdgeConfig:000000cc $d
/var/folders/g1/j12m_ky910s3_sv7d4yrsdn00000gn/T//ccvnHeju.s:2449   .text.HAL_EXTI_GenerateSWInterrupt:00000000 $t
/var/folders/g1/j12m_ky910s3_sv7d4yrsdn00000gn/T//ccvnHeju.s:2455   .text.HAL_EXTI_GenerateSWInterrupt:00000000 HAL_EXTI_GenerateSWInterrupt
/var/folders/g1/j12m_ky910s3_sv7d4yrsdn00000gn/T//ccvnHeju.s:2509   .text.HAL_EXTI_GenerateSWInterrupt:0000003c $d
/var/folders/g1/j12m_ky910s3_sv7d4yrsdn00000gn/T//ccvnHeju.s:2514   .text.HAL_EXTI_D1_ClearFlag:00000000 $t
/var/folders/g1/j12m_ky910s3_sv7d4yrsdn00000gn/T//ccvnHeju.s:2520   .text.HAL_EXTI_D1_ClearFlag:00000000 HAL_EXTI_D1_ClearFlag
/var/folders/g1/j12m_ky910s3_sv7d4yrsdn00000gn/T//ccvnHeju.s:2567   .text.HAL_EXTI_D1_ClearFlag:0000002c $d
/var/folders/g1/j12m_ky910s3_sv7d4yrsdn00000gn/T//ccvnHeju.s:2572   .text.HAL_EXTI_D1_EventInputConfig:00000000 $t
/var/folders/g1/j12m_ky910s3_sv7d4yrsdn00000gn/T//ccvnHeju.s:2578   .text.HAL_EXTI_D1_EventInputConfig:00000000 HAL_EXTI_D1_EventInputConfig
/var/folders/g1/j12m_ky910s3_sv7d4yrsdn00000gn/T//ccvnHeju.s:2720   .text.HAL_EXTI_D1_EventInputConfig:000000e4 $d
/var/folders/g1/j12m_ky910s3_sv7d4yrsdn00000gn/T//ccvnHeju.s:2726   .text.HAL_EXTI_D3_EventInputConfig:00000000 $t
/var/folders/g1/j12m_ky910s3_sv7d4yrsdn00000gn/T//ccvnHeju.s:2732   .text.HAL_EXTI_D3_EventInputConfig:00000000 HAL_EXTI_D3_EventInputConfig
/var/folders/g1/j12m_ky910s3_sv7d4yrsdn00000gn/T//ccvnHeju.s:2864   .text.HAL_EXTI_D3_EventInputConfig:000000c4 $d

UNDEFINED SYMBOLS
HAL_NVIC_SetPriorityGrouping
HAL_RCC_GetSysClockFreq
D1CorePrescTable
SystemD2Clock
SystemCoreClock
HAL_SYSTICK_Config
HAL_NVIC_SetPriority
