ARM GAS  /var/folders/g1/j12m_ky910s3_sv7d4yrsdn00000gn/T//ccpiSNf7.s 			page 1


   1              		.cpu cortex-m7
   2              		.arch armv7e-m
   3              		.fpu fpv5-d16
   4              		.eabi_attribute 28, 1
   5              		.eabi_attribute 20, 1
   6              		.eabi_attribute 21, 1
   7              		.eabi_attribute 23, 3
   8              		.eabi_attribute 24, 1
   9              		.eabi_attribute 25, 1
  10              		.eabi_attribute 26, 1
  11              		.eabi_attribute 30, 6
  12              		.eabi_attribute 34, 1
  13              		.eabi_attribute 18, 4
  14              		.file	"stm32h7xx_hal_flash_ex.c"
  15              		.text
  16              	.Ltext0:
  17              		.cfi_sections	.debug_frame
  18              		.file 1 "Drivers/STM32H7xx_HAL_Driver/Src/stm32h7xx_hal_flash_ex.c"
  19              		.section	.text.HAL_FLASHEx_Erase,"ax",%progbits
  20              		.align	1
  21              		.global	HAL_FLASHEx_Erase
  22              		.syntax unified
  23              		.thumb
  24              		.thumb_func
  26              	HAL_FLASHEx_Erase:
  27              	.LFB144:
   1:Drivers/STM32H7xx_HAL_Driver/Src/stm32h7xx_hal_flash_ex.c **** /**
   2:Drivers/STM32H7xx_HAL_Driver/Src/stm32h7xx_hal_flash_ex.c ****   ******************************************************************************
   3:Drivers/STM32H7xx_HAL_Driver/Src/stm32h7xx_hal_flash_ex.c ****   * @file    stm32h7xx_hal_flash_ex.c
   4:Drivers/STM32H7xx_HAL_Driver/Src/stm32h7xx_hal_flash_ex.c ****   * @author  MCD Application Team
   5:Drivers/STM32H7xx_HAL_Driver/Src/stm32h7xx_hal_flash_ex.c ****   * @brief   Extended FLASH HAL module driver.
   6:Drivers/STM32H7xx_HAL_Driver/Src/stm32h7xx_hal_flash_ex.c ****   *          This file provides firmware functions to manage the following
   7:Drivers/STM32H7xx_HAL_Driver/Src/stm32h7xx_hal_flash_ex.c ****   *          functionalities of the FLASH extension peripheral:
   8:Drivers/STM32H7xx_HAL_Driver/Src/stm32h7xx_hal_flash_ex.c ****   *           + Extended programming operations functions
   9:Drivers/STM32H7xx_HAL_Driver/Src/stm32h7xx_hal_flash_ex.c ****   *
  10:Drivers/STM32H7xx_HAL_Driver/Src/stm32h7xx_hal_flash_ex.c ****  @verbatim
  11:Drivers/STM32H7xx_HAL_Driver/Src/stm32h7xx_hal_flash_ex.c ****  ==============================================================================
  12:Drivers/STM32H7xx_HAL_Driver/Src/stm32h7xx_hal_flash_ex.c ****                    ##### Flash Extension features #####
  13:Drivers/STM32H7xx_HAL_Driver/Src/stm32h7xx_hal_flash_ex.c ****   ==============================================================================
  14:Drivers/STM32H7xx_HAL_Driver/Src/stm32h7xx_hal_flash_ex.c **** 
  15:Drivers/STM32H7xx_HAL_Driver/Src/stm32h7xx_hal_flash_ex.c ****   [..] Comparing to other previous devices, the FLASH interface for STM32H7xx
  16:Drivers/STM32H7xx_HAL_Driver/Src/stm32h7xx_hal_flash_ex.c ****        devices contains the following additional features
  17:Drivers/STM32H7xx_HAL_Driver/Src/stm32h7xx_hal_flash_ex.c **** 
  18:Drivers/STM32H7xx_HAL_Driver/Src/stm32h7xx_hal_flash_ex.c ****        (+) Capacity up to 2 Mbyte with dual bank architecture supporting read-while-write
  19:Drivers/STM32H7xx_HAL_Driver/Src/stm32h7xx_hal_flash_ex.c ****            capability (RWW)
  20:Drivers/STM32H7xx_HAL_Driver/Src/stm32h7xx_hal_flash_ex.c ****        (+) Dual bank memory organization
  21:Drivers/STM32H7xx_HAL_Driver/Src/stm32h7xx_hal_flash_ex.c ****        (+) PCROP protection for all banks
  22:Drivers/STM32H7xx_HAL_Driver/Src/stm32h7xx_hal_flash_ex.c ****        (+) Global readout protection (RDP)
  23:Drivers/STM32H7xx_HAL_Driver/Src/stm32h7xx_hal_flash_ex.c ****        (+) Write protection
  24:Drivers/STM32H7xx_HAL_Driver/Src/stm32h7xx_hal_flash_ex.c ****        (+) Secure access only protection
  25:Drivers/STM32H7xx_HAL_Driver/Src/stm32h7xx_hal_flash_ex.c ****        (+) Bank / register swapping (when Dual-Bank)
  26:Drivers/STM32H7xx_HAL_Driver/Src/stm32h7xx_hal_flash_ex.c ****        (+) Cyclic Redundancy Check (CRC)
  27:Drivers/STM32H7xx_HAL_Driver/Src/stm32h7xx_hal_flash_ex.c **** 
  28:Drivers/STM32H7xx_HAL_Driver/Src/stm32h7xx_hal_flash_ex.c ****                         ##### How to use this driver #####
  29:Drivers/STM32H7xx_HAL_Driver/Src/stm32h7xx_hal_flash_ex.c ****  ==============================================================================
  30:Drivers/STM32H7xx_HAL_Driver/Src/stm32h7xx_hal_flash_ex.c ****   [..] This driver provides functions to configure and program the FLASH memory
  31:Drivers/STM32H7xx_HAL_Driver/Src/stm32h7xx_hal_flash_ex.c ****        of all STM32H7xx devices. It includes
ARM GAS  /var/folders/g1/j12m_ky910s3_sv7d4yrsdn00000gn/T//ccpiSNf7.s 			page 2


  32:Drivers/STM32H7xx_HAL_Driver/Src/stm32h7xx_hal_flash_ex.c ****       (#) FLASH Memory Erase functions:
  33:Drivers/STM32H7xx_HAL_Driver/Src/stm32h7xx_hal_flash_ex.c ****            (++) Lock and Unlock the FLASH interface using HAL_FLASH_Unlock() and
  34:Drivers/STM32H7xx_HAL_Driver/Src/stm32h7xx_hal_flash_ex.c ****                 HAL_FLASH_Lock() functions
  35:Drivers/STM32H7xx_HAL_Driver/Src/stm32h7xx_hal_flash_ex.c ****            (++) Erase function: Sector erase, bank erase and dual-bank mass erase
  36:Drivers/STM32H7xx_HAL_Driver/Src/stm32h7xx_hal_flash_ex.c ****            (++) There are two modes of erase :
  37:Drivers/STM32H7xx_HAL_Driver/Src/stm32h7xx_hal_flash_ex.c ****              (+++) Polling Mode using HAL_FLASHEx_Erase()
  38:Drivers/STM32H7xx_HAL_Driver/Src/stm32h7xx_hal_flash_ex.c ****              (+++) Interrupt Mode using HAL_FLASHEx_Erase_IT()
  39:Drivers/STM32H7xx_HAL_Driver/Src/stm32h7xx_hal_flash_ex.c **** 
  40:Drivers/STM32H7xx_HAL_Driver/Src/stm32h7xx_hal_flash_ex.c ****       (#) Option Bytes Programming functions: Use HAL_FLASHEx_OBProgram() to:
  41:Drivers/STM32H7xx_HAL_Driver/Src/stm32h7xx_hal_flash_ex.c ****         (++) Set/Reset the write protection per bank
  42:Drivers/STM32H7xx_HAL_Driver/Src/stm32h7xx_hal_flash_ex.c ****         (++) Set the Read protection Level
  43:Drivers/STM32H7xx_HAL_Driver/Src/stm32h7xx_hal_flash_ex.c ****         (++) Set the BOR level
  44:Drivers/STM32H7xx_HAL_Driver/Src/stm32h7xx_hal_flash_ex.c ****         (++) Program the user Option Bytes
  45:Drivers/STM32H7xx_HAL_Driver/Src/stm32h7xx_hal_flash_ex.c ****         (++) PCROP protection configuration and control per bank
  46:Drivers/STM32H7xx_HAL_Driver/Src/stm32h7xx_hal_flash_ex.c ****         (++) Secure area configuration and control per bank
  47:Drivers/STM32H7xx_HAL_Driver/Src/stm32h7xx_hal_flash_ex.c ****         (++) Core Boot address configuration
  48:Drivers/STM32H7xx_HAL_Driver/Src/stm32h7xx_hal_flash_ex.c ****         (++) TCM / AXI shared RAM configuration
  49:Drivers/STM32H7xx_HAL_Driver/Src/stm32h7xx_hal_flash_ex.c ****         (++) CPU Frequency Boost configuration
  50:Drivers/STM32H7xx_HAL_Driver/Src/stm32h7xx_hal_flash_ex.c **** 
  51:Drivers/STM32H7xx_HAL_Driver/Src/stm32h7xx_hal_flash_ex.c ****       (#) FLASH Memory Lock and unlock per Bank: HAL_FLASHEx_Lock_Bank1(), HAL_FLASHEx_Unlock_Bank1
  52:Drivers/STM32H7xx_HAL_Driver/Src/stm32h7xx_hal_flash_ex.c ****           HAL_FLASHEx_Lock_Bank2() and HAL_FLASHEx_Unlock_Bank2() functions
  53:Drivers/STM32H7xx_HAL_Driver/Src/stm32h7xx_hal_flash_ex.c **** 
  54:Drivers/STM32H7xx_HAL_Driver/Src/stm32h7xx_hal_flash_ex.c ****       (#) FLASH CRC computation function: Use HAL_FLASHEx_ComputeCRC() to:
  55:Drivers/STM32H7xx_HAL_Driver/Src/stm32h7xx_hal_flash_ex.c ****           (++) Enable CRC feature
  56:Drivers/STM32H7xx_HAL_Driver/Src/stm32h7xx_hal_flash_ex.c ****           (++) Program the desired burst size
  57:Drivers/STM32H7xx_HAL_Driver/Src/stm32h7xx_hal_flash_ex.c ****           (++) Define the user Flash Area on which the CRC has be computed
  58:Drivers/STM32H7xx_HAL_Driver/Src/stm32h7xx_hal_flash_ex.c ****           (++) Perform the CRC computation
  59:Drivers/STM32H7xx_HAL_Driver/Src/stm32h7xx_hal_flash_ex.c ****           (++) Disable CRC feature
  60:Drivers/STM32H7xx_HAL_Driver/Src/stm32h7xx_hal_flash_ex.c **** 
  61:Drivers/STM32H7xx_HAL_Driver/Src/stm32h7xx_hal_flash_ex.c ****       (#) Error correction code error functions:
  62:Drivers/STM32H7xx_HAL_Driver/Src/stm32h7xx_hal_flash_ex.c ****           (++) Use the HAL_FLASHEx_EnableEccCorrectionInterrupt() and HAL_FLASHEx_DisableEccCorrect
  63:Drivers/STM32H7xx_HAL_Driver/Src/stm32h7xx_hal_flash_ex.c ****                functions to enable and disable the FLASH ECC correction interruption.
  64:Drivers/STM32H7xx_HAL_Driver/Src/stm32h7xx_hal_flash_ex.c ****           (++) Use the HAL_FLASHEx_EnableEccDetectionInterrupt() and HAL_FLASHEx_DisableEccDetectio
  65:Drivers/STM32H7xx_HAL_Driver/Src/stm32h7xx_hal_flash_ex.c ****                functions to enable and disable the FLASH ECC Detection interruption.
  66:Drivers/STM32H7xx_HAL_Driver/Src/stm32h7xx_hal_flash_ex.c ****           (++) Handle ECCD interrupt by calling HAL_FLASHEx_BusFault_IRQHandler()
  67:Drivers/STM32H7xx_HAL_Driver/Src/stm32h7xx_hal_flash_ex.c ****           (++) Use HAL_FLASHEx_BusFault_IRQHandler() function called under BusFault_IRQHandler() in
  68:Drivers/STM32H7xx_HAL_Driver/Src/stm32h7xx_hal_flash_ex.c ****                to handle the ECCD interrupt.
  69:Drivers/STM32H7xx_HAL_Driver/Src/stm32h7xx_hal_flash_ex.c ****           (++) Use HAL_FLASHEx_GetEccInfo() function to get the flash ECC fail information.
  70:Drivers/STM32H7xx_HAL_Driver/Src/stm32h7xx_hal_flash_ex.c **** 
  71:Drivers/STM32H7xx_HAL_Driver/Src/stm32h7xx_hal_flash_ex.c ****  @endverbatim
  72:Drivers/STM32H7xx_HAL_Driver/Src/stm32h7xx_hal_flash_ex.c ****   ******************************************************************************
  73:Drivers/STM32H7xx_HAL_Driver/Src/stm32h7xx_hal_flash_ex.c ****   * @attention
  74:Drivers/STM32H7xx_HAL_Driver/Src/stm32h7xx_hal_flash_ex.c ****   *
  75:Drivers/STM32H7xx_HAL_Driver/Src/stm32h7xx_hal_flash_ex.c ****   * Copyright (c) 2017 STMicroelectronics.
  76:Drivers/STM32H7xx_HAL_Driver/Src/stm32h7xx_hal_flash_ex.c ****   * All rights reserved.
  77:Drivers/STM32H7xx_HAL_Driver/Src/stm32h7xx_hal_flash_ex.c ****   *
  78:Drivers/STM32H7xx_HAL_Driver/Src/stm32h7xx_hal_flash_ex.c ****   * This software is licensed under terms that can be found in the LICENSE file in
  79:Drivers/STM32H7xx_HAL_Driver/Src/stm32h7xx_hal_flash_ex.c ****   * the root directory of this software component.
  80:Drivers/STM32H7xx_HAL_Driver/Src/stm32h7xx_hal_flash_ex.c ****   * If no LICENSE file comes with this software, it is provided AS-IS.
  81:Drivers/STM32H7xx_HAL_Driver/Src/stm32h7xx_hal_flash_ex.c ****   ******************************************************************************
  82:Drivers/STM32H7xx_HAL_Driver/Src/stm32h7xx_hal_flash_ex.c ****   */
  83:Drivers/STM32H7xx_HAL_Driver/Src/stm32h7xx_hal_flash_ex.c **** 
  84:Drivers/STM32H7xx_HAL_Driver/Src/stm32h7xx_hal_flash_ex.c **** /* Includes ------------------------------------------------------------------*/
  85:Drivers/STM32H7xx_HAL_Driver/Src/stm32h7xx_hal_flash_ex.c **** #include "stm32h7xx_hal.h"
  86:Drivers/STM32H7xx_HAL_Driver/Src/stm32h7xx_hal_flash_ex.c **** 
  87:Drivers/STM32H7xx_HAL_Driver/Src/stm32h7xx_hal_flash_ex.c **** /** @addtogroup STM32H7xx_HAL_Driver
  88:Drivers/STM32H7xx_HAL_Driver/Src/stm32h7xx_hal_flash_ex.c ****   * @{
ARM GAS  /var/folders/g1/j12m_ky910s3_sv7d4yrsdn00000gn/T//ccpiSNf7.s 			page 3


  89:Drivers/STM32H7xx_HAL_Driver/Src/stm32h7xx_hal_flash_ex.c ****   */
  90:Drivers/STM32H7xx_HAL_Driver/Src/stm32h7xx_hal_flash_ex.c **** 
  91:Drivers/STM32H7xx_HAL_Driver/Src/stm32h7xx_hal_flash_ex.c **** /** @defgroup FLASHEx  FLASHEx
  92:Drivers/STM32H7xx_HAL_Driver/Src/stm32h7xx_hal_flash_ex.c ****   * @brief FLASH HAL Extension module driver
  93:Drivers/STM32H7xx_HAL_Driver/Src/stm32h7xx_hal_flash_ex.c ****   * @{
  94:Drivers/STM32H7xx_HAL_Driver/Src/stm32h7xx_hal_flash_ex.c ****   */
  95:Drivers/STM32H7xx_HAL_Driver/Src/stm32h7xx_hal_flash_ex.c **** 
  96:Drivers/STM32H7xx_HAL_Driver/Src/stm32h7xx_hal_flash_ex.c **** #ifdef HAL_FLASH_MODULE_ENABLED
  97:Drivers/STM32H7xx_HAL_Driver/Src/stm32h7xx_hal_flash_ex.c **** 
  98:Drivers/STM32H7xx_HAL_Driver/Src/stm32h7xx_hal_flash_ex.c **** /* Private typedef -----------------------------------------------------------*/
  99:Drivers/STM32H7xx_HAL_Driver/Src/stm32h7xx_hal_flash_ex.c **** /* Private define ------------------------------------------------------------*/
 100:Drivers/STM32H7xx_HAL_Driver/Src/stm32h7xx_hal_flash_ex.c **** /** @addtogroup FLASHEx_Private_Constants
 101:Drivers/STM32H7xx_HAL_Driver/Src/stm32h7xx_hal_flash_ex.c ****   * @{
 102:Drivers/STM32H7xx_HAL_Driver/Src/stm32h7xx_hal_flash_ex.c ****   */
 103:Drivers/STM32H7xx_HAL_Driver/Src/stm32h7xx_hal_flash_ex.c **** #define FLASH_TIMEOUT_VALUE       50000U /* 50 s */
 104:Drivers/STM32H7xx_HAL_Driver/Src/stm32h7xx_hal_flash_ex.c **** 
 105:Drivers/STM32H7xx_HAL_Driver/Src/stm32h7xx_hal_flash_ex.c **** /**
 106:Drivers/STM32H7xx_HAL_Driver/Src/stm32h7xx_hal_flash_ex.c ****   * @}
 107:Drivers/STM32H7xx_HAL_Driver/Src/stm32h7xx_hal_flash_ex.c ****   */
 108:Drivers/STM32H7xx_HAL_Driver/Src/stm32h7xx_hal_flash_ex.c **** /* Private macro -------------------------------------------------------------*/
 109:Drivers/STM32H7xx_HAL_Driver/Src/stm32h7xx_hal_flash_ex.c **** /* Private variables ---------------------------------------------------------*/
 110:Drivers/STM32H7xx_HAL_Driver/Src/stm32h7xx_hal_flash_ex.c **** /* Private function prototypes -----------------------------------------------*/
 111:Drivers/STM32H7xx_HAL_Driver/Src/stm32h7xx_hal_flash_ex.c **** /** @defgroup FLASHEx_Private_Functions FLASHEx Private Functions
 112:Drivers/STM32H7xx_HAL_Driver/Src/stm32h7xx_hal_flash_ex.c ****   * @{
 113:Drivers/STM32H7xx_HAL_Driver/Src/stm32h7xx_hal_flash_ex.c ****   */
 114:Drivers/STM32H7xx_HAL_Driver/Src/stm32h7xx_hal_flash_ex.c **** static void FLASH_MassErase(uint32_t VoltageRange, uint32_t Banks);
 115:Drivers/STM32H7xx_HAL_Driver/Src/stm32h7xx_hal_flash_ex.c **** static void FLASH_OB_EnableWRP(uint32_t WRPSector, uint32_t Banks);
 116:Drivers/STM32H7xx_HAL_Driver/Src/stm32h7xx_hal_flash_ex.c **** static void FLASH_OB_DisableWRP(uint32_t WRPSector, uint32_t Bank);
 117:Drivers/STM32H7xx_HAL_Driver/Src/stm32h7xx_hal_flash_ex.c **** static void FLASH_OB_GetWRP(uint32_t *WRPState, uint32_t *WRPSector, uint32_t Bank);
 118:Drivers/STM32H7xx_HAL_Driver/Src/stm32h7xx_hal_flash_ex.c **** static void FLASH_OB_RDPConfig(uint32_t RDPLevel);
 119:Drivers/STM32H7xx_HAL_Driver/Src/stm32h7xx_hal_flash_ex.c **** static uint32_t FLASH_OB_GetRDP(void);
 120:Drivers/STM32H7xx_HAL_Driver/Src/stm32h7xx_hal_flash_ex.c **** static void FLASH_OB_PCROPConfig(uint32_t PCROConfigRDP, uint32_t PCROPStartAddr, uint32_t PCROPEnd
 121:Drivers/STM32H7xx_HAL_Driver/Src/stm32h7xx_hal_flash_ex.c **** static void FLASH_OB_GetPCROP(uint32_t *PCROPConfig, uint32_t *PCROPStartAddr,uint32_t *PCROPEndAdd
 122:Drivers/STM32H7xx_HAL_Driver/Src/stm32h7xx_hal_flash_ex.c **** static void FLASH_OB_BOR_LevelConfig(uint32_t Level);
 123:Drivers/STM32H7xx_HAL_Driver/Src/stm32h7xx_hal_flash_ex.c **** static uint32_t FLASH_OB_GetBOR(void);
 124:Drivers/STM32H7xx_HAL_Driver/Src/stm32h7xx_hal_flash_ex.c **** static void FLASH_OB_UserConfig(uint32_t UserType, uint32_t UserConfig);
 125:Drivers/STM32H7xx_HAL_Driver/Src/stm32h7xx_hal_flash_ex.c **** static uint32_t FLASH_OB_GetUser(void);
 126:Drivers/STM32H7xx_HAL_Driver/Src/stm32h7xx_hal_flash_ex.c **** static void FLASH_OB_BootAddConfig(uint32_t BootOption, uint32_t BootAddress0, uint32_t BootAddress
 127:Drivers/STM32H7xx_HAL_Driver/Src/stm32h7xx_hal_flash_ex.c **** static void FLASH_OB_GetBootAdd(uint32_t *BootAddress0, uint32_t *BootAddress1);
 128:Drivers/STM32H7xx_HAL_Driver/Src/stm32h7xx_hal_flash_ex.c **** static void FLASH_OB_SecureAreaConfig(uint32_t SecureAreaConfig, uint32_t SecureAreaStartAddr, uint
 129:Drivers/STM32H7xx_HAL_Driver/Src/stm32h7xx_hal_flash_ex.c **** static void FLASH_OB_GetSecureArea(uint32_t *SecureAreaConfig, uint32_t *SecureAreaStartAddr, uint3
 130:Drivers/STM32H7xx_HAL_Driver/Src/stm32h7xx_hal_flash_ex.c **** static void FLASH_CRC_AddSector(uint32_t Sector, uint32_t Bank);
 131:Drivers/STM32H7xx_HAL_Driver/Src/stm32h7xx_hal_flash_ex.c **** static void FLASH_CRC_SelectAddress(uint32_t CRCStartAddr, uint32_t CRCEndAddr, uint32_t Bank);
 132:Drivers/STM32H7xx_HAL_Driver/Src/stm32h7xx_hal_flash_ex.c **** 
 133:Drivers/STM32H7xx_HAL_Driver/Src/stm32h7xx_hal_flash_ex.c **** #if defined (DUAL_CORE)
 134:Drivers/STM32H7xx_HAL_Driver/Src/stm32h7xx_hal_flash_ex.c **** static void FLASH_OB_CM4BootAddConfig(uint32_t BootOption, uint32_t BootAddress0, uint32_t BootAddr
 135:Drivers/STM32H7xx_HAL_Driver/Src/stm32h7xx_hal_flash_ex.c **** static void FLASH_OB_GetCM4BootAdd(uint32_t *BootAddress0, uint32_t *BootAddress1);
 136:Drivers/STM32H7xx_HAL_Driver/Src/stm32h7xx_hal_flash_ex.c **** #endif /*DUAL_CORE*/
 137:Drivers/STM32H7xx_HAL_Driver/Src/stm32h7xx_hal_flash_ex.c **** 
 138:Drivers/STM32H7xx_HAL_Driver/Src/stm32h7xx_hal_flash_ex.c **** #if defined (FLASH_OTPBL_LOCKBL)
 139:Drivers/STM32H7xx_HAL_Driver/Src/stm32h7xx_hal_flash_ex.c **** static void FLASH_OB_OTP_LockConfig(uint32_t OTP_Block);
 140:Drivers/STM32H7xx_HAL_Driver/Src/stm32h7xx_hal_flash_ex.c **** static uint32_t FLASH_OB_OTP_GetLock(void);
 141:Drivers/STM32H7xx_HAL_Driver/Src/stm32h7xx_hal_flash_ex.c **** #endif /* FLASH_OTPBL_LOCKBL */
 142:Drivers/STM32H7xx_HAL_Driver/Src/stm32h7xx_hal_flash_ex.c **** 
 143:Drivers/STM32H7xx_HAL_Driver/Src/stm32h7xx_hal_flash_ex.c **** #if defined (FLASH_OPTSR2_TCM_AXI_SHARED)
 144:Drivers/STM32H7xx_HAL_Driver/Src/stm32h7xx_hal_flash_ex.c **** static void FLASH_OB_SharedRAM_Config(uint32_t SharedRamConfig);
 145:Drivers/STM32H7xx_HAL_Driver/Src/stm32h7xx_hal_flash_ex.c **** static uint32_t FLASH_OB_SharedRAM_GetConfig(void);
ARM GAS  /var/folders/g1/j12m_ky910s3_sv7d4yrsdn00000gn/T//ccpiSNf7.s 			page 4


 146:Drivers/STM32H7xx_HAL_Driver/Src/stm32h7xx_hal_flash_ex.c **** #endif /* FLASH_OPTSR2_TCM_AXI_SHARED */
 147:Drivers/STM32H7xx_HAL_Driver/Src/stm32h7xx_hal_flash_ex.c **** 
 148:Drivers/STM32H7xx_HAL_Driver/Src/stm32h7xx_hal_flash_ex.c **** #if defined (FLASH_OPTSR2_CPUFREQ_BOOST)
 149:Drivers/STM32H7xx_HAL_Driver/Src/stm32h7xx_hal_flash_ex.c **** static void FLASH_OB_CPUFreq_BoostConfig(uint32_t FreqBoost);
 150:Drivers/STM32H7xx_HAL_Driver/Src/stm32h7xx_hal_flash_ex.c **** static uint32_t FLASH_OB_CPUFreq_GetBoost(void);
 151:Drivers/STM32H7xx_HAL_Driver/Src/stm32h7xx_hal_flash_ex.c **** #endif /* FLASH_OPTSR2_CPUFREQ_BOOST */
 152:Drivers/STM32H7xx_HAL_Driver/Src/stm32h7xx_hal_flash_ex.c **** /**
 153:Drivers/STM32H7xx_HAL_Driver/Src/stm32h7xx_hal_flash_ex.c ****   * @}
 154:Drivers/STM32H7xx_HAL_Driver/Src/stm32h7xx_hal_flash_ex.c ****   */
 155:Drivers/STM32H7xx_HAL_Driver/Src/stm32h7xx_hal_flash_ex.c **** 
 156:Drivers/STM32H7xx_HAL_Driver/Src/stm32h7xx_hal_flash_ex.c **** /* Exported functions ---------------------------------------------------------*/
 157:Drivers/STM32H7xx_HAL_Driver/Src/stm32h7xx_hal_flash_ex.c **** /** @defgroup FLASHEx_Exported_Functions FLASHEx Exported Functions
 158:Drivers/STM32H7xx_HAL_Driver/Src/stm32h7xx_hal_flash_ex.c ****   * @{
 159:Drivers/STM32H7xx_HAL_Driver/Src/stm32h7xx_hal_flash_ex.c ****   */
 160:Drivers/STM32H7xx_HAL_Driver/Src/stm32h7xx_hal_flash_ex.c **** 
 161:Drivers/STM32H7xx_HAL_Driver/Src/stm32h7xx_hal_flash_ex.c **** /** @defgroup FLASHEx_Exported_Functions_Group1 Extended IO operation functions
 162:Drivers/STM32H7xx_HAL_Driver/Src/stm32h7xx_hal_flash_ex.c ****  *  @brief   Extended IO operation functions
 163:Drivers/STM32H7xx_HAL_Driver/Src/stm32h7xx_hal_flash_ex.c ****  *
 164:Drivers/STM32H7xx_HAL_Driver/Src/stm32h7xx_hal_flash_ex.c **** @verbatim
 165:Drivers/STM32H7xx_HAL_Driver/Src/stm32h7xx_hal_flash_ex.c ****  ===============================================================================
 166:Drivers/STM32H7xx_HAL_Driver/Src/stm32h7xx_hal_flash_ex.c ****                 ##### Extended programming operation functions #####
 167:Drivers/STM32H7xx_HAL_Driver/Src/stm32h7xx_hal_flash_ex.c ****  ===============================================================================
 168:Drivers/STM32H7xx_HAL_Driver/Src/stm32h7xx_hal_flash_ex.c ****     [..]
 169:Drivers/STM32H7xx_HAL_Driver/Src/stm32h7xx_hal_flash_ex.c ****     This subsection provides a set of functions allowing to manage the Extension FLASH
 170:Drivers/STM32H7xx_HAL_Driver/Src/stm32h7xx_hal_flash_ex.c ****     programming operations Operations.
 171:Drivers/STM32H7xx_HAL_Driver/Src/stm32h7xx_hal_flash_ex.c **** 
 172:Drivers/STM32H7xx_HAL_Driver/Src/stm32h7xx_hal_flash_ex.c **** @endverbatim
 173:Drivers/STM32H7xx_HAL_Driver/Src/stm32h7xx_hal_flash_ex.c ****   * @{
 174:Drivers/STM32H7xx_HAL_Driver/Src/stm32h7xx_hal_flash_ex.c ****   */
 175:Drivers/STM32H7xx_HAL_Driver/Src/stm32h7xx_hal_flash_ex.c **** /**
 176:Drivers/STM32H7xx_HAL_Driver/Src/stm32h7xx_hal_flash_ex.c ****   * @brief  Perform a mass erase or erase the specified FLASH memory sectors
 177:Drivers/STM32H7xx_HAL_Driver/Src/stm32h7xx_hal_flash_ex.c ****   * @param[in]  pEraseInit pointer to an FLASH_EraseInitTypeDef structure that
 178:Drivers/STM32H7xx_HAL_Driver/Src/stm32h7xx_hal_flash_ex.c ****   *         contains the configuration information for the erasing.
 179:Drivers/STM32H7xx_HAL_Driver/Src/stm32h7xx_hal_flash_ex.c ****   *
 180:Drivers/STM32H7xx_HAL_Driver/Src/stm32h7xx_hal_flash_ex.c ****   * @param[out]  SectorError pointer to variable  that contains the configuration
 181:Drivers/STM32H7xx_HAL_Driver/Src/stm32h7xx_hal_flash_ex.c ****   *          information on faulty sector in case of error (0xFFFFFFFF means that all
 182:Drivers/STM32H7xx_HAL_Driver/Src/stm32h7xx_hal_flash_ex.c ****   *          the sectors have been correctly erased)
 183:Drivers/STM32H7xx_HAL_Driver/Src/stm32h7xx_hal_flash_ex.c ****   *
 184:Drivers/STM32H7xx_HAL_Driver/Src/stm32h7xx_hal_flash_ex.c ****   * @retval HAL Status
 185:Drivers/STM32H7xx_HAL_Driver/Src/stm32h7xx_hal_flash_ex.c ****   */
 186:Drivers/STM32H7xx_HAL_Driver/Src/stm32h7xx_hal_flash_ex.c **** HAL_StatusTypeDef HAL_FLASHEx_Erase(FLASH_EraseInitTypeDef *pEraseInit, uint32_t *SectorError)
 187:Drivers/STM32H7xx_HAL_Driver/Src/stm32h7xx_hal_flash_ex.c **** {
  28              		.loc 1 187 1
  29              		.cfi_startproc
  30              		@ args = 0, pretend = 0, frame = 16
  31              		@ frame_needed = 1, uses_anonymous_args = 0
  32 0000 80B5     		push	{r7, lr}
  33              	.LCFI0:
  34              		.cfi_def_cfa_offset 8
  35              		.cfi_offset 7, -8
  36              		.cfi_offset 14, -4
  37 0002 84B0     		sub	sp, sp, #16
  38              	.LCFI1:
  39              		.cfi_def_cfa_offset 24
  40 0004 00AF     		add	r7, sp, #0
  41              	.LCFI2:
  42              		.cfi_def_cfa_register 7
ARM GAS  /var/folders/g1/j12m_ky910s3_sv7d4yrsdn00000gn/T//ccpiSNf7.s 			page 5


  43 0006 7860     		str	r0, [r7, #4]
  44 0008 3960     		str	r1, [r7]
 188:Drivers/STM32H7xx_HAL_Driver/Src/stm32h7xx_hal_flash_ex.c ****   HAL_StatusTypeDef status = HAL_OK;
  45              		.loc 1 188 21
  46 000a 0023     		movs	r3, #0
  47 000c FB73     		strb	r3, [r7, #15]
 189:Drivers/STM32H7xx_HAL_Driver/Src/stm32h7xx_hal_flash_ex.c ****   uint32_t sector_index;
 190:Drivers/STM32H7xx_HAL_Driver/Src/stm32h7xx_hal_flash_ex.c **** 
 191:Drivers/STM32H7xx_HAL_Driver/Src/stm32h7xx_hal_flash_ex.c ****   /* Check the parameters */
 192:Drivers/STM32H7xx_HAL_Driver/Src/stm32h7xx_hal_flash_ex.c ****   assert_param(IS_FLASH_TYPEERASE(pEraseInit->TypeErase));
 193:Drivers/STM32H7xx_HAL_Driver/Src/stm32h7xx_hal_flash_ex.c ****   assert_param(IS_FLASH_BANK(pEraseInit->Banks));
 194:Drivers/STM32H7xx_HAL_Driver/Src/stm32h7xx_hal_flash_ex.c **** 
 195:Drivers/STM32H7xx_HAL_Driver/Src/stm32h7xx_hal_flash_ex.c ****   /* Process Locked */
 196:Drivers/STM32H7xx_HAL_Driver/Src/stm32h7xx_hal_flash_ex.c ****   __HAL_LOCK(&pFlash);
  48              		.loc 1 196 3
  49 000e 5E4B     		ldr	r3, .L16
  50 0010 1B7D     		ldrb	r3, [r3, #20]	@ zero_extendqisi2
  51 0012 012B     		cmp	r3, #1
  52 0014 01D1     		bne	.L2
  53              		.loc 1 196 3 is_stmt 0 discriminator 1
  54 0016 0223     		movs	r3, #2
  55              		.loc 1 196 3
  56 0018 B2E0     		b	.L3
  57              	.L2:
  58              		.loc 1 196 3 discriminator 2
  59 001a 5B4B     		ldr	r3, .L16
  60 001c 0122     		movs	r2, #1
  61 001e 1A75     		strb	r2, [r3, #20]
 197:Drivers/STM32H7xx_HAL_Driver/Src/stm32h7xx_hal_flash_ex.c **** 
 198:Drivers/STM32H7xx_HAL_Driver/Src/stm32h7xx_hal_flash_ex.c ****   /* Reset error code */
 199:Drivers/STM32H7xx_HAL_Driver/Src/stm32h7xx_hal_flash_ex.c ****   pFlash.ErrorCode = HAL_FLASH_ERROR_NONE;
  62              		.loc 1 199 20 is_stmt 1
  63 0020 594B     		ldr	r3, .L16
  64 0022 0022     		movs	r2, #0
  65 0024 9A61     		str	r2, [r3, #24]
 200:Drivers/STM32H7xx_HAL_Driver/Src/stm32h7xx_hal_flash_ex.c **** 
 201:Drivers/STM32H7xx_HAL_Driver/Src/stm32h7xx_hal_flash_ex.c ****   /* Wait for last operation to be completed on Bank1 */
 202:Drivers/STM32H7xx_HAL_Driver/Src/stm32h7xx_hal_flash_ex.c ****   if((pEraseInit->Banks & FLASH_BANK_1) == FLASH_BANK_1)
  66              		.loc 1 202 17
  67 0026 7B68     		ldr	r3, [r7, #4]
  68 0028 5B68     		ldr	r3, [r3, #4]
  69              		.loc 1 202 25
  70 002a 03F00103 		and	r3, r3, #1
  71              		.loc 1 202 5
  72 002e 002B     		cmp	r3, #0
  73 0030 09D0     		beq	.L4
 203:Drivers/STM32H7xx_HAL_Driver/Src/stm32h7xx_hal_flash_ex.c ****   {
 204:Drivers/STM32H7xx_HAL_Driver/Src/stm32h7xx_hal_flash_ex.c ****     if(FLASH_WaitForLastOperation((uint32_t)FLASH_TIMEOUT_VALUE, FLASH_BANK_1) != HAL_OK)
  74              		.loc 1 204 8
  75 0032 0121     		movs	r1, #1
  76 0034 4CF25030 		movw	r0, #50000
  77 0038 FFF7FEFF 		bl	FLASH_WaitForLastOperation
  78 003c 0346     		mov	r3, r0
  79              		.loc 1 204 7 discriminator 1
  80 003e 002B     		cmp	r3, #0
  81 0040 01D0     		beq	.L4
 205:Drivers/STM32H7xx_HAL_Driver/Src/stm32h7xx_hal_flash_ex.c ****     {
ARM GAS  /var/folders/g1/j12m_ky910s3_sv7d4yrsdn00000gn/T//ccpiSNf7.s 			page 6


 206:Drivers/STM32H7xx_HAL_Driver/Src/stm32h7xx_hal_flash_ex.c ****       status = HAL_ERROR;
  82              		.loc 1 206 14
  83 0042 0123     		movs	r3, #1
  84 0044 FB73     		strb	r3, [r7, #15]
  85              	.L4:
 207:Drivers/STM32H7xx_HAL_Driver/Src/stm32h7xx_hal_flash_ex.c ****     }
 208:Drivers/STM32H7xx_HAL_Driver/Src/stm32h7xx_hal_flash_ex.c ****   }
 209:Drivers/STM32H7xx_HAL_Driver/Src/stm32h7xx_hal_flash_ex.c **** 
 210:Drivers/STM32H7xx_HAL_Driver/Src/stm32h7xx_hal_flash_ex.c **** #if defined (DUAL_BANK)
 211:Drivers/STM32H7xx_HAL_Driver/Src/stm32h7xx_hal_flash_ex.c ****   /* Wait for last operation to be completed on Bank2 */
 212:Drivers/STM32H7xx_HAL_Driver/Src/stm32h7xx_hal_flash_ex.c ****   if((pEraseInit->Banks & FLASH_BANK_2) == FLASH_BANK_2)
  86              		.loc 1 212 17
  87 0046 7B68     		ldr	r3, [r7, #4]
  88 0048 5B68     		ldr	r3, [r3, #4]
  89              		.loc 1 212 25
  90 004a 03F00203 		and	r3, r3, #2
  91              		.loc 1 212 5
  92 004e 002B     		cmp	r3, #0
  93 0050 09D0     		beq	.L5
 213:Drivers/STM32H7xx_HAL_Driver/Src/stm32h7xx_hal_flash_ex.c ****   {
 214:Drivers/STM32H7xx_HAL_Driver/Src/stm32h7xx_hal_flash_ex.c ****     if(FLASH_WaitForLastOperation((uint32_t)FLASH_TIMEOUT_VALUE, FLASH_BANK_2) != HAL_OK)
  94              		.loc 1 214 8
  95 0052 0221     		movs	r1, #2
  96 0054 4CF25030 		movw	r0, #50000
  97 0058 FFF7FEFF 		bl	FLASH_WaitForLastOperation
  98 005c 0346     		mov	r3, r0
  99              		.loc 1 214 7 discriminator 1
 100 005e 002B     		cmp	r3, #0
 101 0060 01D0     		beq	.L5
 215:Drivers/STM32H7xx_HAL_Driver/Src/stm32h7xx_hal_flash_ex.c ****     {
 216:Drivers/STM32H7xx_HAL_Driver/Src/stm32h7xx_hal_flash_ex.c ****       status = HAL_ERROR;
 102              		.loc 1 216 14
 103 0062 0123     		movs	r3, #1
 104 0064 FB73     		strb	r3, [r7, #15]
 105              	.L5:
 217:Drivers/STM32H7xx_HAL_Driver/Src/stm32h7xx_hal_flash_ex.c ****     }
 218:Drivers/STM32H7xx_HAL_Driver/Src/stm32h7xx_hal_flash_ex.c ****   }
 219:Drivers/STM32H7xx_HAL_Driver/Src/stm32h7xx_hal_flash_ex.c **** #endif /* DUAL_BANK */
 220:Drivers/STM32H7xx_HAL_Driver/Src/stm32h7xx_hal_flash_ex.c **** 
 221:Drivers/STM32H7xx_HAL_Driver/Src/stm32h7xx_hal_flash_ex.c ****   if(status == HAL_OK)
 106              		.loc 1 221 5
 107 0066 FB7B     		ldrb	r3, [r7, #15]	@ zero_extendqisi2
 108 0068 002B     		cmp	r3, #0
 109 006a 40F08580 		bne	.L6
 222:Drivers/STM32H7xx_HAL_Driver/Src/stm32h7xx_hal_flash_ex.c ****   {
 223:Drivers/STM32H7xx_HAL_Driver/Src/stm32h7xx_hal_flash_ex.c ****     if(pEraseInit->TypeErase == FLASH_TYPEERASE_MASSERASE)
 110              		.loc 1 223 18
 111 006e 7B68     		ldr	r3, [r7, #4]
 112 0070 1B68     		ldr	r3, [r3]
 113              		.loc 1 223 7
 114 0072 012B     		cmp	r3, #1
 115 0074 36D1     		bne	.L7
 224:Drivers/STM32H7xx_HAL_Driver/Src/stm32h7xx_hal_flash_ex.c ****     {
 225:Drivers/STM32H7xx_HAL_Driver/Src/stm32h7xx_hal_flash_ex.c ****       /* Mass erase to be done */
 226:Drivers/STM32H7xx_HAL_Driver/Src/stm32h7xx_hal_flash_ex.c ****       FLASH_MassErase(pEraseInit->VoltageRange, pEraseInit->Banks);
 116              		.loc 1 226 7
 117 0076 7B68     		ldr	r3, [r7, #4]
ARM GAS  /var/folders/g1/j12m_ky910s3_sv7d4yrsdn00000gn/T//ccpiSNf7.s 			page 7


 118 0078 1A69     		ldr	r2, [r3, #16]
 119 007a 7B68     		ldr	r3, [r7, #4]
 120 007c 5B68     		ldr	r3, [r3, #4]
 121 007e 1946     		mov	r1, r3
 122 0080 1046     		mov	r0, r2
 123 0082 FFF7FEFF 		bl	FLASH_MassErase
 227:Drivers/STM32H7xx_HAL_Driver/Src/stm32h7xx_hal_flash_ex.c **** 
 228:Drivers/STM32H7xx_HAL_Driver/Src/stm32h7xx_hal_flash_ex.c ****       /* Wait for last operation to be completed on Bank 1 */
 229:Drivers/STM32H7xx_HAL_Driver/Src/stm32h7xx_hal_flash_ex.c ****       if((pEraseInit->Banks & FLASH_BANK_1) == FLASH_BANK_1)
 124              		.loc 1 229 21
 125 0086 7B68     		ldr	r3, [r7, #4]
 126 0088 5B68     		ldr	r3, [r3, #4]
 127              		.loc 1 229 29
 128 008a 03F00103 		and	r3, r3, #1
 129              		.loc 1 229 9
 130 008e 002B     		cmp	r3, #0
 131 0090 0FD0     		beq	.L8
 230:Drivers/STM32H7xx_HAL_Driver/Src/stm32h7xx_hal_flash_ex.c ****       {
 231:Drivers/STM32H7xx_HAL_Driver/Src/stm32h7xx_hal_flash_ex.c ****         if(FLASH_WaitForLastOperation((uint32_t)FLASH_TIMEOUT_VALUE, FLASH_BANK_1) != HAL_OK)
 132              		.loc 1 231 12
 133 0092 0121     		movs	r1, #1
 134 0094 4CF25030 		movw	r0, #50000
 135 0098 FFF7FEFF 		bl	FLASH_WaitForLastOperation
 136 009c 0346     		mov	r3, r0
 137              		.loc 1 231 11 discriminator 1
 138 009e 002B     		cmp	r3, #0
 139 00a0 01D0     		beq	.L9
 232:Drivers/STM32H7xx_HAL_Driver/Src/stm32h7xx_hal_flash_ex.c ****         {
 233:Drivers/STM32H7xx_HAL_Driver/Src/stm32h7xx_hal_flash_ex.c ****           status = HAL_ERROR;
 140              		.loc 1 233 18
 141 00a2 0123     		movs	r3, #1
 142 00a4 FB73     		strb	r3, [r7, #15]
 143              	.L9:
 234:Drivers/STM32H7xx_HAL_Driver/Src/stm32h7xx_hal_flash_ex.c ****         }
 235:Drivers/STM32H7xx_HAL_Driver/Src/stm32h7xx_hal_flash_ex.c ****         /* if the erase operation is completed, disable the Bank1 BER Bit */
 236:Drivers/STM32H7xx_HAL_Driver/Src/stm32h7xx_hal_flash_ex.c ****         FLASH->CR1 &= (~FLASH_CR_BER);
 144              		.loc 1 236 14
 145 00a6 394B     		ldr	r3, .L16+4
 146 00a8 DB68     		ldr	r3, [r3, #12]
 147 00aa 384A     		ldr	r2, .L16+4
 148              		.loc 1 236 20
 149 00ac 23F00803 		bic	r3, r3, #8
 150 00b0 D360     		str	r3, [r2, #12]
 151              	.L8:
 237:Drivers/STM32H7xx_HAL_Driver/Src/stm32h7xx_hal_flash_ex.c ****       }
 238:Drivers/STM32H7xx_HAL_Driver/Src/stm32h7xx_hal_flash_ex.c **** #if defined (DUAL_BANK)
 239:Drivers/STM32H7xx_HAL_Driver/Src/stm32h7xx_hal_flash_ex.c ****       /* Wait for last operation to be completed on Bank 2 */
 240:Drivers/STM32H7xx_HAL_Driver/Src/stm32h7xx_hal_flash_ex.c ****       if((pEraseInit->Banks & FLASH_BANK_2) == FLASH_BANK_2)
 152              		.loc 1 240 21
 153 00b2 7B68     		ldr	r3, [r7, #4]
 154 00b4 5B68     		ldr	r3, [r3, #4]
 155              		.loc 1 240 29
 156 00b6 03F00203 		and	r3, r3, #2
 157              		.loc 1 240 9
 158 00ba 002B     		cmp	r3, #0
 159 00bc 5CD0     		beq	.L6
 241:Drivers/STM32H7xx_HAL_Driver/Src/stm32h7xx_hal_flash_ex.c ****       {
ARM GAS  /var/folders/g1/j12m_ky910s3_sv7d4yrsdn00000gn/T//ccpiSNf7.s 			page 8


 242:Drivers/STM32H7xx_HAL_Driver/Src/stm32h7xx_hal_flash_ex.c ****         if(FLASH_WaitForLastOperation((uint32_t)FLASH_TIMEOUT_VALUE, FLASH_BANK_2) != HAL_OK)
 160              		.loc 1 242 12
 161 00be 0221     		movs	r1, #2
 162 00c0 4CF25030 		movw	r0, #50000
 163 00c4 FFF7FEFF 		bl	FLASH_WaitForLastOperation
 164 00c8 0346     		mov	r3, r0
 165              		.loc 1 242 11 discriminator 1
 166 00ca 002B     		cmp	r3, #0
 167 00cc 01D0     		beq	.L10
 243:Drivers/STM32H7xx_HAL_Driver/Src/stm32h7xx_hal_flash_ex.c ****         {
 244:Drivers/STM32H7xx_HAL_Driver/Src/stm32h7xx_hal_flash_ex.c ****           status = HAL_ERROR;
 168              		.loc 1 244 18
 169 00ce 0123     		movs	r3, #1
 170 00d0 FB73     		strb	r3, [r7, #15]
 171              	.L10:
 245:Drivers/STM32H7xx_HAL_Driver/Src/stm32h7xx_hal_flash_ex.c ****         }
 246:Drivers/STM32H7xx_HAL_Driver/Src/stm32h7xx_hal_flash_ex.c ****         /* if the erase operation is completed, disable the Bank2 BER Bit */
 247:Drivers/STM32H7xx_HAL_Driver/Src/stm32h7xx_hal_flash_ex.c ****         FLASH->CR2 &= (~FLASH_CR_BER);
 172              		.loc 1 247 14
 173 00d2 2E4B     		ldr	r3, .L16+4
 174 00d4 D3F80C31 		ldr	r3, [r3, #268]
 175 00d8 2C4A     		ldr	r2, .L16+4
 176              		.loc 1 247 20
 177 00da 23F00803 		bic	r3, r3, #8
 178 00de C2F80C31 		str	r3, [r2, #268]
 179 00e2 49E0     		b	.L6
 180              	.L7:
 248:Drivers/STM32H7xx_HAL_Driver/Src/stm32h7xx_hal_flash_ex.c ****       }
 249:Drivers/STM32H7xx_HAL_Driver/Src/stm32h7xx_hal_flash_ex.c **** #endif /* DUAL_BANK */
 250:Drivers/STM32H7xx_HAL_Driver/Src/stm32h7xx_hal_flash_ex.c ****     }
 251:Drivers/STM32H7xx_HAL_Driver/Src/stm32h7xx_hal_flash_ex.c ****     else
 252:Drivers/STM32H7xx_HAL_Driver/Src/stm32h7xx_hal_flash_ex.c ****     {
 253:Drivers/STM32H7xx_HAL_Driver/Src/stm32h7xx_hal_flash_ex.c ****       /*Initialization of SectorError variable*/
 254:Drivers/STM32H7xx_HAL_Driver/Src/stm32h7xx_hal_flash_ex.c ****       *SectorError = 0xFFFFFFFFU;
 181              		.loc 1 254 20
 182 00e4 3B68     		ldr	r3, [r7]
 183 00e6 4FF0FF32 		mov	r2, #-1
 184 00ea 1A60     		str	r2, [r3]
 255:Drivers/STM32H7xx_HAL_Driver/Src/stm32h7xx_hal_flash_ex.c **** 
 256:Drivers/STM32H7xx_HAL_Driver/Src/stm32h7xx_hal_flash_ex.c ****       /* Erase by sector by sector to be done*/
 257:Drivers/STM32H7xx_HAL_Driver/Src/stm32h7xx_hal_flash_ex.c ****       for(sector_index = pEraseInit->Sector; sector_index < (pEraseInit->NbSectors + pEraseInit->Se
 185              		.loc 1 257 24
 186 00ec 7B68     		ldr	r3, [r7, #4]
 187 00ee 9B68     		ldr	r3, [r3, #8]
 188 00f0 BB60     		str	r3, [r7, #8]
 189              		.loc 1 257 7
 190 00f2 39E0     		b	.L11
 191              	.L15:
 258:Drivers/STM32H7xx_HAL_Driver/Src/stm32h7xx_hal_flash_ex.c ****       {
 259:Drivers/STM32H7xx_HAL_Driver/Src/stm32h7xx_hal_flash_ex.c ****         FLASH_Erase_Sector(sector_index, pEraseInit->Banks, pEraseInit->VoltageRange);
 192              		.loc 1 259 9
 193 00f4 7B68     		ldr	r3, [r7, #4]
 194 00f6 5968     		ldr	r1, [r3, #4]
 195 00f8 7B68     		ldr	r3, [r7, #4]
 196 00fa 1B69     		ldr	r3, [r3, #16]
 197 00fc 1A46     		mov	r2, r3
 198 00fe B868     		ldr	r0, [r7, #8]
ARM GAS  /var/folders/g1/j12m_ky910s3_sv7d4yrsdn00000gn/T//ccpiSNf7.s 			page 9


 199 0100 FFF7FEFF 		bl	FLASH_Erase_Sector
 260:Drivers/STM32H7xx_HAL_Driver/Src/stm32h7xx_hal_flash_ex.c **** 
 261:Drivers/STM32H7xx_HAL_Driver/Src/stm32h7xx_hal_flash_ex.c ****         if((pEraseInit->Banks & FLASH_BANK_1) == FLASH_BANK_1)
 200              		.loc 1 261 23
 201 0104 7B68     		ldr	r3, [r7, #4]
 202 0106 5B68     		ldr	r3, [r3, #4]
 203              		.loc 1 261 31
 204 0108 03F00103 		and	r3, r3, #1
 205              		.loc 1 261 11
 206 010c 002B     		cmp	r3, #0
 207 010e 0CD0     		beq	.L12
 262:Drivers/STM32H7xx_HAL_Driver/Src/stm32h7xx_hal_flash_ex.c ****         {
 263:Drivers/STM32H7xx_HAL_Driver/Src/stm32h7xx_hal_flash_ex.c ****           /* Wait for last operation to be completed */
 264:Drivers/STM32H7xx_HAL_Driver/Src/stm32h7xx_hal_flash_ex.c ****           status = FLASH_WaitForLastOperation((uint32_t)FLASH_TIMEOUT_VALUE, FLASH_BANK_1);
 208              		.loc 1 264 20
 209 0110 0121     		movs	r1, #1
 210 0112 4CF25030 		movw	r0, #50000
 211 0116 FFF7FEFF 		bl	FLASH_WaitForLastOperation
 212 011a 0346     		mov	r3, r0
 213 011c FB73     		strb	r3, [r7, #15]
 265:Drivers/STM32H7xx_HAL_Driver/Src/stm32h7xx_hal_flash_ex.c **** 
 266:Drivers/STM32H7xx_HAL_Driver/Src/stm32h7xx_hal_flash_ex.c ****           /* If the erase operation is completed, disable the SER Bit */
 267:Drivers/STM32H7xx_HAL_Driver/Src/stm32h7xx_hal_flash_ex.c ****           FLASH->CR1 &= (~(FLASH_CR_SER | FLASH_CR_SNB));
 214              		.loc 1 267 16
 215 011e 1B4B     		ldr	r3, .L16+4
 216 0120 DA68     		ldr	r2, [r3, #12]
 217 0122 1A49     		ldr	r1, .L16+4
 218              		.loc 1 267 22
 219 0124 1A4B     		ldr	r3, .L16+8
 220 0126 1340     		ands	r3, r3, r2
 221 0128 CB60     		str	r3, [r1, #12]
 222              	.L12:
 268:Drivers/STM32H7xx_HAL_Driver/Src/stm32h7xx_hal_flash_ex.c ****         }
 269:Drivers/STM32H7xx_HAL_Driver/Src/stm32h7xx_hal_flash_ex.c **** #if defined (DUAL_BANK)
 270:Drivers/STM32H7xx_HAL_Driver/Src/stm32h7xx_hal_flash_ex.c ****         if((pEraseInit->Banks & FLASH_BANK_2) == FLASH_BANK_2)
 223              		.loc 1 270 23
 224 012a 7B68     		ldr	r3, [r7, #4]
 225 012c 5B68     		ldr	r3, [r3, #4]
 226              		.loc 1 270 31
 227 012e 03F00203 		and	r3, r3, #2
 228              		.loc 1 270 11
 229 0132 002B     		cmp	r3, #0
 230 0134 0ED0     		beq	.L13
 271:Drivers/STM32H7xx_HAL_Driver/Src/stm32h7xx_hal_flash_ex.c ****         {
 272:Drivers/STM32H7xx_HAL_Driver/Src/stm32h7xx_hal_flash_ex.c ****           /* Wait for last operation to be completed */
 273:Drivers/STM32H7xx_HAL_Driver/Src/stm32h7xx_hal_flash_ex.c ****           status = FLASH_WaitForLastOperation((uint32_t)FLASH_TIMEOUT_VALUE, FLASH_BANK_2);
 231              		.loc 1 273 20
 232 0136 0221     		movs	r1, #2
 233 0138 4CF25030 		movw	r0, #50000
 234 013c FFF7FEFF 		bl	FLASH_WaitForLastOperation
 235 0140 0346     		mov	r3, r0
 236 0142 FB73     		strb	r3, [r7, #15]
 274:Drivers/STM32H7xx_HAL_Driver/Src/stm32h7xx_hal_flash_ex.c **** 
 275:Drivers/STM32H7xx_HAL_Driver/Src/stm32h7xx_hal_flash_ex.c ****           /* If the erase operation is completed, disable the SER Bit */
 276:Drivers/STM32H7xx_HAL_Driver/Src/stm32h7xx_hal_flash_ex.c ****           FLASH->CR2 &= (~(FLASH_CR_SER | FLASH_CR_SNB));
 237              		.loc 1 276 16
 238 0144 114B     		ldr	r3, .L16+4
ARM GAS  /var/folders/g1/j12m_ky910s3_sv7d4yrsdn00000gn/T//ccpiSNf7.s 			page 10


 239 0146 D3F80C21 		ldr	r2, [r3, #268]
 240 014a 1049     		ldr	r1, .L16+4
 241              		.loc 1 276 22
 242 014c 104B     		ldr	r3, .L16+8
 243 014e 1340     		ands	r3, r3, r2
 244 0150 C1F80C31 		str	r3, [r1, #268]
 245              	.L13:
 277:Drivers/STM32H7xx_HAL_Driver/Src/stm32h7xx_hal_flash_ex.c ****         }
 278:Drivers/STM32H7xx_HAL_Driver/Src/stm32h7xx_hal_flash_ex.c **** #endif /* DUAL_BANK */
 279:Drivers/STM32H7xx_HAL_Driver/Src/stm32h7xx_hal_flash_ex.c **** 
 280:Drivers/STM32H7xx_HAL_Driver/Src/stm32h7xx_hal_flash_ex.c ****         if(status != HAL_OK)
 246              		.loc 1 280 11
 247 0154 FB7B     		ldrb	r3, [r7, #15]	@ zero_extendqisi2
 248 0156 002B     		cmp	r3, #0
 249 0158 03D0     		beq	.L14
 281:Drivers/STM32H7xx_HAL_Driver/Src/stm32h7xx_hal_flash_ex.c ****         {
 282:Drivers/STM32H7xx_HAL_Driver/Src/stm32h7xx_hal_flash_ex.c ****           /* In case of error, stop erase procedure and return the faulty sector */
 283:Drivers/STM32H7xx_HAL_Driver/Src/stm32h7xx_hal_flash_ex.c ****           *SectorError = sector_index;
 250              		.loc 1 283 24
 251 015a 3B68     		ldr	r3, [r7]
 252 015c BA68     		ldr	r2, [r7, #8]
 253 015e 1A60     		str	r2, [r3]
 284:Drivers/STM32H7xx_HAL_Driver/Src/stm32h7xx_hal_flash_ex.c ****           break;
 254              		.loc 1 284 11
 255 0160 0AE0     		b	.L6
 256              	.L14:
 257:Drivers/STM32H7xx_HAL_Driver/Src/stm32h7xx_hal_flash_ex.c ****       {
 257              		.loc 1 257 119 discriminator 2
 258 0162 BB68     		ldr	r3, [r7, #8]
 259 0164 0133     		adds	r3, r3, #1
 260 0166 BB60     		str	r3, [r7, #8]
 261              	.L11:
 257:Drivers/STM32H7xx_HAL_Driver/Src/stm32h7xx_hal_flash_ex.c ****       {
 262              		.loc 1 257 72 discriminator 1
 263 0168 7B68     		ldr	r3, [r7, #4]
 264 016a DA68     		ldr	r2, [r3, #12]
 257:Drivers/STM32H7xx_HAL_Driver/Src/stm32h7xx_hal_flash_ex.c ****       {
 265              		.loc 1 257 96 discriminator 1
 266 016c 7B68     		ldr	r3, [r7, #4]
 267 016e 9B68     		ldr	r3, [r3, #8]
 257:Drivers/STM32H7xx_HAL_Driver/Src/stm32h7xx_hal_flash_ex.c ****       {
 268              		.loc 1 257 84 discriminator 1
 269 0170 1344     		add	r3, r3, r2
 257:Drivers/STM32H7xx_HAL_Driver/Src/stm32h7xx_hal_flash_ex.c ****       {
 270              		.loc 1 257 59 discriminator 1
 271 0172 BA68     		ldr	r2, [r7, #8]
 272 0174 9A42     		cmp	r2, r3
 273 0176 BDD3     		bcc	.L15
 274              	.L6:
 285:Drivers/STM32H7xx_HAL_Driver/Src/stm32h7xx_hal_flash_ex.c ****         }
 286:Drivers/STM32H7xx_HAL_Driver/Src/stm32h7xx_hal_flash_ex.c ****       }
 287:Drivers/STM32H7xx_HAL_Driver/Src/stm32h7xx_hal_flash_ex.c ****     }
 288:Drivers/STM32H7xx_HAL_Driver/Src/stm32h7xx_hal_flash_ex.c ****   }
 289:Drivers/STM32H7xx_HAL_Driver/Src/stm32h7xx_hal_flash_ex.c **** 
 290:Drivers/STM32H7xx_HAL_Driver/Src/stm32h7xx_hal_flash_ex.c ****   /* Process Unlocked */
 291:Drivers/STM32H7xx_HAL_Driver/Src/stm32h7xx_hal_flash_ex.c ****   __HAL_UNLOCK(&pFlash);
 275              		.loc 1 291 3
ARM GAS  /var/folders/g1/j12m_ky910s3_sv7d4yrsdn00000gn/T//ccpiSNf7.s 			page 11


 276 0178 034B     		ldr	r3, .L16
 277 017a 0022     		movs	r2, #0
 278 017c 1A75     		strb	r2, [r3, #20]
 292:Drivers/STM32H7xx_HAL_Driver/Src/stm32h7xx_hal_flash_ex.c **** 
 293:Drivers/STM32H7xx_HAL_Driver/Src/stm32h7xx_hal_flash_ex.c ****   return status;
 279              		.loc 1 293 10
 280 017e FB7B     		ldrb	r3, [r7, #15]	@ zero_extendqisi2
 281              	.L3:
 294:Drivers/STM32H7xx_HAL_Driver/Src/stm32h7xx_hal_flash_ex.c **** }
 282              		.loc 1 294 1
 283 0180 1846     		mov	r0, r3
 284 0182 1037     		adds	r7, r7, #16
 285              	.LCFI3:
 286              		.cfi_def_cfa_offset 8
 287 0184 BD46     		mov	sp, r7
 288              	.LCFI4:
 289              		.cfi_def_cfa_register 13
 290              		@ sp needed
 291 0186 80BD     		pop	{r7, pc}
 292              	.L17:
 293              		.align	2
 294              	.L16:
 295 0188 00000000 		.word	pFlash
 296 018c 00200052 		.word	1375739904
 297 0190 FBF8FFFF 		.word	-1797
 298              		.cfi_endproc
 299              	.LFE144:
 301              		.section	.text.HAL_FLASHEx_Erase_IT,"ax",%progbits
 302              		.align	1
 303              		.global	HAL_FLASHEx_Erase_IT
 304              		.syntax unified
 305              		.thumb
 306              		.thumb_func
 308              	HAL_FLASHEx_Erase_IT:
 309              	.LFB145:
 295:Drivers/STM32H7xx_HAL_Driver/Src/stm32h7xx_hal_flash_ex.c **** 
 296:Drivers/STM32H7xx_HAL_Driver/Src/stm32h7xx_hal_flash_ex.c **** /**
 297:Drivers/STM32H7xx_HAL_Driver/Src/stm32h7xx_hal_flash_ex.c ****   * @brief  Perform a mass erase or erase the specified FLASH memory sectors with interrupt enabled
 298:Drivers/STM32H7xx_HAL_Driver/Src/stm32h7xx_hal_flash_ex.c ****   * @param  pEraseInit pointer to an FLASH_EraseInitTypeDef structure that
 299:Drivers/STM32H7xx_HAL_Driver/Src/stm32h7xx_hal_flash_ex.c ****   *         contains the configuration information for the erasing.
 300:Drivers/STM32H7xx_HAL_Driver/Src/stm32h7xx_hal_flash_ex.c ****   *
 301:Drivers/STM32H7xx_HAL_Driver/Src/stm32h7xx_hal_flash_ex.c ****   * @retval HAL Status
 302:Drivers/STM32H7xx_HAL_Driver/Src/stm32h7xx_hal_flash_ex.c ****   */
 303:Drivers/STM32H7xx_HAL_Driver/Src/stm32h7xx_hal_flash_ex.c **** HAL_StatusTypeDef HAL_FLASHEx_Erase_IT(FLASH_EraseInitTypeDef *pEraseInit)
 304:Drivers/STM32H7xx_HAL_Driver/Src/stm32h7xx_hal_flash_ex.c **** {
 310              		.loc 1 304 1
 311              		.cfi_startproc
 312              		@ args = 0, pretend = 0, frame = 16
 313              		@ frame_needed = 1, uses_anonymous_args = 0
 314 0000 80B5     		push	{r7, lr}
 315              	.LCFI5:
 316              		.cfi_def_cfa_offset 8
 317              		.cfi_offset 7, -8
 318              		.cfi_offset 14, -4
 319 0002 84B0     		sub	sp, sp, #16
 320              	.LCFI6:
 321              		.cfi_def_cfa_offset 24
ARM GAS  /var/folders/g1/j12m_ky910s3_sv7d4yrsdn00000gn/T//ccpiSNf7.s 			page 12


 322 0004 00AF     		add	r7, sp, #0
 323              	.LCFI7:
 324              		.cfi_def_cfa_register 7
 325 0006 7860     		str	r0, [r7, #4]
 305:Drivers/STM32H7xx_HAL_Driver/Src/stm32h7xx_hal_flash_ex.c ****   HAL_StatusTypeDef status = HAL_OK;
 326              		.loc 1 305 21
 327 0008 0023     		movs	r3, #0
 328 000a FB73     		strb	r3, [r7, #15]
 306:Drivers/STM32H7xx_HAL_Driver/Src/stm32h7xx_hal_flash_ex.c **** 
 307:Drivers/STM32H7xx_HAL_Driver/Src/stm32h7xx_hal_flash_ex.c ****   /* Check the parameters */
 308:Drivers/STM32H7xx_HAL_Driver/Src/stm32h7xx_hal_flash_ex.c ****   assert_param(IS_FLASH_TYPEERASE(pEraseInit->TypeErase));
 309:Drivers/STM32H7xx_HAL_Driver/Src/stm32h7xx_hal_flash_ex.c ****   assert_param(IS_FLASH_BANK(pEraseInit->Banks));
 310:Drivers/STM32H7xx_HAL_Driver/Src/stm32h7xx_hal_flash_ex.c **** 
 311:Drivers/STM32H7xx_HAL_Driver/Src/stm32h7xx_hal_flash_ex.c ****   /* Process Locked */
 312:Drivers/STM32H7xx_HAL_Driver/Src/stm32h7xx_hal_flash_ex.c ****   __HAL_LOCK(&pFlash);
 329              		.loc 1 312 3
 330 000c 484B     		ldr	r3, .L33
 331 000e 1B7D     		ldrb	r3, [r3, #20]	@ zero_extendqisi2
 332 0010 012B     		cmp	r3, #1
 333 0012 01D1     		bne	.L19
 334              		.loc 1 312 3 is_stmt 0 discriminator 1
 335 0014 0223     		movs	r3, #2
 336              		.loc 1 312 3
 337 0016 87E0     		b	.L20
 338              	.L19:
 339              		.loc 1 312 3 discriminator 2
 340 0018 454B     		ldr	r3, .L33
 341 001a 0122     		movs	r2, #1
 342 001c 1A75     		strb	r2, [r3, #20]
 313:Drivers/STM32H7xx_HAL_Driver/Src/stm32h7xx_hal_flash_ex.c **** 
 314:Drivers/STM32H7xx_HAL_Driver/Src/stm32h7xx_hal_flash_ex.c ****   /* Reset error code */
 315:Drivers/STM32H7xx_HAL_Driver/Src/stm32h7xx_hal_flash_ex.c ****   pFlash.ErrorCode = HAL_FLASH_ERROR_NONE;
 343              		.loc 1 315 20 is_stmt 1
 344 001e 444B     		ldr	r3, .L33
 345 0020 0022     		movs	r2, #0
 346 0022 9A61     		str	r2, [r3, #24]
 316:Drivers/STM32H7xx_HAL_Driver/Src/stm32h7xx_hal_flash_ex.c **** 
 317:Drivers/STM32H7xx_HAL_Driver/Src/stm32h7xx_hal_flash_ex.c ****   /* Wait for last operation to be completed on Bank 1 */
 318:Drivers/STM32H7xx_HAL_Driver/Src/stm32h7xx_hal_flash_ex.c ****   if((pEraseInit->Banks & FLASH_BANK_1) == FLASH_BANK_1)
 347              		.loc 1 318 17
 348 0024 7B68     		ldr	r3, [r7, #4]
 349 0026 5B68     		ldr	r3, [r3, #4]
 350              		.loc 1 318 25
 351 0028 03F00103 		and	r3, r3, #1
 352              		.loc 1 318 5
 353 002c 002B     		cmp	r3, #0
 354 002e 09D0     		beq	.L21
 319:Drivers/STM32H7xx_HAL_Driver/Src/stm32h7xx_hal_flash_ex.c ****   {
 320:Drivers/STM32H7xx_HAL_Driver/Src/stm32h7xx_hal_flash_ex.c ****     if(FLASH_WaitForLastOperation((uint32_t)FLASH_TIMEOUT_VALUE, FLASH_BANK_1) != HAL_OK)
 355              		.loc 1 320 8
 356 0030 0121     		movs	r1, #1
 357 0032 4CF25030 		movw	r0, #50000
 358 0036 FFF7FEFF 		bl	FLASH_WaitForLastOperation
 359 003a 0346     		mov	r3, r0
 360              		.loc 1 320 7 discriminator 1
 361 003c 002B     		cmp	r3, #0
 362 003e 01D0     		beq	.L21
ARM GAS  /var/folders/g1/j12m_ky910s3_sv7d4yrsdn00000gn/T//ccpiSNf7.s 			page 13


 321:Drivers/STM32H7xx_HAL_Driver/Src/stm32h7xx_hal_flash_ex.c ****     {
 322:Drivers/STM32H7xx_HAL_Driver/Src/stm32h7xx_hal_flash_ex.c ****       status = HAL_ERROR;
 363              		.loc 1 322 14
 364 0040 0123     		movs	r3, #1
 365 0042 FB73     		strb	r3, [r7, #15]
 366              	.L21:
 323:Drivers/STM32H7xx_HAL_Driver/Src/stm32h7xx_hal_flash_ex.c ****     }
 324:Drivers/STM32H7xx_HAL_Driver/Src/stm32h7xx_hal_flash_ex.c ****   }
 325:Drivers/STM32H7xx_HAL_Driver/Src/stm32h7xx_hal_flash_ex.c **** 
 326:Drivers/STM32H7xx_HAL_Driver/Src/stm32h7xx_hal_flash_ex.c **** #if defined (DUAL_BANK)
 327:Drivers/STM32H7xx_HAL_Driver/Src/stm32h7xx_hal_flash_ex.c ****   /* Wait for last operation to be completed on Bank 2 */
 328:Drivers/STM32H7xx_HAL_Driver/Src/stm32h7xx_hal_flash_ex.c ****   if((pEraseInit->Banks & FLASH_BANK_2) == FLASH_BANK_2)
 367              		.loc 1 328 17
 368 0044 7B68     		ldr	r3, [r7, #4]
 369 0046 5B68     		ldr	r3, [r3, #4]
 370              		.loc 1 328 25
 371 0048 03F00203 		and	r3, r3, #2
 372              		.loc 1 328 5
 373 004c 002B     		cmp	r3, #0
 374 004e 09D0     		beq	.L22
 329:Drivers/STM32H7xx_HAL_Driver/Src/stm32h7xx_hal_flash_ex.c ****   {
 330:Drivers/STM32H7xx_HAL_Driver/Src/stm32h7xx_hal_flash_ex.c ****     if(FLASH_WaitForLastOperation((uint32_t)FLASH_TIMEOUT_VALUE, FLASH_BANK_2) != HAL_OK)
 375              		.loc 1 330 8
 376 0050 0221     		movs	r1, #2
 377 0052 4CF25030 		movw	r0, #50000
 378 0056 FFF7FEFF 		bl	FLASH_WaitForLastOperation
 379 005a 0346     		mov	r3, r0
 380              		.loc 1 330 7 discriminator 1
 381 005c 002B     		cmp	r3, #0
 382 005e 01D0     		beq	.L22
 331:Drivers/STM32H7xx_HAL_Driver/Src/stm32h7xx_hal_flash_ex.c ****     {
 332:Drivers/STM32H7xx_HAL_Driver/Src/stm32h7xx_hal_flash_ex.c ****       status = HAL_ERROR;
 383              		.loc 1 332 14
 384 0060 0123     		movs	r3, #1
 385 0062 FB73     		strb	r3, [r7, #15]
 386              	.L22:
 333:Drivers/STM32H7xx_HAL_Driver/Src/stm32h7xx_hal_flash_ex.c ****     }
 334:Drivers/STM32H7xx_HAL_Driver/Src/stm32h7xx_hal_flash_ex.c ****   }
 335:Drivers/STM32H7xx_HAL_Driver/Src/stm32h7xx_hal_flash_ex.c **** #endif /* DUAL_BANK */
 336:Drivers/STM32H7xx_HAL_Driver/Src/stm32h7xx_hal_flash_ex.c **** 
 337:Drivers/STM32H7xx_HAL_Driver/Src/stm32h7xx_hal_flash_ex.c ****   if (status != HAL_OK)
 387              		.loc 1 337 6
 388 0064 FB7B     		ldrb	r3, [r7, #15]	@ zero_extendqisi2
 389 0066 002B     		cmp	r3, #0
 390 0068 03D0     		beq	.L23
 338:Drivers/STM32H7xx_HAL_Driver/Src/stm32h7xx_hal_flash_ex.c ****   {
 339:Drivers/STM32H7xx_HAL_Driver/Src/stm32h7xx_hal_flash_ex.c ****     /* Process Unlocked */
 340:Drivers/STM32H7xx_HAL_Driver/Src/stm32h7xx_hal_flash_ex.c ****     __HAL_UNLOCK(&pFlash);
 391              		.loc 1 340 5
 392 006a 314B     		ldr	r3, .L33
 393 006c 0022     		movs	r2, #0
 394 006e 1A75     		strb	r2, [r3, #20]
 395 0070 59E0     		b	.L24
 396              	.L23:
 341:Drivers/STM32H7xx_HAL_Driver/Src/stm32h7xx_hal_flash_ex.c ****   }
 342:Drivers/STM32H7xx_HAL_Driver/Src/stm32h7xx_hal_flash_ex.c ****   else
 343:Drivers/STM32H7xx_HAL_Driver/Src/stm32h7xx_hal_flash_ex.c ****   {
ARM GAS  /var/folders/g1/j12m_ky910s3_sv7d4yrsdn00000gn/T//ccpiSNf7.s 			page 14


 344:Drivers/STM32H7xx_HAL_Driver/Src/stm32h7xx_hal_flash_ex.c ****     if((pEraseInit->Banks & FLASH_BANK_1) == FLASH_BANK_1)
 397              		.loc 1 344 19
 398 0072 7B68     		ldr	r3, [r7, #4]
 399 0074 5B68     		ldr	r3, [r3, #4]
 400              		.loc 1 344 27
 401 0076 03F00103 		and	r3, r3, #1
 402              		.loc 1 344 7
 403 007a 002B     		cmp	r3, #0
 404 007c 05D0     		beq	.L25
 345:Drivers/STM32H7xx_HAL_Driver/Src/stm32h7xx_hal_flash_ex.c ****     {
 346:Drivers/STM32H7xx_HAL_Driver/Src/stm32h7xx_hal_flash_ex.c ****       /* Enable End of Operation and Error interrupts for Bank 1 */
 347:Drivers/STM32H7xx_HAL_Driver/Src/stm32h7xx_hal_flash_ex.c **** #if defined (FLASH_CR_OPERRIE)
 348:Drivers/STM32H7xx_HAL_Driver/Src/stm32h7xx_hal_flash_ex.c ****       __HAL_FLASH_ENABLE_IT_BANK1(FLASH_IT_EOP_BANK1     | FLASH_IT_WRPERR_BANK1 | FLASH_IT_PGSERR_
 405              		.loc 1 348 7
 406 007e 2D4B     		ldr	r3, .L33+4
 407 0080 DB68     		ldr	r3, [r3, #12]
 408 0082 2C4A     		ldr	r2, .L33+4
 409 0084 43F4DE03 		orr	r3, r3, #7274496
 410 0088 D360     		str	r3, [r2, #12]
 411              	.L25:
 349:Drivers/STM32H7xx_HAL_Driver/Src/stm32h7xx_hal_flash_ex.c ****                                   FLASH_IT_STRBERR_BANK1 | FLASH_IT_INCERR_BANK1 | FLASH_IT_OPERR_B
 350:Drivers/STM32H7xx_HAL_Driver/Src/stm32h7xx_hal_flash_ex.c **** #else
 351:Drivers/STM32H7xx_HAL_Driver/Src/stm32h7xx_hal_flash_ex.c ****       __HAL_FLASH_ENABLE_IT_BANK1(FLASH_IT_EOP_BANK1     | FLASH_IT_WRPERR_BANK1 | FLASH_IT_PGSERR_
 352:Drivers/STM32H7xx_HAL_Driver/Src/stm32h7xx_hal_flash_ex.c ****                                   FLASH_IT_STRBERR_BANK1 | FLASH_IT_INCERR_BANK1);
 353:Drivers/STM32H7xx_HAL_Driver/Src/stm32h7xx_hal_flash_ex.c **** #endif /* FLASH_CR_OPERRIE */
 354:Drivers/STM32H7xx_HAL_Driver/Src/stm32h7xx_hal_flash_ex.c ****     }
 355:Drivers/STM32H7xx_HAL_Driver/Src/stm32h7xx_hal_flash_ex.c **** #if defined (DUAL_BANK)
 356:Drivers/STM32H7xx_HAL_Driver/Src/stm32h7xx_hal_flash_ex.c ****     if((pEraseInit->Banks & FLASH_BANK_2) == FLASH_BANK_2)
 412              		.loc 1 356 19
 413 008a 7B68     		ldr	r3, [r7, #4]
 414 008c 5B68     		ldr	r3, [r3, #4]
 415              		.loc 1 356 27
 416 008e 03F00203 		and	r3, r3, #2
 417              		.loc 1 356 7
 418 0092 002B     		cmp	r3, #0
 419 0094 07D0     		beq	.L26
 357:Drivers/STM32H7xx_HAL_Driver/Src/stm32h7xx_hal_flash_ex.c ****     {
 358:Drivers/STM32H7xx_HAL_Driver/Src/stm32h7xx_hal_flash_ex.c ****       /* Enable End of Operation and Error interrupts for Bank 2 */
 359:Drivers/STM32H7xx_HAL_Driver/Src/stm32h7xx_hal_flash_ex.c **** #if defined (FLASH_CR_OPERRIE)
 360:Drivers/STM32H7xx_HAL_Driver/Src/stm32h7xx_hal_flash_ex.c ****       __HAL_FLASH_ENABLE_IT_BANK2(FLASH_IT_EOP_BANK2     | FLASH_IT_WRPERR_BANK2 | FLASH_IT_PGSERR_
 420              		.loc 1 360 7
 421 0096 274B     		ldr	r3, .L33+4
 422 0098 D3F80C31 		ldr	r3, [r3, #268]
 423 009c 254A     		ldr	r2, .L33+4
 424 009e 43F4DE03 		orr	r3, r3, #7274496
 425 00a2 C2F80C31 		str	r3, [r2, #268]
 426              	.L26:
 361:Drivers/STM32H7xx_HAL_Driver/Src/stm32h7xx_hal_flash_ex.c ****                                   FLASH_IT_STRBERR_BANK2 | FLASH_IT_INCERR_BANK2 | FLASH_IT_OPERR_B
 362:Drivers/STM32H7xx_HAL_Driver/Src/stm32h7xx_hal_flash_ex.c **** #else
 363:Drivers/STM32H7xx_HAL_Driver/Src/stm32h7xx_hal_flash_ex.c ****       __HAL_FLASH_ENABLE_IT_BANK2(FLASH_IT_EOP_BANK2     | FLASH_IT_WRPERR_BANK2 | FLASH_IT_PGSERR_
 364:Drivers/STM32H7xx_HAL_Driver/Src/stm32h7xx_hal_flash_ex.c ****                                   FLASH_IT_STRBERR_BANK2 | FLASH_IT_INCERR_BANK2);
 365:Drivers/STM32H7xx_HAL_Driver/Src/stm32h7xx_hal_flash_ex.c **** #endif /* FLASH_CR_OPERRIE */
 366:Drivers/STM32H7xx_HAL_Driver/Src/stm32h7xx_hal_flash_ex.c ****     }
 367:Drivers/STM32H7xx_HAL_Driver/Src/stm32h7xx_hal_flash_ex.c **** #endif /* DUAL_BANK */
 368:Drivers/STM32H7xx_HAL_Driver/Src/stm32h7xx_hal_flash_ex.c **** 
 369:Drivers/STM32H7xx_HAL_Driver/Src/stm32h7xx_hal_flash_ex.c ****     if(pEraseInit->TypeErase == FLASH_TYPEERASE_MASSERASE)
 427              		.loc 1 369 18
ARM GAS  /var/folders/g1/j12m_ky910s3_sv7d4yrsdn00000gn/T//ccpiSNf7.s 			page 15


 428 00a6 7B68     		ldr	r3, [r7, #4]
 429 00a8 1B68     		ldr	r3, [r3]
 430              		.loc 1 369 7
 431 00aa 012B     		cmp	r3, #1
 432 00ac 1BD1     		bne	.L27
 370:Drivers/STM32H7xx_HAL_Driver/Src/stm32h7xx_hal_flash_ex.c ****     {
 371:Drivers/STM32H7xx_HAL_Driver/Src/stm32h7xx_hal_flash_ex.c ****       /*Mass erase to be done*/
 372:Drivers/STM32H7xx_HAL_Driver/Src/stm32h7xx_hal_flash_ex.c ****       if(pEraseInit->Banks == FLASH_BANK_1)
 433              		.loc 1 372 20
 434 00ae 7B68     		ldr	r3, [r7, #4]
 435 00b0 5B68     		ldr	r3, [r3, #4]
 436              		.loc 1 372 9
 437 00b2 012B     		cmp	r3, #1
 438 00b4 03D1     		bne	.L28
 373:Drivers/STM32H7xx_HAL_Driver/Src/stm32h7xx_hal_flash_ex.c ****       {
 374:Drivers/STM32H7xx_HAL_Driver/Src/stm32h7xx_hal_flash_ex.c ****         pFlash.ProcedureOnGoing = FLASH_PROC_MASSERASE_BANK1;
 439              		.loc 1 374 33
 440 00b6 1E4B     		ldr	r3, .L33
 441 00b8 0222     		movs	r2, #2
 442 00ba 1A70     		strb	r2, [r3]
 443 00bc 0AE0     		b	.L29
 444              	.L28:
 375:Drivers/STM32H7xx_HAL_Driver/Src/stm32h7xx_hal_flash_ex.c ****       }
 376:Drivers/STM32H7xx_HAL_Driver/Src/stm32h7xx_hal_flash_ex.c **** #if defined (DUAL_BANK)
 377:Drivers/STM32H7xx_HAL_Driver/Src/stm32h7xx_hal_flash_ex.c ****       else if(pEraseInit->Banks == FLASH_BANK_2)
 445              		.loc 1 377 25
 446 00be 7B68     		ldr	r3, [r7, #4]
 447 00c0 5B68     		ldr	r3, [r3, #4]
 448              		.loc 1 377 14
 449 00c2 022B     		cmp	r3, #2
 450 00c4 03D1     		bne	.L30
 378:Drivers/STM32H7xx_HAL_Driver/Src/stm32h7xx_hal_flash_ex.c ****       {
 379:Drivers/STM32H7xx_HAL_Driver/Src/stm32h7xx_hal_flash_ex.c ****         pFlash.ProcedureOnGoing = FLASH_PROC_MASSERASE_BANK2;
 451              		.loc 1 379 33
 452 00c6 1A4B     		ldr	r3, .L33
 453 00c8 0522     		movs	r2, #5
 454 00ca 1A70     		strb	r2, [r3]
 455 00cc 02E0     		b	.L29
 456              	.L30:
 380:Drivers/STM32H7xx_HAL_Driver/Src/stm32h7xx_hal_flash_ex.c ****       }
 381:Drivers/STM32H7xx_HAL_Driver/Src/stm32h7xx_hal_flash_ex.c **** #endif /* DUAL_BANK */
 382:Drivers/STM32H7xx_HAL_Driver/Src/stm32h7xx_hal_flash_ex.c ****       else
 383:Drivers/STM32H7xx_HAL_Driver/Src/stm32h7xx_hal_flash_ex.c ****       {
 384:Drivers/STM32H7xx_HAL_Driver/Src/stm32h7xx_hal_flash_ex.c ****         pFlash.ProcedureOnGoing = FLASH_PROC_ALLBANK_MASSERASE;
 457              		.loc 1 384 33
 458 00ce 184B     		ldr	r3, .L33
 459 00d0 0722     		movs	r2, #7
 460 00d2 1A70     		strb	r2, [r3]
 461              	.L29:
 385:Drivers/STM32H7xx_HAL_Driver/Src/stm32h7xx_hal_flash_ex.c ****       }
 386:Drivers/STM32H7xx_HAL_Driver/Src/stm32h7xx_hal_flash_ex.c **** 
 387:Drivers/STM32H7xx_HAL_Driver/Src/stm32h7xx_hal_flash_ex.c ****       FLASH_MassErase(pEraseInit->VoltageRange, pEraseInit->Banks);
 462              		.loc 1 387 7
 463 00d4 7B68     		ldr	r3, [r7, #4]
 464 00d6 1A69     		ldr	r2, [r3, #16]
 465 00d8 7B68     		ldr	r3, [r7, #4]
 466 00da 5B68     		ldr	r3, [r3, #4]
ARM GAS  /var/folders/g1/j12m_ky910s3_sv7d4yrsdn00000gn/T//ccpiSNf7.s 			page 16


 467 00dc 1946     		mov	r1, r3
 468 00de 1046     		mov	r0, r2
 469 00e0 FFF7FEFF 		bl	FLASH_MassErase
 470 00e4 1FE0     		b	.L24
 471              	.L27:
 388:Drivers/STM32H7xx_HAL_Driver/Src/stm32h7xx_hal_flash_ex.c ****     }
 389:Drivers/STM32H7xx_HAL_Driver/Src/stm32h7xx_hal_flash_ex.c ****     else
 390:Drivers/STM32H7xx_HAL_Driver/Src/stm32h7xx_hal_flash_ex.c ****     {
 391:Drivers/STM32H7xx_HAL_Driver/Src/stm32h7xx_hal_flash_ex.c ****       /* Erase by sector to be done */
 392:Drivers/STM32H7xx_HAL_Driver/Src/stm32h7xx_hal_flash_ex.c **** #if defined (DUAL_BANK)
 393:Drivers/STM32H7xx_HAL_Driver/Src/stm32h7xx_hal_flash_ex.c ****       if(pEraseInit->Banks == FLASH_BANK_1)
 472              		.loc 1 393 20
 473 00e6 7B68     		ldr	r3, [r7, #4]
 474 00e8 5B68     		ldr	r3, [r3, #4]
 475              		.loc 1 393 9
 476 00ea 012B     		cmp	r3, #1
 477 00ec 03D1     		bne	.L31
 394:Drivers/STM32H7xx_HAL_Driver/Src/stm32h7xx_hal_flash_ex.c ****       {
 395:Drivers/STM32H7xx_HAL_Driver/Src/stm32h7xx_hal_flash_ex.c ****         pFlash.ProcedureOnGoing = FLASH_PROC_SECTERASE_BANK1;
 478              		.loc 1 395 33
 479 00ee 104B     		ldr	r3, .L33
 480 00f0 0122     		movs	r2, #1
 481 00f2 1A70     		strb	r2, [r3]
 482 00f4 02E0     		b	.L32
 483              	.L31:
 396:Drivers/STM32H7xx_HAL_Driver/Src/stm32h7xx_hal_flash_ex.c ****       }
 397:Drivers/STM32H7xx_HAL_Driver/Src/stm32h7xx_hal_flash_ex.c ****       else
 398:Drivers/STM32H7xx_HAL_Driver/Src/stm32h7xx_hal_flash_ex.c ****       {
 399:Drivers/STM32H7xx_HAL_Driver/Src/stm32h7xx_hal_flash_ex.c ****         pFlash.ProcedureOnGoing = FLASH_PROC_SECTERASE_BANK2;
 484              		.loc 1 399 33
 485 00f6 0E4B     		ldr	r3, .L33
 486 00f8 0422     		movs	r2, #4
 487 00fa 1A70     		strb	r2, [r3]
 488              	.L32:
 400:Drivers/STM32H7xx_HAL_Driver/Src/stm32h7xx_hal_flash_ex.c ****       }
 401:Drivers/STM32H7xx_HAL_Driver/Src/stm32h7xx_hal_flash_ex.c **** #else
 402:Drivers/STM32H7xx_HAL_Driver/Src/stm32h7xx_hal_flash_ex.c ****       pFlash.ProcedureOnGoing = FLASH_PROC_SECTERASE_BANK1;
 403:Drivers/STM32H7xx_HAL_Driver/Src/stm32h7xx_hal_flash_ex.c **** #endif /* DUAL_BANK */
 404:Drivers/STM32H7xx_HAL_Driver/Src/stm32h7xx_hal_flash_ex.c **** 
 405:Drivers/STM32H7xx_HAL_Driver/Src/stm32h7xx_hal_flash_ex.c ****       pFlash.NbSectorsToErase = pEraseInit->NbSectors;
 489              		.loc 1 405 43
 490 00fc 7B68     		ldr	r3, [r7, #4]
 491 00fe DB68     		ldr	r3, [r3, #12]
 492              		.loc 1 405 31
 493 0100 0B4A     		ldr	r2, .L33
 494 0102 5360     		str	r3, [r2, #4]
 406:Drivers/STM32H7xx_HAL_Driver/Src/stm32h7xx_hal_flash_ex.c ****       pFlash.Sector = pEraseInit->Sector;
 495              		.loc 1 406 33
 496 0104 7B68     		ldr	r3, [r7, #4]
 497 0106 9B68     		ldr	r3, [r3, #8]
 498              		.loc 1 406 21
 499 0108 094A     		ldr	r2, .L33
 500 010a D360     		str	r3, [r2, #12]
 407:Drivers/STM32H7xx_HAL_Driver/Src/stm32h7xx_hal_flash_ex.c ****       pFlash.VoltageForErase = pEraseInit->VoltageRange;
 501              		.loc 1 407 42
 502 010c 7B68     		ldr	r3, [r7, #4]
 503 010e 1B69     		ldr	r3, [r3, #16]
ARM GAS  /var/folders/g1/j12m_ky910s3_sv7d4yrsdn00000gn/T//ccpiSNf7.s 			page 17


 504              		.loc 1 407 30
 505 0110 074A     		ldr	r2, .L33
 506 0112 9360     		str	r3, [r2, #8]
 408:Drivers/STM32H7xx_HAL_Driver/Src/stm32h7xx_hal_flash_ex.c **** 
 409:Drivers/STM32H7xx_HAL_Driver/Src/stm32h7xx_hal_flash_ex.c ****       /* Erase first sector and wait for IT */
 410:Drivers/STM32H7xx_HAL_Driver/Src/stm32h7xx_hal_flash_ex.c ****       FLASH_Erase_Sector(pEraseInit->Sector, pEraseInit->Banks, pEraseInit->VoltageRange);
 507              		.loc 1 410 7
 508 0114 7B68     		ldr	r3, [r7, #4]
 509 0116 9868     		ldr	r0, [r3, #8]
 510 0118 7B68     		ldr	r3, [r7, #4]
 511 011a 5968     		ldr	r1, [r3, #4]
 512 011c 7B68     		ldr	r3, [r7, #4]
 513 011e 1B69     		ldr	r3, [r3, #16]
 514 0120 1A46     		mov	r2, r3
 515 0122 FFF7FEFF 		bl	FLASH_Erase_Sector
 516              	.L24:
 411:Drivers/STM32H7xx_HAL_Driver/Src/stm32h7xx_hal_flash_ex.c ****     }
 412:Drivers/STM32H7xx_HAL_Driver/Src/stm32h7xx_hal_flash_ex.c ****   }
 413:Drivers/STM32H7xx_HAL_Driver/Src/stm32h7xx_hal_flash_ex.c **** 
 414:Drivers/STM32H7xx_HAL_Driver/Src/stm32h7xx_hal_flash_ex.c ****   return status;
 517              		.loc 1 414 10
 518 0126 FB7B     		ldrb	r3, [r7, #15]	@ zero_extendqisi2
 519              	.L20:
 415:Drivers/STM32H7xx_HAL_Driver/Src/stm32h7xx_hal_flash_ex.c **** }
 520              		.loc 1 415 1
 521 0128 1846     		mov	r0, r3
 522 012a 1037     		adds	r7, r7, #16
 523              	.LCFI8:
 524              		.cfi_def_cfa_offset 8
 525 012c BD46     		mov	sp, r7
 526              	.LCFI9:
 527              		.cfi_def_cfa_register 13
 528              		@ sp needed
 529 012e 80BD     		pop	{r7, pc}
 530              	.L34:
 531              		.align	2
 532              	.L33:
 533 0130 00000000 		.word	pFlash
 534 0134 00200052 		.word	1375739904
 535              		.cfi_endproc
 536              	.LFE145:
 538              		.section	.text.HAL_FLASHEx_OBProgram,"ax",%progbits
 539              		.align	1
 540              		.global	HAL_FLASHEx_OBProgram
 541              		.syntax unified
 542              		.thumb
 543              		.thumb_func
 545              	HAL_FLASHEx_OBProgram:
 546              	.LFB146:
 416:Drivers/STM32H7xx_HAL_Driver/Src/stm32h7xx_hal_flash_ex.c **** 
 417:Drivers/STM32H7xx_HAL_Driver/Src/stm32h7xx_hal_flash_ex.c **** /**
 418:Drivers/STM32H7xx_HAL_Driver/Src/stm32h7xx_hal_flash_ex.c ****   * @brief  Program option bytes
 419:Drivers/STM32H7xx_HAL_Driver/Src/stm32h7xx_hal_flash_ex.c ****   * @param  pOBInit pointer to an FLASH_OBProgramInitTypeDef structure that
 420:Drivers/STM32H7xx_HAL_Driver/Src/stm32h7xx_hal_flash_ex.c ****   *         contains the configuration information for the programming.
 421:Drivers/STM32H7xx_HAL_Driver/Src/stm32h7xx_hal_flash_ex.c ****   *
 422:Drivers/STM32H7xx_HAL_Driver/Src/stm32h7xx_hal_flash_ex.c ****   * @retval HAL Status
 423:Drivers/STM32H7xx_HAL_Driver/Src/stm32h7xx_hal_flash_ex.c ****   */
ARM GAS  /var/folders/g1/j12m_ky910s3_sv7d4yrsdn00000gn/T//ccpiSNf7.s 			page 18


 424:Drivers/STM32H7xx_HAL_Driver/Src/stm32h7xx_hal_flash_ex.c **** HAL_StatusTypeDef HAL_FLASHEx_OBProgram(FLASH_OBProgramInitTypeDef *pOBInit)
 425:Drivers/STM32H7xx_HAL_Driver/Src/stm32h7xx_hal_flash_ex.c **** {
 547              		.loc 1 425 1
 548              		.cfi_startproc
 549              		@ args = 0, pretend = 0, frame = 16
 550              		@ frame_needed = 1, uses_anonymous_args = 0
 551 0000 80B5     		push	{r7, lr}
 552              	.LCFI10:
 553              		.cfi_def_cfa_offset 8
 554              		.cfi_offset 7, -8
 555              		.cfi_offset 14, -4
 556 0002 84B0     		sub	sp, sp, #16
 557              	.LCFI11:
 558              		.cfi_def_cfa_offset 24
 559 0004 00AF     		add	r7, sp, #0
 560              	.LCFI12:
 561              		.cfi_def_cfa_register 7
 562 0006 7860     		str	r0, [r7, #4]
 426:Drivers/STM32H7xx_HAL_Driver/Src/stm32h7xx_hal_flash_ex.c ****   HAL_StatusTypeDef status;
 427:Drivers/STM32H7xx_HAL_Driver/Src/stm32h7xx_hal_flash_ex.c **** 
 428:Drivers/STM32H7xx_HAL_Driver/Src/stm32h7xx_hal_flash_ex.c ****   /* Check the parameters */
 429:Drivers/STM32H7xx_HAL_Driver/Src/stm32h7xx_hal_flash_ex.c ****   assert_param(IS_OPTIONBYTE(pOBInit->OptionType));
 430:Drivers/STM32H7xx_HAL_Driver/Src/stm32h7xx_hal_flash_ex.c **** 
 431:Drivers/STM32H7xx_HAL_Driver/Src/stm32h7xx_hal_flash_ex.c ****   /* Process Locked */
 432:Drivers/STM32H7xx_HAL_Driver/Src/stm32h7xx_hal_flash_ex.c ****   __HAL_LOCK(&pFlash);
 563              		.loc 1 432 3
 564 0008 4E4B     		ldr	r3, .L49
 565 000a 1B7D     		ldrb	r3, [r3, #20]	@ zero_extendqisi2
 566 000c 012B     		cmp	r3, #1
 567 000e 01D1     		bne	.L36
 568              		.loc 1 432 3 is_stmt 0 discriminator 1
 569 0010 0223     		movs	r3, #2
 570              		.loc 1 432 3
 571 0012 92E0     		b	.L37
 572              	.L36:
 573              		.loc 1 432 3 discriminator 2
 574 0014 4B4B     		ldr	r3, .L49
 575 0016 0122     		movs	r2, #1
 576 0018 1A75     		strb	r2, [r3, #20]
 433:Drivers/STM32H7xx_HAL_Driver/Src/stm32h7xx_hal_flash_ex.c **** 
 434:Drivers/STM32H7xx_HAL_Driver/Src/stm32h7xx_hal_flash_ex.c ****   /* Reset Error Code */
 435:Drivers/STM32H7xx_HAL_Driver/Src/stm32h7xx_hal_flash_ex.c ****   pFlash.ErrorCode = HAL_FLASH_ERROR_NONE;
 577              		.loc 1 435 20 is_stmt 1
 578 001a 4A4B     		ldr	r3, .L49
 579 001c 0022     		movs	r2, #0
 580 001e 9A61     		str	r2, [r3, #24]
 436:Drivers/STM32H7xx_HAL_Driver/Src/stm32h7xx_hal_flash_ex.c **** 
 437:Drivers/STM32H7xx_HAL_Driver/Src/stm32h7xx_hal_flash_ex.c ****   /* Wait for last operation to be completed */
 438:Drivers/STM32H7xx_HAL_Driver/Src/stm32h7xx_hal_flash_ex.c ****   if(FLASH_WaitForLastOperation((uint32_t)FLASH_TIMEOUT_VALUE, FLASH_BANK_1) != HAL_OK)
 581              		.loc 1 438 6
 582 0020 0121     		movs	r1, #1
 583 0022 4CF25030 		movw	r0, #50000
 584 0026 FFF7FEFF 		bl	FLASH_WaitForLastOperation
 585 002a 0346     		mov	r3, r0
 586              		.loc 1 438 5 discriminator 1
 587 002c 002B     		cmp	r3, #0
 588 002e 02D0     		beq	.L38
ARM GAS  /var/folders/g1/j12m_ky910s3_sv7d4yrsdn00000gn/T//ccpiSNf7.s 			page 19


 439:Drivers/STM32H7xx_HAL_Driver/Src/stm32h7xx_hal_flash_ex.c ****   {
 440:Drivers/STM32H7xx_HAL_Driver/Src/stm32h7xx_hal_flash_ex.c ****     status = HAL_ERROR;
 589              		.loc 1 440 12
 590 0030 0123     		movs	r3, #1
 591 0032 FB73     		strb	r3, [r7, #15]
 592 0034 0CE0     		b	.L39
 593              	.L38:
 441:Drivers/STM32H7xx_HAL_Driver/Src/stm32h7xx_hal_flash_ex.c ****   }
 442:Drivers/STM32H7xx_HAL_Driver/Src/stm32h7xx_hal_flash_ex.c **** #if defined (DUAL_BANK)
 443:Drivers/STM32H7xx_HAL_Driver/Src/stm32h7xx_hal_flash_ex.c ****   else if(FLASH_WaitForLastOperation((uint32_t)FLASH_TIMEOUT_VALUE, FLASH_BANK_2) != HAL_OK)
 594              		.loc 1 443 11
 595 0036 0221     		movs	r1, #2
 596 0038 4CF25030 		movw	r0, #50000
 597 003c FFF7FEFF 		bl	FLASH_WaitForLastOperation
 598 0040 0346     		mov	r3, r0
 599              		.loc 1 443 10 discriminator 1
 600 0042 002B     		cmp	r3, #0
 601 0044 02D0     		beq	.L40
 444:Drivers/STM32H7xx_HAL_Driver/Src/stm32h7xx_hal_flash_ex.c ****   {
 445:Drivers/STM32H7xx_HAL_Driver/Src/stm32h7xx_hal_flash_ex.c ****     status = HAL_ERROR;
 602              		.loc 1 445 12
 603 0046 0123     		movs	r3, #1
 604 0048 FB73     		strb	r3, [r7, #15]
 605 004a 01E0     		b	.L39
 606              	.L40:
 446:Drivers/STM32H7xx_HAL_Driver/Src/stm32h7xx_hal_flash_ex.c ****   }
 447:Drivers/STM32H7xx_HAL_Driver/Src/stm32h7xx_hal_flash_ex.c **** #endif /* DUAL_BANK */
 448:Drivers/STM32H7xx_HAL_Driver/Src/stm32h7xx_hal_flash_ex.c ****   else
 449:Drivers/STM32H7xx_HAL_Driver/Src/stm32h7xx_hal_flash_ex.c ****   {
 450:Drivers/STM32H7xx_HAL_Driver/Src/stm32h7xx_hal_flash_ex.c ****     status = HAL_OK;
 607              		.loc 1 450 12
 608 004c 0023     		movs	r3, #0
 609 004e FB73     		strb	r3, [r7, #15]
 610              	.L39:
 451:Drivers/STM32H7xx_HAL_Driver/Src/stm32h7xx_hal_flash_ex.c ****   }
 452:Drivers/STM32H7xx_HAL_Driver/Src/stm32h7xx_hal_flash_ex.c **** 
 453:Drivers/STM32H7xx_HAL_Driver/Src/stm32h7xx_hal_flash_ex.c ****   if(status == HAL_OK)
 611              		.loc 1 453 5
 612 0050 FB7B     		ldrb	r3, [r7, #15]	@ zero_extendqisi2
 613 0052 002B     		cmp	r3, #0
 614 0054 6DD1     		bne	.L41
 454:Drivers/STM32H7xx_HAL_Driver/Src/stm32h7xx_hal_flash_ex.c ****   {
 455:Drivers/STM32H7xx_HAL_Driver/Src/stm32h7xx_hal_flash_ex.c ****     /*Write protection configuration*/
 456:Drivers/STM32H7xx_HAL_Driver/Src/stm32h7xx_hal_flash_ex.c ****     if((pOBInit->OptionType & OPTIONBYTE_WRP) == OPTIONBYTE_WRP)
 615              		.loc 1 456 16
 616 0056 7B68     		ldr	r3, [r7, #4]
 617 0058 1B68     		ldr	r3, [r3]
 618              		.loc 1 456 29
 619 005a 03F00103 		and	r3, r3, #1
 620              		.loc 1 456 7
 621 005e 002B     		cmp	r3, #0
 622 0060 14D0     		beq	.L42
 457:Drivers/STM32H7xx_HAL_Driver/Src/stm32h7xx_hal_flash_ex.c ****     {
 458:Drivers/STM32H7xx_HAL_Driver/Src/stm32h7xx_hal_flash_ex.c ****       assert_param(IS_WRPSTATE(pOBInit->WRPState));
 459:Drivers/STM32H7xx_HAL_Driver/Src/stm32h7xx_hal_flash_ex.c **** 
 460:Drivers/STM32H7xx_HAL_Driver/Src/stm32h7xx_hal_flash_ex.c ****       if(pOBInit->WRPState == OB_WRPSTATE_ENABLE)
 623              		.loc 1 460 17
ARM GAS  /var/folders/g1/j12m_ky910s3_sv7d4yrsdn00000gn/T//ccpiSNf7.s 			page 20


 624 0062 7B68     		ldr	r3, [r7, #4]
 625 0064 5B68     		ldr	r3, [r3, #4]
 626              		.loc 1 460 9
 627 0066 012B     		cmp	r3, #1
 628 0068 08D1     		bne	.L43
 461:Drivers/STM32H7xx_HAL_Driver/Src/stm32h7xx_hal_flash_ex.c ****       {
 462:Drivers/STM32H7xx_HAL_Driver/Src/stm32h7xx_hal_flash_ex.c ****         /*Enable of Write protection on the selected Sector*/
 463:Drivers/STM32H7xx_HAL_Driver/Src/stm32h7xx_hal_flash_ex.c ****         FLASH_OB_EnableWRP(pOBInit->WRPSector,pOBInit->Banks);
 629              		.loc 1 463 9
 630 006a 7B68     		ldr	r3, [r7, #4]
 631 006c 9A68     		ldr	r2, [r3, #8]
 632 006e 7B68     		ldr	r3, [r7, #4]
 633 0070 DB69     		ldr	r3, [r3, #28]
 634 0072 1946     		mov	r1, r3
 635 0074 1046     		mov	r0, r2
 636 0076 FFF7FEFF 		bl	FLASH_OB_EnableWRP
 637 007a 07E0     		b	.L42
 638              	.L43:
 464:Drivers/STM32H7xx_HAL_Driver/Src/stm32h7xx_hal_flash_ex.c ****       }
 465:Drivers/STM32H7xx_HAL_Driver/Src/stm32h7xx_hal_flash_ex.c ****       else
 466:Drivers/STM32H7xx_HAL_Driver/Src/stm32h7xx_hal_flash_ex.c ****       {
 467:Drivers/STM32H7xx_HAL_Driver/Src/stm32h7xx_hal_flash_ex.c ****         /*Disable of Write protection on the selected Sector*/
 468:Drivers/STM32H7xx_HAL_Driver/Src/stm32h7xx_hal_flash_ex.c ****         FLASH_OB_DisableWRP(pOBInit->WRPSector, pOBInit->Banks);
 639              		.loc 1 468 9
 640 007c 7B68     		ldr	r3, [r7, #4]
 641 007e 9A68     		ldr	r2, [r3, #8]
 642 0080 7B68     		ldr	r3, [r7, #4]
 643 0082 DB69     		ldr	r3, [r3, #28]
 644 0084 1946     		mov	r1, r3
 645 0086 1046     		mov	r0, r2
 646 0088 FFF7FEFF 		bl	FLASH_OB_DisableWRP
 647              	.L42:
 469:Drivers/STM32H7xx_HAL_Driver/Src/stm32h7xx_hal_flash_ex.c ****       }
 470:Drivers/STM32H7xx_HAL_Driver/Src/stm32h7xx_hal_flash_ex.c ****     }
 471:Drivers/STM32H7xx_HAL_Driver/Src/stm32h7xx_hal_flash_ex.c **** 
 472:Drivers/STM32H7xx_HAL_Driver/Src/stm32h7xx_hal_flash_ex.c ****     /* Read protection configuration */
 473:Drivers/STM32H7xx_HAL_Driver/Src/stm32h7xx_hal_flash_ex.c ****     if((pOBInit->OptionType & OPTIONBYTE_RDP) != 0U)
 648              		.loc 1 473 16
 649 008c 7B68     		ldr	r3, [r7, #4]
 650 008e 1B68     		ldr	r3, [r3]
 651              		.loc 1 473 29
 652 0090 03F00203 		and	r3, r3, #2
 653              		.loc 1 473 7
 654 0094 002B     		cmp	r3, #0
 655 0096 04D0     		beq	.L44
 474:Drivers/STM32H7xx_HAL_Driver/Src/stm32h7xx_hal_flash_ex.c ****     {
 475:Drivers/STM32H7xx_HAL_Driver/Src/stm32h7xx_hal_flash_ex.c ****       /* Configure the Read protection level */
 476:Drivers/STM32H7xx_HAL_Driver/Src/stm32h7xx_hal_flash_ex.c ****       FLASH_OB_RDPConfig(pOBInit->RDPLevel);
 656              		.loc 1 476 7
 657 0098 7B68     		ldr	r3, [r7, #4]
 658 009a DB68     		ldr	r3, [r3, #12]
 659 009c 1846     		mov	r0, r3
 660 009e FFF7FEFF 		bl	FLASH_OB_RDPConfig
 661              	.L44:
 477:Drivers/STM32H7xx_HAL_Driver/Src/stm32h7xx_hal_flash_ex.c ****     }
 478:Drivers/STM32H7xx_HAL_Driver/Src/stm32h7xx_hal_flash_ex.c **** 
 479:Drivers/STM32H7xx_HAL_Driver/Src/stm32h7xx_hal_flash_ex.c ****     /* User Configuration */
ARM GAS  /var/folders/g1/j12m_ky910s3_sv7d4yrsdn00000gn/T//ccpiSNf7.s 			page 21


 480:Drivers/STM32H7xx_HAL_Driver/Src/stm32h7xx_hal_flash_ex.c ****     if((pOBInit->OptionType & OPTIONBYTE_USER) != 0U)
 662              		.loc 1 480 16
 663 00a2 7B68     		ldr	r3, [r7, #4]
 664 00a4 1B68     		ldr	r3, [r3]
 665              		.loc 1 480 29
 666 00a6 03F00403 		and	r3, r3, #4
 667              		.loc 1 480 7
 668 00aa 002B     		cmp	r3, #0
 669 00ac 07D0     		beq	.L45
 481:Drivers/STM32H7xx_HAL_Driver/Src/stm32h7xx_hal_flash_ex.c ****     {
 482:Drivers/STM32H7xx_HAL_Driver/Src/stm32h7xx_hal_flash_ex.c ****       /* Configure the user option bytes */
 483:Drivers/STM32H7xx_HAL_Driver/Src/stm32h7xx_hal_flash_ex.c ****       FLASH_OB_UserConfig(pOBInit->USERType, pOBInit->USERConfig);
 670              		.loc 1 483 7
 671 00ae 7B68     		ldr	r3, [r7, #4]
 672 00b0 5A69     		ldr	r2, [r3, #20]
 673 00b2 7B68     		ldr	r3, [r7, #4]
 674 00b4 9B69     		ldr	r3, [r3, #24]
 675 00b6 1946     		mov	r1, r3
 676 00b8 1046     		mov	r0, r2
 677 00ba FFF7FEFF 		bl	FLASH_OB_UserConfig
 678              	.L45:
 484:Drivers/STM32H7xx_HAL_Driver/Src/stm32h7xx_hal_flash_ex.c ****     }
 485:Drivers/STM32H7xx_HAL_Driver/Src/stm32h7xx_hal_flash_ex.c **** 
 486:Drivers/STM32H7xx_HAL_Driver/Src/stm32h7xx_hal_flash_ex.c ****     /* PCROP Configuration */
 487:Drivers/STM32H7xx_HAL_Driver/Src/stm32h7xx_hal_flash_ex.c ****     if((pOBInit->OptionType & OPTIONBYTE_PCROP) != 0U)
 679              		.loc 1 487 16
 680 00be 7B68     		ldr	r3, [r7, #4]
 681 00c0 1B68     		ldr	r3, [r3]
 682              		.loc 1 487 29
 683 00c2 03F00803 		and	r3, r3, #8
 684              		.loc 1 487 7
 685 00c6 002B     		cmp	r3, #0
 686 00c8 09D0     		beq	.L46
 488:Drivers/STM32H7xx_HAL_Driver/Src/stm32h7xx_hal_flash_ex.c ****     {
 489:Drivers/STM32H7xx_HAL_Driver/Src/stm32h7xx_hal_flash_ex.c ****       assert_param(IS_FLASH_BANK(pOBInit->Banks));
 490:Drivers/STM32H7xx_HAL_Driver/Src/stm32h7xx_hal_flash_ex.c **** 
 491:Drivers/STM32H7xx_HAL_Driver/Src/stm32h7xx_hal_flash_ex.c ****       /*Configure the Proprietary code readout protection */
 492:Drivers/STM32H7xx_HAL_Driver/Src/stm32h7xx_hal_flash_ex.c ****       FLASH_OB_PCROPConfig(pOBInit->PCROPConfig, pOBInit->PCROPStartAddr, pOBInit->PCROPEndAddr, pO
 687              		.loc 1 492 7
 688 00ca 7B68     		ldr	r3, [r7, #4]
 689 00cc 186A     		ldr	r0, [r3, #32]
 690 00ce 7B68     		ldr	r3, [r7, #4]
 691 00d0 596A     		ldr	r1, [r3, #36]
 692 00d2 7B68     		ldr	r3, [r7, #4]
 693 00d4 9A6A     		ldr	r2, [r3, #40]
 694 00d6 7B68     		ldr	r3, [r7, #4]
 695 00d8 DB69     		ldr	r3, [r3, #28]
 696 00da FFF7FEFF 		bl	FLASH_OB_PCROPConfig
 697              	.L46:
 493:Drivers/STM32H7xx_HAL_Driver/Src/stm32h7xx_hal_flash_ex.c ****     }
 494:Drivers/STM32H7xx_HAL_Driver/Src/stm32h7xx_hal_flash_ex.c **** 
 495:Drivers/STM32H7xx_HAL_Driver/Src/stm32h7xx_hal_flash_ex.c ****     /* BOR Level configuration */
 496:Drivers/STM32H7xx_HAL_Driver/Src/stm32h7xx_hal_flash_ex.c ****     if((pOBInit->OptionType & OPTIONBYTE_BOR) == OPTIONBYTE_BOR)
 698              		.loc 1 496 16
 699 00de 7B68     		ldr	r3, [r7, #4]
 700 00e0 1B68     		ldr	r3, [r3]
 701              		.loc 1 496 29
ARM GAS  /var/folders/g1/j12m_ky910s3_sv7d4yrsdn00000gn/T//ccpiSNf7.s 			page 22


 702 00e2 03F01003 		and	r3, r3, #16
 703              		.loc 1 496 7
 704 00e6 002B     		cmp	r3, #0
 705 00e8 04D0     		beq	.L47
 497:Drivers/STM32H7xx_HAL_Driver/Src/stm32h7xx_hal_flash_ex.c ****     {
 498:Drivers/STM32H7xx_HAL_Driver/Src/stm32h7xx_hal_flash_ex.c ****       FLASH_OB_BOR_LevelConfig(pOBInit->BORLevel);
 706              		.loc 1 498 7
 707 00ea 7B68     		ldr	r3, [r7, #4]
 708 00ec 1B69     		ldr	r3, [r3, #16]
 709 00ee 1846     		mov	r0, r3
 710 00f0 FFF7FEFF 		bl	FLASH_OB_BOR_LevelConfig
 711              	.L47:
 499:Drivers/STM32H7xx_HAL_Driver/Src/stm32h7xx_hal_flash_ex.c ****     }
 500:Drivers/STM32H7xx_HAL_Driver/Src/stm32h7xx_hal_flash_ex.c **** 
 501:Drivers/STM32H7xx_HAL_Driver/Src/stm32h7xx_hal_flash_ex.c **** #if defined(DUAL_CORE)
 502:Drivers/STM32H7xx_HAL_Driver/Src/stm32h7xx_hal_flash_ex.c ****     /* CM7 Boot Address  configuration */
 503:Drivers/STM32H7xx_HAL_Driver/Src/stm32h7xx_hal_flash_ex.c ****     if((pOBInit->OptionType & OPTIONBYTE_CM7_BOOTADD) == OPTIONBYTE_CM7_BOOTADD)
 504:Drivers/STM32H7xx_HAL_Driver/Src/stm32h7xx_hal_flash_ex.c ****     {
 505:Drivers/STM32H7xx_HAL_Driver/Src/stm32h7xx_hal_flash_ex.c ****       FLASH_OB_BootAddConfig(pOBInit->BootConfig, pOBInit->BootAddr0, pOBInit->BootAddr1);
 506:Drivers/STM32H7xx_HAL_Driver/Src/stm32h7xx_hal_flash_ex.c ****     }
 507:Drivers/STM32H7xx_HAL_Driver/Src/stm32h7xx_hal_flash_ex.c **** 
 508:Drivers/STM32H7xx_HAL_Driver/Src/stm32h7xx_hal_flash_ex.c ****     /* CM4 Boot Address  configuration */
 509:Drivers/STM32H7xx_HAL_Driver/Src/stm32h7xx_hal_flash_ex.c ****     if((pOBInit->OptionType & OPTIONBYTE_CM4_BOOTADD) == OPTIONBYTE_CM4_BOOTADD)
 510:Drivers/STM32H7xx_HAL_Driver/Src/stm32h7xx_hal_flash_ex.c ****     {
 511:Drivers/STM32H7xx_HAL_Driver/Src/stm32h7xx_hal_flash_ex.c ****       FLASH_OB_CM4BootAddConfig(pOBInit->CM4BootConfig, pOBInit->CM4BootAddr0, pOBInit->CM4BootAddr
 512:Drivers/STM32H7xx_HAL_Driver/Src/stm32h7xx_hal_flash_ex.c ****     }
 513:Drivers/STM32H7xx_HAL_Driver/Src/stm32h7xx_hal_flash_ex.c **** #else /* Single Core*/
 514:Drivers/STM32H7xx_HAL_Driver/Src/stm32h7xx_hal_flash_ex.c ****     /* Boot Address  configuration */
 515:Drivers/STM32H7xx_HAL_Driver/Src/stm32h7xx_hal_flash_ex.c ****     if((pOBInit->OptionType & OPTIONBYTE_BOOTADD) == OPTIONBYTE_BOOTADD)
 712              		.loc 1 515 16
 713 00f4 7B68     		ldr	r3, [r7, #4]
 714 00f6 1B68     		ldr	r3, [r3]
 715              		.loc 1 515 29
 716 00f8 03F04003 		and	r3, r3, #64
 717              		.loc 1 515 7
 718 00fc 002B     		cmp	r3, #0
 719 00fe 08D0     		beq	.L48
 516:Drivers/STM32H7xx_HAL_Driver/Src/stm32h7xx_hal_flash_ex.c ****     {
 517:Drivers/STM32H7xx_HAL_Driver/Src/stm32h7xx_hal_flash_ex.c ****       FLASH_OB_BootAddConfig(pOBInit->BootConfig, pOBInit->BootAddr0, pOBInit->BootAddr1);
 720              		.loc 1 517 7
 721 0100 7B68     		ldr	r3, [r7, #4]
 722 0102 D86A     		ldr	r0, [r3, #44]
 723 0104 7B68     		ldr	r3, [r7, #4]
 724 0106 196B     		ldr	r1, [r3, #48]
 725 0108 7B68     		ldr	r3, [r7, #4]
 726 010a 5B6B     		ldr	r3, [r3, #52]
 727 010c 1A46     		mov	r2, r3
 728 010e FFF7FEFF 		bl	FLASH_OB_BootAddConfig
 729              	.L48:
 518:Drivers/STM32H7xx_HAL_Driver/Src/stm32h7xx_hal_flash_ex.c ****     }
 519:Drivers/STM32H7xx_HAL_Driver/Src/stm32h7xx_hal_flash_ex.c **** #endif /*DUAL_CORE*/
 520:Drivers/STM32H7xx_HAL_Driver/Src/stm32h7xx_hal_flash_ex.c **** 
 521:Drivers/STM32H7xx_HAL_Driver/Src/stm32h7xx_hal_flash_ex.c ****     /* Secure area configuration */
 522:Drivers/STM32H7xx_HAL_Driver/Src/stm32h7xx_hal_flash_ex.c ****     if((pOBInit->OptionType & OPTIONBYTE_SECURE_AREA) == OPTIONBYTE_SECURE_AREA)
 730              		.loc 1 522 16
 731 0112 7B68     		ldr	r3, [r7, #4]
 732 0114 1B68     		ldr	r3, [r3]
ARM GAS  /var/folders/g1/j12m_ky910s3_sv7d4yrsdn00000gn/T//ccpiSNf7.s 			page 23


 733              		.loc 1 522 29
 734 0116 03F02003 		and	r3, r3, #32
 735              		.loc 1 522 7
 736 011a 002B     		cmp	r3, #0
 737 011c 09D0     		beq	.L41
 523:Drivers/STM32H7xx_HAL_Driver/Src/stm32h7xx_hal_flash_ex.c ****     {
 524:Drivers/STM32H7xx_HAL_Driver/Src/stm32h7xx_hal_flash_ex.c ****       FLASH_OB_SecureAreaConfig(pOBInit->SecureAreaConfig, pOBInit->SecureAreaStartAddr, pOBInit->S
 738              		.loc 1 524 7
 739 011e 7B68     		ldr	r3, [r7, #4]
 740 0120 986B     		ldr	r0, [r3, #56]
 741 0122 7B68     		ldr	r3, [r7, #4]
 742 0124 D96B     		ldr	r1, [r3, #60]
 743 0126 7B68     		ldr	r3, [r7, #4]
 744 0128 1A6C     		ldr	r2, [r3, #64]
 745 012a 7B68     		ldr	r3, [r7, #4]
 746 012c DB69     		ldr	r3, [r3, #28]
 747 012e FFF7FEFF 		bl	FLASH_OB_SecureAreaConfig
 748              	.L41:
 525:Drivers/STM32H7xx_HAL_Driver/Src/stm32h7xx_hal_flash_ex.c ****     }
 526:Drivers/STM32H7xx_HAL_Driver/Src/stm32h7xx_hal_flash_ex.c **** 
 527:Drivers/STM32H7xx_HAL_Driver/Src/stm32h7xx_hal_flash_ex.c **** #if defined(FLASH_OTPBL_LOCKBL)
 528:Drivers/STM32H7xx_HAL_Driver/Src/stm32h7xx_hal_flash_ex.c ****     /* OTP Block Lock configuration */
 529:Drivers/STM32H7xx_HAL_Driver/Src/stm32h7xx_hal_flash_ex.c ****     if((pOBInit->OptionType & OPTIONBYTE_OTP_LOCK) == OPTIONBYTE_OTP_LOCK)
 530:Drivers/STM32H7xx_HAL_Driver/Src/stm32h7xx_hal_flash_ex.c ****     {
 531:Drivers/STM32H7xx_HAL_Driver/Src/stm32h7xx_hal_flash_ex.c ****       FLASH_OB_OTP_LockConfig(pOBInit->OTPBlockLock);
 532:Drivers/STM32H7xx_HAL_Driver/Src/stm32h7xx_hal_flash_ex.c ****     }
 533:Drivers/STM32H7xx_HAL_Driver/Src/stm32h7xx_hal_flash_ex.c **** #endif /* FLASH_OTPBL_LOCKBL */
 534:Drivers/STM32H7xx_HAL_Driver/Src/stm32h7xx_hal_flash_ex.c **** 
 535:Drivers/STM32H7xx_HAL_Driver/Src/stm32h7xx_hal_flash_ex.c **** #if defined(FLASH_OPTSR2_TCM_AXI_SHARED)
 536:Drivers/STM32H7xx_HAL_Driver/Src/stm32h7xx_hal_flash_ex.c ****     /* TCM / AXI Shared RAM configuration */
 537:Drivers/STM32H7xx_HAL_Driver/Src/stm32h7xx_hal_flash_ex.c ****     if((pOBInit->OptionType & OPTIONBYTE_SHARED_RAM) == OPTIONBYTE_SHARED_RAM)
 538:Drivers/STM32H7xx_HAL_Driver/Src/stm32h7xx_hal_flash_ex.c ****     {
 539:Drivers/STM32H7xx_HAL_Driver/Src/stm32h7xx_hal_flash_ex.c ****       FLASH_OB_SharedRAM_Config(pOBInit->SharedRamConfig);
 540:Drivers/STM32H7xx_HAL_Driver/Src/stm32h7xx_hal_flash_ex.c ****     }
 541:Drivers/STM32H7xx_HAL_Driver/Src/stm32h7xx_hal_flash_ex.c **** #endif /* FLASH_OPTSR2_TCM_AXI_SHARED */
 542:Drivers/STM32H7xx_HAL_Driver/Src/stm32h7xx_hal_flash_ex.c **** 
 543:Drivers/STM32H7xx_HAL_Driver/Src/stm32h7xx_hal_flash_ex.c **** #if defined(FLASH_OPTSR2_CPUFREQ_BOOST)
 544:Drivers/STM32H7xx_HAL_Driver/Src/stm32h7xx_hal_flash_ex.c ****     /* CPU Frequency Boost configuration */
 545:Drivers/STM32H7xx_HAL_Driver/Src/stm32h7xx_hal_flash_ex.c ****     if((pOBInit->OptionType & OPTIONBYTE_FREQ_BOOST) == OPTIONBYTE_FREQ_BOOST)
 546:Drivers/STM32H7xx_HAL_Driver/Src/stm32h7xx_hal_flash_ex.c ****     {
 547:Drivers/STM32H7xx_HAL_Driver/Src/stm32h7xx_hal_flash_ex.c ****       FLASH_OB_CPUFreq_BoostConfig(pOBInit->FreqBoostState);
 548:Drivers/STM32H7xx_HAL_Driver/Src/stm32h7xx_hal_flash_ex.c ****     }
 549:Drivers/STM32H7xx_HAL_Driver/Src/stm32h7xx_hal_flash_ex.c **** #endif /* FLASH_OPTSR2_CPUFREQ_BOOST */
 550:Drivers/STM32H7xx_HAL_Driver/Src/stm32h7xx_hal_flash_ex.c ****   }
 551:Drivers/STM32H7xx_HAL_Driver/Src/stm32h7xx_hal_flash_ex.c **** 
 552:Drivers/STM32H7xx_HAL_Driver/Src/stm32h7xx_hal_flash_ex.c ****   /* Process Unlocked */
 553:Drivers/STM32H7xx_HAL_Driver/Src/stm32h7xx_hal_flash_ex.c ****   __HAL_UNLOCK(&pFlash);
 749              		.loc 1 553 3
 750 0132 044B     		ldr	r3, .L49
 751 0134 0022     		movs	r2, #0
 752 0136 1A75     		strb	r2, [r3, #20]
 554:Drivers/STM32H7xx_HAL_Driver/Src/stm32h7xx_hal_flash_ex.c **** 
 555:Drivers/STM32H7xx_HAL_Driver/Src/stm32h7xx_hal_flash_ex.c ****   return status;
 753              		.loc 1 555 10
 754 0138 FB7B     		ldrb	r3, [r7, #15]	@ zero_extendqisi2
 755              	.L37:
 556:Drivers/STM32H7xx_HAL_Driver/Src/stm32h7xx_hal_flash_ex.c **** }
ARM GAS  /var/folders/g1/j12m_ky910s3_sv7d4yrsdn00000gn/T//ccpiSNf7.s 			page 24


 756              		.loc 1 556 1
 757 013a 1846     		mov	r0, r3
 758 013c 1037     		adds	r7, r7, #16
 759              	.LCFI13:
 760              		.cfi_def_cfa_offset 8
 761 013e BD46     		mov	sp, r7
 762              	.LCFI14:
 763              		.cfi_def_cfa_register 13
 764              		@ sp needed
 765 0140 80BD     		pop	{r7, pc}
 766              	.L50:
 767 0142 00BF     		.align	2
 768              	.L49:
 769 0144 00000000 		.word	pFlash
 770              		.cfi_endproc
 771              	.LFE146:
 773              		.section	.text.HAL_FLASHEx_OBGetConfig,"ax",%progbits
 774              		.align	1
 775              		.global	HAL_FLASHEx_OBGetConfig
 776              		.syntax unified
 777              		.thumb
 778              		.thumb_func
 780              	HAL_FLASHEx_OBGetConfig:
 781              	.LFB147:
 557:Drivers/STM32H7xx_HAL_Driver/Src/stm32h7xx_hal_flash_ex.c **** 
 558:Drivers/STM32H7xx_HAL_Driver/Src/stm32h7xx_hal_flash_ex.c **** /**
 559:Drivers/STM32H7xx_HAL_Driver/Src/stm32h7xx_hal_flash_ex.c ****   * @brief Get the Option byte configuration
 560:Drivers/STM32H7xx_HAL_Driver/Src/stm32h7xx_hal_flash_ex.c ****   * @param  pOBInit pointer to an FLASH_OBProgramInitTypeDef structure that
 561:Drivers/STM32H7xx_HAL_Driver/Src/stm32h7xx_hal_flash_ex.c ****   *         contains the configuration information for the programming.
 562:Drivers/STM32H7xx_HAL_Driver/Src/stm32h7xx_hal_flash_ex.c ****   * @note   The parameter Banks of the pOBInit structure must be set exclusively to FLASH_BANK_1 or
 563:Drivers/STM32H7xx_HAL_Driver/Src/stm32h7xx_hal_flash_ex.c ****   *         as this parameter is use to get the given Bank WRP, PCROP and secured area configuratio
 564:Drivers/STM32H7xx_HAL_Driver/Src/stm32h7xx_hal_flash_ex.c ****   *
 565:Drivers/STM32H7xx_HAL_Driver/Src/stm32h7xx_hal_flash_ex.c ****   * @retval None
 566:Drivers/STM32H7xx_HAL_Driver/Src/stm32h7xx_hal_flash_ex.c ****   */
 567:Drivers/STM32H7xx_HAL_Driver/Src/stm32h7xx_hal_flash_ex.c **** void HAL_FLASHEx_OBGetConfig(FLASH_OBProgramInitTypeDef *pOBInit)
 568:Drivers/STM32H7xx_HAL_Driver/Src/stm32h7xx_hal_flash_ex.c **** {
 782              		.loc 1 568 1
 783              		.cfi_startproc
 784              		@ args = 0, pretend = 0, frame = 8
 785              		@ frame_needed = 1, uses_anonymous_args = 0
 786 0000 80B5     		push	{r7, lr}
 787              	.LCFI15:
 788              		.cfi_def_cfa_offset 8
 789              		.cfi_offset 7, -8
 790              		.cfi_offset 14, -4
 791 0002 82B0     		sub	sp, sp, #8
 792              	.LCFI16:
 793              		.cfi_def_cfa_offset 16
 794 0004 00AF     		add	r7, sp, #0
 795              	.LCFI17:
 796              		.cfi_def_cfa_register 7
 797 0006 7860     		str	r0, [r7, #4]
 569:Drivers/STM32H7xx_HAL_Driver/Src/stm32h7xx_hal_flash_ex.c ****   pOBInit->OptionType = (OPTIONBYTE_USER | OPTIONBYTE_RDP | OPTIONBYTE_BOR);
 798              		.loc 1 569 23
 799 0008 7B68     		ldr	r3, [r7, #4]
 800 000a 1622     		movs	r2, #22
 801 000c 1A60     		str	r2, [r3]
ARM GAS  /var/folders/g1/j12m_ky910s3_sv7d4yrsdn00000gn/T//ccpiSNf7.s 			page 25


 570:Drivers/STM32H7xx_HAL_Driver/Src/stm32h7xx_hal_flash_ex.c **** 
 571:Drivers/STM32H7xx_HAL_Driver/Src/stm32h7xx_hal_flash_ex.c ****   /* Get Read protection level */
 572:Drivers/STM32H7xx_HAL_Driver/Src/stm32h7xx_hal_flash_ex.c ****   pOBInit->RDPLevel = FLASH_OB_GetRDP();
 802              		.loc 1 572 23
 803 000e FFF7FEFF 		bl	FLASH_OB_GetRDP
 804 0012 0246     		mov	r2, r0
 805              		.loc 1 572 21 discriminator 1
 806 0014 7B68     		ldr	r3, [r7, #4]
 807 0016 DA60     		str	r2, [r3, #12]
 573:Drivers/STM32H7xx_HAL_Driver/Src/stm32h7xx_hal_flash_ex.c **** 
 574:Drivers/STM32H7xx_HAL_Driver/Src/stm32h7xx_hal_flash_ex.c ****   /* Get the user option bytes */
 575:Drivers/STM32H7xx_HAL_Driver/Src/stm32h7xx_hal_flash_ex.c ****   pOBInit->USERConfig = FLASH_OB_GetUser();
 808              		.loc 1 575 25
 809 0018 FFF7FEFF 		bl	FLASH_OB_GetUser
 810 001c 0246     		mov	r2, r0
 811              		.loc 1 575 23 discriminator 1
 812 001e 7B68     		ldr	r3, [r7, #4]
 813 0020 9A61     		str	r2, [r3, #24]
 576:Drivers/STM32H7xx_HAL_Driver/Src/stm32h7xx_hal_flash_ex.c **** 
 577:Drivers/STM32H7xx_HAL_Driver/Src/stm32h7xx_hal_flash_ex.c ****   /*Get BOR Level*/
 578:Drivers/STM32H7xx_HAL_Driver/Src/stm32h7xx_hal_flash_ex.c ****   pOBInit->BORLevel = FLASH_OB_GetBOR();
 814              		.loc 1 578 23
 815 0022 FFF7FEFF 		bl	FLASH_OB_GetBOR
 816 0026 0246     		mov	r2, r0
 817              		.loc 1 578 21 discriminator 1
 818 0028 7B68     		ldr	r3, [r7, #4]
 819 002a 1A61     		str	r2, [r3, #16]
 579:Drivers/STM32H7xx_HAL_Driver/Src/stm32h7xx_hal_flash_ex.c **** 
 580:Drivers/STM32H7xx_HAL_Driver/Src/stm32h7xx_hal_flash_ex.c **** #if defined (DUAL_BANK)
 581:Drivers/STM32H7xx_HAL_Driver/Src/stm32h7xx_hal_flash_ex.c ****   if ((pOBInit->Banks == FLASH_BANK_1) || (pOBInit->Banks == FLASH_BANK_2))
 820              		.loc 1 581 15
 821 002c 7B68     		ldr	r3, [r7, #4]
 822 002e DB69     		ldr	r3, [r3, #28]
 823              		.loc 1 581 6
 824 0030 012B     		cmp	r3, #1
 825 0032 03D0     		beq	.L52
 826              		.loc 1 581 51 discriminator 1
 827 0034 7B68     		ldr	r3, [r7, #4]
 828 0036 DB69     		ldr	r3, [r3, #28]
 829              		.loc 1 581 40 discriminator 1
 830 0038 022B     		cmp	r3, #2
 831 003a 29D1     		bne	.L53
 832              	.L52:
 582:Drivers/STM32H7xx_HAL_Driver/Src/stm32h7xx_hal_flash_ex.c **** #else
 583:Drivers/STM32H7xx_HAL_Driver/Src/stm32h7xx_hal_flash_ex.c ****   if (pOBInit->Banks == FLASH_BANK_1)
 584:Drivers/STM32H7xx_HAL_Driver/Src/stm32h7xx_hal_flash_ex.c **** #endif /* DUAL_BANK */
 585:Drivers/STM32H7xx_HAL_Driver/Src/stm32h7xx_hal_flash_ex.c ****   {
 586:Drivers/STM32H7xx_HAL_Driver/Src/stm32h7xx_hal_flash_ex.c ****     pOBInit->OptionType |= (OPTIONBYTE_WRP | OPTIONBYTE_PCROP | OPTIONBYTE_SECURE_AREA);
 833              		.loc 1 586 12
 834 003c 7B68     		ldr	r3, [r7, #4]
 835 003e 1B68     		ldr	r3, [r3]
 836              		.loc 1 586 25
 837 0040 43F02902 		orr	r2, r3, #41
 838 0044 7B68     		ldr	r3, [r7, #4]
 839 0046 1A60     		str	r2, [r3]
 587:Drivers/STM32H7xx_HAL_Driver/Src/stm32h7xx_hal_flash_ex.c **** 
 588:Drivers/STM32H7xx_HAL_Driver/Src/stm32h7xx_hal_flash_ex.c ****     /* Get write protection on the selected area */
ARM GAS  /var/folders/g1/j12m_ky910s3_sv7d4yrsdn00000gn/T//ccpiSNf7.s 			page 26


 589:Drivers/STM32H7xx_HAL_Driver/Src/stm32h7xx_hal_flash_ex.c ****     FLASH_OB_GetWRP(&(pOBInit->WRPState), &(pOBInit->WRPSector), pOBInit->Banks);
 840              		.loc 1 589 5
 841 0048 7B68     		ldr	r3, [r7, #4]
 842 004a 181D     		adds	r0, r3, #4
 843 004c 7B68     		ldr	r3, [r7, #4]
 844 004e 03F10801 		add	r1, r3, #8
 845 0052 7B68     		ldr	r3, [r7, #4]
 846 0054 DB69     		ldr	r3, [r3, #28]
 847 0056 1A46     		mov	r2, r3
 848 0058 FFF7FEFF 		bl	FLASH_OB_GetWRP
 590:Drivers/STM32H7xx_HAL_Driver/Src/stm32h7xx_hal_flash_ex.c **** 
 591:Drivers/STM32H7xx_HAL_Driver/Src/stm32h7xx_hal_flash_ex.c ****     /* Get the Proprietary code readout protection */
 592:Drivers/STM32H7xx_HAL_Driver/Src/stm32h7xx_hal_flash_ex.c ****     FLASH_OB_GetPCROP(&(pOBInit->PCROPConfig), &(pOBInit->PCROPStartAddr), &(pOBInit->PCROPEndAddr)
 849              		.loc 1 592 5
 850 005c 7B68     		ldr	r3, [r7, #4]
 851 005e 03F12000 		add	r0, r3, #32
 852 0062 7B68     		ldr	r3, [r7, #4]
 853 0064 03F12401 		add	r1, r3, #36
 854 0068 7B68     		ldr	r3, [r7, #4]
 855 006a 03F12802 		add	r2, r3, #40
 856 006e 7B68     		ldr	r3, [r7, #4]
 857 0070 DB69     		ldr	r3, [r3, #28]
 858 0072 FFF7FEFF 		bl	FLASH_OB_GetPCROP
 593:Drivers/STM32H7xx_HAL_Driver/Src/stm32h7xx_hal_flash_ex.c **** 
 594:Drivers/STM32H7xx_HAL_Driver/Src/stm32h7xx_hal_flash_ex.c ****     /*Get Bank Secure area*/
 595:Drivers/STM32H7xx_HAL_Driver/Src/stm32h7xx_hal_flash_ex.c ****     FLASH_OB_GetSecureArea(&(pOBInit->SecureAreaConfig), &(pOBInit->SecureAreaStartAddr), &(pOBInit
 859              		.loc 1 595 5
 860 0076 7B68     		ldr	r3, [r7, #4]
 861 0078 03F13800 		add	r0, r3, #56
 862 007c 7B68     		ldr	r3, [r7, #4]
 863 007e 03F13C01 		add	r1, r3, #60
 864 0082 7B68     		ldr	r3, [r7, #4]
 865 0084 03F14002 		add	r2, r3, #64
 866 0088 7B68     		ldr	r3, [r7, #4]
 867 008a DB69     		ldr	r3, [r3, #28]
 868 008c FFF7FEFF 		bl	FLASH_OB_GetSecureArea
 869              	.L53:
 596:Drivers/STM32H7xx_HAL_Driver/Src/stm32h7xx_hal_flash_ex.c ****   }
 597:Drivers/STM32H7xx_HAL_Driver/Src/stm32h7xx_hal_flash_ex.c **** 
 598:Drivers/STM32H7xx_HAL_Driver/Src/stm32h7xx_hal_flash_ex.c ****   /*Get Boot Address*/
 599:Drivers/STM32H7xx_HAL_Driver/Src/stm32h7xx_hal_flash_ex.c ****   FLASH_OB_GetBootAdd(&(pOBInit->BootAddr0), &(pOBInit->BootAddr1));
 870              		.loc 1 599 3
 871 0090 7B68     		ldr	r3, [r7, #4]
 872 0092 03F13002 		add	r2, r3, #48
 873 0096 7B68     		ldr	r3, [r7, #4]
 874 0098 3433     		adds	r3, r3, #52
 875 009a 1946     		mov	r1, r3
 876 009c 1046     		mov	r0, r2
 877 009e FFF7FEFF 		bl	FLASH_OB_GetBootAdd
 600:Drivers/STM32H7xx_HAL_Driver/Src/stm32h7xx_hal_flash_ex.c **** #if defined(DUAL_CORE)
 601:Drivers/STM32H7xx_HAL_Driver/Src/stm32h7xx_hal_flash_ex.c ****   pOBInit->OptionType |= OPTIONBYTE_CM7_BOOTADD | OPTIONBYTE_CM4_BOOTADD;
 602:Drivers/STM32H7xx_HAL_Driver/Src/stm32h7xx_hal_flash_ex.c **** 
 603:Drivers/STM32H7xx_HAL_Driver/Src/stm32h7xx_hal_flash_ex.c ****   /*Get CM4 Boot Address*/
 604:Drivers/STM32H7xx_HAL_Driver/Src/stm32h7xx_hal_flash_ex.c ****   FLASH_OB_GetCM4BootAdd(&(pOBInit->CM4BootAddr0), &(pOBInit->CM4BootAddr1));
 605:Drivers/STM32H7xx_HAL_Driver/Src/stm32h7xx_hal_flash_ex.c **** #else
 606:Drivers/STM32H7xx_HAL_Driver/Src/stm32h7xx_hal_flash_ex.c ****   pOBInit->OptionType |= OPTIONBYTE_BOOTADD;
 878              		.loc 1 606 10
ARM GAS  /var/folders/g1/j12m_ky910s3_sv7d4yrsdn00000gn/T//ccpiSNf7.s 			page 27


 879 00a2 7B68     		ldr	r3, [r7, #4]
 880 00a4 1B68     		ldr	r3, [r3]
 881              		.loc 1 606 23
 882 00a6 43F04002 		orr	r2, r3, #64
 883 00aa 7B68     		ldr	r3, [r7, #4]
 884 00ac 1A60     		str	r2, [r3]
 607:Drivers/STM32H7xx_HAL_Driver/Src/stm32h7xx_hal_flash_ex.c **** #endif /*DUAL_CORE*/
 608:Drivers/STM32H7xx_HAL_Driver/Src/stm32h7xx_hal_flash_ex.c **** 
 609:Drivers/STM32H7xx_HAL_Driver/Src/stm32h7xx_hal_flash_ex.c **** #if defined (FLASH_OTPBL_LOCKBL)
 610:Drivers/STM32H7xx_HAL_Driver/Src/stm32h7xx_hal_flash_ex.c ****   pOBInit->OptionType |= OPTIONBYTE_OTP_LOCK;
 611:Drivers/STM32H7xx_HAL_Driver/Src/stm32h7xx_hal_flash_ex.c **** 
 612:Drivers/STM32H7xx_HAL_Driver/Src/stm32h7xx_hal_flash_ex.c ****   /* Get OTP Block Lock */
 613:Drivers/STM32H7xx_HAL_Driver/Src/stm32h7xx_hal_flash_ex.c ****   pOBInit->OTPBlockLock = FLASH_OB_OTP_GetLock();
 614:Drivers/STM32H7xx_HAL_Driver/Src/stm32h7xx_hal_flash_ex.c **** #endif /* FLASH_OTPBL_LOCKBL */
 615:Drivers/STM32H7xx_HAL_Driver/Src/stm32h7xx_hal_flash_ex.c **** 
 616:Drivers/STM32H7xx_HAL_Driver/Src/stm32h7xx_hal_flash_ex.c **** #if defined (FLASH_OPTSR2_TCM_AXI_SHARED)
 617:Drivers/STM32H7xx_HAL_Driver/Src/stm32h7xx_hal_flash_ex.c ****   pOBInit->OptionType |= OPTIONBYTE_SHARED_RAM;
 618:Drivers/STM32H7xx_HAL_Driver/Src/stm32h7xx_hal_flash_ex.c **** 
 619:Drivers/STM32H7xx_HAL_Driver/Src/stm32h7xx_hal_flash_ex.c ****   /* Get TCM / AXI Shared RAM */
 620:Drivers/STM32H7xx_HAL_Driver/Src/stm32h7xx_hal_flash_ex.c ****   pOBInit->SharedRamConfig = FLASH_OB_SharedRAM_GetConfig();
 621:Drivers/STM32H7xx_HAL_Driver/Src/stm32h7xx_hal_flash_ex.c **** #endif /* FLASH_OPTSR2_TCM_AXI_SHARED */
 622:Drivers/STM32H7xx_HAL_Driver/Src/stm32h7xx_hal_flash_ex.c **** 
 623:Drivers/STM32H7xx_HAL_Driver/Src/stm32h7xx_hal_flash_ex.c **** #if defined (FLASH_OPTSR2_CPUFREQ_BOOST)
 624:Drivers/STM32H7xx_HAL_Driver/Src/stm32h7xx_hal_flash_ex.c ****   pOBInit->OptionType |= OPTIONBYTE_FREQ_BOOST;
 625:Drivers/STM32H7xx_HAL_Driver/Src/stm32h7xx_hal_flash_ex.c **** 
 626:Drivers/STM32H7xx_HAL_Driver/Src/stm32h7xx_hal_flash_ex.c ****   /* Get CPU Frequency Boost */
 627:Drivers/STM32H7xx_HAL_Driver/Src/stm32h7xx_hal_flash_ex.c ****   pOBInit->FreqBoostState = FLASH_OB_CPUFreq_GetBoost();
 628:Drivers/STM32H7xx_HAL_Driver/Src/stm32h7xx_hal_flash_ex.c **** #endif /* FLASH_OPTSR2_CPUFREQ_BOOST */
 629:Drivers/STM32H7xx_HAL_Driver/Src/stm32h7xx_hal_flash_ex.c **** }
 885              		.loc 1 629 1
 886 00ae 00BF     		nop
 887 00b0 0837     		adds	r7, r7, #8
 888              	.LCFI18:
 889              		.cfi_def_cfa_offset 8
 890 00b2 BD46     		mov	sp, r7
 891              	.LCFI19:
 892              		.cfi_def_cfa_register 13
 893              		@ sp needed
 894 00b4 80BD     		pop	{r7, pc}
 895              		.cfi_endproc
 896              	.LFE147:
 898              		.section	.text.HAL_FLASHEx_Unlock_Bank1,"ax",%progbits
 899              		.align	1
 900              		.global	HAL_FLASHEx_Unlock_Bank1
 901              		.syntax unified
 902              		.thumb
 903              		.thumb_func
 905              	HAL_FLASHEx_Unlock_Bank1:
 906              	.LFB148:
 630:Drivers/STM32H7xx_HAL_Driver/Src/stm32h7xx_hal_flash_ex.c **** 
 631:Drivers/STM32H7xx_HAL_Driver/Src/stm32h7xx_hal_flash_ex.c **** /**
 632:Drivers/STM32H7xx_HAL_Driver/Src/stm32h7xx_hal_flash_ex.c ****   * @brief  Unlock the FLASH Bank1 control registers access
 633:Drivers/STM32H7xx_HAL_Driver/Src/stm32h7xx_hal_flash_ex.c ****   * @retval HAL Status
 634:Drivers/STM32H7xx_HAL_Driver/Src/stm32h7xx_hal_flash_ex.c ****   */
 635:Drivers/STM32H7xx_HAL_Driver/Src/stm32h7xx_hal_flash_ex.c **** HAL_StatusTypeDef HAL_FLASHEx_Unlock_Bank1(void)
 636:Drivers/STM32H7xx_HAL_Driver/Src/stm32h7xx_hal_flash_ex.c **** {
 907              		.loc 1 636 1
ARM GAS  /var/folders/g1/j12m_ky910s3_sv7d4yrsdn00000gn/T//ccpiSNf7.s 			page 28


 908              		.cfi_startproc
 909              		@ args = 0, pretend = 0, frame = 0
 910              		@ frame_needed = 1, uses_anonymous_args = 0
 911              		@ link register save eliminated.
 912 0000 80B4     		push	{r7}
 913              	.LCFI20:
 914              		.cfi_def_cfa_offset 4
 915              		.cfi_offset 7, -4
 916 0002 00AF     		add	r7, sp, #0
 917              	.LCFI21:
 918              		.cfi_def_cfa_register 7
 637:Drivers/STM32H7xx_HAL_Driver/Src/stm32h7xx_hal_flash_ex.c ****   if(READ_BIT(FLASH->CR1, FLASH_CR_LOCK) != 0U)
 919              		.loc 1 637 6
 920 0004 0C4B     		ldr	r3, .L57
 921 0006 DB68     		ldr	r3, [r3, #12]
 922 0008 03F00103 		and	r3, r3, #1
 923              		.loc 1 637 5
 924 000c 002B     		cmp	r3, #0
 925 000e 0DD0     		beq	.L55
 638:Drivers/STM32H7xx_HAL_Driver/Src/stm32h7xx_hal_flash_ex.c ****   {
 639:Drivers/STM32H7xx_HAL_Driver/Src/stm32h7xx_hal_flash_ex.c ****     /* Authorize the FLASH Bank1 Registers access */
 640:Drivers/STM32H7xx_HAL_Driver/Src/stm32h7xx_hal_flash_ex.c ****     WRITE_REG(FLASH->KEYR1, FLASH_KEY1);
 926              		.loc 1 640 5
 927 0010 094B     		ldr	r3, .L57
 928 0012 0A4A     		ldr	r2, .L57+4
 929 0014 5A60     		str	r2, [r3, #4]
 641:Drivers/STM32H7xx_HAL_Driver/Src/stm32h7xx_hal_flash_ex.c ****     WRITE_REG(FLASH->KEYR1, FLASH_KEY2);
 930              		.loc 1 641 5
 931 0016 084B     		ldr	r3, .L57
 932 0018 094A     		ldr	r2, .L57+8
 933 001a 5A60     		str	r2, [r3, #4]
 642:Drivers/STM32H7xx_HAL_Driver/Src/stm32h7xx_hal_flash_ex.c **** 
 643:Drivers/STM32H7xx_HAL_Driver/Src/stm32h7xx_hal_flash_ex.c ****     /* Verify Flash Bank1 is unlocked */
 644:Drivers/STM32H7xx_HAL_Driver/Src/stm32h7xx_hal_flash_ex.c ****     if (READ_BIT(FLASH->CR1, FLASH_CR_LOCK) != 0U)
 934              		.loc 1 644 9
 935 001c 064B     		ldr	r3, .L57
 936 001e DB68     		ldr	r3, [r3, #12]
 937 0020 03F00103 		and	r3, r3, #1
 938              		.loc 1 644 8
 939 0024 002B     		cmp	r3, #0
 940 0026 01D0     		beq	.L55
 645:Drivers/STM32H7xx_HAL_Driver/Src/stm32h7xx_hal_flash_ex.c ****     {
 646:Drivers/STM32H7xx_HAL_Driver/Src/stm32h7xx_hal_flash_ex.c ****       return HAL_ERROR;
 941              		.loc 1 646 14
 942 0028 0123     		movs	r3, #1
 943 002a 00E0     		b	.L56
 944              	.L55:
 647:Drivers/STM32H7xx_HAL_Driver/Src/stm32h7xx_hal_flash_ex.c ****     }
 648:Drivers/STM32H7xx_HAL_Driver/Src/stm32h7xx_hal_flash_ex.c ****   }
 649:Drivers/STM32H7xx_HAL_Driver/Src/stm32h7xx_hal_flash_ex.c **** 
 650:Drivers/STM32H7xx_HAL_Driver/Src/stm32h7xx_hal_flash_ex.c ****   return HAL_OK;
 945              		.loc 1 650 10
 946 002c 0023     		movs	r3, #0
 947              	.L56:
 651:Drivers/STM32H7xx_HAL_Driver/Src/stm32h7xx_hal_flash_ex.c **** }
 948              		.loc 1 651 1
 949 002e 1846     		mov	r0, r3
ARM GAS  /var/folders/g1/j12m_ky910s3_sv7d4yrsdn00000gn/T//ccpiSNf7.s 			page 29


 950 0030 BD46     		mov	sp, r7
 951              	.LCFI22:
 952              		.cfi_def_cfa_register 13
 953              		@ sp needed
 954 0032 5DF8047B 		ldr	r7, [sp], #4
 955              	.LCFI23:
 956              		.cfi_restore 7
 957              		.cfi_def_cfa_offset 0
 958 0036 7047     		bx	lr
 959              	.L58:
 960              		.align	2
 961              	.L57:
 962 0038 00200052 		.word	1375739904
 963 003c 23016745 		.word	1164378403
 964 0040 AB89EFCD 		.word	-839939669
 965              		.cfi_endproc
 966              	.LFE148:
 968              		.section	.text.HAL_FLASHEx_Lock_Bank1,"ax",%progbits
 969              		.align	1
 970              		.global	HAL_FLASHEx_Lock_Bank1
 971              		.syntax unified
 972              		.thumb
 973              		.thumb_func
 975              	HAL_FLASHEx_Lock_Bank1:
 976              	.LFB149:
 652:Drivers/STM32H7xx_HAL_Driver/Src/stm32h7xx_hal_flash_ex.c **** 
 653:Drivers/STM32H7xx_HAL_Driver/Src/stm32h7xx_hal_flash_ex.c **** /**
 654:Drivers/STM32H7xx_HAL_Driver/Src/stm32h7xx_hal_flash_ex.c ****   * @brief  Locks the FLASH Bank1 control registers access
 655:Drivers/STM32H7xx_HAL_Driver/Src/stm32h7xx_hal_flash_ex.c ****   * @retval HAL Status
 656:Drivers/STM32H7xx_HAL_Driver/Src/stm32h7xx_hal_flash_ex.c ****   */
 657:Drivers/STM32H7xx_HAL_Driver/Src/stm32h7xx_hal_flash_ex.c **** HAL_StatusTypeDef HAL_FLASHEx_Lock_Bank1(void)
 658:Drivers/STM32H7xx_HAL_Driver/Src/stm32h7xx_hal_flash_ex.c **** {
 977              		.loc 1 658 1
 978              		.cfi_startproc
 979              		@ args = 0, pretend = 0, frame = 0
 980              		@ frame_needed = 1, uses_anonymous_args = 0
 981              		@ link register save eliminated.
 982 0000 80B4     		push	{r7}
 983              	.LCFI24:
 984              		.cfi_def_cfa_offset 4
 985              		.cfi_offset 7, -4
 986 0002 00AF     		add	r7, sp, #0
 987              	.LCFI25:
 988              		.cfi_def_cfa_register 7
 659:Drivers/STM32H7xx_HAL_Driver/Src/stm32h7xx_hal_flash_ex.c ****   /* Set the LOCK Bit to lock the FLASH Bank1 Registers access */
 660:Drivers/STM32H7xx_HAL_Driver/Src/stm32h7xx_hal_flash_ex.c ****   SET_BIT(FLASH->CR1, FLASH_CR_LOCK);
 989              		.loc 1 660 3
 990 0004 054B     		ldr	r3, .L61
 991 0006 DB68     		ldr	r3, [r3, #12]
 992 0008 044A     		ldr	r2, .L61
 993 000a 43F00103 		orr	r3, r3, #1
 994 000e D360     		str	r3, [r2, #12]
 661:Drivers/STM32H7xx_HAL_Driver/Src/stm32h7xx_hal_flash_ex.c ****   return HAL_OK;
 995              		.loc 1 661 10
 996 0010 0023     		movs	r3, #0
 662:Drivers/STM32H7xx_HAL_Driver/Src/stm32h7xx_hal_flash_ex.c **** }
 997              		.loc 1 662 1
ARM GAS  /var/folders/g1/j12m_ky910s3_sv7d4yrsdn00000gn/T//ccpiSNf7.s 			page 30


 998 0012 1846     		mov	r0, r3
 999 0014 BD46     		mov	sp, r7
 1000              	.LCFI26:
 1001              		.cfi_def_cfa_register 13
 1002              		@ sp needed
 1003 0016 5DF8047B 		ldr	r7, [sp], #4
 1004              	.LCFI27:
 1005              		.cfi_restore 7
 1006              		.cfi_def_cfa_offset 0
 1007 001a 7047     		bx	lr
 1008              	.L62:
 1009              		.align	2
 1010              	.L61:
 1011 001c 00200052 		.word	1375739904
 1012              		.cfi_endproc
 1013              	.LFE149:
 1015              		.section	.text.HAL_FLASHEx_Unlock_Bank2,"ax",%progbits
 1016              		.align	1
 1017              		.global	HAL_FLASHEx_Unlock_Bank2
 1018              		.syntax unified
 1019              		.thumb
 1020              		.thumb_func
 1022              	HAL_FLASHEx_Unlock_Bank2:
 1023              	.LFB150:
 663:Drivers/STM32H7xx_HAL_Driver/Src/stm32h7xx_hal_flash_ex.c **** 
 664:Drivers/STM32H7xx_HAL_Driver/Src/stm32h7xx_hal_flash_ex.c **** #if defined (DUAL_BANK)
 665:Drivers/STM32H7xx_HAL_Driver/Src/stm32h7xx_hal_flash_ex.c **** /**
 666:Drivers/STM32H7xx_HAL_Driver/Src/stm32h7xx_hal_flash_ex.c ****   * @brief  Unlock the FLASH Bank2 control registers access
 667:Drivers/STM32H7xx_HAL_Driver/Src/stm32h7xx_hal_flash_ex.c ****   * @retval HAL Status
 668:Drivers/STM32H7xx_HAL_Driver/Src/stm32h7xx_hal_flash_ex.c ****   */
 669:Drivers/STM32H7xx_HAL_Driver/Src/stm32h7xx_hal_flash_ex.c **** HAL_StatusTypeDef HAL_FLASHEx_Unlock_Bank2(void)
 670:Drivers/STM32H7xx_HAL_Driver/Src/stm32h7xx_hal_flash_ex.c **** {
 1024              		.loc 1 670 1
 1025              		.cfi_startproc
 1026              		@ args = 0, pretend = 0, frame = 0
 1027              		@ frame_needed = 1, uses_anonymous_args = 0
 1028              		@ link register save eliminated.
 1029 0000 80B4     		push	{r7}
 1030              	.LCFI28:
 1031              		.cfi_def_cfa_offset 4
 1032              		.cfi_offset 7, -4
 1033 0002 00AF     		add	r7, sp, #0
 1034              	.LCFI29:
 1035              		.cfi_def_cfa_register 7
 671:Drivers/STM32H7xx_HAL_Driver/Src/stm32h7xx_hal_flash_ex.c ****   if(READ_BIT(FLASH->CR2, FLASH_CR_LOCK) != 0U)
 1036              		.loc 1 671 6
 1037 0004 0E4B     		ldr	r3, .L66
 1038 0006 D3F80C31 		ldr	r3, [r3, #268]
 1039 000a 03F00103 		and	r3, r3, #1
 1040              		.loc 1 671 5
 1041 000e 002B     		cmp	r3, #0
 1042 0010 10D0     		beq	.L64
 672:Drivers/STM32H7xx_HAL_Driver/Src/stm32h7xx_hal_flash_ex.c ****   {
 673:Drivers/STM32H7xx_HAL_Driver/Src/stm32h7xx_hal_flash_ex.c ****     /* Authorize the FLASH Bank2 Registers access */
 674:Drivers/STM32H7xx_HAL_Driver/Src/stm32h7xx_hal_flash_ex.c ****     WRITE_REG(FLASH->KEYR2, FLASH_KEY1);
 1043              		.loc 1 674 5
 1044 0012 0B4B     		ldr	r3, .L66
ARM GAS  /var/folders/g1/j12m_ky910s3_sv7d4yrsdn00000gn/T//ccpiSNf7.s 			page 31


 1045 0014 0B4A     		ldr	r2, .L66+4
 1046 0016 C3F80421 		str	r2, [r3, #260]
 675:Drivers/STM32H7xx_HAL_Driver/Src/stm32h7xx_hal_flash_ex.c ****     WRITE_REG(FLASH->KEYR2, FLASH_KEY2);
 1047              		.loc 1 675 5
 1048 001a 094B     		ldr	r3, .L66
 1049 001c 0A4A     		ldr	r2, .L66+8
 1050 001e C3F80421 		str	r2, [r3, #260]
 676:Drivers/STM32H7xx_HAL_Driver/Src/stm32h7xx_hal_flash_ex.c **** 
 677:Drivers/STM32H7xx_HAL_Driver/Src/stm32h7xx_hal_flash_ex.c ****     /* Verify Flash Bank1 is unlocked */
 678:Drivers/STM32H7xx_HAL_Driver/Src/stm32h7xx_hal_flash_ex.c ****     if (READ_BIT(FLASH->CR2, FLASH_CR_LOCK) != 0U)
 1051              		.loc 1 678 9
 1052 0022 074B     		ldr	r3, .L66
 1053 0024 D3F80C31 		ldr	r3, [r3, #268]
 1054 0028 03F00103 		and	r3, r3, #1
 1055              		.loc 1 678 8
 1056 002c 002B     		cmp	r3, #0
 1057 002e 01D0     		beq	.L64
 679:Drivers/STM32H7xx_HAL_Driver/Src/stm32h7xx_hal_flash_ex.c ****     {
 680:Drivers/STM32H7xx_HAL_Driver/Src/stm32h7xx_hal_flash_ex.c ****       return HAL_ERROR;
 1058              		.loc 1 680 14
 1059 0030 0123     		movs	r3, #1
 1060 0032 00E0     		b	.L65
 1061              	.L64:
 681:Drivers/STM32H7xx_HAL_Driver/Src/stm32h7xx_hal_flash_ex.c ****     }
 682:Drivers/STM32H7xx_HAL_Driver/Src/stm32h7xx_hal_flash_ex.c ****   }
 683:Drivers/STM32H7xx_HAL_Driver/Src/stm32h7xx_hal_flash_ex.c **** 
 684:Drivers/STM32H7xx_HAL_Driver/Src/stm32h7xx_hal_flash_ex.c ****   return HAL_OK;
 1062              		.loc 1 684 10
 1063 0034 0023     		movs	r3, #0
 1064              	.L65:
 685:Drivers/STM32H7xx_HAL_Driver/Src/stm32h7xx_hal_flash_ex.c **** }
 1065              		.loc 1 685 1
 1066 0036 1846     		mov	r0, r3
 1067 0038 BD46     		mov	sp, r7
 1068              	.LCFI30:
 1069              		.cfi_def_cfa_register 13
 1070              		@ sp needed
 1071 003a 5DF8047B 		ldr	r7, [sp], #4
 1072              	.LCFI31:
 1073              		.cfi_restore 7
 1074              		.cfi_def_cfa_offset 0
 1075 003e 7047     		bx	lr
 1076              	.L67:
 1077              		.align	2
 1078              	.L66:
 1079 0040 00200052 		.word	1375739904
 1080 0044 23016745 		.word	1164378403
 1081 0048 AB89EFCD 		.word	-839939669
 1082              		.cfi_endproc
 1083              	.LFE150:
 1085              		.section	.text.HAL_FLASHEx_Lock_Bank2,"ax",%progbits
 1086              		.align	1
 1087              		.global	HAL_FLASHEx_Lock_Bank2
 1088              		.syntax unified
 1089              		.thumb
 1090              		.thumb_func
 1092              	HAL_FLASHEx_Lock_Bank2:
ARM GAS  /var/folders/g1/j12m_ky910s3_sv7d4yrsdn00000gn/T//ccpiSNf7.s 			page 32


 1093              	.LFB151:
 686:Drivers/STM32H7xx_HAL_Driver/Src/stm32h7xx_hal_flash_ex.c **** 
 687:Drivers/STM32H7xx_HAL_Driver/Src/stm32h7xx_hal_flash_ex.c **** /**
 688:Drivers/STM32H7xx_HAL_Driver/Src/stm32h7xx_hal_flash_ex.c ****   * @brief  Locks the FLASH Bank2 control registers access
 689:Drivers/STM32H7xx_HAL_Driver/Src/stm32h7xx_hal_flash_ex.c ****   * @retval HAL Status
 690:Drivers/STM32H7xx_HAL_Driver/Src/stm32h7xx_hal_flash_ex.c ****   */
 691:Drivers/STM32H7xx_HAL_Driver/Src/stm32h7xx_hal_flash_ex.c **** HAL_StatusTypeDef HAL_FLASHEx_Lock_Bank2(void)
 692:Drivers/STM32H7xx_HAL_Driver/Src/stm32h7xx_hal_flash_ex.c **** {
 1094              		.loc 1 692 1
 1095              		.cfi_startproc
 1096              		@ args = 0, pretend = 0, frame = 0
 1097              		@ frame_needed = 1, uses_anonymous_args = 0
 1098              		@ link register save eliminated.
 1099 0000 80B4     		push	{r7}
 1100              	.LCFI32:
 1101              		.cfi_def_cfa_offset 4
 1102              		.cfi_offset 7, -4
 1103 0002 00AF     		add	r7, sp, #0
 1104              	.LCFI33:
 1105              		.cfi_def_cfa_register 7
 693:Drivers/STM32H7xx_HAL_Driver/Src/stm32h7xx_hal_flash_ex.c ****   /* Set the LOCK Bit to lock the FLASH Bank2 Registers access */
 694:Drivers/STM32H7xx_HAL_Driver/Src/stm32h7xx_hal_flash_ex.c ****   SET_BIT(FLASH->CR2, FLASH_CR_LOCK);
 1106              		.loc 1 694 3
 1107 0004 064B     		ldr	r3, .L70
 1108 0006 D3F80C31 		ldr	r3, [r3, #268]
 1109 000a 054A     		ldr	r2, .L70
 1110 000c 43F00103 		orr	r3, r3, #1
 1111 0010 C2F80C31 		str	r3, [r2, #268]
 695:Drivers/STM32H7xx_HAL_Driver/Src/stm32h7xx_hal_flash_ex.c ****   return HAL_OK;
 1112              		.loc 1 695 10
 1113 0014 0023     		movs	r3, #0
 696:Drivers/STM32H7xx_HAL_Driver/Src/stm32h7xx_hal_flash_ex.c **** }
 1114              		.loc 1 696 1
 1115 0016 1846     		mov	r0, r3
 1116 0018 BD46     		mov	sp, r7
 1117              	.LCFI34:
 1118              		.cfi_def_cfa_register 13
 1119              		@ sp needed
 1120 001a 5DF8047B 		ldr	r7, [sp], #4
 1121              	.LCFI35:
 1122              		.cfi_restore 7
 1123              		.cfi_def_cfa_offset 0
 1124 001e 7047     		bx	lr
 1125              	.L71:
 1126              		.align	2
 1127              	.L70:
 1128 0020 00200052 		.word	1375739904
 1129              		.cfi_endproc
 1130              	.LFE151:
 1132              		.section	.text.HAL_FLASHEx_ComputeCRC,"ax",%progbits
 1133              		.align	1
 1134              		.global	HAL_FLASHEx_ComputeCRC
 1135              		.syntax unified
 1136              		.thumb
 1137              		.thumb_func
 1139              	HAL_FLASHEx_ComputeCRC:
 1140              	.LFB152:
ARM GAS  /var/folders/g1/j12m_ky910s3_sv7d4yrsdn00000gn/T//ccpiSNf7.s 			page 33


 697:Drivers/STM32H7xx_HAL_Driver/Src/stm32h7xx_hal_flash_ex.c **** #endif /* DUAL_BANK */
 698:Drivers/STM32H7xx_HAL_Driver/Src/stm32h7xx_hal_flash_ex.c **** 
 699:Drivers/STM32H7xx_HAL_Driver/Src/stm32h7xx_hal_flash_ex.c **** /*
 700:Drivers/STM32H7xx_HAL_Driver/Src/stm32h7xx_hal_flash_ex.c ****   * @brief  Perform a CRC computation on the specified FLASH memory area
 701:Drivers/STM32H7xx_HAL_Driver/Src/stm32h7xx_hal_flash_ex.c ****   * @param  pCRCInit pointer to an FLASH_CRCInitTypeDef structure that
 702:Drivers/STM32H7xx_HAL_Driver/Src/stm32h7xx_hal_flash_ex.c ****   *         contains the configuration information for the CRC computation.
 703:Drivers/STM32H7xx_HAL_Driver/Src/stm32h7xx_hal_flash_ex.c ****   * @note   CRC computation uses CRC-32 (Ethernet) polynomial 0x4C11DB7
 704:Drivers/STM32H7xx_HAL_Driver/Src/stm32h7xx_hal_flash_ex.c ****   * @note   The application should avoid running a CRC on PCROP or secure-only
 705:Drivers/STM32H7xx_HAL_Driver/Src/stm32h7xx_hal_flash_ex.c ****   *         user Flash memory area since it may alter the expected CRC value.
 706:Drivers/STM32H7xx_HAL_Driver/Src/stm32h7xx_hal_flash_ex.c ****   *         A special error flag (CRC read error: CRCRDERR) can be used to
 707:Drivers/STM32H7xx_HAL_Driver/Src/stm32h7xx_hal_flash_ex.c ****   *         detect such a case.
 708:Drivers/STM32H7xx_HAL_Driver/Src/stm32h7xx_hal_flash_ex.c ****   * @retval HAL Status
 709:Drivers/STM32H7xx_HAL_Driver/Src/stm32h7xx_hal_flash_ex.c **** */
 710:Drivers/STM32H7xx_HAL_Driver/Src/stm32h7xx_hal_flash_ex.c **** HAL_StatusTypeDef HAL_FLASHEx_ComputeCRC(FLASH_CRCInitTypeDef *pCRCInit, uint32_t *CRC_Result)
 711:Drivers/STM32H7xx_HAL_Driver/Src/stm32h7xx_hal_flash_ex.c **** {
 1141              		.loc 1 711 1
 1142              		.cfi_startproc
 1143              		@ args = 0, pretend = 0, frame = 16
 1144              		@ frame_needed = 1, uses_anonymous_args = 0
 1145 0000 80B5     		push	{r7, lr}
 1146              	.LCFI36:
 1147              		.cfi_def_cfa_offset 8
 1148              		.cfi_offset 7, -8
 1149              		.cfi_offset 14, -4
 1150 0002 84B0     		sub	sp, sp, #16
 1151              	.LCFI37:
 1152              		.cfi_def_cfa_offset 24
 1153 0004 00AF     		add	r7, sp, #0
 1154              	.LCFI38:
 1155              		.cfi_def_cfa_register 7
 1156 0006 7860     		str	r0, [r7, #4]
 1157 0008 3960     		str	r1, [r7]
 712:Drivers/STM32H7xx_HAL_Driver/Src/stm32h7xx_hal_flash_ex.c ****   HAL_StatusTypeDef status;
 713:Drivers/STM32H7xx_HAL_Driver/Src/stm32h7xx_hal_flash_ex.c ****   uint32_t sector_index;
 714:Drivers/STM32H7xx_HAL_Driver/Src/stm32h7xx_hal_flash_ex.c **** 
 715:Drivers/STM32H7xx_HAL_Driver/Src/stm32h7xx_hal_flash_ex.c ****   /* Check the parameters */
 716:Drivers/STM32H7xx_HAL_Driver/Src/stm32h7xx_hal_flash_ex.c ****   assert_param(IS_FLASH_BANK_EXCLUSIVE(pCRCInit->Bank));
 717:Drivers/STM32H7xx_HAL_Driver/Src/stm32h7xx_hal_flash_ex.c ****   assert_param(IS_FLASH_TYPECRC(pCRCInit->TypeCRC));
 718:Drivers/STM32H7xx_HAL_Driver/Src/stm32h7xx_hal_flash_ex.c **** 
 719:Drivers/STM32H7xx_HAL_Driver/Src/stm32h7xx_hal_flash_ex.c ****   /* Wait for OB change operation to be completed */
 720:Drivers/STM32H7xx_HAL_Driver/Src/stm32h7xx_hal_flash_ex.c ****   status = FLASH_OB_WaitForLastOperation((uint32_t)FLASH_TIMEOUT_VALUE);
 1158              		.loc 1 720 12
 1159 000a 4CF25030 		movw	r0, #50000
 1160 000e FFF7FEFF 		bl	FLASH_OB_WaitForLastOperation
 1161 0012 0346     		mov	r3, r0
 1162 0014 FB73     		strb	r3, [r7, #15]
 721:Drivers/STM32H7xx_HAL_Driver/Src/stm32h7xx_hal_flash_ex.c **** 
 722:Drivers/STM32H7xx_HAL_Driver/Src/stm32h7xx_hal_flash_ex.c ****   if (status == HAL_OK)
 1163              		.loc 1 722 6
 1164 0016 FB7B     		ldrb	r3, [r7, #15]	@ zero_extendqisi2
 1165 0018 002B     		cmp	r3, #0
 1166 001a 40F0E080 		bne	.L73
 723:Drivers/STM32H7xx_HAL_Driver/Src/stm32h7xx_hal_flash_ex.c ****   {
 724:Drivers/STM32H7xx_HAL_Driver/Src/stm32h7xx_hal_flash_ex.c ****     if (pCRCInit->Bank == FLASH_BANK_1)
 1167              		.loc 1 724 17
 1168 001e 7B68     		ldr	r3, [r7, #4]
 1169 0020 9B68     		ldr	r3, [r3, #8]
ARM GAS  /var/folders/g1/j12m_ky910s3_sv7d4yrsdn00000gn/T//ccpiSNf7.s 			page 34


 1170              		.loc 1 724 8
 1171 0022 012B     		cmp	r3, #1
 1172 0024 66D1     		bne	.L74
 725:Drivers/STM32H7xx_HAL_Driver/Src/stm32h7xx_hal_flash_ex.c ****     {
 726:Drivers/STM32H7xx_HAL_Driver/Src/stm32h7xx_hal_flash_ex.c ****       /* Enable CRC feature */
 727:Drivers/STM32H7xx_HAL_Driver/Src/stm32h7xx_hal_flash_ex.c ****       FLASH->CR1 |= FLASH_CR_CRC_EN;
 1173              		.loc 1 727 12
 1174 0026 704B     		ldr	r3, .L86
 1175 0028 DB68     		ldr	r3, [r3, #12]
 1176 002a 6F4A     		ldr	r2, .L86
 1177              		.loc 1 727 18
 1178 002c 43F40043 		orr	r3, r3, #32768
 1179 0030 D360     		str	r3, [r2, #12]
 728:Drivers/STM32H7xx_HAL_Driver/Src/stm32h7xx_hal_flash_ex.c **** 
 729:Drivers/STM32H7xx_HAL_Driver/Src/stm32h7xx_hal_flash_ex.c ****       /* Clear CRC flags in Status Register: CRC end of calculation and CRC read error */
 730:Drivers/STM32H7xx_HAL_Driver/Src/stm32h7xx_hal_flash_ex.c ****       FLASH->CCR1 |= (FLASH_CCR_CLR_CRCEND | FLASH_CCR_CLR_CRCRDERR);
 1180              		.loc 1 730 12
 1181 0032 6D4B     		ldr	r3, .L86
 1182 0034 5B69     		ldr	r3, [r3, #20]
 1183 0036 6C4A     		ldr	r2, .L86
 1184              		.loc 1 730 19
 1185 0038 43F0C053 		orr	r3, r3, #402653184
 1186 003c 5361     		str	r3, [r2, #20]
 731:Drivers/STM32H7xx_HAL_Driver/Src/stm32h7xx_hal_flash_ex.c **** 
 732:Drivers/STM32H7xx_HAL_Driver/Src/stm32h7xx_hal_flash_ex.c ****       /* Clear current CRC result, program burst size and define memory area on which CRC has to be
 733:Drivers/STM32H7xx_HAL_Driver/Src/stm32h7xx_hal_flash_ex.c ****       FLASH->CRCCR1 |= FLASH_CRCCR_CLEAN_CRC | pCRCInit->BurstSize | pCRCInit->TypeCRC;
 1187              		.loc 1 733 12
 1188 003e 6A4B     		ldr	r3, .L86
 1189 0040 1A6D     		ldr	r2, [r3, #80]
 1190              		.loc 1 733 56
 1191 0042 7B68     		ldr	r3, [r7, #4]
 1192 0044 5968     		ldr	r1, [r3, #4]
 1193              		.loc 1 733 78
 1194 0046 7B68     		ldr	r3, [r7, #4]
 1195 0048 1B68     		ldr	r3, [r3]
 1196              		.loc 1 733 68
 1197 004a 0B43     		orrs	r3, r3, r1
 1198              		.loc 1 733 21
 1199 004c 1343     		orrs	r3, r3, r2
 1200              		.loc 1 733 12
 1201 004e 664A     		ldr	r2, .L86
 1202              		.loc 1 733 21
 1203 0050 43F40033 		orr	r3, r3, #131072
 1204 0054 1365     		str	r3, [r2, #80]
 734:Drivers/STM32H7xx_HAL_Driver/Src/stm32h7xx_hal_flash_ex.c **** 
 735:Drivers/STM32H7xx_HAL_Driver/Src/stm32h7xx_hal_flash_ex.c ****       if (pCRCInit->TypeCRC == FLASH_CRC_SECTORS)
 1205              		.loc 1 735 19
 1206 0056 7B68     		ldr	r3, [r7, #4]
 1207 0058 1B68     		ldr	r3, [r3]
 1208              		.loc 1 735 10
 1209 005a B3F5807F 		cmp	r3, #256
 1210 005e 19D1     		bne	.L75
 736:Drivers/STM32H7xx_HAL_Driver/Src/stm32h7xx_hal_flash_ex.c ****       {
 737:Drivers/STM32H7xx_HAL_Driver/Src/stm32h7xx_hal_flash_ex.c ****         /* Clear sectors list */
 738:Drivers/STM32H7xx_HAL_Driver/Src/stm32h7xx_hal_flash_ex.c ****         FLASH->CRCCR1 |= FLASH_CRCCR_CLEAN_SECT;
 1211              		.loc 1 738 14
 1212 0060 614B     		ldr	r3, .L86
ARM GAS  /var/folders/g1/j12m_ky910s3_sv7d4yrsdn00000gn/T//ccpiSNf7.s 			page 35


 1213 0062 1B6D     		ldr	r3, [r3, #80]
 1214 0064 604A     		ldr	r2, .L86
 1215              		.loc 1 738 23
 1216 0066 43F48063 		orr	r3, r3, #1024
 1217 006a 1365     		str	r3, [r2, #80]
 739:Drivers/STM32H7xx_HAL_Driver/Src/stm32h7xx_hal_flash_ex.c **** 
 740:Drivers/STM32H7xx_HAL_Driver/Src/stm32h7xx_hal_flash_ex.c ****         /* Select CRC sectors */
 741:Drivers/STM32H7xx_HAL_Driver/Src/stm32h7xx_hal_flash_ex.c ****         for(sector_index = pCRCInit->Sector; sector_index < (pCRCInit->NbSectors + pCRCInit->Sector
 1218              		.loc 1 741 26
 1219 006c 7B68     		ldr	r3, [r7, #4]
 1220 006e DB68     		ldr	r3, [r3, #12]
 1221 0070 BB60     		str	r3, [r7, #8]
 1222              		.loc 1 741 9
 1223 0072 06E0     		b	.L76
 1224              	.L77:
 742:Drivers/STM32H7xx_HAL_Driver/Src/stm32h7xx_hal_flash_ex.c ****         {
 743:Drivers/STM32H7xx_HAL_Driver/Src/stm32h7xx_hal_flash_ex.c ****           FLASH_CRC_AddSector(sector_index, FLASH_BANK_1);
 1225              		.loc 1 743 11
 1226 0074 0121     		movs	r1, #1
 1227 0076 B868     		ldr	r0, [r7, #8]
 1228 0078 FFF7FEFF 		bl	FLASH_CRC_AddSector
 741:Drivers/STM32H7xx_HAL_Driver/Src/stm32h7xx_hal_flash_ex.c ****         {
 1229              		.loc 1 741 115 discriminator 3
 1230 007c BB68     		ldr	r3, [r7, #8]
 1231 007e 0133     		adds	r3, r3, #1
 1232 0080 BB60     		str	r3, [r7, #8]
 1233              	.L76:
 741:Drivers/STM32H7xx_HAL_Driver/Src/stm32h7xx_hal_flash_ex.c ****         {
 1234              		.loc 1 741 70 discriminator 1
 1235 0082 7B68     		ldr	r3, [r7, #4]
 1236 0084 1A69     		ldr	r2, [r3, #16]
 741:Drivers/STM32H7xx_HAL_Driver/Src/stm32h7xx_hal_flash_ex.c ****         {
 1237              		.loc 1 741 92 discriminator 1
 1238 0086 7B68     		ldr	r3, [r7, #4]
 1239 0088 DB68     		ldr	r3, [r3, #12]
 741:Drivers/STM32H7xx_HAL_Driver/Src/stm32h7xx_hal_flash_ex.c ****         {
 1240              		.loc 1 741 82 discriminator 1
 1241 008a 1344     		add	r3, r3, r2
 741:Drivers/STM32H7xx_HAL_Driver/Src/stm32h7xx_hal_flash_ex.c ****         {
 1242              		.loc 1 741 59 discriminator 1
 1243 008c BA68     		ldr	r2, [r7, #8]
 1244 008e 9A42     		cmp	r2, r3
 1245 0090 F0D3     		bcc	.L77
 1246 0092 13E0     		b	.L78
 1247              	.L75:
 744:Drivers/STM32H7xx_HAL_Driver/Src/stm32h7xx_hal_flash_ex.c ****         }
 745:Drivers/STM32H7xx_HAL_Driver/Src/stm32h7xx_hal_flash_ex.c ****       }
 746:Drivers/STM32H7xx_HAL_Driver/Src/stm32h7xx_hal_flash_ex.c ****       else if (pCRCInit->TypeCRC == FLASH_CRC_BANK)
 1248              		.loc 1 746 24
 1249 0094 7B68     		ldr	r3, [r7, #4]
 1250 0096 1B68     		ldr	r3, [r3]
 1251              		.loc 1 746 15
 1252 0098 544A     		ldr	r2, .L86+4
 1253 009a 9342     		cmp	r3, r2
 1254 009c 06D1     		bne	.L79
 747:Drivers/STM32H7xx_HAL_Driver/Src/stm32h7xx_hal_flash_ex.c ****       {
 748:Drivers/STM32H7xx_HAL_Driver/Src/stm32h7xx_hal_flash_ex.c ****         /* Enable Bank 1 CRC select bit */
ARM GAS  /var/folders/g1/j12m_ky910s3_sv7d4yrsdn00000gn/T//ccpiSNf7.s 			page 36


 749:Drivers/STM32H7xx_HAL_Driver/Src/stm32h7xx_hal_flash_ex.c ****         FLASH->CRCCR1 |= FLASH_CRCCR_ALL_BANK;
 1255              		.loc 1 749 14
 1256 009e 524B     		ldr	r3, .L86
 1257 00a0 1B6D     		ldr	r3, [r3, #80]
 1258 00a2 514A     		ldr	r2, .L86
 1259              		.loc 1 749 23
 1260 00a4 43F48003 		orr	r3, r3, #4194304
 1261 00a8 1365     		str	r3, [r2, #80]
 1262 00aa 07E0     		b	.L78
 1263              	.L79:
 750:Drivers/STM32H7xx_HAL_Driver/Src/stm32h7xx_hal_flash_ex.c ****       }
 751:Drivers/STM32H7xx_HAL_Driver/Src/stm32h7xx_hal_flash_ex.c ****       else
 752:Drivers/STM32H7xx_HAL_Driver/Src/stm32h7xx_hal_flash_ex.c ****       {
 753:Drivers/STM32H7xx_HAL_Driver/Src/stm32h7xx_hal_flash_ex.c ****         /* Select CRC start and end addresses */
 754:Drivers/STM32H7xx_HAL_Driver/Src/stm32h7xx_hal_flash_ex.c ****         FLASH_CRC_SelectAddress(pCRCInit->CRCStartAddr, pCRCInit->CRCEndAddr, FLASH_BANK_1);
 1264              		.loc 1 754 9
 1265 00ac 7B68     		ldr	r3, [r7, #4]
 1266 00ae 5869     		ldr	r0, [r3, #20]
 1267 00b0 7B68     		ldr	r3, [r7, #4]
 1268 00b2 9B69     		ldr	r3, [r3, #24]
 1269 00b4 0122     		movs	r2, #1
 1270 00b6 1946     		mov	r1, r3
 1271 00b8 FFF7FEFF 		bl	FLASH_CRC_SelectAddress
 1272              	.L78:
 755:Drivers/STM32H7xx_HAL_Driver/Src/stm32h7xx_hal_flash_ex.c ****       }
 756:Drivers/STM32H7xx_HAL_Driver/Src/stm32h7xx_hal_flash_ex.c **** 
 757:Drivers/STM32H7xx_HAL_Driver/Src/stm32h7xx_hal_flash_ex.c ****       /* Start the CRC calculation */
 758:Drivers/STM32H7xx_HAL_Driver/Src/stm32h7xx_hal_flash_ex.c ****       FLASH->CRCCR1 |= FLASH_CRCCR_START_CRC;
 1273              		.loc 1 758 12
 1274 00bc 4A4B     		ldr	r3, .L86
 1275 00be 1B6D     		ldr	r3, [r3, #80]
 1276 00c0 494A     		ldr	r2, .L86
 1277              		.loc 1 758 21
 1278 00c2 43F48033 		orr	r3, r3, #65536
 1279 00c6 1365     		str	r3, [r2, #80]
 759:Drivers/STM32H7xx_HAL_Driver/Src/stm32h7xx_hal_flash_ex.c **** 
 760:Drivers/STM32H7xx_HAL_Driver/Src/stm32h7xx_hal_flash_ex.c ****       /* Wait on CRC busy flag */
 761:Drivers/STM32H7xx_HAL_Driver/Src/stm32h7xx_hal_flash_ex.c ****       status = FLASH_CRC_WaitForLastOperation((uint32_t)FLASH_TIMEOUT_VALUE, FLASH_BANK_1);
 1280              		.loc 1 761 16
 1281 00c8 0121     		movs	r1, #1
 1282 00ca 4CF25030 		movw	r0, #50000
 1283 00ce FFF7FEFF 		bl	FLASH_CRC_WaitForLastOperation
 1284 00d2 0346     		mov	r3, r0
 1285 00d4 FB73     		strb	r3, [r7, #15]
 762:Drivers/STM32H7xx_HAL_Driver/Src/stm32h7xx_hal_flash_ex.c **** 
 763:Drivers/STM32H7xx_HAL_Driver/Src/stm32h7xx_hal_flash_ex.c ****       /* Return CRC result */
 764:Drivers/STM32H7xx_HAL_Driver/Src/stm32h7xx_hal_flash_ex.c ****       (*CRC_Result) = FLASH->CRCDATA;
 1286              		.loc 1 764 28
 1287 00d6 444B     		ldr	r3, .L86
 1288 00d8 DA6D     		ldr	r2, [r3, #92]
 1289              		.loc 1 764 21
 1290 00da 3B68     		ldr	r3, [r7]
 1291 00dc 1A60     		str	r2, [r3]
 765:Drivers/STM32H7xx_HAL_Driver/Src/stm32h7xx_hal_flash_ex.c **** 
 766:Drivers/STM32H7xx_HAL_Driver/Src/stm32h7xx_hal_flash_ex.c ****       /* Disable CRC feature */
 767:Drivers/STM32H7xx_HAL_Driver/Src/stm32h7xx_hal_flash_ex.c ****       FLASH->CR1 &= (~FLASH_CR_CRC_EN);
 1292              		.loc 1 767 12
ARM GAS  /var/folders/g1/j12m_ky910s3_sv7d4yrsdn00000gn/T//ccpiSNf7.s 			page 37


 1293 00de 424B     		ldr	r3, .L86
 1294 00e0 DB68     		ldr	r3, [r3, #12]
 1295 00e2 414A     		ldr	r2, .L86
 1296              		.loc 1 767 18
 1297 00e4 23F40043 		bic	r3, r3, #32768
 1298 00e8 D360     		str	r3, [r2, #12]
 768:Drivers/STM32H7xx_HAL_Driver/Src/stm32h7xx_hal_flash_ex.c **** 
 769:Drivers/STM32H7xx_HAL_Driver/Src/stm32h7xx_hal_flash_ex.c ****       /* Clear CRC flags */
 770:Drivers/STM32H7xx_HAL_Driver/Src/stm32h7xx_hal_flash_ex.c ****       __HAL_FLASH_CLEAR_FLAG_BANK1(FLASH_FLAG_CRCEND_BANK1 | FLASH_FLAG_CRCRDERR_BANK1);
 1299              		.loc 1 770 7
 1300 00ea 3F4B     		ldr	r3, .L86
 1301 00ec 4FF0C052 		mov	r2, #402653184
 1302 00f0 5A61     		str	r2, [r3, #20]
 1303 00f2 74E0     		b	.L73
 1304              	.L74:
 771:Drivers/STM32H7xx_HAL_Driver/Src/stm32h7xx_hal_flash_ex.c ****     }
 772:Drivers/STM32H7xx_HAL_Driver/Src/stm32h7xx_hal_flash_ex.c **** #if defined (DUAL_BANK)
 773:Drivers/STM32H7xx_HAL_Driver/Src/stm32h7xx_hal_flash_ex.c ****     else
 774:Drivers/STM32H7xx_HAL_Driver/Src/stm32h7xx_hal_flash_ex.c ****     {
 775:Drivers/STM32H7xx_HAL_Driver/Src/stm32h7xx_hal_flash_ex.c ****       /* Enable CRC feature */
 776:Drivers/STM32H7xx_HAL_Driver/Src/stm32h7xx_hal_flash_ex.c ****       FLASH->CR2 |= FLASH_CR_CRC_EN;
 1305              		.loc 1 776 12
 1306 00f4 3C4B     		ldr	r3, .L86
 1307 00f6 D3F80C31 		ldr	r3, [r3, #268]
 1308 00fa 3B4A     		ldr	r2, .L86
 1309              		.loc 1 776 18
 1310 00fc 43F40043 		orr	r3, r3, #32768
 1311 0100 C2F80C31 		str	r3, [r2, #268]
 777:Drivers/STM32H7xx_HAL_Driver/Src/stm32h7xx_hal_flash_ex.c **** 
 778:Drivers/STM32H7xx_HAL_Driver/Src/stm32h7xx_hal_flash_ex.c ****       /* Clear CRC flags in Status Register: CRC end of calculation and CRC read error */
 779:Drivers/STM32H7xx_HAL_Driver/Src/stm32h7xx_hal_flash_ex.c ****       FLASH->CCR2 |= (FLASH_CCR_CLR_CRCEND | FLASH_CCR_CLR_CRCRDERR);
 1312              		.loc 1 779 12
 1313 0104 384B     		ldr	r3, .L86
 1314 0106 D3F81431 		ldr	r3, [r3, #276]
 1315 010a 374A     		ldr	r2, .L86
 1316              		.loc 1 779 19
 1317 010c 43F0C053 		orr	r3, r3, #402653184
 1318 0110 C2F81431 		str	r3, [r2, #276]
 780:Drivers/STM32H7xx_HAL_Driver/Src/stm32h7xx_hal_flash_ex.c **** 
 781:Drivers/STM32H7xx_HAL_Driver/Src/stm32h7xx_hal_flash_ex.c ****       /* Clear current CRC result, program burst size and define memory area on which CRC has to be
 782:Drivers/STM32H7xx_HAL_Driver/Src/stm32h7xx_hal_flash_ex.c ****       FLASH->CRCCR2 |= FLASH_CRCCR_CLEAN_CRC | pCRCInit->BurstSize | pCRCInit->TypeCRC;
 1319              		.loc 1 782 12
 1320 0114 344B     		ldr	r3, .L86
 1321 0116 D3F85021 		ldr	r2, [r3, #336]
 1322              		.loc 1 782 56
 1323 011a 7B68     		ldr	r3, [r7, #4]
 1324 011c 5968     		ldr	r1, [r3, #4]
 1325              		.loc 1 782 78
 1326 011e 7B68     		ldr	r3, [r7, #4]
 1327 0120 1B68     		ldr	r3, [r3]
 1328              		.loc 1 782 68
 1329 0122 0B43     		orrs	r3, r3, r1
 1330              		.loc 1 782 21
 1331 0124 1343     		orrs	r3, r3, r2
 1332              		.loc 1 782 12
 1333 0126 304A     		ldr	r2, .L86
 1334              		.loc 1 782 21
ARM GAS  /var/folders/g1/j12m_ky910s3_sv7d4yrsdn00000gn/T//ccpiSNf7.s 			page 38


 1335 0128 43F40033 		orr	r3, r3, #131072
 1336 012c C2F85031 		str	r3, [r2, #336]
 783:Drivers/STM32H7xx_HAL_Driver/Src/stm32h7xx_hal_flash_ex.c **** 
 784:Drivers/STM32H7xx_HAL_Driver/Src/stm32h7xx_hal_flash_ex.c ****       if (pCRCInit->TypeCRC == FLASH_CRC_SECTORS)
 1337              		.loc 1 784 19
 1338 0130 7B68     		ldr	r3, [r7, #4]
 1339 0132 1B68     		ldr	r3, [r3]
 1340              		.loc 1 784 10
 1341 0134 B3F5807F 		cmp	r3, #256
 1342 0138 1BD1     		bne	.L80
 785:Drivers/STM32H7xx_HAL_Driver/Src/stm32h7xx_hal_flash_ex.c ****       {
 786:Drivers/STM32H7xx_HAL_Driver/Src/stm32h7xx_hal_flash_ex.c ****         /* Clear sectors list */
 787:Drivers/STM32H7xx_HAL_Driver/Src/stm32h7xx_hal_flash_ex.c ****         FLASH->CRCCR2 |= FLASH_CRCCR_CLEAN_SECT;
 1343              		.loc 1 787 14
 1344 013a 2B4B     		ldr	r3, .L86
 1345 013c D3F85031 		ldr	r3, [r3, #336]
 1346 0140 294A     		ldr	r2, .L86
 1347              		.loc 1 787 23
 1348 0142 43F48063 		orr	r3, r3, #1024
 1349 0146 C2F85031 		str	r3, [r2, #336]
 788:Drivers/STM32H7xx_HAL_Driver/Src/stm32h7xx_hal_flash_ex.c **** 
 789:Drivers/STM32H7xx_HAL_Driver/Src/stm32h7xx_hal_flash_ex.c ****         /* Add CRC sectors */
 790:Drivers/STM32H7xx_HAL_Driver/Src/stm32h7xx_hal_flash_ex.c ****         for(sector_index = pCRCInit->Sector; sector_index < (pCRCInit->NbSectors + pCRCInit->Sector
 1350              		.loc 1 790 26
 1351 014a 7B68     		ldr	r3, [r7, #4]
 1352 014c DB68     		ldr	r3, [r3, #12]
 1353 014e BB60     		str	r3, [r7, #8]
 1354              		.loc 1 790 9
 1355 0150 06E0     		b	.L81
 1356              	.L82:
 791:Drivers/STM32H7xx_HAL_Driver/Src/stm32h7xx_hal_flash_ex.c ****         {
 792:Drivers/STM32H7xx_HAL_Driver/Src/stm32h7xx_hal_flash_ex.c ****           FLASH_CRC_AddSector(sector_index, FLASH_BANK_2);
 1357              		.loc 1 792 11
 1358 0152 0221     		movs	r1, #2
 1359 0154 B868     		ldr	r0, [r7, #8]
 1360 0156 FFF7FEFF 		bl	FLASH_CRC_AddSector
 790:Drivers/STM32H7xx_HAL_Driver/Src/stm32h7xx_hal_flash_ex.c ****         {
 1361              		.loc 1 790 115 discriminator 3
 1362 015a BB68     		ldr	r3, [r7, #8]
 1363 015c 0133     		adds	r3, r3, #1
 1364 015e BB60     		str	r3, [r7, #8]
 1365              	.L81:
 790:Drivers/STM32H7xx_HAL_Driver/Src/stm32h7xx_hal_flash_ex.c ****         {
 1366              		.loc 1 790 70 discriminator 1
 1367 0160 7B68     		ldr	r3, [r7, #4]
 1368 0162 1A69     		ldr	r2, [r3, #16]
 790:Drivers/STM32H7xx_HAL_Driver/Src/stm32h7xx_hal_flash_ex.c ****         {
 1369              		.loc 1 790 92 discriminator 1
 1370 0164 7B68     		ldr	r3, [r7, #4]
 1371 0166 DB68     		ldr	r3, [r3, #12]
 790:Drivers/STM32H7xx_HAL_Driver/Src/stm32h7xx_hal_flash_ex.c ****         {
 1372              		.loc 1 790 82 discriminator 1
 1373 0168 1344     		add	r3, r3, r2
 790:Drivers/STM32H7xx_HAL_Driver/Src/stm32h7xx_hal_flash_ex.c ****         {
 1374              		.loc 1 790 59 discriminator 1
 1375 016a BA68     		ldr	r2, [r7, #8]
 1376 016c 9A42     		cmp	r2, r3
ARM GAS  /var/folders/g1/j12m_ky910s3_sv7d4yrsdn00000gn/T//ccpiSNf7.s 			page 39


 1377 016e F0D3     		bcc	.L82
 1378 0170 15E0     		b	.L83
 1379              	.L80:
 793:Drivers/STM32H7xx_HAL_Driver/Src/stm32h7xx_hal_flash_ex.c ****         }
 794:Drivers/STM32H7xx_HAL_Driver/Src/stm32h7xx_hal_flash_ex.c ****       }
 795:Drivers/STM32H7xx_HAL_Driver/Src/stm32h7xx_hal_flash_ex.c ****       else if (pCRCInit->TypeCRC == FLASH_CRC_BANK)
 1380              		.loc 1 795 24
 1381 0172 7B68     		ldr	r3, [r7, #4]
 1382 0174 1B68     		ldr	r3, [r3]
 1383              		.loc 1 795 15
 1384 0176 1D4A     		ldr	r2, .L86+4
 1385 0178 9342     		cmp	r3, r2
 1386 017a 08D1     		bne	.L84
 796:Drivers/STM32H7xx_HAL_Driver/Src/stm32h7xx_hal_flash_ex.c ****       {
 797:Drivers/STM32H7xx_HAL_Driver/Src/stm32h7xx_hal_flash_ex.c ****         /* Enable Bank 2 CRC select bit */
 798:Drivers/STM32H7xx_HAL_Driver/Src/stm32h7xx_hal_flash_ex.c ****         FLASH->CRCCR2 |= FLASH_CRCCR_ALL_BANK;
 1387              		.loc 1 798 14
 1388 017c 1A4B     		ldr	r3, .L86
 1389 017e D3F85031 		ldr	r3, [r3, #336]
 1390 0182 194A     		ldr	r2, .L86
 1391              		.loc 1 798 23
 1392 0184 43F48003 		orr	r3, r3, #4194304
 1393 0188 C2F85031 		str	r3, [r2, #336]
 1394 018c 07E0     		b	.L83
 1395              	.L84:
 799:Drivers/STM32H7xx_HAL_Driver/Src/stm32h7xx_hal_flash_ex.c ****       }
 800:Drivers/STM32H7xx_HAL_Driver/Src/stm32h7xx_hal_flash_ex.c ****       else
 801:Drivers/STM32H7xx_HAL_Driver/Src/stm32h7xx_hal_flash_ex.c ****       {
 802:Drivers/STM32H7xx_HAL_Driver/Src/stm32h7xx_hal_flash_ex.c ****         /* Select CRC start and end addresses */
 803:Drivers/STM32H7xx_HAL_Driver/Src/stm32h7xx_hal_flash_ex.c ****         FLASH_CRC_SelectAddress(pCRCInit->CRCStartAddr, pCRCInit->CRCEndAddr, FLASH_BANK_2);
 1396              		.loc 1 803 9
 1397 018e 7B68     		ldr	r3, [r7, #4]
 1398 0190 5869     		ldr	r0, [r3, #20]
 1399 0192 7B68     		ldr	r3, [r7, #4]
 1400 0194 9B69     		ldr	r3, [r3, #24]
 1401 0196 0222     		movs	r2, #2
 1402 0198 1946     		mov	r1, r3
 1403 019a FFF7FEFF 		bl	FLASH_CRC_SelectAddress
 1404              	.L83:
 804:Drivers/STM32H7xx_HAL_Driver/Src/stm32h7xx_hal_flash_ex.c ****       }
 805:Drivers/STM32H7xx_HAL_Driver/Src/stm32h7xx_hal_flash_ex.c **** 
 806:Drivers/STM32H7xx_HAL_Driver/Src/stm32h7xx_hal_flash_ex.c ****       /* Start the CRC calculation */
 807:Drivers/STM32H7xx_HAL_Driver/Src/stm32h7xx_hal_flash_ex.c ****       FLASH->CRCCR2 |= FLASH_CRCCR_START_CRC;
 1405              		.loc 1 807 12
 1406 019e 124B     		ldr	r3, .L86
 1407 01a0 D3F85031 		ldr	r3, [r3, #336]
 1408 01a4 104A     		ldr	r2, .L86
 1409              		.loc 1 807 21
 1410 01a6 43F48033 		orr	r3, r3, #65536
 1411 01aa C2F85031 		str	r3, [r2, #336]
 808:Drivers/STM32H7xx_HAL_Driver/Src/stm32h7xx_hal_flash_ex.c **** 
 809:Drivers/STM32H7xx_HAL_Driver/Src/stm32h7xx_hal_flash_ex.c ****       /* Wait on CRC busy flag */
 810:Drivers/STM32H7xx_HAL_Driver/Src/stm32h7xx_hal_flash_ex.c ****       status = FLASH_CRC_WaitForLastOperation((uint32_t)FLASH_TIMEOUT_VALUE, FLASH_BANK_2);
 1412              		.loc 1 810 16
 1413 01ae 0221     		movs	r1, #2
 1414 01b0 4CF25030 		movw	r0, #50000
 1415 01b4 FFF7FEFF 		bl	FLASH_CRC_WaitForLastOperation
ARM GAS  /var/folders/g1/j12m_ky910s3_sv7d4yrsdn00000gn/T//ccpiSNf7.s 			page 40


 1416 01b8 0346     		mov	r3, r0
 1417 01ba FB73     		strb	r3, [r7, #15]
 811:Drivers/STM32H7xx_HAL_Driver/Src/stm32h7xx_hal_flash_ex.c **** 
 812:Drivers/STM32H7xx_HAL_Driver/Src/stm32h7xx_hal_flash_ex.c ****       /* Return CRC result */
 813:Drivers/STM32H7xx_HAL_Driver/Src/stm32h7xx_hal_flash_ex.c ****       (*CRC_Result) = FLASH->CRCDATA;
 1418              		.loc 1 813 28
 1419 01bc 0A4B     		ldr	r3, .L86
 1420 01be DA6D     		ldr	r2, [r3, #92]
 1421              		.loc 1 813 21
 1422 01c0 3B68     		ldr	r3, [r7]
 1423 01c2 1A60     		str	r2, [r3]
 814:Drivers/STM32H7xx_HAL_Driver/Src/stm32h7xx_hal_flash_ex.c **** 
 815:Drivers/STM32H7xx_HAL_Driver/Src/stm32h7xx_hal_flash_ex.c ****       /* Disable CRC feature */
 816:Drivers/STM32H7xx_HAL_Driver/Src/stm32h7xx_hal_flash_ex.c ****       FLASH->CR2 &= (~FLASH_CR_CRC_EN);
 1424              		.loc 1 816 12
 1425 01c4 084B     		ldr	r3, .L86
 1426 01c6 D3F80C31 		ldr	r3, [r3, #268]
 1427 01ca 074A     		ldr	r2, .L86
 1428              		.loc 1 816 18
 1429 01cc 23F40043 		bic	r3, r3, #32768
 1430 01d0 C2F80C31 		str	r3, [r2, #268]
 817:Drivers/STM32H7xx_HAL_Driver/Src/stm32h7xx_hal_flash_ex.c **** 
 818:Drivers/STM32H7xx_HAL_Driver/Src/stm32h7xx_hal_flash_ex.c ****       /* Clear CRC flags */
 819:Drivers/STM32H7xx_HAL_Driver/Src/stm32h7xx_hal_flash_ex.c ****       __HAL_FLASH_CLEAR_FLAG_BANK2(FLASH_FLAG_CRCEND_BANK2 | FLASH_FLAG_CRCRDERR_BANK2);
 1431              		.loc 1 819 7
 1432 01d4 044B     		ldr	r3, .L86
 1433 01d6 4FF0C052 		mov	r2, #402653184
 1434 01da C3F81421 		str	r2, [r3, #276]
 1435              	.L73:
 820:Drivers/STM32H7xx_HAL_Driver/Src/stm32h7xx_hal_flash_ex.c ****     }
 821:Drivers/STM32H7xx_HAL_Driver/Src/stm32h7xx_hal_flash_ex.c **** #endif /* DUAL_BANK */
 822:Drivers/STM32H7xx_HAL_Driver/Src/stm32h7xx_hal_flash_ex.c ****   }
 823:Drivers/STM32H7xx_HAL_Driver/Src/stm32h7xx_hal_flash_ex.c **** 
 824:Drivers/STM32H7xx_HAL_Driver/Src/stm32h7xx_hal_flash_ex.c ****   return status;
 1436              		.loc 1 824 10
 1437 01de FB7B     		ldrb	r3, [r7, #15]	@ zero_extendqisi2
 825:Drivers/STM32H7xx_HAL_Driver/Src/stm32h7xx_hal_flash_ex.c **** }
 1438              		.loc 1 825 1
 1439 01e0 1846     		mov	r0, r3
 1440 01e2 1037     		adds	r7, r7, #16
 1441              	.LCFI39:
 1442              		.cfi_def_cfa_offset 8
 1443 01e4 BD46     		mov	sp, r7
 1444              	.LCFI40:
 1445              		.cfi_def_cfa_register 13
 1446              		@ sp needed
 1447 01e6 80BD     		pop	{r7, pc}
 1448              	.L87:
 1449              		.align	2
 1450              	.L86:
 1451 01e8 00200052 		.word	1375739904
 1452 01ec 00014000 		.word	4194560
 1453              		.cfi_endproc
 1454              	.LFE152:
 1456              		.section	.text.FLASH_MassErase,"ax",%progbits
 1457              		.align	1
 1458              		.syntax unified
ARM GAS  /var/folders/g1/j12m_ky910s3_sv7d4yrsdn00000gn/T//ccpiSNf7.s 			page 41


 1459              		.thumb
 1460              		.thumb_func
 1462              	FLASH_MassErase:
 1463              	.LFB153:
 826:Drivers/STM32H7xx_HAL_Driver/Src/stm32h7xx_hal_flash_ex.c **** 
 827:Drivers/STM32H7xx_HAL_Driver/Src/stm32h7xx_hal_flash_ex.c **** /**
 828:Drivers/STM32H7xx_HAL_Driver/Src/stm32h7xx_hal_flash_ex.c ****   * @}
 829:Drivers/STM32H7xx_HAL_Driver/Src/stm32h7xx_hal_flash_ex.c ****   */
 830:Drivers/STM32H7xx_HAL_Driver/Src/stm32h7xx_hal_flash_ex.c **** 
 831:Drivers/STM32H7xx_HAL_Driver/Src/stm32h7xx_hal_flash_ex.c **** #if (USE_FLASH_ECC == 1U)
 832:Drivers/STM32H7xx_HAL_Driver/Src/stm32h7xx_hal_flash_ex.c **** /** @defgroup FLASHEx_Exported_Functions_Group2 Extended ECC operation functions
 833:Drivers/STM32H7xx_HAL_Driver/Src/stm32h7xx_hal_flash_ex.c ****   *  @brief   Extended ECC operation functions
 834:Drivers/STM32H7xx_HAL_Driver/Src/stm32h7xx_hal_flash_ex.c ****   *
 835:Drivers/STM32H7xx_HAL_Driver/Src/stm32h7xx_hal_flash_ex.c **** @verbatim
 836:Drivers/STM32H7xx_HAL_Driver/Src/stm32h7xx_hal_flash_ex.c ****  ===============================================================================
 837:Drivers/STM32H7xx_HAL_Driver/Src/stm32h7xx_hal_flash_ex.c ****                   ##### Extended ECC operation functions #####
 838:Drivers/STM32H7xx_HAL_Driver/Src/stm32h7xx_hal_flash_ex.c ****  ===============================================================================
 839:Drivers/STM32H7xx_HAL_Driver/Src/stm32h7xx_hal_flash_ex.c ****     [..]
 840:Drivers/STM32H7xx_HAL_Driver/Src/stm32h7xx_hal_flash_ex.c ****     This subsection provides a set of functions allowing to manage the Extended FLASH
 841:Drivers/STM32H7xx_HAL_Driver/Src/stm32h7xx_hal_flash_ex.c ****     ECC Operations.
 842:Drivers/STM32H7xx_HAL_Driver/Src/stm32h7xx_hal_flash_ex.c **** 
 843:Drivers/STM32H7xx_HAL_Driver/Src/stm32h7xx_hal_flash_ex.c **** @endverbatim
 844:Drivers/STM32H7xx_HAL_Driver/Src/stm32h7xx_hal_flash_ex.c ****   * @{
 845:Drivers/STM32H7xx_HAL_Driver/Src/stm32h7xx_hal_flash_ex.c ****   */
 846:Drivers/STM32H7xx_HAL_Driver/Src/stm32h7xx_hal_flash_ex.c **** 
 847:Drivers/STM32H7xx_HAL_Driver/Src/stm32h7xx_hal_flash_ex.c **** /**
 848:Drivers/STM32H7xx_HAL_Driver/Src/stm32h7xx_hal_flash_ex.c ****   * @brief  Enable ECC correction interrupts on FLASH BANK1 and BANK2.
 849:Drivers/STM32H7xx_HAL_Driver/Src/stm32h7xx_hal_flash_ex.c ****   * @param  None
 850:Drivers/STM32H7xx_HAL_Driver/Src/stm32h7xx_hal_flash_ex.c ****   * @retval None
 851:Drivers/STM32H7xx_HAL_Driver/Src/stm32h7xx_hal_flash_ex.c ****   */
 852:Drivers/STM32H7xx_HAL_Driver/Src/stm32h7xx_hal_flash_ex.c **** void HAL_FLASHEx_EnableEccCorrectionInterrupt(void)
 853:Drivers/STM32H7xx_HAL_Driver/Src/stm32h7xx_hal_flash_ex.c **** {
 854:Drivers/STM32H7xx_HAL_Driver/Src/stm32h7xx_hal_flash_ex.c ****   __HAL_FLASH_ENABLE_IT(FLASH_IT_SNECCERR_BANK1);
 855:Drivers/STM32H7xx_HAL_Driver/Src/stm32h7xx_hal_flash_ex.c **** 
 856:Drivers/STM32H7xx_HAL_Driver/Src/stm32h7xx_hal_flash_ex.c **** #if defined (DUAL_BANK)
 857:Drivers/STM32H7xx_HAL_Driver/Src/stm32h7xx_hal_flash_ex.c ****   __HAL_FLASH_ENABLE_IT(FLASH_IT_SNECCERR_BANK2);
 858:Drivers/STM32H7xx_HAL_Driver/Src/stm32h7xx_hal_flash_ex.c **** #endif /* DUAL_BANK */
 859:Drivers/STM32H7xx_HAL_Driver/Src/stm32h7xx_hal_flash_ex.c **** }
 860:Drivers/STM32H7xx_HAL_Driver/Src/stm32h7xx_hal_flash_ex.c **** 
 861:Drivers/STM32H7xx_HAL_Driver/Src/stm32h7xx_hal_flash_ex.c **** /**
 862:Drivers/STM32H7xx_HAL_Driver/Src/stm32h7xx_hal_flash_ex.c ****   * @brief  Disable ECC correction interrupts on FLASH BANK1 and BANK2.
 863:Drivers/STM32H7xx_HAL_Driver/Src/stm32h7xx_hal_flash_ex.c ****   * @param  None
 864:Drivers/STM32H7xx_HAL_Driver/Src/stm32h7xx_hal_flash_ex.c ****   * @retval None
 865:Drivers/STM32H7xx_HAL_Driver/Src/stm32h7xx_hal_flash_ex.c ****   */
 866:Drivers/STM32H7xx_HAL_Driver/Src/stm32h7xx_hal_flash_ex.c **** void HAL_FLASHEx_DisableEccCorrectionInterrupt(void)
 867:Drivers/STM32H7xx_HAL_Driver/Src/stm32h7xx_hal_flash_ex.c **** {
 868:Drivers/STM32H7xx_HAL_Driver/Src/stm32h7xx_hal_flash_ex.c ****   __HAL_FLASH_DISABLE_IT(FLASH_IT_SNECCERR_BANK1);
 869:Drivers/STM32H7xx_HAL_Driver/Src/stm32h7xx_hal_flash_ex.c **** 
 870:Drivers/STM32H7xx_HAL_Driver/Src/stm32h7xx_hal_flash_ex.c **** #if defined (DUAL_BANK)
 871:Drivers/STM32H7xx_HAL_Driver/Src/stm32h7xx_hal_flash_ex.c ****   __HAL_FLASH_DISABLE_IT(FLASH_IT_SNECCERR_BANK2);
 872:Drivers/STM32H7xx_HAL_Driver/Src/stm32h7xx_hal_flash_ex.c **** #endif /* DUAL_BANK */
 873:Drivers/STM32H7xx_HAL_Driver/Src/stm32h7xx_hal_flash_ex.c **** }
 874:Drivers/STM32H7xx_HAL_Driver/Src/stm32h7xx_hal_flash_ex.c **** 
 875:Drivers/STM32H7xx_HAL_Driver/Src/stm32h7xx_hal_flash_ex.c **** /**
 876:Drivers/STM32H7xx_HAL_Driver/Src/stm32h7xx_hal_flash_ex.c ****   * @brief  Enable ECC correction interrupt on FLASH BANK1.
 877:Drivers/STM32H7xx_HAL_Driver/Src/stm32h7xx_hal_flash_ex.c ****   * @param  None
 878:Drivers/STM32H7xx_HAL_Driver/Src/stm32h7xx_hal_flash_ex.c ****   * @retval None
ARM GAS  /var/folders/g1/j12m_ky910s3_sv7d4yrsdn00000gn/T//ccpiSNf7.s 			page 42


 879:Drivers/STM32H7xx_HAL_Driver/Src/stm32h7xx_hal_flash_ex.c ****   */
 880:Drivers/STM32H7xx_HAL_Driver/Src/stm32h7xx_hal_flash_ex.c **** void HAL_FLASHEx_EnableEccCorrectionInterrupt_Bank1(void)
 881:Drivers/STM32H7xx_HAL_Driver/Src/stm32h7xx_hal_flash_ex.c **** {
 882:Drivers/STM32H7xx_HAL_Driver/Src/stm32h7xx_hal_flash_ex.c ****   __HAL_FLASH_ENABLE_IT(FLASH_IT_SNECCERR_BANK1);
 883:Drivers/STM32H7xx_HAL_Driver/Src/stm32h7xx_hal_flash_ex.c **** }
 884:Drivers/STM32H7xx_HAL_Driver/Src/stm32h7xx_hal_flash_ex.c **** 
 885:Drivers/STM32H7xx_HAL_Driver/Src/stm32h7xx_hal_flash_ex.c **** /**
 886:Drivers/STM32H7xx_HAL_Driver/Src/stm32h7xx_hal_flash_ex.c ****   * @brief  Disable ECC correction interrupt on FLASH BANK1.
 887:Drivers/STM32H7xx_HAL_Driver/Src/stm32h7xx_hal_flash_ex.c ****   * @param  None
 888:Drivers/STM32H7xx_HAL_Driver/Src/stm32h7xx_hal_flash_ex.c ****   * @retval None
 889:Drivers/STM32H7xx_HAL_Driver/Src/stm32h7xx_hal_flash_ex.c ****   */
 890:Drivers/STM32H7xx_HAL_Driver/Src/stm32h7xx_hal_flash_ex.c **** void HAL_FLASHEx_DisableEccCorrectionInterrupt_Bank1(void)
 891:Drivers/STM32H7xx_HAL_Driver/Src/stm32h7xx_hal_flash_ex.c **** {
 892:Drivers/STM32H7xx_HAL_Driver/Src/stm32h7xx_hal_flash_ex.c ****   __HAL_FLASH_DISABLE_IT(FLASH_IT_SNECCERR_BANK1);
 893:Drivers/STM32H7xx_HAL_Driver/Src/stm32h7xx_hal_flash_ex.c **** }
 894:Drivers/STM32H7xx_HAL_Driver/Src/stm32h7xx_hal_flash_ex.c **** 
 895:Drivers/STM32H7xx_HAL_Driver/Src/stm32h7xx_hal_flash_ex.c **** #if defined (DUAL_BANK)
 896:Drivers/STM32H7xx_HAL_Driver/Src/stm32h7xx_hal_flash_ex.c **** /**
 897:Drivers/STM32H7xx_HAL_Driver/Src/stm32h7xx_hal_flash_ex.c ****   * @brief  Enable ECC correction interrupt on FLASH BANK2.
 898:Drivers/STM32H7xx_HAL_Driver/Src/stm32h7xx_hal_flash_ex.c ****   * @param  None
 899:Drivers/STM32H7xx_HAL_Driver/Src/stm32h7xx_hal_flash_ex.c ****   * @retval None
 900:Drivers/STM32H7xx_HAL_Driver/Src/stm32h7xx_hal_flash_ex.c ****   */
 901:Drivers/STM32H7xx_HAL_Driver/Src/stm32h7xx_hal_flash_ex.c **** void HAL_FLASHEx_EnableEccCorrectionInterrupt_Bank2(void)
 902:Drivers/STM32H7xx_HAL_Driver/Src/stm32h7xx_hal_flash_ex.c **** {
 903:Drivers/STM32H7xx_HAL_Driver/Src/stm32h7xx_hal_flash_ex.c ****   __HAL_FLASH_ENABLE_IT(FLASH_IT_SNECCERR_BANK2);
 904:Drivers/STM32H7xx_HAL_Driver/Src/stm32h7xx_hal_flash_ex.c **** }
 905:Drivers/STM32H7xx_HAL_Driver/Src/stm32h7xx_hal_flash_ex.c **** 
 906:Drivers/STM32H7xx_HAL_Driver/Src/stm32h7xx_hal_flash_ex.c **** /**
 907:Drivers/STM32H7xx_HAL_Driver/Src/stm32h7xx_hal_flash_ex.c ****   * @brief  Disable ECC correction interrupt on FLASH BANK2.
 908:Drivers/STM32H7xx_HAL_Driver/Src/stm32h7xx_hal_flash_ex.c ****   * @param  None
 909:Drivers/STM32H7xx_HAL_Driver/Src/stm32h7xx_hal_flash_ex.c ****   * @retval None
 910:Drivers/STM32H7xx_HAL_Driver/Src/stm32h7xx_hal_flash_ex.c ****   */
 911:Drivers/STM32H7xx_HAL_Driver/Src/stm32h7xx_hal_flash_ex.c **** void HAL_FLASHEx_DisableEccCorrectionInterrupt_Bank2(void)
 912:Drivers/STM32H7xx_HAL_Driver/Src/stm32h7xx_hal_flash_ex.c **** {
 913:Drivers/STM32H7xx_HAL_Driver/Src/stm32h7xx_hal_flash_ex.c ****   __HAL_FLASH_DISABLE_IT(FLASH_IT_SNECCERR_BANK2);
 914:Drivers/STM32H7xx_HAL_Driver/Src/stm32h7xx_hal_flash_ex.c **** }
 915:Drivers/STM32H7xx_HAL_Driver/Src/stm32h7xx_hal_flash_ex.c **** #endif /* DUAL_BANK */
 916:Drivers/STM32H7xx_HAL_Driver/Src/stm32h7xx_hal_flash_ex.c **** 
 917:Drivers/STM32H7xx_HAL_Driver/Src/stm32h7xx_hal_flash_ex.c **** /**
 918:Drivers/STM32H7xx_HAL_Driver/Src/stm32h7xx_hal_flash_ex.c ****   * @brief  Enable ECC Detection interrupts on FLASH BANK1 and BANK2.
 919:Drivers/STM32H7xx_HAL_Driver/Src/stm32h7xx_hal_flash_ex.c ****   * @param  None
 920:Drivers/STM32H7xx_HAL_Driver/Src/stm32h7xx_hal_flash_ex.c ****   * @retval None
 921:Drivers/STM32H7xx_HAL_Driver/Src/stm32h7xx_hal_flash_ex.c ****   */
 922:Drivers/STM32H7xx_HAL_Driver/Src/stm32h7xx_hal_flash_ex.c **** void HAL_FLASHEx_EnableEccDetectionInterrupt(void)
 923:Drivers/STM32H7xx_HAL_Driver/Src/stm32h7xx_hal_flash_ex.c **** {
 924:Drivers/STM32H7xx_HAL_Driver/Src/stm32h7xx_hal_flash_ex.c ****   __HAL_FLASH_ENABLE_IT(FLASH_IT_DBECCERR_BANK1);
 925:Drivers/STM32H7xx_HAL_Driver/Src/stm32h7xx_hal_flash_ex.c **** 
 926:Drivers/STM32H7xx_HAL_Driver/Src/stm32h7xx_hal_flash_ex.c **** #if defined (DUAL_BANK)
 927:Drivers/STM32H7xx_HAL_Driver/Src/stm32h7xx_hal_flash_ex.c ****   __HAL_FLASH_ENABLE_IT(FLASH_IT_DBECCERR_BANK2);
 928:Drivers/STM32H7xx_HAL_Driver/Src/stm32h7xx_hal_flash_ex.c **** #endif /* DUAL_BANK */
 929:Drivers/STM32H7xx_HAL_Driver/Src/stm32h7xx_hal_flash_ex.c **** }
 930:Drivers/STM32H7xx_HAL_Driver/Src/stm32h7xx_hal_flash_ex.c **** 
 931:Drivers/STM32H7xx_HAL_Driver/Src/stm32h7xx_hal_flash_ex.c **** /**
 932:Drivers/STM32H7xx_HAL_Driver/Src/stm32h7xx_hal_flash_ex.c ****   * @brief  Disable ECC Detection interrupts on FLASH BANK1 and BANK2.
 933:Drivers/STM32H7xx_HAL_Driver/Src/stm32h7xx_hal_flash_ex.c ****   * @param  None
 934:Drivers/STM32H7xx_HAL_Driver/Src/stm32h7xx_hal_flash_ex.c ****   * @retval None
 935:Drivers/STM32H7xx_HAL_Driver/Src/stm32h7xx_hal_flash_ex.c ****   */
ARM GAS  /var/folders/g1/j12m_ky910s3_sv7d4yrsdn00000gn/T//ccpiSNf7.s 			page 43


 936:Drivers/STM32H7xx_HAL_Driver/Src/stm32h7xx_hal_flash_ex.c **** void HAL_FLASHEx_DisableEccDetectionInterrupt(void)
 937:Drivers/STM32H7xx_HAL_Driver/Src/stm32h7xx_hal_flash_ex.c **** {
 938:Drivers/STM32H7xx_HAL_Driver/Src/stm32h7xx_hal_flash_ex.c ****   __HAL_FLASH_DISABLE_IT(FLASH_IT_DBECCERR_BANK1);
 939:Drivers/STM32H7xx_HAL_Driver/Src/stm32h7xx_hal_flash_ex.c **** 
 940:Drivers/STM32H7xx_HAL_Driver/Src/stm32h7xx_hal_flash_ex.c **** #if defined (DUAL_BANK)
 941:Drivers/STM32H7xx_HAL_Driver/Src/stm32h7xx_hal_flash_ex.c ****   __HAL_FLASH_DISABLE_IT(FLASH_IT_DBECCERR_BANK2);
 942:Drivers/STM32H7xx_HAL_Driver/Src/stm32h7xx_hal_flash_ex.c **** #endif /* DUAL_BANK */
 943:Drivers/STM32H7xx_HAL_Driver/Src/stm32h7xx_hal_flash_ex.c **** }
 944:Drivers/STM32H7xx_HAL_Driver/Src/stm32h7xx_hal_flash_ex.c **** 
 945:Drivers/STM32H7xx_HAL_Driver/Src/stm32h7xx_hal_flash_ex.c **** /**
 946:Drivers/STM32H7xx_HAL_Driver/Src/stm32h7xx_hal_flash_ex.c ****   * @brief  Enable ECC Detection interrupt on FLASH BANK1.
 947:Drivers/STM32H7xx_HAL_Driver/Src/stm32h7xx_hal_flash_ex.c ****   * @param  None
 948:Drivers/STM32H7xx_HAL_Driver/Src/stm32h7xx_hal_flash_ex.c ****   * @retval None
 949:Drivers/STM32H7xx_HAL_Driver/Src/stm32h7xx_hal_flash_ex.c ****   */
 950:Drivers/STM32H7xx_HAL_Driver/Src/stm32h7xx_hal_flash_ex.c **** void HAL_FLASHEx_EnableEccDetectionInterrupt_Bank1(void)
 951:Drivers/STM32H7xx_HAL_Driver/Src/stm32h7xx_hal_flash_ex.c **** {
 952:Drivers/STM32H7xx_HAL_Driver/Src/stm32h7xx_hal_flash_ex.c ****   __HAL_FLASH_ENABLE_IT(FLASH_IT_DBECCERR_BANK1);
 953:Drivers/STM32H7xx_HAL_Driver/Src/stm32h7xx_hal_flash_ex.c **** }
 954:Drivers/STM32H7xx_HAL_Driver/Src/stm32h7xx_hal_flash_ex.c **** 
 955:Drivers/STM32H7xx_HAL_Driver/Src/stm32h7xx_hal_flash_ex.c **** /**
 956:Drivers/STM32H7xx_HAL_Driver/Src/stm32h7xx_hal_flash_ex.c ****   * @brief  Disable ECC correction interrupt on FLASH BANK1.
 957:Drivers/STM32H7xx_HAL_Driver/Src/stm32h7xx_hal_flash_ex.c ****   * @param  None
 958:Drivers/STM32H7xx_HAL_Driver/Src/stm32h7xx_hal_flash_ex.c ****   * @retval None
 959:Drivers/STM32H7xx_HAL_Driver/Src/stm32h7xx_hal_flash_ex.c ****   */
 960:Drivers/STM32H7xx_HAL_Driver/Src/stm32h7xx_hal_flash_ex.c **** void HAL_FLASHEx_DisableEccDetectionInterrupt_Bank1(void)
 961:Drivers/STM32H7xx_HAL_Driver/Src/stm32h7xx_hal_flash_ex.c **** {
 962:Drivers/STM32H7xx_HAL_Driver/Src/stm32h7xx_hal_flash_ex.c ****   __HAL_FLASH_DISABLE_IT(FLASH_IT_DBECCERR_BANK1);
 963:Drivers/STM32H7xx_HAL_Driver/Src/stm32h7xx_hal_flash_ex.c **** }
 964:Drivers/STM32H7xx_HAL_Driver/Src/stm32h7xx_hal_flash_ex.c **** 
 965:Drivers/STM32H7xx_HAL_Driver/Src/stm32h7xx_hal_flash_ex.c **** #if defined (DUAL_BANK)
 966:Drivers/STM32H7xx_HAL_Driver/Src/stm32h7xx_hal_flash_ex.c **** /**
 967:Drivers/STM32H7xx_HAL_Driver/Src/stm32h7xx_hal_flash_ex.c ****   * @brief  Enable ECC Detection interrupt on FLASH BANK2.
 968:Drivers/STM32H7xx_HAL_Driver/Src/stm32h7xx_hal_flash_ex.c ****   * @param  None
 969:Drivers/STM32H7xx_HAL_Driver/Src/stm32h7xx_hal_flash_ex.c ****   * @retval None
 970:Drivers/STM32H7xx_HAL_Driver/Src/stm32h7xx_hal_flash_ex.c ****   */
 971:Drivers/STM32H7xx_HAL_Driver/Src/stm32h7xx_hal_flash_ex.c **** void HAL_FLASHEx_EnableEccDetectionInterrupt_Bank2(void)
 972:Drivers/STM32H7xx_HAL_Driver/Src/stm32h7xx_hal_flash_ex.c **** {
 973:Drivers/STM32H7xx_HAL_Driver/Src/stm32h7xx_hal_flash_ex.c ****   __HAL_FLASH_ENABLE_IT(FLASH_IT_DBECCERR_BANK2);
 974:Drivers/STM32H7xx_HAL_Driver/Src/stm32h7xx_hal_flash_ex.c **** }
 975:Drivers/STM32H7xx_HAL_Driver/Src/stm32h7xx_hal_flash_ex.c **** 
 976:Drivers/STM32H7xx_HAL_Driver/Src/stm32h7xx_hal_flash_ex.c **** /**
 977:Drivers/STM32H7xx_HAL_Driver/Src/stm32h7xx_hal_flash_ex.c ****   * @brief  Disable ECC Detection interrupt on FLASH BANK2.
 978:Drivers/STM32H7xx_HAL_Driver/Src/stm32h7xx_hal_flash_ex.c ****   * @param  None
 979:Drivers/STM32H7xx_HAL_Driver/Src/stm32h7xx_hal_flash_ex.c ****   * @retval None
 980:Drivers/STM32H7xx_HAL_Driver/Src/stm32h7xx_hal_flash_ex.c ****   */
 981:Drivers/STM32H7xx_HAL_Driver/Src/stm32h7xx_hal_flash_ex.c **** void HAL_FLASHEx_DisableEccDetectionInterrupt_Bank2(void)
 982:Drivers/STM32H7xx_HAL_Driver/Src/stm32h7xx_hal_flash_ex.c **** {
 983:Drivers/STM32H7xx_HAL_Driver/Src/stm32h7xx_hal_flash_ex.c ****   __HAL_FLASH_DISABLE_IT(FLASH_IT_DBECCERR_BANK2);
 984:Drivers/STM32H7xx_HAL_Driver/Src/stm32h7xx_hal_flash_ex.c **** }
 985:Drivers/STM32H7xx_HAL_Driver/Src/stm32h7xx_hal_flash_ex.c **** #endif /* DUAL_BANK */
 986:Drivers/STM32H7xx_HAL_Driver/Src/stm32h7xx_hal_flash_ex.c **** 
 987:Drivers/STM32H7xx_HAL_Driver/Src/stm32h7xx_hal_flash_ex.c **** /**
 988:Drivers/STM32H7xx_HAL_Driver/Src/stm32h7xx_hal_flash_ex.c ****   * @brief  Get the ECC error information.
 989:Drivers/STM32H7xx_HAL_Driver/Src/stm32h7xx_hal_flash_ex.c ****   * @param  pData Pointer to an FLASH_EccInfoTypeDef structure that contains the
 990:Drivers/STM32H7xx_HAL_Driver/Src/stm32h7xx_hal_flash_ex.c ****   *         ECC error information.
 991:Drivers/STM32H7xx_HAL_Driver/Src/stm32h7xx_hal_flash_ex.c ****   * @note   This function should be called before ECC bit is cleared
 992:Drivers/STM32H7xx_HAL_Driver/Src/stm32h7xx_hal_flash_ex.c ****   *         (in callback function)
ARM GAS  /var/folders/g1/j12m_ky910s3_sv7d4yrsdn00000gn/T//ccpiSNf7.s 			page 44


 993:Drivers/STM32H7xx_HAL_Driver/Src/stm32h7xx_hal_flash_ex.c ****   * @retval None
 994:Drivers/STM32H7xx_HAL_Driver/Src/stm32h7xx_hal_flash_ex.c ****   */
 995:Drivers/STM32H7xx_HAL_Driver/Src/stm32h7xx_hal_flash_ex.c **** void HAL_FLASHEx_GetEccInfo(FLASH_EccInfoTypeDef *pData)
 996:Drivers/STM32H7xx_HAL_Driver/Src/stm32h7xx_hal_flash_ex.c **** {
 997:Drivers/STM32H7xx_HAL_Driver/Src/stm32h7xx_hal_flash_ex.c ****   uint32_t errorflag;
 998:Drivers/STM32H7xx_HAL_Driver/Src/stm32h7xx_hal_flash_ex.c **** 
 999:Drivers/STM32H7xx_HAL_Driver/Src/stm32h7xx_hal_flash_ex.c ****   /* Check FLASH Bank1 ECC single correction and double detection error flags */
1000:Drivers/STM32H7xx_HAL_Driver/Src/stm32h7xx_hal_flash_ex.c ****   errorflag = FLASH->SR1 & (FLASH_FLAG_SNECCERR_BANK1 | FLASH_FLAG_DBECCERR_BANK1);
1001:Drivers/STM32H7xx_HAL_Driver/Src/stm32h7xx_hal_flash_ex.c ****   if(errorflag != 0U)
1002:Drivers/STM32H7xx_HAL_Driver/Src/stm32h7xx_hal_flash_ex.c ****   {
1003:Drivers/STM32H7xx_HAL_Driver/Src/stm32h7xx_hal_flash_ex.c ****     pData->Area = FLASH_ECC_AREA_USER_BANK1;
1004:Drivers/STM32H7xx_HAL_Driver/Src/stm32h7xx_hal_flash_ex.c ****     pData->Address = ((((FLASH->ECC_FA1 & FLASH_ECC_FA_FAIL_ECC_ADDR))* FLASH_NB_32BITWORD_IN_FLASH
1005:Drivers/STM32H7xx_HAL_Driver/Src/stm32h7xx_hal_flash_ex.c ****   }
1006:Drivers/STM32H7xx_HAL_Driver/Src/stm32h7xx_hal_flash_ex.c **** #if defined (DUAL_BANK)
1007:Drivers/STM32H7xx_HAL_Driver/Src/stm32h7xx_hal_flash_ex.c ****   /* Check FLASH Bank2 ECC single correction and double detection error flags */
1008:Drivers/STM32H7xx_HAL_Driver/Src/stm32h7xx_hal_flash_ex.c ****   errorflag = FLASH->SR2 & (FLASH_FLAG_SNECCERR_BANK2 | FLASH_FLAG_DBECCERR_BANK2);
1009:Drivers/STM32H7xx_HAL_Driver/Src/stm32h7xx_hal_flash_ex.c ****   if(errorflag != 0U)
1010:Drivers/STM32H7xx_HAL_Driver/Src/stm32h7xx_hal_flash_ex.c ****   {
1011:Drivers/STM32H7xx_HAL_Driver/Src/stm32h7xx_hal_flash_ex.c ****     pData->Area = FLASH_ECC_AREA_USER_BANK2;
1012:Drivers/STM32H7xx_HAL_Driver/Src/stm32h7xx_hal_flash_ex.c ****     pData->Address = ((((FLASH->ECC_FA2 & FLASH_ECC_FA_FAIL_ECC_ADDR))* FLASH_NB_32BITWORD_IN_FLASH
1013:Drivers/STM32H7xx_HAL_Driver/Src/stm32h7xx_hal_flash_ex.c ****   }
1014:Drivers/STM32H7xx_HAL_Driver/Src/stm32h7xx_hal_flash_ex.c **** #endif /* DUAL_BANK */
1015:Drivers/STM32H7xx_HAL_Driver/Src/stm32h7xx_hal_flash_ex.c **** }
1016:Drivers/STM32H7xx_HAL_Driver/Src/stm32h7xx_hal_flash_ex.c **** 
1017:Drivers/STM32H7xx_HAL_Driver/Src/stm32h7xx_hal_flash_ex.c **** /**
1018:Drivers/STM32H7xx_HAL_Driver/Src/stm32h7xx_hal_flash_ex.c ****   * @brief Handle Flash ECC Detection interrupt request.
1019:Drivers/STM32H7xx_HAL_Driver/Src/stm32h7xx_hal_flash_ex.c ****   * @retval None
1020:Drivers/STM32H7xx_HAL_Driver/Src/stm32h7xx_hal_flash_ex.c ****   */
1021:Drivers/STM32H7xx_HAL_Driver/Src/stm32h7xx_hal_flash_ex.c **** void HAL_FLASHEx_BusFault_IRQHandler(void)
1022:Drivers/STM32H7xx_HAL_Driver/Src/stm32h7xx_hal_flash_ex.c **** {
1023:Drivers/STM32H7xx_HAL_Driver/Src/stm32h7xx_hal_flash_ex.c ****   /* Check if the ECC double error occurred*/
1024:Drivers/STM32H7xx_HAL_Driver/Src/stm32h7xx_hal_flash_ex.c ****   if ((FLASH->SR1 & FLASH_FLAG_DBECCERR_BANK1)  != 0)
1025:Drivers/STM32H7xx_HAL_Driver/Src/stm32h7xx_hal_flash_ex.c ****   {
1026:Drivers/STM32H7xx_HAL_Driver/Src/stm32h7xx_hal_flash_ex.c ****     /* FLASH ECC detection user callback */
1027:Drivers/STM32H7xx_HAL_Driver/Src/stm32h7xx_hal_flash_ex.c ****     HAL_FLASHEx_EccDetectionCallback();
1028:Drivers/STM32H7xx_HAL_Driver/Src/stm32h7xx_hal_flash_ex.c **** 
1029:Drivers/STM32H7xx_HAL_Driver/Src/stm32h7xx_hal_flash_ex.c ****     /* Clear Bank 1 ECC double detection error flag
1030:Drivers/STM32H7xx_HAL_Driver/Src/stm32h7xx_hal_flash_ex.c ****     note : this step will clear all the information related to the flash ECC detection
1031:Drivers/STM32H7xx_HAL_Driver/Src/stm32h7xx_hal_flash_ex.c ****     */
1032:Drivers/STM32H7xx_HAL_Driver/Src/stm32h7xx_hal_flash_ex.c ****     __HAL_FLASH_CLEAR_FLAG_BANK1(FLASH_FLAG_DBECCERR_BANK1);
1033:Drivers/STM32H7xx_HAL_Driver/Src/stm32h7xx_hal_flash_ex.c ****   }
1034:Drivers/STM32H7xx_HAL_Driver/Src/stm32h7xx_hal_flash_ex.c **** #if defined (DUAL_BANK)
1035:Drivers/STM32H7xx_HAL_Driver/Src/stm32h7xx_hal_flash_ex.c ****   /* Check if the ECC double error occurred*/
1036:Drivers/STM32H7xx_HAL_Driver/Src/stm32h7xx_hal_flash_ex.c ****   if ((FLASH->SR2 & FLASH_FLAG_DBECCERR_BANK2)  != 0)
1037:Drivers/STM32H7xx_HAL_Driver/Src/stm32h7xx_hal_flash_ex.c ****   {
1038:Drivers/STM32H7xx_HAL_Driver/Src/stm32h7xx_hal_flash_ex.c ****     /* FLASH ECC detection user callback */
1039:Drivers/STM32H7xx_HAL_Driver/Src/stm32h7xx_hal_flash_ex.c ****     HAL_FLASHEx_EccDetectionCallback();
1040:Drivers/STM32H7xx_HAL_Driver/Src/stm32h7xx_hal_flash_ex.c **** 
1041:Drivers/STM32H7xx_HAL_Driver/Src/stm32h7xx_hal_flash_ex.c ****     /* Clear Bank 2 ECC double detection error flag
1042:Drivers/STM32H7xx_HAL_Driver/Src/stm32h7xx_hal_flash_ex.c ****     note : this step will clear all the information related to the flash ECC detection
1043:Drivers/STM32H7xx_HAL_Driver/Src/stm32h7xx_hal_flash_ex.c ****     */
1044:Drivers/STM32H7xx_HAL_Driver/Src/stm32h7xx_hal_flash_ex.c ****     __HAL_FLASH_CLEAR_FLAG_BANK2(FLASH_FLAG_DBECCERR_BANK2);
1045:Drivers/STM32H7xx_HAL_Driver/Src/stm32h7xx_hal_flash_ex.c ****   }
1046:Drivers/STM32H7xx_HAL_Driver/Src/stm32h7xx_hal_flash_ex.c **** #endif /* DUAL_BANK */
1047:Drivers/STM32H7xx_HAL_Driver/Src/stm32h7xx_hal_flash_ex.c **** }
1048:Drivers/STM32H7xx_HAL_Driver/Src/stm32h7xx_hal_flash_ex.c **** 
1049:Drivers/STM32H7xx_HAL_Driver/Src/stm32h7xx_hal_flash_ex.c **** /**
ARM GAS  /var/folders/g1/j12m_ky910s3_sv7d4yrsdn00000gn/T//ccpiSNf7.s 			page 45


1050:Drivers/STM32H7xx_HAL_Driver/Src/stm32h7xx_hal_flash_ex.c ****   * @brief  FLASH ECC Correction interrupt callback.
1051:Drivers/STM32H7xx_HAL_Driver/Src/stm32h7xx_hal_flash_ex.c ****   * @retval None
1052:Drivers/STM32H7xx_HAL_Driver/Src/stm32h7xx_hal_flash_ex.c ****   */
1053:Drivers/STM32H7xx_HAL_Driver/Src/stm32h7xx_hal_flash_ex.c **** __weak void HAL_FLASHEx_EccCorrectionCallback(void)
1054:Drivers/STM32H7xx_HAL_Driver/Src/stm32h7xx_hal_flash_ex.c **** {
1055:Drivers/STM32H7xx_HAL_Driver/Src/stm32h7xx_hal_flash_ex.c ****   /* NOTE : This function should not be modified, when the callback is needed,
1056:Drivers/STM32H7xx_HAL_Driver/Src/stm32h7xx_hal_flash_ex.c ****             the HAL_FLASHEx_EccCorrectionCallback could be implemented in the user file
1057:Drivers/STM32H7xx_HAL_Driver/Src/stm32h7xx_hal_flash_ex.c ****    */
1058:Drivers/STM32H7xx_HAL_Driver/Src/stm32h7xx_hal_flash_ex.c **** }
1059:Drivers/STM32H7xx_HAL_Driver/Src/stm32h7xx_hal_flash_ex.c **** 
1060:Drivers/STM32H7xx_HAL_Driver/Src/stm32h7xx_hal_flash_ex.c **** /**
1061:Drivers/STM32H7xx_HAL_Driver/Src/stm32h7xx_hal_flash_ex.c ****   * @brief  FLASH ECC Detection interrupt callback.
1062:Drivers/STM32H7xx_HAL_Driver/Src/stm32h7xx_hal_flash_ex.c ****   * @retval None
1063:Drivers/STM32H7xx_HAL_Driver/Src/stm32h7xx_hal_flash_ex.c ****   */
1064:Drivers/STM32H7xx_HAL_Driver/Src/stm32h7xx_hal_flash_ex.c **** __weak void HAL_FLASHEx_EccDetectionCallback(void)
1065:Drivers/STM32H7xx_HAL_Driver/Src/stm32h7xx_hal_flash_ex.c **** {
1066:Drivers/STM32H7xx_HAL_Driver/Src/stm32h7xx_hal_flash_ex.c ****   /* NOTE : This function should not be modified, when the callback is needed,
1067:Drivers/STM32H7xx_HAL_Driver/Src/stm32h7xx_hal_flash_ex.c ****             the HAL_FLASHEx_EccDetectionCallback could be implemented in the user file
1068:Drivers/STM32H7xx_HAL_Driver/Src/stm32h7xx_hal_flash_ex.c ****    */
1069:Drivers/STM32H7xx_HAL_Driver/Src/stm32h7xx_hal_flash_ex.c **** }
1070:Drivers/STM32H7xx_HAL_Driver/Src/stm32h7xx_hal_flash_ex.c **** 
1071:Drivers/STM32H7xx_HAL_Driver/Src/stm32h7xx_hal_flash_ex.c **** /**
1072:Drivers/STM32H7xx_HAL_Driver/Src/stm32h7xx_hal_flash_ex.c ****   * @}
1073:Drivers/STM32H7xx_HAL_Driver/Src/stm32h7xx_hal_flash_ex.c ****   */
1074:Drivers/STM32H7xx_HAL_Driver/Src/stm32h7xx_hal_flash_ex.c **** #endif /* USE_FLASH_ECC */
1075:Drivers/STM32H7xx_HAL_Driver/Src/stm32h7xx_hal_flash_ex.c **** 
1076:Drivers/STM32H7xx_HAL_Driver/Src/stm32h7xx_hal_flash_ex.c **** /**
1077:Drivers/STM32H7xx_HAL_Driver/Src/stm32h7xx_hal_flash_ex.c ****   * @}
1078:Drivers/STM32H7xx_HAL_Driver/Src/stm32h7xx_hal_flash_ex.c ****   */
1079:Drivers/STM32H7xx_HAL_Driver/Src/stm32h7xx_hal_flash_ex.c **** 
1080:Drivers/STM32H7xx_HAL_Driver/Src/stm32h7xx_hal_flash_ex.c **** /* Private functions ---------------------------------------------------------*/
1081:Drivers/STM32H7xx_HAL_Driver/Src/stm32h7xx_hal_flash_ex.c **** 
1082:Drivers/STM32H7xx_HAL_Driver/Src/stm32h7xx_hal_flash_ex.c **** /** @addtogroup FLASHEx_Private_Functions
1083:Drivers/STM32H7xx_HAL_Driver/Src/stm32h7xx_hal_flash_ex.c ****   * @{
1084:Drivers/STM32H7xx_HAL_Driver/Src/stm32h7xx_hal_flash_ex.c ****   */
1085:Drivers/STM32H7xx_HAL_Driver/Src/stm32h7xx_hal_flash_ex.c **** 
1086:Drivers/STM32H7xx_HAL_Driver/Src/stm32h7xx_hal_flash_ex.c **** /**
1087:Drivers/STM32H7xx_HAL_Driver/Src/stm32h7xx_hal_flash_ex.c ****   * @brief  Mass erase of FLASH memory
1088:Drivers/STM32H7xx_HAL_Driver/Src/stm32h7xx_hal_flash_ex.c ****   * @param  VoltageRange The device program/erase parallelism.
1089:Drivers/STM32H7xx_HAL_Driver/Src/stm32h7xx_hal_flash_ex.c ****   *          This parameter can be one of the following values:
1090:Drivers/STM32H7xx_HAL_Driver/Src/stm32h7xx_hal_flash_ex.c ****   *            @arg FLASH_VOLTAGE_RANGE_1 : Flash program/erase by 8 bits
1091:Drivers/STM32H7xx_HAL_Driver/Src/stm32h7xx_hal_flash_ex.c ****   *            @arg FLASH_VOLTAGE_RANGE_2 : Flash program/erase by 16 bits
1092:Drivers/STM32H7xx_HAL_Driver/Src/stm32h7xx_hal_flash_ex.c ****   *            @arg FLASH_VOLTAGE_RANGE_3 : Flash program/erase by 32 bits
1093:Drivers/STM32H7xx_HAL_Driver/Src/stm32h7xx_hal_flash_ex.c ****   *            @arg FLASH_VOLTAGE_RANGE_4 : Flash program/erase by 64 bits
1094:Drivers/STM32H7xx_HAL_Driver/Src/stm32h7xx_hal_flash_ex.c ****   *
1095:Drivers/STM32H7xx_HAL_Driver/Src/stm32h7xx_hal_flash_ex.c ****   * @param  Banks Banks to be erased
1096:Drivers/STM32H7xx_HAL_Driver/Src/stm32h7xx_hal_flash_ex.c ****   *          This parameter can be one of the following values:
1097:Drivers/STM32H7xx_HAL_Driver/Src/stm32h7xx_hal_flash_ex.c ****   *            @arg FLASH_BANK_1: Bank1 to be erased
1098:Drivers/STM32H7xx_HAL_Driver/Src/stm32h7xx_hal_flash_ex.c ****   *            @arg FLASH_BANK_2: Bank2 to be erased
1099:Drivers/STM32H7xx_HAL_Driver/Src/stm32h7xx_hal_flash_ex.c ****   *            @arg FLASH_BANK_BOTH: Bank1 and Bank2 to be erased
1100:Drivers/STM32H7xx_HAL_Driver/Src/stm32h7xx_hal_flash_ex.c ****   *
1101:Drivers/STM32H7xx_HAL_Driver/Src/stm32h7xx_hal_flash_ex.c ****   * @retval HAL Status
1102:Drivers/STM32H7xx_HAL_Driver/Src/stm32h7xx_hal_flash_ex.c ****   */
1103:Drivers/STM32H7xx_HAL_Driver/Src/stm32h7xx_hal_flash_ex.c **** static void FLASH_MassErase(uint32_t VoltageRange, uint32_t Banks)
1104:Drivers/STM32H7xx_HAL_Driver/Src/stm32h7xx_hal_flash_ex.c **** {
 1464              		.loc 1 1104 1
 1465              		.cfi_startproc
ARM GAS  /var/folders/g1/j12m_ky910s3_sv7d4yrsdn00000gn/T//ccpiSNf7.s 			page 46


 1466              		@ args = 0, pretend = 0, frame = 8
 1467              		@ frame_needed = 1, uses_anonymous_args = 0
 1468              		@ link register save eliminated.
 1469 0000 80B4     		push	{r7}
 1470              	.LCFI41:
 1471              		.cfi_def_cfa_offset 4
 1472              		.cfi_offset 7, -4
 1473 0002 83B0     		sub	sp, sp, #12
 1474              	.LCFI42:
 1475              		.cfi_def_cfa_offset 16
 1476 0004 00AF     		add	r7, sp, #0
 1477              	.LCFI43:
 1478              		.cfi_def_cfa_register 7
 1479 0006 7860     		str	r0, [r7, #4]
 1480 0008 3960     		str	r1, [r7]
1105:Drivers/STM32H7xx_HAL_Driver/Src/stm32h7xx_hal_flash_ex.c ****   /* Check the parameters */
1106:Drivers/STM32H7xx_HAL_Driver/Src/stm32h7xx_hal_flash_ex.c **** #if defined (FLASH_CR_PSIZE)
1107:Drivers/STM32H7xx_HAL_Driver/Src/stm32h7xx_hal_flash_ex.c ****   assert_param(IS_VOLTAGERANGE(VoltageRange));
1108:Drivers/STM32H7xx_HAL_Driver/Src/stm32h7xx_hal_flash_ex.c **** #else
1109:Drivers/STM32H7xx_HAL_Driver/Src/stm32h7xx_hal_flash_ex.c ****   UNUSED(VoltageRange);
1110:Drivers/STM32H7xx_HAL_Driver/Src/stm32h7xx_hal_flash_ex.c **** #endif /* FLASH_CR_PSIZE */
1111:Drivers/STM32H7xx_HAL_Driver/Src/stm32h7xx_hal_flash_ex.c ****   assert_param(IS_FLASH_BANK(Banks));
1112:Drivers/STM32H7xx_HAL_Driver/Src/stm32h7xx_hal_flash_ex.c **** 
1113:Drivers/STM32H7xx_HAL_Driver/Src/stm32h7xx_hal_flash_ex.c **** #if defined (DUAL_BANK)
1114:Drivers/STM32H7xx_HAL_Driver/Src/stm32h7xx_hal_flash_ex.c ****   /* Flash Mass Erase */
1115:Drivers/STM32H7xx_HAL_Driver/Src/stm32h7xx_hal_flash_ex.c ****   if((Banks & FLASH_BANK_BOTH) == FLASH_BANK_BOTH)
 1481              		.loc 1 1115 13
 1482 000a 3B68     		ldr	r3, [r7]
 1483 000c 03F00303 		and	r3, r3, #3
 1484              		.loc 1 1115 5
 1485 0010 032B     		cmp	r3, #3
 1486 0012 22D1     		bne	.L89
1116:Drivers/STM32H7xx_HAL_Driver/Src/stm32h7xx_hal_flash_ex.c ****   {
1117:Drivers/STM32H7xx_HAL_Driver/Src/stm32h7xx_hal_flash_ex.c **** #if defined (FLASH_CR_PSIZE)
1118:Drivers/STM32H7xx_HAL_Driver/Src/stm32h7xx_hal_flash_ex.c ****     /* Reset Program/erase VoltageRange for Bank1 and Bank2 */
1119:Drivers/STM32H7xx_HAL_Driver/Src/stm32h7xx_hal_flash_ex.c ****     FLASH->CR1 &= (~FLASH_CR_PSIZE);
 1487              		.loc 1 1119 10
 1488 0014 2E4B     		ldr	r3, .L93
 1489 0016 DB68     		ldr	r3, [r3, #12]
 1490 0018 2D4A     		ldr	r2, .L93
 1491              		.loc 1 1119 16
 1492 001a 23F03003 		bic	r3, r3, #48
 1493 001e D360     		str	r3, [r2, #12]
1120:Drivers/STM32H7xx_HAL_Driver/Src/stm32h7xx_hal_flash_ex.c ****     FLASH->CR2 &= (~FLASH_CR_PSIZE);
 1494              		.loc 1 1120 10
 1495 0020 2B4B     		ldr	r3, .L93
 1496 0022 D3F80C31 		ldr	r3, [r3, #268]
 1497 0026 2A4A     		ldr	r2, .L93
 1498              		.loc 1 1120 16
 1499 0028 23F03003 		bic	r3, r3, #48
 1500 002c C2F80C31 		str	r3, [r2, #268]
1121:Drivers/STM32H7xx_HAL_Driver/Src/stm32h7xx_hal_flash_ex.c **** 
1122:Drivers/STM32H7xx_HAL_Driver/Src/stm32h7xx_hal_flash_ex.c ****     /* Set voltage range */
1123:Drivers/STM32H7xx_HAL_Driver/Src/stm32h7xx_hal_flash_ex.c ****     FLASH->CR1 |= VoltageRange;
 1501              		.loc 1 1123 10
 1502 0030 274B     		ldr	r3, .L93
 1503 0032 DA68     		ldr	r2, [r3, #12]
ARM GAS  /var/folders/g1/j12m_ky910s3_sv7d4yrsdn00000gn/T//ccpiSNf7.s 			page 47


 1504 0034 2649     		ldr	r1, .L93
 1505              		.loc 1 1123 16
 1506 0036 7B68     		ldr	r3, [r7, #4]
 1507 0038 1343     		orrs	r3, r3, r2
 1508 003a CB60     		str	r3, [r1, #12]
1124:Drivers/STM32H7xx_HAL_Driver/Src/stm32h7xx_hal_flash_ex.c ****     FLASH->CR2 |= VoltageRange;
 1509              		.loc 1 1124 10
 1510 003c 244B     		ldr	r3, .L93
 1511 003e D3F80C21 		ldr	r2, [r3, #268]
 1512 0042 2349     		ldr	r1, .L93
 1513              		.loc 1 1124 16
 1514 0044 7B68     		ldr	r3, [r7, #4]
 1515 0046 1343     		orrs	r3, r3, r2
 1516 0048 C1F80C31 		str	r3, [r1, #268]
1125:Drivers/STM32H7xx_HAL_Driver/Src/stm32h7xx_hal_flash_ex.c **** #endif /* FLASH_CR_PSIZE */
1126:Drivers/STM32H7xx_HAL_Driver/Src/stm32h7xx_hal_flash_ex.c **** 
1127:Drivers/STM32H7xx_HAL_Driver/Src/stm32h7xx_hal_flash_ex.c ****     /* Set Mass Erase Bit */
1128:Drivers/STM32H7xx_HAL_Driver/Src/stm32h7xx_hal_flash_ex.c ****     FLASH->OPTCR |= FLASH_OPTCR_MER;
 1517              		.loc 1 1128 10
 1518 004c 204B     		ldr	r3, .L93
 1519 004e 9B69     		ldr	r3, [r3, #24]
 1520 0050 1F4A     		ldr	r2, .L93
 1521              		.loc 1 1128 18
 1522 0052 43F01003 		orr	r3, r3, #16
 1523 0056 9361     		str	r3, [r2, #24]
1129:Drivers/STM32H7xx_HAL_Driver/Src/stm32h7xx_hal_flash_ex.c ****   }
1130:Drivers/STM32H7xx_HAL_Driver/Src/stm32h7xx_hal_flash_ex.c ****   else
1131:Drivers/STM32H7xx_HAL_Driver/Src/stm32h7xx_hal_flash_ex.c **** #endif /* DUAL_BANK */
1132:Drivers/STM32H7xx_HAL_Driver/Src/stm32h7xx_hal_flash_ex.c ****   {
1133:Drivers/STM32H7xx_HAL_Driver/Src/stm32h7xx_hal_flash_ex.c ****     /* Proceed to erase Flash Bank  */
1134:Drivers/STM32H7xx_HAL_Driver/Src/stm32h7xx_hal_flash_ex.c ****     if((Banks & FLASH_BANK_1) == FLASH_BANK_1)
1135:Drivers/STM32H7xx_HAL_Driver/Src/stm32h7xx_hal_flash_ex.c ****     {
1136:Drivers/STM32H7xx_HAL_Driver/Src/stm32h7xx_hal_flash_ex.c **** #if defined (FLASH_CR_PSIZE)
1137:Drivers/STM32H7xx_HAL_Driver/Src/stm32h7xx_hal_flash_ex.c ****       /* Set Program/erase VoltageRange for Bank1 */
1138:Drivers/STM32H7xx_HAL_Driver/Src/stm32h7xx_hal_flash_ex.c ****       FLASH->CR1 &= (~FLASH_CR_PSIZE);
1139:Drivers/STM32H7xx_HAL_Driver/Src/stm32h7xx_hal_flash_ex.c ****       FLASH->CR1 |=  VoltageRange;
1140:Drivers/STM32H7xx_HAL_Driver/Src/stm32h7xx_hal_flash_ex.c **** #endif /* FLASH_CR_PSIZE */
1141:Drivers/STM32H7xx_HAL_Driver/Src/stm32h7xx_hal_flash_ex.c **** 
1142:Drivers/STM32H7xx_HAL_Driver/Src/stm32h7xx_hal_flash_ex.c ****       /* Erase Bank1 */
1143:Drivers/STM32H7xx_HAL_Driver/Src/stm32h7xx_hal_flash_ex.c ****       FLASH->CR1 |= (FLASH_CR_BER | FLASH_CR_START);
1144:Drivers/STM32H7xx_HAL_Driver/Src/stm32h7xx_hal_flash_ex.c ****     }
1145:Drivers/STM32H7xx_HAL_Driver/Src/stm32h7xx_hal_flash_ex.c **** 
1146:Drivers/STM32H7xx_HAL_Driver/Src/stm32h7xx_hal_flash_ex.c **** #if defined (DUAL_BANK)
1147:Drivers/STM32H7xx_HAL_Driver/Src/stm32h7xx_hal_flash_ex.c ****     if((Banks & FLASH_BANK_2) == FLASH_BANK_2)
1148:Drivers/STM32H7xx_HAL_Driver/Src/stm32h7xx_hal_flash_ex.c ****     {
1149:Drivers/STM32H7xx_HAL_Driver/Src/stm32h7xx_hal_flash_ex.c **** #if defined (FLASH_CR_PSIZE)
1150:Drivers/STM32H7xx_HAL_Driver/Src/stm32h7xx_hal_flash_ex.c ****       /* Set Program/erase VoltageRange for Bank2 */
1151:Drivers/STM32H7xx_HAL_Driver/Src/stm32h7xx_hal_flash_ex.c ****       FLASH->CR2 &= (~FLASH_CR_PSIZE);
1152:Drivers/STM32H7xx_HAL_Driver/Src/stm32h7xx_hal_flash_ex.c ****       FLASH->CR2 |= VoltageRange;
1153:Drivers/STM32H7xx_HAL_Driver/Src/stm32h7xx_hal_flash_ex.c **** #endif /* FLASH_CR_PSIZE */
1154:Drivers/STM32H7xx_HAL_Driver/Src/stm32h7xx_hal_flash_ex.c **** 
1155:Drivers/STM32H7xx_HAL_Driver/Src/stm32h7xx_hal_flash_ex.c ****       /* Erase Bank2 */
1156:Drivers/STM32H7xx_HAL_Driver/Src/stm32h7xx_hal_flash_ex.c ****       FLASH->CR2 |= (FLASH_CR_BER | FLASH_CR_START);
1157:Drivers/STM32H7xx_HAL_Driver/Src/stm32h7xx_hal_flash_ex.c ****     }
1158:Drivers/STM32H7xx_HAL_Driver/Src/stm32h7xx_hal_flash_ex.c **** #endif /* DUAL_BANK */
1159:Drivers/STM32H7xx_HAL_Driver/Src/stm32h7xx_hal_flash_ex.c ****   }
1160:Drivers/STM32H7xx_HAL_Driver/Src/stm32h7xx_hal_flash_ex.c **** }
ARM GAS  /var/folders/g1/j12m_ky910s3_sv7d4yrsdn00000gn/T//ccpiSNf7.s 			page 48


 1524              		.loc 1 1160 1
 1525 0058 33E0     		b	.L92
 1526              	.L89:
1134:Drivers/STM32H7xx_HAL_Driver/Src/stm32h7xx_hal_flash_ex.c ****     {
 1527              		.loc 1 1134 15
 1528 005a 3B68     		ldr	r3, [r7]
 1529 005c 03F00103 		and	r3, r3, #1
1134:Drivers/STM32H7xx_HAL_Driver/Src/stm32h7xx_hal_flash_ex.c ****     {
 1530              		.loc 1 1134 7
 1531 0060 002B     		cmp	r3, #0
 1532 0062 11D0     		beq	.L91
1138:Drivers/STM32H7xx_HAL_Driver/Src/stm32h7xx_hal_flash_ex.c ****       FLASH->CR1 |=  VoltageRange;
 1533              		.loc 1 1138 12
 1534 0064 1A4B     		ldr	r3, .L93
 1535 0066 DB68     		ldr	r3, [r3, #12]
 1536 0068 194A     		ldr	r2, .L93
1138:Drivers/STM32H7xx_HAL_Driver/Src/stm32h7xx_hal_flash_ex.c ****       FLASH->CR1 |=  VoltageRange;
 1537              		.loc 1 1138 18
 1538 006a 23F03003 		bic	r3, r3, #48
 1539 006e D360     		str	r3, [r2, #12]
1139:Drivers/STM32H7xx_HAL_Driver/Src/stm32h7xx_hal_flash_ex.c **** #endif /* FLASH_CR_PSIZE */
 1540              		.loc 1 1139 12
 1541 0070 174B     		ldr	r3, .L93
 1542 0072 DA68     		ldr	r2, [r3, #12]
 1543 0074 1649     		ldr	r1, .L93
1139:Drivers/STM32H7xx_HAL_Driver/Src/stm32h7xx_hal_flash_ex.c **** #endif /* FLASH_CR_PSIZE */
 1544              		.loc 1 1139 18
 1545 0076 7B68     		ldr	r3, [r7, #4]
 1546 0078 1343     		orrs	r3, r3, r2
 1547 007a CB60     		str	r3, [r1, #12]
1143:Drivers/STM32H7xx_HAL_Driver/Src/stm32h7xx_hal_flash_ex.c ****     }
 1548              		.loc 1 1143 12
 1549 007c 144B     		ldr	r3, .L93
 1550 007e DB68     		ldr	r3, [r3, #12]
 1551 0080 134A     		ldr	r2, .L93
1143:Drivers/STM32H7xx_HAL_Driver/Src/stm32h7xx_hal_flash_ex.c ****     }
 1552              		.loc 1 1143 18
 1553 0082 43F08803 		orr	r3, r3, #136
 1554 0086 D360     		str	r3, [r2, #12]
 1555              	.L91:
1147:Drivers/STM32H7xx_HAL_Driver/Src/stm32h7xx_hal_flash_ex.c ****     {
 1556              		.loc 1 1147 15
 1557 0088 3B68     		ldr	r3, [r7]
 1558 008a 03F00203 		and	r3, r3, #2
1147:Drivers/STM32H7xx_HAL_Driver/Src/stm32h7xx_hal_flash_ex.c ****     {
 1559              		.loc 1 1147 7
 1560 008e 002B     		cmp	r3, #0
 1561 0090 17D0     		beq	.L92
1151:Drivers/STM32H7xx_HAL_Driver/Src/stm32h7xx_hal_flash_ex.c ****       FLASH->CR2 |= VoltageRange;
 1562              		.loc 1 1151 12
 1563 0092 0F4B     		ldr	r3, .L93
 1564 0094 D3F80C31 		ldr	r3, [r3, #268]
 1565 0098 0D4A     		ldr	r2, .L93
1151:Drivers/STM32H7xx_HAL_Driver/Src/stm32h7xx_hal_flash_ex.c ****       FLASH->CR2 |= VoltageRange;
 1566              		.loc 1 1151 18
 1567 009a 23F03003 		bic	r3, r3, #48
 1568 009e C2F80C31 		str	r3, [r2, #268]
ARM GAS  /var/folders/g1/j12m_ky910s3_sv7d4yrsdn00000gn/T//ccpiSNf7.s 			page 49


1152:Drivers/STM32H7xx_HAL_Driver/Src/stm32h7xx_hal_flash_ex.c **** #endif /* FLASH_CR_PSIZE */
 1569              		.loc 1 1152 12
 1570 00a2 0B4B     		ldr	r3, .L93
 1571 00a4 D3F80C21 		ldr	r2, [r3, #268]
 1572 00a8 0949     		ldr	r1, .L93
1152:Drivers/STM32H7xx_HAL_Driver/Src/stm32h7xx_hal_flash_ex.c **** #endif /* FLASH_CR_PSIZE */
 1573              		.loc 1 1152 18
 1574 00aa 7B68     		ldr	r3, [r7, #4]
 1575 00ac 1343     		orrs	r3, r3, r2
 1576 00ae C1F80C31 		str	r3, [r1, #268]
1156:Drivers/STM32H7xx_HAL_Driver/Src/stm32h7xx_hal_flash_ex.c ****     }
 1577              		.loc 1 1156 12
 1578 00b2 074B     		ldr	r3, .L93
 1579 00b4 D3F80C31 		ldr	r3, [r3, #268]
 1580 00b8 054A     		ldr	r2, .L93
1156:Drivers/STM32H7xx_HAL_Driver/Src/stm32h7xx_hal_flash_ex.c ****     }
 1581              		.loc 1 1156 18
 1582 00ba 43F08803 		orr	r3, r3, #136
 1583 00be C2F80C31 		str	r3, [r2, #268]
 1584              	.L92:
 1585              		.loc 1 1160 1
 1586 00c2 00BF     		nop
 1587 00c4 0C37     		adds	r7, r7, #12
 1588              	.LCFI44:
 1589              		.cfi_def_cfa_offset 4
 1590 00c6 BD46     		mov	sp, r7
 1591              	.LCFI45:
 1592              		.cfi_def_cfa_register 13
 1593              		@ sp needed
 1594 00c8 5DF8047B 		ldr	r7, [sp], #4
 1595              	.LCFI46:
 1596              		.cfi_restore 7
 1597              		.cfi_def_cfa_offset 0
 1598 00cc 7047     		bx	lr
 1599              	.L94:
 1600 00ce 00BF     		.align	2
 1601              	.L93:
 1602 00d0 00200052 		.word	1375739904
 1603              		.cfi_endproc
 1604              	.LFE153:
 1606              		.section	.text.FLASH_Erase_Sector,"ax",%progbits
 1607              		.align	1
 1608              		.global	FLASH_Erase_Sector
 1609              		.syntax unified
 1610              		.thumb
 1611              		.thumb_func
 1613              	FLASH_Erase_Sector:
 1614              	.LFB154:
1161:Drivers/STM32H7xx_HAL_Driver/Src/stm32h7xx_hal_flash_ex.c **** 
1162:Drivers/STM32H7xx_HAL_Driver/Src/stm32h7xx_hal_flash_ex.c **** /**
1163:Drivers/STM32H7xx_HAL_Driver/Src/stm32h7xx_hal_flash_ex.c ****   * @brief  Erase the specified FLASH memory sector
1164:Drivers/STM32H7xx_HAL_Driver/Src/stm32h7xx_hal_flash_ex.c ****   * @param  Sector FLASH sector to erase
1165:Drivers/STM32H7xx_HAL_Driver/Src/stm32h7xx_hal_flash_ex.c ****   *          This parameter can be a value of @ref FLASH_Sectors
1166:Drivers/STM32H7xx_HAL_Driver/Src/stm32h7xx_hal_flash_ex.c ****   * @param  Banks Banks to be erased
1167:Drivers/STM32H7xx_HAL_Driver/Src/stm32h7xx_hal_flash_ex.c ****   *          This parameter can be one of the following values:
1168:Drivers/STM32H7xx_HAL_Driver/Src/stm32h7xx_hal_flash_ex.c ****   *            @arg FLASH_BANK_1: Bank1 to be erased
1169:Drivers/STM32H7xx_HAL_Driver/Src/stm32h7xx_hal_flash_ex.c ****   *            @arg FLASH_BANK_2: Bank2 to be erased
ARM GAS  /var/folders/g1/j12m_ky910s3_sv7d4yrsdn00000gn/T//ccpiSNf7.s 			page 50


1170:Drivers/STM32H7xx_HAL_Driver/Src/stm32h7xx_hal_flash_ex.c ****   *            @arg FLASH_BANK_BOTH: Bank1 and Bank2 to be erased
1171:Drivers/STM32H7xx_HAL_Driver/Src/stm32h7xx_hal_flash_ex.c ****   * @param  VoltageRange The device program/erase parallelism.
1172:Drivers/STM32H7xx_HAL_Driver/Src/stm32h7xx_hal_flash_ex.c ****   *          This parameter can be one of the following values:
1173:Drivers/STM32H7xx_HAL_Driver/Src/stm32h7xx_hal_flash_ex.c ****   *            @arg FLASH_VOLTAGE_RANGE_1 : Flash program/erase by 8 bits
1174:Drivers/STM32H7xx_HAL_Driver/Src/stm32h7xx_hal_flash_ex.c ****   *            @arg FLASH_VOLTAGE_RANGE_2 : Flash program/erase by 16 bits
1175:Drivers/STM32H7xx_HAL_Driver/Src/stm32h7xx_hal_flash_ex.c ****   *            @arg FLASH_VOLTAGE_RANGE_3 : Flash program/erase by 32 bits
1176:Drivers/STM32H7xx_HAL_Driver/Src/stm32h7xx_hal_flash_ex.c ****   *            @arg FLASH_VOLTAGE_RANGE_4 : Flash program/erase by 64 bits
1177:Drivers/STM32H7xx_HAL_Driver/Src/stm32h7xx_hal_flash_ex.c ****   *
1178:Drivers/STM32H7xx_HAL_Driver/Src/stm32h7xx_hal_flash_ex.c ****   * @retval None
1179:Drivers/STM32H7xx_HAL_Driver/Src/stm32h7xx_hal_flash_ex.c ****   */
1180:Drivers/STM32H7xx_HAL_Driver/Src/stm32h7xx_hal_flash_ex.c **** void FLASH_Erase_Sector(uint32_t Sector, uint32_t Banks, uint32_t VoltageRange)
1181:Drivers/STM32H7xx_HAL_Driver/Src/stm32h7xx_hal_flash_ex.c **** {
 1615              		.loc 1 1181 1
 1616              		.cfi_startproc
 1617              		@ args = 0, pretend = 0, frame = 16
 1618              		@ frame_needed = 1, uses_anonymous_args = 0
 1619              		@ link register save eliminated.
 1620 0000 80B4     		push	{r7}
 1621              	.LCFI47:
 1622              		.cfi_def_cfa_offset 4
 1623              		.cfi_offset 7, -4
 1624 0002 85B0     		sub	sp, sp, #20
 1625              	.LCFI48:
 1626              		.cfi_def_cfa_offset 24
 1627 0004 00AF     		add	r7, sp, #0
 1628              	.LCFI49:
 1629              		.cfi_def_cfa_register 7
 1630 0006 F860     		str	r0, [r7, #12]
 1631 0008 B960     		str	r1, [r7, #8]
 1632 000a 7A60     		str	r2, [r7, #4]
1182:Drivers/STM32H7xx_HAL_Driver/Src/stm32h7xx_hal_flash_ex.c ****   assert_param(IS_FLASH_SECTOR(Sector));
1183:Drivers/STM32H7xx_HAL_Driver/Src/stm32h7xx_hal_flash_ex.c ****   assert_param(IS_FLASH_BANK_EXCLUSIVE(Banks));
1184:Drivers/STM32H7xx_HAL_Driver/Src/stm32h7xx_hal_flash_ex.c **** #if defined (FLASH_CR_PSIZE)
1185:Drivers/STM32H7xx_HAL_Driver/Src/stm32h7xx_hal_flash_ex.c ****   assert_param(IS_VOLTAGERANGE(VoltageRange));
1186:Drivers/STM32H7xx_HAL_Driver/Src/stm32h7xx_hal_flash_ex.c **** #else
1187:Drivers/STM32H7xx_HAL_Driver/Src/stm32h7xx_hal_flash_ex.c ****   UNUSED(VoltageRange);
1188:Drivers/STM32H7xx_HAL_Driver/Src/stm32h7xx_hal_flash_ex.c **** #endif /* FLASH_CR_PSIZE */
1189:Drivers/STM32H7xx_HAL_Driver/Src/stm32h7xx_hal_flash_ex.c **** 
1190:Drivers/STM32H7xx_HAL_Driver/Src/stm32h7xx_hal_flash_ex.c ****   if((Banks & FLASH_BANK_1) == FLASH_BANK_1)
 1633              		.loc 1 1190 13
 1634 000c BB68     		ldr	r3, [r7, #8]
 1635 000e 03F00103 		and	r3, r3, #1
 1636              		.loc 1 1190 5
 1637 0012 002B     		cmp	r3, #0
 1638 0014 10D0     		beq	.L96
1191:Drivers/STM32H7xx_HAL_Driver/Src/stm32h7xx_hal_flash_ex.c ****   {
1192:Drivers/STM32H7xx_HAL_Driver/Src/stm32h7xx_hal_flash_ex.c **** #if defined (FLASH_CR_PSIZE)
1193:Drivers/STM32H7xx_HAL_Driver/Src/stm32h7xx_hal_flash_ex.c ****     /* Reset Program/erase VoltageRange and Sector Number for Bank1 */
1194:Drivers/STM32H7xx_HAL_Driver/Src/stm32h7xx_hal_flash_ex.c ****     FLASH->CR1 &= ~(FLASH_CR_PSIZE | FLASH_CR_SNB);
 1639              		.loc 1 1194 10
 1640 0016 184B     		ldr	r3, .L99
 1641 0018 DB68     		ldr	r3, [r3, #12]
 1642 001a 174A     		ldr	r2, .L99
 1643              		.loc 1 1194 16
 1644 001c 23F4E663 		bic	r3, r3, #1840
 1645 0020 D360     		str	r3, [r2, #12]
1195:Drivers/STM32H7xx_HAL_Driver/Src/stm32h7xx_hal_flash_ex.c **** 
ARM GAS  /var/folders/g1/j12m_ky910s3_sv7d4yrsdn00000gn/T//ccpiSNf7.s 			page 51


1196:Drivers/STM32H7xx_HAL_Driver/Src/stm32h7xx_hal_flash_ex.c ****     FLASH->CR1 |= (FLASH_CR_SER | VoltageRange | (Sector << FLASH_CR_SNB_Pos) | FLASH_CR_START);
 1646              		.loc 1 1196 10
 1647 0022 154B     		ldr	r3, .L99
 1648 0024 DA68     		ldr	r2, [r3, #12]
 1649              		.loc 1 1196 58
 1650 0026 FB68     		ldr	r3, [r7, #12]
 1651 0028 1902     		lsls	r1, r3, #8
 1652              		.loc 1 1196 48
 1653 002a 7B68     		ldr	r3, [r7, #4]
 1654 002c 0B43     		orrs	r3, r3, r1
 1655              		.loc 1 1196 16
 1656 002e 1343     		orrs	r3, r3, r2
 1657              		.loc 1 1196 10
 1658 0030 114A     		ldr	r2, .L99
 1659              		.loc 1 1196 16
 1660 0032 43F08403 		orr	r3, r3, #132
 1661 0036 D360     		str	r3, [r2, #12]
 1662              	.L96:
1197:Drivers/STM32H7xx_HAL_Driver/Src/stm32h7xx_hal_flash_ex.c **** #else
1198:Drivers/STM32H7xx_HAL_Driver/Src/stm32h7xx_hal_flash_ex.c ****     /* Reset Sector Number for Bank1 */
1199:Drivers/STM32H7xx_HAL_Driver/Src/stm32h7xx_hal_flash_ex.c ****     FLASH->CR1 &= ~(FLASH_CR_SNB);
1200:Drivers/STM32H7xx_HAL_Driver/Src/stm32h7xx_hal_flash_ex.c **** 
1201:Drivers/STM32H7xx_HAL_Driver/Src/stm32h7xx_hal_flash_ex.c ****     FLASH->CR1 |= (FLASH_CR_SER | (Sector << FLASH_CR_SNB_Pos) | FLASH_CR_START);
1202:Drivers/STM32H7xx_HAL_Driver/Src/stm32h7xx_hal_flash_ex.c **** #endif /* FLASH_CR_PSIZE */
1203:Drivers/STM32H7xx_HAL_Driver/Src/stm32h7xx_hal_flash_ex.c ****   }
1204:Drivers/STM32H7xx_HAL_Driver/Src/stm32h7xx_hal_flash_ex.c **** 
1205:Drivers/STM32H7xx_HAL_Driver/Src/stm32h7xx_hal_flash_ex.c **** #if defined (DUAL_BANK)
1206:Drivers/STM32H7xx_HAL_Driver/Src/stm32h7xx_hal_flash_ex.c ****   if((Banks & FLASH_BANK_2) == FLASH_BANK_2)
 1663              		.loc 1 1206 13
 1664 0038 BB68     		ldr	r3, [r7, #8]
 1665 003a 03F00203 		and	r3, r3, #2
 1666              		.loc 1 1206 5
 1667 003e 002B     		cmp	r3, #0
 1668 0040 14D0     		beq	.L98
1207:Drivers/STM32H7xx_HAL_Driver/Src/stm32h7xx_hal_flash_ex.c ****   {
1208:Drivers/STM32H7xx_HAL_Driver/Src/stm32h7xx_hal_flash_ex.c **** #if defined (FLASH_CR_PSIZE)
1209:Drivers/STM32H7xx_HAL_Driver/Src/stm32h7xx_hal_flash_ex.c ****     /* Reset Program/erase VoltageRange and Sector Number for Bank2 */
1210:Drivers/STM32H7xx_HAL_Driver/Src/stm32h7xx_hal_flash_ex.c ****     FLASH->CR2 &= ~(FLASH_CR_PSIZE | FLASH_CR_SNB);
 1669              		.loc 1 1210 10
 1670 0042 0D4B     		ldr	r3, .L99
 1671 0044 D3F80C31 		ldr	r3, [r3, #268]
 1672 0048 0B4A     		ldr	r2, .L99
 1673              		.loc 1 1210 16
 1674 004a 23F4E663 		bic	r3, r3, #1840
 1675 004e C2F80C31 		str	r3, [r2, #268]
1211:Drivers/STM32H7xx_HAL_Driver/Src/stm32h7xx_hal_flash_ex.c **** 
1212:Drivers/STM32H7xx_HAL_Driver/Src/stm32h7xx_hal_flash_ex.c ****     FLASH->CR2 |= (FLASH_CR_SER | VoltageRange  | (Sector << FLASH_CR_SNB_Pos) | FLASH_CR_START);
 1676              		.loc 1 1212 10
 1677 0052 094B     		ldr	r3, .L99
 1678 0054 D3F80C21 		ldr	r2, [r3, #268]
 1679              		.loc 1 1212 59
 1680 0058 FB68     		ldr	r3, [r7, #12]
 1681 005a 1902     		lsls	r1, r3, #8
 1682              		.loc 1 1212 49
 1683 005c 7B68     		ldr	r3, [r7, #4]
 1684 005e 0B43     		orrs	r3, r3, r1
 1685              		.loc 1 1212 16
ARM GAS  /var/folders/g1/j12m_ky910s3_sv7d4yrsdn00000gn/T//ccpiSNf7.s 			page 52


 1686 0060 1343     		orrs	r3, r3, r2
 1687              		.loc 1 1212 10
 1688 0062 054A     		ldr	r2, .L99
 1689              		.loc 1 1212 16
 1690 0064 43F08403 		orr	r3, r3, #132
 1691 0068 C2F80C31 		str	r3, [r2, #268]
 1692              	.L98:
1213:Drivers/STM32H7xx_HAL_Driver/Src/stm32h7xx_hal_flash_ex.c **** #else
1214:Drivers/STM32H7xx_HAL_Driver/Src/stm32h7xx_hal_flash_ex.c ****     /* Reset Sector Number for Bank2 */
1215:Drivers/STM32H7xx_HAL_Driver/Src/stm32h7xx_hal_flash_ex.c ****     FLASH->CR2 &= ~(FLASH_CR_SNB);
1216:Drivers/STM32H7xx_HAL_Driver/Src/stm32h7xx_hal_flash_ex.c **** 
1217:Drivers/STM32H7xx_HAL_Driver/Src/stm32h7xx_hal_flash_ex.c ****     FLASH->CR2 |= (FLASH_CR_SER | (Sector << FLASH_CR_SNB_Pos) | FLASH_CR_START);
1218:Drivers/STM32H7xx_HAL_Driver/Src/stm32h7xx_hal_flash_ex.c **** #endif /* FLASH_CR_PSIZE */
1219:Drivers/STM32H7xx_HAL_Driver/Src/stm32h7xx_hal_flash_ex.c ****   }
1220:Drivers/STM32H7xx_HAL_Driver/Src/stm32h7xx_hal_flash_ex.c **** #endif /* DUAL_BANK */
1221:Drivers/STM32H7xx_HAL_Driver/Src/stm32h7xx_hal_flash_ex.c **** }
 1693              		.loc 1 1221 1
 1694 006c 00BF     		nop
 1695 006e 1437     		adds	r7, r7, #20
 1696              	.LCFI50:
 1697              		.cfi_def_cfa_offset 4
 1698 0070 BD46     		mov	sp, r7
 1699              	.LCFI51:
 1700              		.cfi_def_cfa_register 13
 1701              		@ sp needed
 1702 0072 5DF8047B 		ldr	r7, [sp], #4
 1703              	.LCFI52:
 1704              		.cfi_restore 7
 1705              		.cfi_def_cfa_offset 0
 1706 0076 7047     		bx	lr
 1707              	.L100:
 1708              		.align	2
 1709              	.L99:
 1710 0078 00200052 		.word	1375739904
 1711              		.cfi_endproc
 1712              	.LFE154:
 1714              		.section	.text.FLASH_OB_EnableWRP,"ax",%progbits
 1715              		.align	1
 1716              		.syntax unified
 1717              		.thumb
 1718              		.thumb_func
 1720              	FLASH_OB_EnableWRP:
 1721              	.LFB155:
1222:Drivers/STM32H7xx_HAL_Driver/Src/stm32h7xx_hal_flash_ex.c **** 
1223:Drivers/STM32H7xx_HAL_Driver/Src/stm32h7xx_hal_flash_ex.c **** /**
1224:Drivers/STM32H7xx_HAL_Driver/Src/stm32h7xx_hal_flash_ex.c ****   * @brief  Enable the write protection of the desired bank1 or bank 2 sectors
1225:Drivers/STM32H7xx_HAL_Driver/Src/stm32h7xx_hal_flash_ex.c ****   * @param  WRPSector specifies the sector(s) to be write protected.
1226:Drivers/STM32H7xx_HAL_Driver/Src/stm32h7xx_hal_flash_ex.c ****   *          This parameter can be one of the following values:
1227:Drivers/STM32H7xx_HAL_Driver/Src/stm32h7xx_hal_flash_ex.c ****   *            @arg WRPSector:  A combination of OB_WRP_SECTOR_0 to OB_WRP_SECTOR_7 or OB_WRP_SECTO
1228:Drivers/STM32H7xx_HAL_Driver/Src/stm32h7xx_hal_flash_ex.c ****   *
1229:Drivers/STM32H7xx_HAL_Driver/Src/stm32h7xx_hal_flash_ex.c ****   * @param  Banks the specific bank to apply WRP sectors
1230:Drivers/STM32H7xx_HAL_Driver/Src/stm32h7xx_hal_flash_ex.c ****   *          This parameter can be one of the following values:
1231:Drivers/STM32H7xx_HAL_Driver/Src/stm32h7xx_hal_flash_ex.c ****   *            @arg FLASH_BANK_1: enable WRP on specified bank1 sectors
1232:Drivers/STM32H7xx_HAL_Driver/Src/stm32h7xx_hal_flash_ex.c ****   *            @arg FLASH_BANK_2: enable WRP on specified bank2 sectors
1233:Drivers/STM32H7xx_HAL_Driver/Src/stm32h7xx_hal_flash_ex.c ****   *            @arg FLASH_BANK_BOTH: enable WRP on both bank1 and bank2 specified sectors
1234:Drivers/STM32H7xx_HAL_Driver/Src/stm32h7xx_hal_flash_ex.c ****   *
1235:Drivers/STM32H7xx_HAL_Driver/Src/stm32h7xx_hal_flash_ex.c ****   * @retval HAL FLASH State
ARM GAS  /var/folders/g1/j12m_ky910s3_sv7d4yrsdn00000gn/T//ccpiSNf7.s 			page 53


1236:Drivers/STM32H7xx_HAL_Driver/Src/stm32h7xx_hal_flash_ex.c ****   */
1237:Drivers/STM32H7xx_HAL_Driver/Src/stm32h7xx_hal_flash_ex.c **** static void FLASH_OB_EnableWRP(uint32_t WRPSector, uint32_t Banks)
1238:Drivers/STM32H7xx_HAL_Driver/Src/stm32h7xx_hal_flash_ex.c **** {
 1722              		.loc 1 1238 1
 1723              		.cfi_startproc
 1724              		@ args = 0, pretend = 0, frame = 8
 1725              		@ frame_needed = 1, uses_anonymous_args = 0
 1726              		@ link register save eliminated.
 1727 0000 80B4     		push	{r7}
 1728              	.LCFI53:
 1729              		.cfi_def_cfa_offset 4
 1730              		.cfi_offset 7, -4
 1731 0002 83B0     		sub	sp, sp, #12
 1732              	.LCFI54:
 1733              		.cfi_def_cfa_offset 16
 1734 0004 00AF     		add	r7, sp, #0
 1735              	.LCFI55:
 1736              		.cfi_def_cfa_register 7
 1737 0006 7860     		str	r0, [r7, #4]
 1738 0008 3960     		str	r1, [r7]
1239:Drivers/STM32H7xx_HAL_Driver/Src/stm32h7xx_hal_flash_ex.c ****   /* Check the parameters */
1240:Drivers/STM32H7xx_HAL_Driver/Src/stm32h7xx_hal_flash_ex.c ****   assert_param(IS_OB_WRP_SECTOR(WRPSector));
1241:Drivers/STM32H7xx_HAL_Driver/Src/stm32h7xx_hal_flash_ex.c ****   assert_param(IS_FLASH_BANK(Banks));
1242:Drivers/STM32H7xx_HAL_Driver/Src/stm32h7xx_hal_flash_ex.c **** 
1243:Drivers/STM32H7xx_HAL_Driver/Src/stm32h7xx_hal_flash_ex.c ****   if((Banks & FLASH_BANK_1) == FLASH_BANK_1)
 1739              		.loc 1 1243 13
 1740 000a 3B68     		ldr	r3, [r7]
 1741 000c 03F00103 		and	r3, r3, #1
 1742              		.loc 1 1243 5
 1743 0010 002B     		cmp	r3, #0
 1744 0012 07D0     		beq	.L102
1244:Drivers/STM32H7xx_HAL_Driver/Src/stm32h7xx_hal_flash_ex.c ****   {
1245:Drivers/STM32H7xx_HAL_Driver/Src/stm32h7xx_hal_flash_ex.c ****     /* Enable Write Protection for bank 1 */
1246:Drivers/STM32H7xx_HAL_Driver/Src/stm32h7xx_hal_flash_ex.c ****     FLASH->WPSN_PRG1 &= (~(WRPSector & FLASH_WPSN_WRPSN));
 1745              		.loc 1 1246 10
 1746 0014 0E4B     		ldr	r3, .L105
 1747 0016 DA6B     		ldr	r2, [r3, #60]
 1748              		.loc 1 1246 38
 1749 0018 7B68     		ldr	r3, [r7, #4]
 1750 001a DBB2     		uxtb	r3, r3
 1751              		.loc 1 1246 26
 1752 001c DB43     		mvns	r3, r3
 1753              		.loc 1 1246 10
 1754 001e 0C49     		ldr	r1, .L105
 1755              		.loc 1 1246 22
 1756 0020 1340     		ands	r3, r3, r2
 1757 0022 CB63     		str	r3, [r1, #60]
 1758              	.L102:
1247:Drivers/STM32H7xx_HAL_Driver/Src/stm32h7xx_hal_flash_ex.c ****   }
1248:Drivers/STM32H7xx_HAL_Driver/Src/stm32h7xx_hal_flash_ex.c **** 
1249:Drivers/STM32H7xx_HAL_Driver/Src/stm32h7xx_hal_flash_ex.c **** #if defined (DUAL_BANK)
1250:Drivers/STM32H7xx_HAL_Driver/Src/stm32h7xx_hal_flash_ex.c ****   if((Banks & FLASH_BANK_2) == FLASH_BANK_2)
 1759              		.loc 1 1250 13
 1760 0024 3B68     		ldr	r3, [r7]
 1761 0026 03F00203 		and	r3, r3, #2
 1762              		.loc 1 1250 5
 1763 002a 002B     		cmp	r3, #0
ARM GAS  /var/folders/g1/j12m_ky910s3_sv7d4yrsdn00000gn/T//ccpiSNf7.s 			page 54


 1764 002c 09D0     		beq	.L104
1251:Drivers/STM32H7xx_HAL_Driver/Src/stm32h7xx_hal_flash_ex.c ****   {
1252:Drivers/STM32H7xx_HAL_Driver/Src/stm32h7xx_hal_flash_ex.c ****     /* Enable Write Protection for bank 2 */
1253:Drivers/STM32H7xx_HAL_Driver/Src/stm32h7xx_hal_flash_ex.c ****     FLASH->WPSN_PRG2 &= (~(WRPSector & FLASH_WPSN_WRPSN));
 1765              		.loc 1 1253 10
 1766 002e 084B     		ldr	r3, .L105
 1767 0030 D3F83C21 		ldr	r2, [r3, #316]
 1768              		.loc 1 1253 38
 1769 0034 7B68     		ldr	r3, [r7, #4]
 1770 0036 DBB2     		uxtb	r3, r3
 1771              		.loc 1 1253 26
 1772 0038 DB43     		mvns	r3, r3
 1773              		.loc 1 1253 10
 1774 003a 0549     		ldr	r1, .L105
 1775              		.loc 1 1253 22
 1776 003c 1340     		ands	r3, r3, r2
 1777 003e C1F83C31 		str	r3, [r1, #316]
 1778              	.L104:
1254:Drivers/STM32H7xx_HAL_Driver/Src/stm32h7xx_hal_flash_ex.c ****   }
1255:Drivers/STM32H7xx_HAL_Driver/Src/stm32h7xx_hal_flash_ex.c **** #endif /* DUAL_BANK */
1256:Drivers/STM32H7xx_HAL_Driver/Src/stm32h7xx_hal_flash_ex.c **** }
 1779              		.loc 1 1256 1
 1780 0042 00BF     		nop
 1781 0044 0C37     		adds	r7, r7, #12
 1782              	.LCFI56:
 1783              		.cfi_def_cfa_offset 4
 1784 0046 BD46     		mov	sp, r7
 1785              	.LCFI57:
 1786              		.cfi_def_cfa_register 13
 1787              		@ sp needed
 1788 0048 5DF8047B 		ldr	r7, [sp], #4
 1789              	.LCFI58:
 1790              		.cfi_restore 7
 1791              		.cfi_def_cfa_offset 0
 1792 004c 7047     		bx	lr
 1793              	.L106:
 1794 004e 00BF     		.align	2
 1795              	.L105:
 1796 0050 00200052 		.word	1375739904
 1797              		.cfi_endproc
 1798              	.LFE155:
 1800              		.section	.text.FLASH_OB_DisableWRP,"ax",%progbits
 1801              		.align	1
 1802              		.syntax unified
 1803              		.thumb
 1804              		.thumb_func
 1806              	FLASH_OB_DisableWRP:
 1807              	.LFB156:
1257:Drivers/STM32H7xx_HAL_Driver/Src/stm32h7xx_hal_flash_ex.c **** 
1258:Drivers/STM32H7xx_HAL_Driver/Src/stm32h7xx_hal_flash_ex.c **** /**
1259:Drivers/STM32H7xx_HAL_Driver/Src/stm32h7xx_hal_flash_ex.c ****   * @brief  Disable the write protection of the desired bank1 or bank 2 sectors
1260:Drivers/STM32H7xx_HAL_Driver/Src/stm32h7xx_hal_flash_ex.c ****   * @param  WRPSector specifies the sector(s) to disable write protection.
1261:Drivers/STM32H7xx_HAL_Driver/Src/stm32h7xx_hal_flash_ex.c ****   *          This parameter can be one of the following values:
1262:Drivers/STM32H7xx_HAL_Driver/Src/stm32h7xx_hal_flash_ex.c ****   *            @arg WRPSector:  A combination of FLASH_OB_WRP_SECTOR_0 to FLASH_OB_WRP_SECTOR_7 or 
1263:Drivers/STM32H7xx_HAL_Driver/Src/stm32h7xx_hal_flash_ex.c ****   *
1264:Drivers/STM32H7xx_HAL_Driver/Src/stm32h7xx_hal_flash_ex.c ****   * @param  Banks the specific bank to apply WRP sectors
1265:Drivers/STM32H7xx_HAL_Driver/Src/stm32h7xx_hal_flash_ex.c ****   *          This parameter can be one of the following values:
ARM GAS  /var/folders/g1/j12m_ky910s3_sv7d4yrsdn00000gn/T//ccpiSNf7.s 			page 55


1266:Drivers/STM32H7xx_HAL_Driver/Src/stm32h7xx_hal_flash_ex.c ****   *            @arg FLASH_BANK_1: disable WRP on specified bank1 sectors
1267:Drivers/STM32H7xx_HAL_Driver/Src/stm32h7xx_hal_flash_ex.c ****   *            @arg FLASH_BANK_2: disable WRP on specified bank2 sectors
1268:Drivers/STM32H7xx_HAL_Driver/Src/stm32h7xx_hal_flash_ex.c ****   *            @arg FLASH_BANK_BOTH: disable WRP on both bank1 and bank2 specified sectors
1269:Drivers/STM32H7xx_HAL_Driver/Src/stm32h7xx_hal_flash_ex.c ****   *
1270:Drivers/STM32H7xx_HAL_Driver/Src/stm32h7xx_hal_flash_ex.c ****   * @retval HAL FLASH State
1271:Drivers/STM32H7xx_HAL_Driver/Src/stm32h7xx_hal_flash_ex.c ****   */
1272:Drivers/STM32H7xx_HAL_Driver/Src/stm32h7xx_hal_flash_ex.c **** static void FLASH_OB_DisableWRP(uint32_t WRPSector, uint32_t Banks)
1273:Drivers/STM32H7xx_HAL_Driver/Src/stm32h7xx_hal_flash_ex.c **** {
 1808              		.loc 1 1273 1
 1809              		.cfi_startproc
 1810              		@ args = 0, pretend = 0, frame = 8
 1811              		@ frame_needed = 1, uses_anonymous_args = 0
 1812              		@ link register save eliminated.
 1813 0000 80B4     		push	{r7}
 1814              	.LCFI59:
 1815              		.cfi_def_cfa_offset 4
 1816              		.cfi_offset 7, -4
 1817 0002 83B0     		sub	sp, sp, #12
 1818              	.LCFI60:
 1819              		.cfi_def_cfa_offset 16
 1820 0004 00AF     		add	r7, sp, #0
 1821              	.LCFI61:
 1822              		.cfi_def_cfa_register 7
 1823 0006 7860     		str	r0, [r7, #4]
 1824 0008 3960     		str	r1, [r7]
1274:Drivers/STM32H7xx_HAL_Driver/Src/stm32h7xx_hal_flash_ex.c ****   /* Check the parameters */
1275:Drivers/STM32H7xx_HAL_Driver/Src/stm32h7xx_hal_flash_ex.c ****   assert_param(IS_OB_WRP_SECTOR(WRPSector));
1276:Drivers/STM32H7xx_HAL_Driver/Src/stm32h7xx_hal_flash_ex.c ****   assert_param(IS_FLASH_BANK(Banks));
1277:Drivers/STM32H7xx_HAL_Driver/Src/stm32h7xx_hal_flash_ex.c **** 
1278:Drivers/STM32H7xx_HAL_Driver/Src/stm32h7xx_hal_flash_ex.c ****   if((Banks & FLASH_BANK_1) == FLASH_BANK_1)
 1825              		.loc 1 1278 13
 1826 000a 3B68     		ldr	r3, [r7]
 1827 000c 03F00103 		and	r3, r3, #1
 1828              		.loc 1 1278 5
 1829 0010 002B     		cmp	r3, #0
 1830 0012 06D0     		beq	.L108
1279:Drivers/STM32H7xx_HAL_Driver/Src/stm32h7xx_hal_flash_ex.c ****   {
1280:Drivers/STM32H7xx_HAL_Driver/Src/stm32h7xx_hal_flash_ex.c ****     /* Disable Write Protection for bank 1 */
1281:Drivers/STM32H7xx_HAL_Driver/Src/stm32h7xx_hal_flash_ex.c ****     FLASH->WPSN_PRG1 |= (WRPSector & FLASH_WPSN_WRPSN);
 1831              		.loc 1 1281 10
 1832 0014 0D4B     		ldr	r3, .L111
 1833 0016 DA6B     		ldr	r2, [r3, #60]
 1834              		.loc 1 1281 36
 1835 0018 7B68     		ldr	r3, [r7, #4]
 1836 001a DBB2     		uxtb	r3, r3
 1837              		.loc 1 1281 10
 1838 001c 0B49     		ldr	r1, .L111
 1839              		.loc 1 1281 22
 1840 001e 1343     		orrs	r3, r3, r2
 1841 0020 CB63     		str	r3, [r1, #60]
 1842              	.L108:
1282:Drivers/STM32H7xx_HAL_Driver/Src/stm32h7xx_hal_flash_ex.c ****   }
1283:Drivers/STM32H7xx_HAL_Driver/Src/stm32h7xx_hal_flash_ex.c **** 
1284:Drivers/STM32H7xx_HAL_Driver/Src/stm32h7xx_hal_flash_ex.c **** #if defined (DUAL_BANK)
1285:Drivers/STM32H7xx_HAL_Driver/Src/stm32h7xx_hal_flash_ex.c ****   if((Banks & FLASH_BANK_2) == FLASH_BANK_2)
 1843              		.loc 1 1285 13
 1844 0022 3B68     		ldr	r3, [r7]
ARM GAS  /var/folders/g1/j12m_ky910s3_sv7d4yrsdn00000gn/T//ccpiSNf7.s 			page 56


 1845 0024 03F00203 		and	r3, r3, #2
 1846              		.loc 1 1285 5
 1847 0028 002B     		cmp	r3, #0
 1848 002a 08D0     		beq	.L110
1286:Drivers/STM32H7xx_HAL_Driver/Src/stm32h7xx_hal_flash_ex.c ****   {
1287:Drivers/STM32H7xx_HAL_Driver/Src/stm32h7xx_hal_flash_ex.c ****     /* Disable Write Protection for bank 2 */
1288:Drivers/STM32H7xx_HAL_Driver/Src/stm32h7xx_hal_flash_ex.c ****     FLASH->WPSN_PRG2 |= (WRPSector & FLASH_WPSN_WRPSN);
 1849              		.loc 1 1288 10
 1850 002c 074B     		ldr	r3, .L111
 1851 002e D3F83C21 		ldr	r2, [r3, #316]
 1852              		.loc 1 1288 36
 1853 0032 7B68     		ldr	r3, [r7, #4]
 1854 0034 DBB2     		uxtb	r3, r3
 1855              		.loc 1 1288 10
 1856 0036 0549     		ldr	r1, .L111
 1857              		.loc 1 1288 22
 1858 0038 1343     		orrs	r3, r3, r2
 1859 003a C1F83C31 		str	r3, [r1, #316]
 1860              	.L110:
1289:Drivers/STM32H7xx_HAL_Driver/Src/stm32h7xx_hal_flash_ex.c ****   }
1290:Drivers/STM32H7xx_HAL_Driver/Src/stm32h7xx_hal_flash_ex.c **** #endif /* DUAL_BANK */
1291:Drivers/STM32H7xx_HAL_Driver/Src/stm32h7xx_hal_flash_ex.c **** }
 1861              		.loc 1 1291 1
 1862 003e 00BF     		nop
 1863 0040 0C37     		adds	r7, r7, #12
 1864              	.LCFI62:
 1865              		.cfi_def_cfa_offset 4
 1866 0042 BD46     		mov	sp, r7
 1867              	.LCFI63:
 1868              		.cfi_def_cfa_register 13
 1869              		@ sp needed
 1870 0044 5DF8047B 		ldr	r7, [sp], #4
 1871              	.LCFI64:
 1872              		.cfi_restore 7
 1873              		.cfi_def_cfa_offset 0
 1874 0048 7047     		bx	lr
 1875              	.L112:
 1876 004a 00BF     		.align	2
 1877              	.L111:
 1878 004c 00200052 		.word	1375739904
 1879              		.cfi_endproc
 1880              	.LFE156:
 1882              		.section	.text.FLASH_OB_GetWRP,"ax",%progbits
 1883              		.align	1
 1884              		.syntax unified
 1885              		.thumb
 1886              		.thumb_func
 1888              	FLASH_OB_GetWRP:
 1889              	.LFB157:
1292:Drivers/STM32H7xx_HAL_Driver/Src/stm32h7xx_hal_flash_ex.c **** 
1293:Drivers/STM32H7xx_HAL_Driver/Src/stm32h7xx_hal_flash_ex.c **** /**
1294:Drivers/STM32H7xx_HAL_Driver/Src/stm32h7xx_hal_flash_ex.c ****   * @brief  Get the write protection of the given bank 1 or bank 2 sectors
1295:Drivers/STM32H7xx_HAL_Driver/Src/stm32h7xx_hal_flash_ex.c ****   * @param  WRPState gives the write protection state on the given bank.
1296:Drivers/STM32H7xx_HAL_Driver/Src/stm32h7xx_hal_flash_ex.c ****   *          This parameter can be one of the following values:
1297:Drivers/STM32H7xx_HAL_Driver/Src/stm32h7xx_hal_flash_ex.c ****   *          @arg WRPState: OB_WRPSTATE_DISABLE or OB_WRPSTATE_ENABLE
1298:Drivers/STM32H7xx_HAL_Driver/Src/stm32h7xx_hal_flash_ex.c **** 
1299:Drivers/STM32H7xx_HAL_Driver/Src/stm32h7xx_hal_flash_ex.c ****   * @param  WRPSector gives the write protected sector(s) on the given bank .
ARM GAS  /var/folders/g1/j12m_ky910s3_sv7d4yrsdn00000gn/T//ccpiSNf7.s 			page 57


1300:Drivers/STM32H7xx_HAL_Driver/Src/stm32h7xx_hal_flash_ex.c ****   *          This parameter can be one of the following values:
1301:Drivers/STM32H7xx_HAL_Driver/Src/stm32h7xx_hal_flash_ex.c ****   *          @arg WRPSector: A combination of FLASH_OB_WRP_SECTOR_0 to FLASH_OB_WRP_SECTOR_7 or FLA
1302:Drivers/STM32H7xx_HAL_Driver/Src/stm32h7xx_hal_flash_ex.c ****   *
1303:Drivers/STM32H7xx_HAL_Driver/Src/stm32h7xx_hal_flash_ex.c ****   * @param  Bank the specific bank to apply WRP sectors
1304:Drivers/STM32H7xx_HAL_Driver/Src/stm32h7xx_hal_flash_ex.c ****   *          This parameter can be exclusively one of the following values:
1305:Drivers/STM32H7xx_HAL_Driver/Src/stm32h7xx_hal_flash_ex.c ****   *            @arg FLASH_BANK_1: Get bank1 WRP sectors
1306:Drivers/STM32H7xx_HAL_Driver/Src/stm32h7xx_hal_flash_ex.c ****   *            @arg FLASH_BANK_2: Get bank2 WRP sectors
1307:Drivers/STM32H7xx_HAL_Driver/Src/stm32h7xx_hal_flash_ex.c ****   *            @arg FLASH_BANK_BOTH: note allowed in this functions
1308:Drivers/STM32H7xx_HAL_Driver/Src/stm32h7xx_hal_flash_ex.c ****   *
1309:Drivers/STM32H7xx_HAL_Driver/Src/stm32h7xx_hal_flash_ex.c ****   * @retval HAL FLASH State
1310:Drivers/STM32H7xx_HAL_Driver/Src/stm32h7xx_hal_flash_ex.c ****   */
1311:Drivers/STM32H7xx_HAL_Driver/Src/stm32h7xx_hal_flash_ex.c **** static void FLASH_OB_GetWRP(uint32_t *WRPState, uint32_t *WRPSector, uint32_t Bank)
1312:Drivers/STM32H7xx_HAL_Driver/Src/stm32h7xx_hal_flash_ex.c **** {
 1890              		.loc 1 1312 1
 1891              		.cfi_startproc
 1892              		@ args = 0, pretend = 0, frame = 24
 1893              		@ frame_needed = 1, uses_anonymous_args = 0
 1894              		@ link register save eliminated.
 1895 0000 80B4     		push	{r7}
 1896              	.LCFI65:
 1897              		.cfi_def_cfa_offset 4
 1898              		.cfi_offset 7, -4
 1899 0002 87B0     		sub	sp, sp, #28
 1900              	.LCFI66:
 1901              		.cfi_def_cfa_offset 32
 1902 0004 00AF     		add	r7, sp, #0
 1903              	.LCFI67:
 1904              		.cfi_def_cfa_register 7
 1905 0006 F860     		str	r0, [r7, #12]
 1906 0008 B960     		str	r1, [r7, #8]
 1907 000a 7A60     		str	r2, [r7, #4]
1313:Drivers/STM32H7xx_HAL_Driver/Src/stm32h7xx_hal_flash_ex.c ****   uint32_t regvalue = 0U;
 1908              		.loc 1 1313 12
 1909 000c 0023     		movs	r3, #0
 1910 000e 7B61     		str	r3, [r7, #20]
1314:Drivers/STM32H7xx_HAL_Driver/Src/stm32h7xx_hal_flash_ex.c **** 
1315:Drivers/STM32H7xx_HAL_Driver/Src/stm32h7xx_hal_flash_ex.c ****   if(Bank == FLASH_BANK_1)
 1911              		.loc 1 1315 5
 1912 0010 7B68     		ldr	r3, [r7, #4]
 1913 0012 012B     		cmp	r3, #1
 1914 0014 02D1     		bne	.L114
1316:Drivers/STM32H7xx_HAL_Driver/Src/stm32h7xx_hal_flash_ex.c ****   {
1317:Drivers/STM32H7xx_HAL_Driver/Src/stm32h7xx_hal_flash_ex.c ****     regvalue = FLASH->WPSN_CUR1;
 1915              		.loc 1 1317 21
 1916 0016 104B     		ldr	r3, .L119
 1917              		.loc 1 1317 14
 1918 0018 9B6B     		ldr	r3, [r3, #56]
 1919 001a 7B61     		str	r3, [r7, #20]
 1920              	.L114:
1318:Drivers/STM32H7xx_HAL_Driver/Src/stm32h7xx_hal_flash_ex.c ****   }
1319:Drivers/STM32H7xx_HAL_Driver/Src/stm32h7xx_hal_flash_ex.c **** 
1320:Drivers/STM32H7xx_HAL_Driver/Src/stm32h7xx_hal_flash_ex.c **** #if defined (DUAL_BANK)
1321:Drivers/STM32H7xx_HAL_Driver/Src/stm32h7xx_hal_flash_ex.c ****   if(Bank == FLASH_BANK_2)
 1921              		.loc 1 1321 5
 1922 001c 7B68     		ldr	r3, [r7, #4]
 1923 001e 022B     		cmp	r3, #2
 1924 0020 03D1     		bne	.L115
ARM GAS  /var/folders/g1/j12m_ky910s3_sv7d4yrsdn00000gn/T//ccpiSNf7.s 			page 58


1322:Drivers/STM32H7xx_HAL_Driver/Src/stm32h7xx_hal_flash_ex.c ****   {
1323:Drivers/STM32H7xx_HAL_Driver/Src/stm32h7xx_hal_flash_ex.c ****     regvalue = FLASH->WPSN_CUR2;
 1925              		.loc 1 1323 21
 1926 0022 0D4B     		ldr	r3, .L119
 1927              		.loc 1 1323 14
 1928 0024 D3F83831 		ldr	r3, [r3, #312]
 1929 0028 7B61     		str	r3, [r7, #20]
 1930              	.L115:
1324:Drivers/STM32H7xx_HAL_Driver/Src/stm32h7xx_hal_flash_ex.c ****   }
1325:Drivers/STM32H7xx_HAL_Driver/Src/stm32h7xx_hal_flash_ex.c **** #endif /* DUAL_BANK */
1326:Drivers/STM32H7xx_HAL_Driver/Src/stm32h7xx_hal_flash_ex.c **** 
1327:Drivers/STM32H7xx_HAL_Driver/Src/stm32h7xx_hal_flash_ex.c ****   (*WRPSector) = (~regvalue) & FLASH_WPSN_WRPSN;
 1931              		.loc 1 1327 19
 1932 002a 7B69     		ldr	r3, [r7, #20]
 1933 002c DB43     		mvns	r3, r3
 1934              		.loc 1 1327 30
 1935 002e DAB2     		uxtb	r2, r3
 1936              		.loc 1 1327 16
 1937 0030 BB68     		ldr	r3, [r7, #8]
 1938 0032 1A60     		str	r2, [r3]
1328:Drivers/STM32H7xx_HAL_Driver/Src/stm32h7xx_hal_flash_ex.c **** 
1329:Drivers/STM32H7xx_HAL_Driver/Src/stm32h7xx_hal_flash_ex.c ****   if(*WRPSector == 0U)
 1939              		.loc 1 1329 6
 1940 0034 BB68     		ldr	r3, [r7, #8]
 1941 0036 1B68     		ldr	r3, [r3]
 1942              		.loc 1 1329 5
 1943 0038 002B     		cmp	r3, #0
 1944 003a 03D1     		bne	.L116
1330:Drivers/STM32H7xx_HAL_Driver/Src/stm32h7xx_hal_flash_ex.c ****   {
1331:Drivers/STM32H7xx_HAL_Driver/Src/stm32h7xx_hal_flash_ex.c ****     (*WRPState) = OB_WRPSTATE_DISABLE;
 1945              		.loc 1 1331 17
 1946 003c FB68     		ldr	r3, [r7, #12]
 1947 003e 0022     		movs	r2, #0
 1948 0040 1A60     		str	r2, [r3]
1332:Drivers/STM32H7xx_HAL_Driver/Src/stm32h7xx_hal_flash_ex.c ****   }
1333:Drivers/STM32H7xx_HAL_Driver/Src/stm32h7xx_hal_flash_ex.c ****   else
1334:Drivers/STM32H7xx_HAL_Driver/Src/stm32h7xx_hal_flash_ex.c ****   {
1335:Drivers/STM32H7xx_HAL_Driver/Src/stm32h7xx_hal_flash_ex.c ****     (*WRPState) = OB_WRPSTATE_ENABLE;
1336:Drivers/STM32H7xx_HAL_Driver/Src/stm32h7xx_hal_flash_ex.c ****   }
1337:Drivers/STM32H7xx_HAL_Driver/Src/stm32h7xx_hal_flash_ex.c **** }
 1949              		.loc 1 1337 1
 1950 0042 02E0     		b	.L118
 1951              	.L116:
1335:Drivers/STM32H7xx_HAL_Driver/Src/stm32h7xx_hal_flash_ex.c ****   }
 1952              		.loc 1 1335 17
 1953 0044 FB68     		ldr	r3, [r7, #12]
 1954 0046 0122     		movs	r2, #1
 1955 0048 1A60     		str	r2, [r3]
 1956              	.L118:
 1957              		.loc 1 1337 1
 1958 004a 00BF     		nop
 1959 004c 1C37     		adds	r7, r7, #28
 1960              	.LCFI68:
 1961              		.cfi_def_cfa_offset 4
 1962 004e BD46     		mov	sp, r7
 1963              	.LCFI69:
 1964              		.cfi_def_cfa_register 13
ARM GAS  /var/folders/g1/j12m_ky910s3_sv7d4yrsdn00000gn/T//ccpiSNf7.s 			page 59


 1965              		@ sp needed
 1966 0050 5DF8047B 		ldr	r7, [sp], #4
 1967              	.LCFI70:
 1968              		.cfi_restore 7
 1969              		.cfi_def_cfa_offset 0
 1970 0054 7047     		bx	lr
 1971              	.L120:
 1972 0056 00BF     		.align	2
 1973              	.L119:
 1974 0058 00200052 		.word	1375739904
 1975              		.cfi_endproc
 1976              	.LFE157:
 1978              		.section	.text.FLASH_OB_RDPConfig,"ax",%progbits
 1979              		.align	1
 1980              		.syntax unified
 1981              		.thumb
 1982              		.thumb_func
 1984              	FLASH_OB_RDPConfig:
 1985              	.LFB158:
1338:Drivers/STM32H7xx_HAL_Driver/Src/stm32h7xx_hal_flash_ex.c **** 
1339:Drivers/STM32H7xx_HAL_Driver/Src/stm32h7xx_hal_flash_ex.c **** /**
1340:Drivers/STM32H7xx_HAL_Driver/Src/stm32h7xx_hal_flash_ex.c ****   * @brief  Set the read protection level.
1341:Drivers/STM32H7xx_HAL_Driver/Src/stm32h7xx_hal_flash_ex.c ****   *
1342:Drivers/STM32H7xx_HAL_Driver/Src/stm32h7xx_hal_flash_ex.c ****   * @note   To configure the RDP level, the option lock bit OPTLOCK must be
1343:Drivers/STM32H7xx_HAL_Driver/Src/stm32h7xx_hal_flash_ex.c ****   *         cleared with the call of the HAL_FLASH_OB_Unlock() function.
1344:Drivers/STM32H7xx_HAL_Driver/Src/stm32h7xx_hal_flash_ex.c ****   * @note   To validate the RDP level, the option bytes must be reloaded
1345:Drivers/STM32H7xx_HAL_Driver/Src/stm32h7xx_hal_flash_ex.c ****   *         through the call of the HAL_FLASH_OB_Launch() function.
1346:Drivers/STM32H7xx_HAL_Driver/Src/stm32h7xx_hal_flash_ex.c ****   * @note   !!! Warning : When enabling OB_RDP level 2 it's no more possible
1347:Drivers/STM32H7xx_HAL_Driver/Src/stm32h7xx_hal_flash_ex.c ****   *         to go back to level 1 or 0 !!!
1348:Drivers/STM32H7xx_HAL_Driver/Src/stm32h7xx_hal_flash_ex.c ****   *
1349:Drivers/STM32H7xx_HAL_Driver/Src/stm32h7xx_hal_flash_ex.c ****   * @param  RDPLevel specifies the read protection level.
1350:Drivers/STM32H7xx_HAL_Driver/Src/stm32h7xx_hal_flash_ex.c ****   *         This parameter can be one of the following values:
1351:Drivers/STM32H7xx_HAL_Driver/Src/stm32h7xx_hal_flash_ex.c ****   *            @arg OB_RDP_LEVEL_0: No protection
1352:Drivers/STM32H7xx_HAL_Driver/Src/stm32h7xx_hal_flash_ex.c ****   *            @arg OB_RDP_LEVEL_1: Read protection of the memory
1353:Drivers/STM32H7xx_HAL_Driver/Src/stm32h7xx_hal_flash_ex.c ****   *            @arg OB_RDP_LEVEL_2: Full chip protection
1354:Drivers/STM32H7xx_HAL_Driver/Src/stm32h7xx_hal_flash_ex.c ****   *
1355:Drivers/STM32H7xx_HAL_Driver/Src/stm32h7xx_hal_flash_ex.c ****   * @retval HAL status
1356:Drivers/STM32H7xx_HAL_Driver/Src/stm32h7xx_hal_flash_ex.c ****   */
1357:Drivers/STM32H7xx_HAL_Driver/Src/stm32h7xx_hal_flash_ex.c **** static void FLASH_OB_RDPConfig(uint32_t RDPLevel)
1358:Drivers/STM32H7xx_HAL_Driver/Src/stm32h7xx_hal_flash_ex.c **** {
 1986              		.loc 1 1358 1
 1987              		.cfi_startproc
 1988              		@ args = 0, pretend = 0, frame = 8
 1989              		@ frame_needed = 1, uses_anonymous_args = 0
 1990              		@ link register save eliminated.
 1991 0000 80B4     		push	{r7}
 1992              	.LCFI71:
 1993              		.cfi_def_cfa_offset 4
 1994              		.cfi_offset 7, -4
 1995 0002 83B0     		sub	sp, sp, #12
 1996              	.LCFI72:
 1997              		.cfi_def_cfa_offset 16
 1998 0004 00AF     		add	r7, sp, #0
 1999              	.LCFI73:
 2000              		.cfi_def_cfa_register 7
 2001 0006 7860     		str	r0, [r7, #4]
1359:Drivers/STM32H7xx_HAL_Driver/Src/stm32h7xx_hal_flash_ex.c ****   /* Check the parameters */
ARM GAS  /var/folders/g1/j12m_ky910s3_sv7d4yrsdn00000gn/T//ccpiSNf7.s 			page 60


1360:Drivers/STM32H7xx_HAL_Driver/Src/stm32h7xx_hal_flash_ex.c ****   assert_param(IS_OB_RDP_LEVEL(RDPLevel));
1361:Drivers/STM32H7xx_HAL_Driver/Src/stm32h7xx_hal_flash_ex.c **** 
1362:Drivers/STM32H7xx_HAL_Driver/Src/stm32h7xx_hal_flash_ex.c ****   /* Configure the RDP level in the option bytes register */
1363:Drivers/STM32H7xx_HAL_Driver/Src/stm32h7xx_hal_flash_ex.c ****   MODIFY_REG(FLASH->OPTSR_PRG, FLASH_OPTSR_RDP, RDPLevel);
 2002              		.loc 1 1363 3
 2003 0008 064B     		ldr	r3, .L122
 2004 000a 1B6A     		ldr	r3, [r3, #32]
 2005 000c 23F47F42 		bic	r2, r3, #65280
 2006 0010 0449     		ldr	r1, .L122
 2007 0012 7B68     		ldr	r3, [r7, #4]
 2008 0014 1343     		orrs	r3, r3, r2
 2009 0016 0B62     		str	r3, [r1, #32]
1364:Drivers/STM32H7xx_HAL_Driver/Src/stm32h7xx_hal_flash_ex.c **** }
 2010              		.loc 1 1364 1
 2011 0018 00BF     		nop
 2012 001a 0C37     		adds	r7, r7, #12
 2013              	.LCFI74:
 2014              		.cfi_def_cfa_offset 4
 2015 001c BD46     		mov	sp, r7
 2016              	.LCFI75:
 2017              		.cfi_def_cfa_register 13
 2018              		@ sp needed
 2019 001e 5DF8047B 		ldr	r7, [sp], #4
 2020              	.LCFI76:
 2021              		.cfi_restore 7
 2022              		.cfi_def_cfa_offset 0
 2023 0022 7047     		bx	lr
 2024              	.L123:
 2025              		.align	2
 2026              	.L122:
 2027 0024 00200052 		.word	1375739904
 2028              		.cfi_endproc
 2029              	.LFE158:
 2031              		.section	.text.FLASH_OB_GetRDP,"ax",%progbits
 2032              		.align	1
 2033              		.syntax unified
 2034              		.thumb
 2035              		.thumb_func
 2037              	FLASH_OB_GetRDP:
 2038              	.LFB159:
1365:Drivers/STM32H7xx_HAL_Driver/Src/stm32h7xx_hal_flash_ex.c **** 
1366:Drivers/STM32H7xx_HAL_Driver/Src/stm32h7xx_hal_flash_ex.c **** /**
1367:Drivers/STM32H7xx_HAL_Driver/Src/stm32h7xx_hal_flash_ex.c ****   * @brief  Get the read protection level.
1368:Drivers/STM32H7xx_HAL_Driver/Src/stm32h7xx_hal_flash_ex.c ****   * @retval RDPLevel specifies the read protection level.
1369:Drivers/STM32H7xx_HAL_Driver/Src/stm32h7xx_hal_flash_ex.c ****   *         This return value can be one of the following values:
1370:Drivers/STM32H7xx_HAL_Driver/Src/stm32h7xx_hal_flash_ex.c ****   *            @arg OB_RDP_LEVEL_0: No protection
1371:Drivers/STM32H7xx_HAL_Driver/Src/stm32h7xx_hal_flash_ex.c ****   *            @arg OB_RDP_LEVEL_1: Read protection of the memory
1372:Drivers/STM32H7xx_HAL_Driver/Src/stm32h7xx_hal_flash_ex.c ****   *            @arg OB_RDP_LEVEL_2: Full chip protection
1373:Drivers/STM32H7xx_HAL_Driver/Src/stm32h7xx_hal_flash_ex.c ****   */
1374:Drivers/STM32H7xx_HAL_Driver/Src/stm32h7xx_hal_flash_ex.c **** static uint32_t FLASH_OB_GetRDP(void)
1375:Drivers/STM32H7xx_HAL_Driver/Src/stm32h7xx_hal_flash_ex.c **** {
 2039              		.loc 1 1375 1
 2040              		.cfi_startproc
 2041              		@ args = 0, pretend = 0, frame = 8
 2042              		@ frame_needed = 1, uses_anonymous_args = 0
 2043              		@ link register save eliminated.
 2044 0000 80B4     		push	{r7}
ARM GAS  /var/folders/g1/j12m_ky910s3_sv7d4yrsdn00000gn/T//ccpiSNf7.s 			page 61


 2045              	.LCFI77:
 2046              		.cfi_def_cfa_offset 4
 2047              		.cfi_offset 7, -4
 2048 0002 83B0     		sub	sp, sp, #12
 2049              	.LCFI78:
 2050              		.cfi_def_cfa_offset 16
 2051 0004 00AF     		add	r7, sp, #0
 2052              	.LCFI79:
 2053              		.cfi_def_cfa_register 7
1376:Drivers/STM32H7xx_HAL_Driver/Src/stm32h7xx_hal_flash_ex.c ****   uint32_t rdp_level = READ_BIT(FLASH->OPTSR_CUR, FLASH_OPTSR_RDP);
 2054              		.loc 1 1376 24
 2055 0006 0B4B     		ldr	r3, .L127
 2056 0008 DB69     		ldr	r3, [r3, #28]
 2057              		.loc 1 1376 12
 2058 000a 03F47F43 		and	r3, r3, #65280
 2059 000e 7B60     		str	r3, [r7, #4]
1377:Drivers/STM32H7xx_HAL_Driver/Src/stm32h7xx_hal_flash_ex.c ****   
1378:Drivers/STM32H7xx_HAL_Driver/Src/stm32h7xx_hal_flash_ex.c ****   if ((rdp_level != OB_RDP_LEVEL_0) && (rdp_level != OB_RDP_LEVEL_2))
 2060              		.loc 1 1378 6
 2061 0010 7B68     		ldr	r3, [r7, #4]
 2062 0012 B3F52A4F 		cmp	r3, #43520
 2063 0016 06D0     		beq	.L125
 2064              		.loc 1 1378 37 discriminator 1
 2065 0018 7B68     		ldr	r3, [r7, #4]
 2066 001a B3F54C4F 		cmp	r3, #52224
 2067 001e 02D0     		beq	.L125
1379:Drivers/STM32H7xx_HAL_Driver/Src/stm32h7xx_hal_flash_ex.c ****   {
1380:Drivers/STM32H7xx_HAL_Driver/Src/stm32h7xx_hal_flash_ex.c ****     return (OB_RDP_LEVEL_1);
 2068              		.loc 1 1380 12
 2069 0020 4FF4AA43 		mov	r3, #21760
 2070 0024 00E0     		b	.L126
 2071              	.L125:
1381:Drivers/STM32H7xx_HAL_Driver/Src/stm32h7xx_hal_flash_ex.c ****   }
1382:Drivers/STM32H7xx_HAL_Driver/Src/stm32h7xx_hal_flash_ex.c ****   else
1383:Drivers/STM32H7xx_HAL_Driver/Src/stm32h7xx_hal_flash_ex.c ****   {
1384:Drivers/STM32H7xx_HAL_Driver/Src/stm32h7xx_hal_flash_ex.c ****     return rdp_level;
 2072              		.loc 1 1384 12
 2073 0026 7B68     		ldr	r3, [r7, #4]
 2074              	.L126:
1385:Drivers/STM32H7xx_HAL_Driver/Src/stm32h7xx_hal_flash_ex.c ****   }
1386:Drivers/STM32H7xx_HAL_Driver/Src/stm32h7xx_hal_flash_ex.c **** }
 2075              		.loc 1 1386 1
 2076 0028 1846     		mov	r0, r3
 2077 002a 0C37     		adds	r7, r7, #12
 2078              	.LCFI80:
 2079              		.cfi_def_cfa_offset 4
 2080 002c BD46     		mov	sp, r7
 2081              	.LCFI81:
 2082              		.cfi_def_cfa_register 13
 2083              		@ sp needed
 2084 002e 5DF8047B 		ldr	r7, [sp], #4
 2085              	.LCFI82:
 2086              		.cfi_restore 7
 2087              		.cfi_def_cfa_offset 0
 2088 0032 7047     		bx	lr
 2089              	.L128:
 2090              		.align	2
ARM GAS  /var/folders/g1/j12m_ky910s3_sv7d4yrsdn00000gn/T//ccpiSNf7.s 			page 62


 2091              	.L127:
 2092 0034 00200052 		.word	1375739904
 2093              		.cfi_endproc
 2094              	.LFE159:
 2096              		.section	.text.FLASH_OB_UserConfig,"ax",%progbits
 2097              		.align	1
 2098              		.syntax unified
 2099              		.thumb
 2100              		.thumb_func
 2102              	FLASH_OB_UserConfig:
 2103              	.LFB160:
1387:Drivers/STM32H7xx_HAL_Driver/Src/stm32h7xx_hal_flash_ex.c **** 
1388:Drivers/STM32H7xx_HAL_Driver/Src/stm32h7xx_hal_flash_ex.c **** #if defined(DUAL_CORE)
1389:Drivers/STM32H7xx_HAL_Driver/Src/stm32h7xx_hal_flash_ex.c **** /**
1390:Drivers/STM32H7xx_HAL_Driver/Src/stm32h7xx_hal_flash_ex.c ****   * @brief  Program the FLASH User Option Byte.
1391:Drivers/STM32H7xx_HAL_Driver/Src/stm32h7xx_hal_flash_ex.c ****   *
1392:Drivers/STM32H7xx_HAL_Driver/Src/stm32h7xx_hal_flash_ex.c ****   * @note   To configure the user option bytes, the option lock bit OPTLOCK must
1393:Drivers/STM32H7xx_HAL_Driver/Src/stm32h7xx_hal_flash_ex.c ****   *         be cleared with the call of the HAL_FLASH_OB_Unlock() function.
1394:Drivers/STM32H7xx_HAL_Driver/Src/stm32h7xx_hal_flash_ex.c ****   *
1395:Drivers/STM32H7xx_HAL_Driver/Src/stm32h7xx_hal_flash_ex.c ****   * @note   To validate the user option bytes, the option bytes must be reloaded
1396:Drivers/STM32H7xx_HAL_Driver/Src/stm32h7xx_hal_flash_ex.c ****   *         through the call of the HAL_FLASH_OB_Launch() function.
1397:Drivers/STM32H7xx_HAL_Driver/Src/stm32h7xx_hal_flash_ex.c ****   *
1398:Drivers/STM32H7xx_HAL_Driver/Src/stm32h7xx_hal_flash_ex.c ****   * @param  UserType The FLASH User Option Bytes to be modified :
1399:Drivers/STM32H7xx_HAL_Driver/Src/stm32h7xx_hal_flash_ex.c ****   *                   a combination of @ref FLASHEx_OB_USER_Type
1400:Drivers/STM32H7xx_HAL_Driver/Src/stm32h7xx_hal_flash_ex.c ****   *
1401:Drivers/STM32H7xx_HAL_Driver/Src/stm32h7xx_hal_flash_ex.c ****   * @param  UserConfig The FLASH User Option Bytes values:
1402:Drivers/STM32H7xx_HAL_Driver/Src/stm32h7xx_hal_flash_ex.c ****   *         IWDG1_SW(Bit4), IWDG2_SW(Bit 5), nRST_STOP_D1(Bit 6), nRST_STDY_D1(Bit 7),
1403:Drivers/STM32H7xx_HAL_Driver/Src/stm32h7xx_hal_flash_ex.c ****   *         FZ_IWDG_STOP(Bit 17), FZ_IWDG_SDBY(Bit 18), ST_RAM_SIZE(Bit[19:20]),
1404:Drivers/STM32H7xx_HAL_Driver/Src/stm32h7xx_hal_flash_ex.c ****   *         SECURITY(Bit 21), BCM4(Bit 22), BCM7(Bit 23), nRST_STOP_D2(Bit 24),
1405:Drivers/STM32H7xx_HAL_Driver/Src/stm32h7xx_hal_flash_ex.c ****   *         nRST_STDY_D2(Bit 25), IO_HSLV (Bit 29) and SWAP_BANK_OPT(Bit 31).
1406:Drivers/STM32H7xx_HAL_Driver/Src/stm32h7xx_hal_flash_ex.c ****   *
1407:Drivers/STM32H7xx_HAL_Driver/Src/stm32h7xx_hal_flash_ex.c ****   * @retval HAL status
1408:Drivers/STM32H7xx_HAL_Driver/Src/stm32h7xx_hal_flash_ex.c ****   */
1409:Drivers/STM32H7xx_HAL_Driver/Src/stm32h7xx_hal_flash_ex.c **** #else
1410:Drivers/STM32H7xx_HAL_Driver/Src/stm32h7xx_hal_flash_ex.c **** /**
1411:Drivers/STM32H7xx_HAL_Driver/Src/stm32h7xx_hal_flash_ex.c ****   * @brief  Program the FLASH User Option Byte.
1412:Drivers/STM32H7xx_HAL_Driver/Src/stm32h7xx_hal_flash_ex.c ****   *
1413:Drivers/STM32H7xx_HAL_Driver/Src/stm32h7xx_hal_flash_ex.c ****   * @note   To configure the user option bytes, the option lock bit OPTLOCK must
1414:Drivers/STM32H7xx_HAL_Driver/Src/stm32h7xx_hal_flash_ex.c ****   *         be cleared with the call of the HAL_FLASH_OB_Unlock() function.
1415:Drivers/STM32H7xx_HAL_Driver/Src/stm32h7xx_hal_flash_ex.c ****   *
1416:Drivers/STM32H7xx_HAL_Driver/Src/stm32h7xx_hal_flash_ex.c ****   * @note   To validate the user option bytes, the option bytes must be reloaded
1417:Drivers/STM32H7xx_HAL_Driver/Src/stm32h7xx_hal_flash_ex.c ****   *         through the call of the HAL_FLASH_OB_Launch() function.
1418:Drivers/STM32H7xx_HAL_Driver/Src/stm32h7xx_hal_flash_ex.c ****   *
1419:Drivers/STM32H7xx_HAL_Driver/Src/stm32h7xx_hal_flash_ex.c ****   * @param  UserType The FLASH User Option Bytes to be modified :
1420:Drivers/STM32H7xx_HAL_Driver/Src/stm32h7xx_hal_flash_ex.c ****   *                   a combination of @arg FLASHEx_OB_USER_Type
1421:Drivers/STM32H7xx_HAL_Driver/Src/stm32h7xx_hal_flash_ex.c ****   *
1422:Drivers/STM32H7xx_HAL_Driver/Src/stm32h7xx_hal_flash_ex.c ****   * @param  UserConfig The FLASH User Option Bytes values:
1423:Drivers/STM32H7xx_HAL_Driver/Src/stm32h7xx_hal_flash_ex.c ****   *         IWDG_SW(Bit4), nRST_STOP_D1(Bit 6), nRST_STDY_D1(Bit 7),
1424:Drivers/STM32H7xx_HAL_Driver/Src/stm32h7xx_hal_flash_ex.c ****   *         FZ_IWDG_STOP(Bit 17), FZ_IWDG_SDBY(Bit 18), ST_RAM_SIZE(Bit[19:20]),
1425:Drivers/STM32H7xx_HAL_Driver/Src/stm32h7xx_hal_flash_ex.c ****   *         SECURITY(Bit 21), IO_HSLV (Bit 29) and SWAP_BANK_OPT(Bit 31).
1426:Drivers/STM32H7xx_HAL_Driver/Src/stm32h7xx_hal_flash_ex.c ****   *
1427:Drivers/STM32H7xx_HAL_Driver/Src/stm32h7xx_hal_flash_ex.c ****   * @retval HAL status
1428:Drivers/STM32H7xx_HAL_Driver/Src/stm32h7xx_hal_flash_ex.c ****   */
1429:Drivers/STM32H7xx_HAL_Driver/Src/stm32h7xx_hal_flash_ex.c **** #endif /*DUAL_CORE*/
1430:Drivers/STM32H7xx_HAL_Driver/Src/stm32h7xx_hal_flash_ex.c **** static void FLASH_OB_UserConfig(uint32_t UserType, uint32_t UserConfig)
1431:Drivers/STM32H7xx_HAL_Driver/Src/stm32h7xx_hal_flash_ex.c **** {
 2104              		.loc 1 1431 1
ARM GAS  /var/folders/g1/j12m_ky910s3_sv7d4yrsdn00000gn/T//ccpiSNf7.s 			page 63


 2105              		.cfi_startproc
 2106              		@ args = 0, pretend = 0, frame = 16
 2107              		@ frame_needed = 1, uses_anonymous_args = 0
 2108              		@ link register save eliminated.
 2109 0000 80B4     		push	{r7}
 2110              	.LCFI83:
 2111              		.cfi_def_cfa_offset 4
 2112              		.cfi_offset 7, -4
 2113 0002 85B0     		sub	sp, sp, #20
 2114              	.LCFI84:
 2115              		.cfi_def_cfa_offset 24
 2116 0004 00AF     		add	r7, sp, #0
 2117              	.LCFI85:
 2118              		.cfi_def_cfa_register 7
 2119 0006 7860     		str	r0, [r7, #4]
 2120 0008 3960     		str	r1, [r7]
1432:Drivers/STM32H7xx_HAL_Driver/Src/stm32h7xx_hal_flash_ex.c ****   uint32_t optr_reg_val = 0;
 2121              		.loc 1 1432 12
 2122 000a 0023     		movs	r3, #0
 2123 000c FB60     		str	r3, [r7, #12]
1433:Drivers/STM32H7xx_HAL_Driver/Src/stm32h7xx_hal_flash_ex.c ****   uint32_t optr_reg_mask = 0;
 2124              		.loc 1 1433 12
 2125 000e 0023     		movs	r3, #0
 2126 0010 BB60     		str	r3, [r7, #8]
1434:Drivers/STM32H7xx_HAL_Driver/Src/stm32h7xx_hal_flash_ex.c **** 
1435:Drivers/STM32H7xx_HAL_Driver/Src/stm32h7xx_hal_flash_ex.c ****   /* Check the parameters */
1436:Drivers/STM32H7xx_HAL_Driver/Src/stm32h7xx_hal_flash_ex.c ****   assert_param(IS_OB_USER_TYPE(UserType));
1437:Drivers/STM32H7xx_HAL_Driver/Src/stm32h7xx_hal_flash_ex.c **** 
1438:Drivers/STM32H7xx_HAL_Driver/Src/stm32h7xx_hal_flash_ex.c ****   if((UserType & OB_USER_IWDG1_SW) != 0U)
 2127              		.loc 1 1438 16
 2128 0012 7B68     		ldr	r3, [r7, #4]
 2129 0014 03F00103 		and	r3, r3, #1
 2130              		.loc 1 1438 5
 2131 0018 002B     		cmp	r3, #0
 2132 001a 09D0     		beq	.L130
1439:Drivers/STM32H7xx_HAL_Driver/Src/stm32h7xx_hal_flash_ex.c ****   {
1440:Drivers/STM32H7xx_HAL_Driver/Src/stm32h7xx_hal_flash_ex.c ****     /* IWDG_HW option byte should be modified */
1441:Drivers/STM32H7xx_HAL_Driver/Src/stm32h7xx_hal_flash_ex.c ****     assert_param(IS_OB_IWDG1_SOURCE(UserConfig & FLASH_OPTSR_IWDG1_SW));
1442:Drivers/STM32H7xx_HAL_Driver/Src/stm32h7xx_hal_flash_ex.c **** 
1443:Drivers/STM32H7xx_HAL_Driver/Src/stm32h7xx_hal_flash_ex.c ****     /* Set value and mask for IWDG_HW option byte */
1444:Drivers/STM32H7xx_HAL_Driver/Src/stm32h7xx_hal_flash_ex.c ****     optr_reg_val |= (UserConfig & FLASH_OPTSR_IWDG1_SW);
 2133              		.loc 1 1444 33
 2134 001c 3B68     		ldr	r3, [r7]
 2135 001e 03F01003 		and	r3, r3, #16
 2136              		.loc 1 1444 18
 2137 0022 FA68     		ldr	r2, [r7, #12]
 2138 0024 1343     		orrs	r3, r3, r2
 2139 0026 FB60     		str	r3, [r7, #12]
1445:Drivers/STM32H7xx_HAL_Driver/Src/stm32h7xx_hal_flash_ex.c ****     optr_reg_mask |= FLASH_OPTSR_IWDG1_SW;
 2140              		.loc 1 1445 19
 2141 0028 BB68     		ldr	r3, [r7, #8]
 2142 002a 43F01003 		orr	r3, r3, #16
 2143 002e BB60     		str	r3, [r7, #8]
 2144              	.L130:
1446:Drivers/STM32H7xx_HAL_Driver/Src/stm32h7xx_hal_flash_ex.c ****   }
1447:Drivers/STM32H7xx_HAL_Driver/Src/stm32h7xx_hal_flash_ex.c **** #if defined(DUAL_CORE)
1448:Drivers/STM32H7xx_HAL_Driver/Src/stm32h7xx_hal_flash_ex.c ****   if((UserType & OB_USER_IWDG2_SW) != 0U)
ARM GAS  /var/folders/g1/j12m_ky910s3_sv7d4yrsdn00000gn/T//ccpiSNf7.s 			page 64


1449:Drivers/STM32H7xx_HAL_Driver/Src/stm32h7xx_hal_flash_ex.c ****   {
1450:Drivers/STM32H7xx_HAL_Driver/Src/stm32h7xx_hal_flash_ex.c ****     /* IWDG2_SW option byte should be modified */
1451:Drivers/STM32H7xx_HAL_Driver/Src/stm32h7xx_hal_flash_ex.c ****     assert_param(IS_OB_IWDG2_SOURCE(UserConfig & FLASH_OPTSR_IWDG2_SW));
1452:Drivers/STM32H7xx_HAL_Driver/Src/stm32h7xx_hal_flash_ex.c **** 
1453:Drivers/STM32H7xx_HAL_Driver/Src/stm32h7xx_hal_flash_ex.c ****     /* Set value and mask for IWDG2_SW option byte */
1454:Drivers/STM32H7xx_HAL_Driver/Src/stm32h7xx_hal_flash_ex.c ****     optr_reg_val |= (UserConfig & FLASH_OPTSR_IWDG2_SW);
1455:Drivers/STM32H7xx_HAL_Driver/Src/stm32h7xx_hal_flash_ex.c ****     optr_reg_mask |= FLASH_OPTSR_IWDG2_SW;
1456:Drivers/STM32H7xx_HAL_Driver/Src/stm32h7xx_hal_flash_ex.c ****   }
1457:Drivers/STM32H7xx_HAL_Driver/Src/stm32h7xx_hal_flash_ex.c **** #endif /*DUAL_CORE*/
1458:Drivers/STM32H7xx_HAL_Driver/Src/stm32h7xx_hal_flash_ex.c ****   if((UserType & OB_USER_NRST_STOP_D1) != 0U)
 2145              		.loc 1 1458 16
 2146 0030 7B68     		ldr	r3, [r7, #4]
 2147 0032 03F00203 		and	r3, r3, #2
 2148              		.loc 1 1458 5
 2149 0036 002B     		cmp	r3, #0
 2150 0038 09D0     		beq	.L131
1459:Drivers/STM32H7xx_HAL_Driver/Src/stm32h7xx_hal_flash_ex.c ****   {
1460:Drivers/STM32H7xx_HAL_Driver/Src/stm32h7xx_hal_flash_ex.c ****     /* NRST_STOP option byte should be modified */
1461:Drivers/STM32H7xx_HAL_Driver/Src/stm32h7xx_hal_flash_ex.c ****     assert_param(IS_OB_STOP_D1_RESET(UserConfig & FLASH_OPTSR_NRST_STOP_D1));
1462:Drivers/STM32H7xx_HAL_Driver/Src/stm32h7xx_hal_flash_ex.c **** 
1463:Drivers/STM32H7xx_HAL_Driver/Src/stm32h7xx_hal_flash_ex.c ****     /* Set value and mask for NRST_STOP option byte */
1464:Drivers/STM32H7xx_HAL_Driver/Src/stm32h7xx_hal_flash_ex.c ****     optr_reg_val |= (UserConfig & FLASH_OPTSR_NRST_STOP_D1);
 2151              		.loc 1 1464 33
 2152 003a 3B68     		ldr	r3, [r7]
 2153 003c 03F04003 		and	r3, r3, #64
 2154              		.loc 1 1464 18
 2155 0040 FA68     		ldr	r2, [r7, #12]
 2156 0042 1343     		orrs	r3, r3, r2
 2157 0044 FB60     		str	r3, [r7, #12]
1465:Drivers/STM32H7xx_HAL_Driver/Src/stm32h7xx_hal_flash_ex.c ****     optr_reg_mask |= FLASH_OPTSR_NRST_STOP_D1;
 2158              		.loc 1 1465 19
 2159 0046 BB68     		ldr	r3, [r7, #8]
 2160 0048 43F04003 		orr	r3, r3, #64
 2161 004c BB60     		str	r3, [r7, #8]
 2162              	.L131:
1466:Drivers/STM32H7xx_HAL_Driver/Src/stm32h7xx_hal_flash_ex.c ****   }
1467:Drivers/STM32H7xx_HAL_Driver/Src/stm32h7xx_hal_flash_ex.c **** 
1468:Drivers/STM32H7xx_HAL_Driver/Src/stm32h7xx_hal_flash_ex.c ****   if((UserType & OB_USER_NRST_STDBY_D1) != 0U)
 2163              		.loc 1 1468 16
 2164 004e 7B68     		ldr	r3, [r7, #4]
 2165 0050 03F00403 		and	r3, r3, #4
 2166              		.loc 1 1468 5
 2167 0054 002B     		cmp	r3, #0
 2168 0056 09D0     		beq	.L132
1469:Drivers/STM32H7xx_HAL_Driver/Src/stm32h7xx_hal_flash_ex.c ****   {
1470:Drivers/STM32H7xx_HAL_Driver/Src/stm32h7xx_hal_flash_ex.c ****     /* NRST_STDBY option byte should be modified */
1471:Drivers/STM32H7xx_HAL_Driver/Src/stm32h7xx_hal_flash_ex.c ****     assert_param(IS_OB_STDBY_D1_RESET(UserConfig & FLASH_OPTSR_NRST_STBY_D1));
1472:Drivers/STM32H7xx_HAL_Driver/Src/stm32h7xx_hal_flash_ex.c **** 
1473:Drivers/STM32H7xx_HAL_Driver/Src/stm32h7xx_hal_flash_ex.c ****     /* Set value and mask for NRST_STDBY option byte */
1474:Drivers/STM32H7xx_HAL_Driver/Src/stm32h7xx_hal_flash_ex.c ****     optr_reg_val |= (UserConfig & FLASH_OPTSR_NRST_STBY_D1);
 2169              		.loc 1 1474 33
 2170 0058 3B68     		ldr	r3, [r7]
 2171 005a 03F08003 		and	r3, r3, #128
 2172              		.loc 1 1474 18
 2173 005e FA68     		ldr	r2, [r7, #12]
 2174 0060 1343     		orrs	r3, r3, r2
 2175 0062 FB60     		str	r3, [r7, #12]
ARM GAS  /var/folders/g1/j12m_ky910s3_sv7d4yrsdn00000gn/T//ccpiSNf7.s 			page 65


1475:Drivers/STM32H7xx_HAL_Driver/Src/stm32h7xx_hal_flash_ex.c ****     optr_reg_mask |= FLASH_OPTSR_NRST_STBY_D1;
 2176              		.loc 1 1475 19
 2177 0064 BB68     		ldr	r3, [r7, #8]
 2178 0066 43F08003 		orr	r3, r3, #128
 2179 006a BB60     		str	r3, [r7, #8]
 2180              	.L132:
1476:Drivers/STM32H7xx_HAL_Driver/Src/stm32h7xx_hal_flash_ex.c ****   }
1477:Drivers/STM32H7xx_HAL_Driver/Src/stm32h7xx_hal_flash_ex.c **** 
1478:Drivers/STM32H7xx_HAL_Driver/Src/stm32h7xx_hal_flash_ex.c ****   if((UserType & OB_USER_IWDG_STOP) != 0U)
 2181              		.loc 1 1478 16
 2182 006c 7B68     		ldr	r3, [r7, #4]
 2183 006e 03F00803 		and	r3, r3, #8
 2184              		.loc 1 1478 5
 2185 0072 002B     		cmp	r3, #0
 2186 0074 09D0     		beq	.L133
1479:Drivers/STM32H7xx_HAL_Driver/Src/stm32h7xx_hal_flash_ex.c ****   {
1480:Drivers/STM32H7xx_HAL_Driver/Src/stm32h7xx_hal_flash_ex.c ****     /* IWDG_STOP option byte should be modified */
1481:Drivers/STM32H7xx_HAL_Driver/Src/stm32h7xx_hal_flash_ex.c ****     assert_param(IS_OB_USER_IWDG_STOP(UserConfig & FLASH_OPTSR_FZ_IWDG_STOP));
1482:Drivers/STM32H7xx_HAL_Driver/Src/stm32h7xx_hal_flash_ex.c **** 
1483:Drivers/STM32H7xx_HAL_Driver/Src/stm32h7xx_hal_flash_ex.c ****     /* Set value and mask for IWDG_STOP option byte */
1484:Drivers/STM32H7xx_HAL_Driver/Src/stm32h7xx_hal_flash_ex.c ****     optr_reg_val |= (UserConfig & FLASH_OPTSR_FZ_IWDG_STOP);
 2187              		.loc 1 1484 33
 2188 0076 3B68     		ldr	r3, [r7]
 2189 0078 03F40033 		and	r3, r3, #131072
 2190              		.loc 1 1484 18
 2191 007c FA68     		ldr	r2, [r7, #12]
 2192 007e 1343     		orrs	r3, r3, r2
 2193 0080 FB60     		str	r3, [r7, #12]
1485:Drivers/STM32H7xx_HAL_Driver/Src/stm32h7xx_hal_flash_ex.c ****     optr_reg_mask |= FLASH_OPTSR_FZ_IWDG_STOP;
 2194              		.loc 1 1485 19
 2195 0082 BB68     		ldr	r3, [r7, #8]
 2196 0084 43F40033 		orr	r3, r3, #131072
 2197 0088 BB60     		str	r3, [r7, #8]
 2198              	.L133:
1486:Drivers/STM32H7xx_HAL_Driver/Src/stm32h7xx_hal_flash_ex.c ****   }
1487:Drivers/STM32H7xx_HAL_Driver/Src/stm32h7xx_hal_flash_ex.c **** 
1488:Drivers/STM32H7xx_HAL_Driver/Src/stm32h7xx_hal_flash_ex.c ****   if((UserType & OB_USER_IWDG_STDBY) != 0U)
 2199              		.loc 1 1488 16
 2200 008a 7B68     		ldr	r3, [r7, #4]
 2201 008c 03F01003 		and	r3, r3, #16
 2202              		.loc 1 1488 5
 2203 0090 002B     		cmp	r3, #0
 2204 0092 09D0     		beq	.L134
1489:Drivers/STM32H7xx_HAL_Driver/Src/stm32h7xx_hal_flash_ex.c ****   {
1490:Drivers/STM32H7xx_HAL_Driver/Src/stm32h7xx_hal_flash_ex.c ****     /* IWDG_STDBY option byte should be modified */
1491:Drivers/STM32H7xx_HAL_Driver/Src/stm32h7xx_hal_flash_ex.c ****     assert_param(IS_OB_USER_IWDG_STDBY(UserConfig & FLASH_OPTSR_FZ_IWDG_SDBY));
1492:Drivers/STM32H7xx_HAL_Driver/Src/stm32h7xx_hal_flash_ex.c **** 
1493:Drivers/STM32H7xx_HAL_Driver/Src/stm32h7xx_hal_flash_ex.c ****     /* Set value and mask for IWDG_STDBY option byte */
1494:Drivers/STM32H7xx_HAL_Driver/Src/stm32h7xx_hal_flash_ex.c ****     optr_reg_val |= (UserConfig & FLASH_OPTSR_FZ_IWDG_SDBY);
 2205              		.loc 1 1494 33
 2206 0094 3B68     		ldr	r3, [r7]
 2207 0096 03F48023 		and	r3, r3, #262144
 2208              		.loc 1 1494 18
 2209 009a FA68     		ldr	r2, [r7, #12]
 2210 009c 1343     		orrs	r3, r3, r2
 2211 009e FB60     		str	r3, [r7, #12]
1495:Drivers/STM32H7xx_HAL_Driver/Src/stm32h7xx_hal_flash_ex.c ****     optr_reg_mask |= FLASH_OPTSR_FZ_IWDG_SDBY;
ARM GAS  /var/folders/g1/j12m_ky910s3_sv7d4yrsdn00000gn/T//ccpiSNf7.s 			page 66


 2212              		.loc 1 1495 19
 2213 00a0 BB68     		ldr	r3, [r7, #8]
 2214 00a2 43F48023 		orr	r3, r3, #262144
 2215 00a6 BB60     		str	r3, [r7, #8]
 2216              	.L134:
1496:Drivers/STM32H7xx_HAL_Driver/Src/stm32h7xx_hal_flash_ex.c ****   }
1497:Drivers/STM32H7xx_HAL_Driver/Src/stm32h7xx_hal_flash_ex.c **** 
1498:Drivers/STM32H7xx_HAL_Driver/Src/stm32h7xx_hal_flash_ex.c ****   if((UserType & OB_USER_ST_RAM_SIZE) != 0U)
 2217              		.loc 1 1498 16
 2218 00a8 7B68     		ldr	r3, [r7, #4]
 2219 00aa 03F02003 		and	r3, r3, #32
 2220              		.loc 1 1498 5
 2221 00ae 002B     		cmp	r3, #0
 2222 00b0 09D0     		beq	.L135
1499:Drivers/STM32H7xx_HAL_Driver/Src/stm32h7xx_hal_flash_ex.c ****   {
1500:Drivers/STM32H7xx_HAL_Driver/Src/stm32h7xx_hal_flash_ex.c ****     /* ST_RAM_SIZE option byte should be modified */
1501:Drivers/STM32H7xx_HAL_Driver/Src/stm32h7xx_hal_flash_ex.c ****     assert_param(IS_OB_USER_ST_RAM_SIZE(UserConfig & FLASH_OPTSR_ST_RAM_SIZE));
1502:Drivers/STM32H7xx_HAL_Driver/Src/stm32h7xx_hal_flash_ex.c **** 
1503:Drivers/STM32H7xx_HAL_Driver/Src/stm32h7xx_hal_flash_ex.c ****     /* Set value and mask for ST_RAM_SIZE option byte */
1504:Drivers/STM32H7xx_HAL_Driver/Src/stm32h7xx_hal_flash_ex.c ****     optr_reg_val |= (UserConfig & FLASH_OPTSR_ST_RAM_SIZE);
 2223              		.loc 1 1504 33
 2224 00b2 3B68     		ldr	r3, [r7]
 2225 00b4 03F4C013 		and	r3, r3, #1572864
 2226              		.loc 1 1504 18
 2227 00b8 FA68     		ldr	r2, [r7, #12]
 2228 00ba 1343     		orrs	r3, r3, r2
 2229 00bc FB60     		str	r3, [r7, #12]
1505:Drivers/STM32H7xx_HAL_Driver/Src/stm32h7xx_hal_flash_ex.c ****     optr_reg_mask |= FLASH_OPTSR_ST_RAM_SIZE;
 2230              		.loc 1 1505 19
 2231 00be BB68     		ldr	r3, [r7, #8]
 2232 00c0 43F4C013 		orr	r3, r3, #1572864
 2233 00c4 BB60     		str	r3, [r7, #8]
 2234              	.L135:
1506:Drivers/STM32H7xx_HAL_Driver/Src/stm32h7xx_hal_flash_ex.c ****   }
1507:Drivers/STM32H7xx_HAL_Driver/Src/stm32h7xx_hal_flash_ex.c **** 
1508:Drivers/STM32H7xx_HAL_Driver/Src/stm32h7xx_hal_flash_ex.c ****   if((UserType & OB_USER_SECURITY) != 0U)
 2235              		.loc 1 1508 16
 2236 00c6 7B68     		ldr	r3, [r7, #4]
 2237 00c8 03F04003 		and	r3, r3, #64
 2238              		.loc 1 1508 5
 2239 00cc 002B     		cmp	r3, #0
 2240 00ce 09D0     		beq	.L136
1509:Drivers/STM32H7xx_HAL_Driver/Src/stm32h7xx_hal_flash_ex.c ****   {
1510:Drivers/STM32H7xx_HAL_Driver/Src/stm32h7xx_hal_flash_ex.c ****     /* SECURITY option byte should be modified */
1511:Drivers/STM32H7xx_HAL_Driver/Src/stm32h7xx_hal_flash_ex.c ****     assert_param(IS_OB_USER_SECURITY(UserConfig & FLASH_OPTSR_SECURITY));
1512:Drivers/STM32H7xx_HAL_Driver/Src/stm32h7xx_hal_flash_ex.c **** 
1513:Drivers/STM32H7xx_HAL_Driver/Src/stm32h7xx_hal_flash_ex.c ****     /* Set value and mask for SECURITY option byte */
1514:Drivers/STM32H7xx_HAL_Driver/Src/stm32h7xx_hal_flash_ex.c ****     optr_reg_val |= (UserConfig & FLASH_OPTSR_SECURITY);
 2241              		.loc 1 1514 33
 2242 00d0 3B68     		ldr	r3, [r7]
 2243 00d2 03F40013 		and	r3, r3, #2097152
 2244              		.loc 1 1514 18
 2245 00d6 FA68     		ldr	r2, [r7, #12]
 2246 00d8 1343     		orrs	r3, r3, r2
 2247 00da FB60     		str	r3, [r7, #12]
1515:Drivers/STM32H7xx_HAL_Driver/Src/stm32h7xx_hal_flash_ex.c ****     optr_reg_mask |= FLASH_OPTSR_SECURITY;
 2248              		.loc 1 1515 19
ARM GAS  /var/folders/g1/j12m_ky910s3_sv7d4yrsdn00000gn/T//ccpiSNf7.s 			page 67


 2249 00dc BB68     		ldr	r3, [r7, #8]
 2250 00de 43F40013 		orr	r3, r3, #2097152
 2251 00e2 BB60     		str	r3, [r7, #8]
 2252              	.L136:
1516:Drivers/STM32H7xx_HAL_Driver/Src/stm32h7xx_hal_flash_ex.c ****   }
1517:Drivers/STM32H7xx_HAL_Driver/Src/stm32h7xx_hal_flash_ex.c **** 
1518:Drivers/STM32H7xx_HAL_Driver/Src/stm32h7xx_hal_flash_ex.c **** #if defined(DUAL_CORE)
1519:Drivers/STM32H7xx_HAL_Driver/Src/stm32h7xx_hal_flash_ex.c ****   if((UserType & OB_USER_BCM4) != 0U)
1520:Drivers/STM32H7xx_HAL_Driver/Src/stm32h7xx_hal_flash_ex.c ****   {
1521:Drivers/STM32H7xx_HAL_Driver/Src/stm32h7xx_hal_flash_ex.c ****     /* BCM4 option byte should be modified */
1522:Drivers/STM32H7xx_HAL_Driver/Src/stm32h7xx_hal_flash_ex.c ****     assert_param(IS_OB_USER_BCM4(UserConfig & FLASH_OPTSR_BCM4));
1523:Drivers/STM32H7xx_HAL_Driver/Src/stm32h7xx_hal_flash_ex.c **** 
1524:Drivers/STM32H7xx_HAL_Driver/Src/stm32h7xx_hal_flash_ex.c ****     /* Set value and mask for BCM4 option byte */
1525:Drivers/STM32H7xx_HAL_Driver/Src/stm32h7xx_hal_flash_ex.c ****     optr_reg_val |= (UserConfig & FLASH_OPTSR_BCM4);
1526:Drivers/STM32H7xx_HAL_Driver/Src/stm32h7xx_hal_flash_ex.c ****     optr_reg_mask |= FLASH_OPTSR_BCM4;
1527:Drivers/STM32H7xx_HAL_Driver/Src/stm32h7xx_hal_flash_ex.c ****   }
1528:Drivers/STM32H7xx_HAL_Driver/Src/stm32h7xx_hal_flash_ex.c **** 
1529:Drivers/STM32H7xx_HAL_Driver/Src/stm32h7xx_hal_flash_ex.c ****   if((UserType & OB_USER_BCM7) != 0U)
1530:Drivers/STM32H7xx_HAL_Driver/Src/stm32h7xx_hal_flash_ex.c ****   {
1531:Drivers/STM32H7xx_HAL_Driver/Src/stm32h7xx_hal_flash_ex.c ****     /* BCM7 option byte should be modified */
1532:Drivers/STM32H7xx_HAL_Driver/Src/stm32h7xx_hal_flash_ex.c ****     assert_param(IS_OB_USER_BCM7(UserConfig & FLASH_OPTSR_BCM7));
1533:Drivers/STM32H7xx_HAL_Driver/Src/stm32h7xx_hal_flash_ex.c **** 
1534:Drivers/STM32H7xx_HAL_Driver/Src/stm32h7xx_hal_flash_ex.c ****     /* Set value and mask for BCM7 option byte */
1535:Drivers/STM32H7xx_HAL_Driver/Src/stm32h7xx_hal_flash_ex.c ****     optr_reg_val |= (UserConfig & FLASH_OPTSR_BCM7);
1536:Drivers/STM32H7xx_HAL_Driver/Src/stm32h7xx_hal_flash_ex.c ****     optr_reg_mask |= FLASH_OPTSR_BCM7;
1537:Drivers/STM32H7xx_HAL_Driver/Src/stm32h7xx_hal_flash_ex.c ****   }
1538:Drivers/STM32H7xx_HAL_Driver/Src/stm32h7xx_hal_flash_ex.c **** #endif /* DUAL_CORE */
1539:Drivers/STM32H7xx_HAL_Driver/Src/stm32h7xx_hal_flash_ex.c **** 
1540:Drivers/STM32H7xx_HAL_Driver/Src/stm32h7xx_hal_flash_ex.c **** #if defined (FLASH_OPTSR_NRST_STOP_D2)
1541:Drivers/STM32H7xx_HAL_Driver/Src/stm32h7xx_hal_flash_ex.c ****   if((UserType & OB_USER_NRST_STOP_D2) != 0U)
1542:Drivers/STM32H7xx_HAL_Driver/Src/stm32h7xx_hal_flash_ex.c ****   {
1543:Drivers/STM32H7xx_HAL_Driver/Src/stm32h7xx_hal_flash_ex.c ****     /* NRST_STOP option byte should be modified */
1544:Drivers/STM32H7xx_HAL_Driver/Src/stm32h7xx_hal_flash_ex.c ****     assert_param(IS_OB_STOP_D2_RESET(UserConfig & FLASH_OPTSR_NRST_STOP_D2));
1545:Drivers/STM32H7xx_HAL_Driver/Src/stm32h7xx_hal_flash_ex.c **** 
1546:Drivers/STM32H7xx_HAL_Driver/Src/stm32h7xx_hal_flash_ex.c ****     /* Set value and mask for NRST_STOP option byte */
1547:Drivers/STM32H7xx_HAL_Driver/Src/stm32h7xx_hal_flash_ex.c ****     optr_reg_val |= (UserConfig & FLASH_OPTSR_NRST_STOP_D2);
1548:Drivers/STM32H7xx_HAL_Driver/Src/stm32h7xx_hal_flash_ex.c ****     optr_reg_mask |= FLASH_OPTSR_NRST_STOP_D2;
1549:Drivers/STM32H7xx_HAL_Driver/Src/stm32h7xx_hal_flash_ex.c ****   }
1550:Drivers/STM32H7xx_HAL_Driver/Src/stm32h7xx_hal_flash_ex.c **** 
1551:Drivers/STM32H7xx_HAL_Driver/Src/stm32h7xx_hal_flash_ex.c ****   if((UserType & OB_USER_NRST_STDBY_D2) != 0U)
1552:Drivers/STM32H7xx_HAL_Driver/Src/stm32h7xx_hal_flash_ex.c ****   {
1553:Drivers/STM32H7xx_HAL_Driver/Src/stm32h7xx_hal_flash_ex.c ****     /* NRST_STDBY option byte should be modified */
1554:Drivers/STM32H7xx_HAL_Driver/Src/stm32h7xx_hal_flash_ex.c ****     assert_param(IS_OB_STDBY_D2_RESET(UserConfig & FLASH_OPTSR_NRST_STBY_D2));
1555:Drivers/STM32H7xx_HAL_Driver/Src/stm32h7xx_hal_flash_ex.c **** 
1556:Drivers/STM32H7xx_HAL_Driver/Src/stm32h7xx_hal_flash_ex.c ****     /* Set value and mask for NRST_STDBY option byte */
1557:Drivers/STM32H7xx_HAL_Driver/Src/stm32h7xx_hal_flash_ex.c ****     optr_reg_val |= (UserConfig & FLASH_OPTSR_NRST_STBY_D2);
1558:Drivers/STM32H7xx_HAL_Driver/Src/stm32h7xx_hal_flash_ex.c ****     optr_reg_mask |= FLASH_OPTSR_NRST_STBY_D2;
1559:Drivers/STM32H7xx_HAL_Driver/Src/stm32h7xx_hal_flash_ex.c ****   }
1560:Drivers/STM32H7xx_HAL_Driver/Src/stm32h7xx_hal_flash_ex.c **** #endif /* FLASH_OPTSR_NRST_STOP_D2 */
1561:Drivers/STM32H7xx_HAL_Driver/Src/stm32h7xx_hal_flash_ex.c **** 
1562:Drivers/STM32H7xx_HAL_Driver/Src/stm32h7xx_hal_flash_ex.c **** #if defined (DUAL_BANK)
1563:Drivers/STM32H7xx_HAL_Driver/Src/stm32h7xx_hal_flash_ex.c ****   if((UserType & OB_USER_SWAP_BANK) != 0U)
 2253              		.loc 1 1563 16
 2254 00e4 7B68     		ldr	r3, [r7, #4]
 2255 00e6 03F48073 		and	r3, r3, #256
 2256              		.loc 1 1563 5
 2257 00ea 002B     		cmp	r3, #0
ARM GAS  /var/folders/g1/j12m_ky910s3_sv7d4yrsdn00000gn/T//ccpiSNf7.s 			page 68


 2258 00ec 09D0     		beq	.L137
1564:Drivers/STM32H7xx_HAL_Driver/Src/stm32h7xx_hal_flash_ex.c ****   {
1565:Drivers/STM32H7xx_HAL_Driver/Src/stm32h7xx_hal_flash_ex.c ****     /* SWAP_BANK_OPT option byte should be modified */
1566:Drivers/STM32H7xx_HAL_Driver/Src/stm32h7xx_hal_flash_ex.c ****     assert_param(IS_OB_USER_SWAP_BANK(UserConfig & FLASH_OPTSR_SWAP_BANK_OPT));
1567:Drivers/STM32H7xx_HAL_Driver/Src/stm32h7xx_hal_flash_ex.c **** 
1568:Drivers/STM32H7xx_HAL_Driver/Src/stm32h7xx_hal_flash_ex.c ****     /* Set value and mask for SWAP_BANK_OPT option byte */
1569:Drivers/STM32H7xx_HAL_Driver/Src/stm32h7xx_hal_flash_ex.c ****     optr_reg_val |= (UserConfig & FLASH_OPTSR_SWAP_BANK_OPT);
 2259              		.loc 1 1569 33
 2260 00ee 3B68     		ldr	r3, [r7]
 2261 00f0 03F00043 		and	r3, r3, #-2147483648
 2262              		.loc 1 1569 18
 2263 00f4 FA68     		ldr	r2, [r7, #12]
 2264 00f6 1343     		orrs	r3, r3, r2
 2265 00f8 FB60     		str	r3, [r7, #12]
1570:Drivers/STM32H7xx_HAL_Driver/Src/stm32h7xx_hal_flash_ex.c ****     optr_reg_mask |= FLASH_OPTSR_SWAP_BANK_OPT;
 2266              		.loc 1 1570 19
 2267 00fa BB68     		ldr	r3, [r7, #8]
 2268 00fc 43F00043 		orr	r3, r3, #-2147483648
 2269 0100 BB60     		str	r3, [r7, #8]
 2270              	.L137:
1571:Drivers/STM32H7xx_HAL_Driver/Src/stm32h7xx_hal_flash_ex.c ****   }
1572:Drivers/STM32H7xx_HAL_Driver/Src/stm32h7xx_hal_flash_ex.c **** #endif /* DUAL_BANK */
1573:Drivers/STM32H7xx_HAL_Driver/Src/stm32h7xx_hal_flash_ex.c **** 
1574:Drivers/STM32H7xx_HAL_Driver/Src/stm32h7xx_hal_flash_ex.c ****   if((UserType & OB_USER_IOHSLV) != 0U)
 2271              		.loc 1 1574 16
 2272 0102 7B68     		ldr	r3, [r7, #4]
 2273 0104 03F08003 		and	r3, r3, #128
 2274              		.loc 1 1574 5
 2275 0108 002B     		cmp	r3, #0
 2276 010a 09D0     		beq	.L138
1575:Drivers/STM32H7xx_HAL_Driver/Src/stm32h7xx_hal_flash_ex.c ****   {
1576:Drivers/STM32H7xx_HAL_Driver/Src/stm32h7xx_hal_flash_ex.c ****     /* IOHSLV_OPT option byte should be modified */
1577:Drivers/STM32H7xx_HAL_Driver/Src/stm32h7xx_hal_flash_ex.c ****     assert_param(IS_OB_USER_IOHSLV(UserConfig & FLASH_OPTSR_IO_HSLV));
1578:Drivers/STM32H7xx_HAL_Driver/Src/stm32h7xx_hal_flash_ex.c **** 
1579:Drivers/STM32H7xx_HAL_Driver/Src/stm32h7xx_hal_flash_ex.c ****     /* Set value and mask for IOHSLV_OPT option byte */
1580:Drivers/STM32H7xx_HAL_Driver/Src/stm32h7xx_hal_flash_ex.c ****     optr_reg_val |= (UserConfig & FLASH_OPTSR_IO_HSLV);
 2277              		.loc 1 1580 33
 2278 010c 3B68     		ldr	r3, [r7]
 2279 010e 03F00053 		and	r3, r3, #536870912
 2280              		.loc 1 1580 18
 2281 0112 FA68     		ldr	r2, [r7, #12]
 2282 0114 1343     		orrs	r3, r3, r2
 2283 0116 FB60     		str	r3, [r7, #12]
1581:Drivers/STM32H7xx_HAL_Driver/Src/stm32h7xx_hal_flash_ex.c ****     optr_reg_mask |= FLASH_OPTSR_IO_HSLV;
 2284              		.loc 1 1581 19
 2285 0118 BB68     		ldr	r3, [r7, #8]
 2286 011a 43F00053 		orr	r3, r3, #536870912
 2287 011e BB60     		str	r3, [r7, #8]
 2288              	.L138:
1582:Drivers/STM32H7xx_HAL_Driver/Src/stm32h7xx_hal_flash_ex.c ****   }
1583:Drivers/STM32H7xx_HAL_Driver/Src/stm32h7xx_hal_flash_ex.c **** 
1584:Drivers/STM32H7xx_HAL_Driver/Src/stm32h7xx_hal_flash_ex.c **** #if defined (FLASH_OPTSR_VDDMMC_HSLV)
1585:Drivers/STM32H7xx_HAL_Driver/Src/stm32h7xx_hal_flash_ex.c ****   if((UserType & OB_USER_VDDMMC_HSLV) != 0U)
1586:Drivers/STM32H7xx_HAL_Driver/Src/stm32h7xx_hal_flash_ex.c ****   {
